	.text
	.syntax unified
	.eabi_attribute	67, "2.09"	@ Tag_conformance
	.eabi_attribute	6, 16	@ Tag_CPU_arch
	.eabi_attribute	7, 77	@ Tag_CPU_arch_profile
	.eabi_attribute	8, 0	@ Tag_ARM_ISA_use
	.eabi_attribute	9, 3	@ Tag_THUMB_ISA_use
	.eabi_attribute	34, 0	@ Tag_CPU_unaligned_access
	.eabi_attribute	17, 1	@ Tag_ABI_PCS_GOT_use
	.eabi_attribute	20, 2	@ Tag_ABI_FP_denormal
	.eabi_attribute	21, 0	@ Tag_ABI_FP_exceptions
	.eabi_attribute	23, 1	@ Tag_ABI_FP_number_model
	.eabi_attribute	24, 1	@ Tag_ABI_align_needed
	.eabi_attribute	25, 1	@ Tag_ABI_align_preserved
	.eabi_attribute	38, 1	@ Tag_ABI_FP_16bit_format
	.eabi_attribute	18, 4	@ Tag_ABI_PCS_wchar_t
	.eabi_attribute	26, 2	@ Tag_ABI_enum_size
	.eabi_attribute	14, 0	@ Tag_ABI_PCS_R9_use
	.file	"AbortDelay.c"
	.file	1 "C:\\Keil_v5\\ARM\\ARMCLANG\\Bin\\..\\include" "stdint.h"
	.file	2 "C:\\Users\\karahulx\\Downloads\\Kernel\\FreeRTOS\\FreeRTOS\\Demo\\CORTEX_MPU_M23_Nuvoton_NuMaker_PFM_M2351_IAR_GCC\\Projects_NTZ\\Keil" "../../../../Source/portable/GCC/ARM_CM23_NTZ/non_secure/portmacrocommon.h"
	.file	3 "C:\\Users\\karahulx\\Downloads\\Kernel\\FreeRTOS\\FreeRTOS\\Demo\\CORTEX_MPU_M23_Nuvoton_NuMaker_PFM_M2351_IAR_GCC\\Projects_NTZ\\Keil" "../../../CORTEX_MPU_M3_NUCLEO_L152RE_GCC/Demo/AbortDelay.c"
	.file	4 "C:\\Users\\karahulx\\Downloads\\Kernel\\FreeRTOS\\FreeRTOS\\Demo\\CORTEX_MPU_M23_Nuvoton_NuMaker_PFM_M2351_IAR_GCC\\Projects_NTZ\\Keil" "../../../../Source/include\\FreeRTOS.h"
	.file	5 "C:\\Users\\karahulx\\Downloads\\Kernel\\FreeRTOS\\FreeRTOS\\Demo\\CORTEX_MPU_M23_Nuvoton_NuMaker_PFM_M2351_IAR_GCC\\Projects_NTZ\\Keil" "../../../../Source/include/task.h"
	.file	6 "C:\\Users\\karahulx\\Downloads\\Kernel\\FreeRTOS\\FreeRTOS\\Demo\\CORTEX_MPU_M23_Nuvoton_NuMaker_PFM_M2351_IAR_GCC\\Projects_NTZ\\Keil" "../../../../Source/include/queue.h"
	.file	7 "C:\\Users\\karahulx\\Downloads\\Kernel\\FreeRTOS\\FreeRTOS\\Demo\\CORTEX_MPU_M23_Nuvoton_NuMaker_PFM_M2351_IAR_GCC\\Projects_NTZ\\Keil" "../../../../Source/include\\event_groups.h"
	.file	8 "C:\\Keil_v5\\ARM\\ARMCLANG\\Bin\\..\\include" "stddef.h"
	.section	.text.vCreateAbortDelayTasks,"ax",%progbits
	.hidden	vCreateAbortDelayTasks          @ -- Begin function vCreateAbortDelayTasks
	.globl	vCreateAbortDelayTasks
	.p2align	1
	.type	vCreateAbortDelayTasks,%function
	.code	16                              @ @vCreateAbortDelayTasks
	.thumb_func
vCreateAbortDelayTasks:
.Lfunc_begin0:
	.loc	3 143 0                         @ ../../../CORTEX_MPU_M3_NUCLEO_L152RE_GCC/Demo/AbortDelay.c:143:0
	.fnstart
	.cfi_sections .debug_frame
	.cfi_startproc
@ %bb.0:
	.save	{r4, r5, r6, r7, lr}
	push	{r4, r5, r6, r7, lr}
	.cfi_def_cfa_offset 20
	.cfi_offset lr, -4
	.cfi_offset r7, -8
	.cfi_offset r6, -12
	.cfi_offset r5, -16
	.cfi_offset r4, -20
	.pad	#140
	sub	sp, #140
	.cfi_def_cfa_offset 160
.Ltmp0:
	.loc	3 150 9 prologue_end            @ ../../../CORTEX_MPU_M3_NUCLEO_L152RE_GCC/Demo/AbortDelay.c:150:9
	movw	r0, :lower16:prvControllingTask
	movt	r0, :upper16:prvControllingTask
	str	r0, [sp, #76]
	.loc	3 152 32                        @ ../../../CORTEX_MPU_M3_NUCLEO_L152RE_GCC/Demo/AbortDelay.c:152:32
	movw	r0, :lower16:pcControllingTaskName
	movt	r0, :upper16:pcControllingTaskName
	ldr	r0, [r0]
	.loc	3 150 9                         @ ../../../CORTEX_MPU_M3_NUCLEO_L152RE_GCC/Demo/AbortDelay.c:150:9
	str	r0, [sp, #80]
	add	r0, sp, #76
	movs	r3, #128
	strh	r3, [r0, #8]
	movs	r1, #0
	str	r1, [sp, #4]                    @ 4-byte Spill
	str	r1, [sp, #88]
	movw	r2, #2
	movt	r2, #32768
	str	r2, [sp, #92]
	movw	r2, :lower16:vCreateAbortDelayTasks.xControllingTaskStack
	movt	r2, :upper16:vCreateAbortDelayTasks.xControllingTaskStack
	str	r2, [sp, #96]
	mov	r2, r0
	adds	r2, #24
	.loc	3 158 35                        @ ../../../CORTEX_MPU_M3_NUCLEO_L152RE_GCC/Demo/AbortDelay.c:158:35
	movw	r4, :lower16:.Lconstinit
	movt	r4, :upper16:.Lconstinit
	ldm	r4!, {r5, r6, r7}
	stm	r2!, {r5, r6, r7}
	ldm	r4!, {r5, r6, r7}
	stm	r2!, {r5, r6, r7}
	ldm	r4!, {r5, r6, r7}
	stm	r2!, {r5, r6, r7}
	.loc	3 150 9                         @ ../../../CORTEX_MPU_M3_NUCLEO_L152RE_GCC/Demo/AbortDelay.c:150:9
	str	r1, [sp, #136]
	.loc	3 171 9                         @ ../../../CORTEX_MPU_M3_NUCLEO_L152RE_GCC/Demo/AbortDelay.c:171:9
	movw	r2, :lower16:prvBlockingTask
	movt	r2, :upper16:prvBlockingTask
	str	r2, [sp, #12]
	.loc	3 173 32                        @ ../../../CORTEX_MPU_M3_NUCLEO_L152RE_GCC/Demo/AbortDelay.c:173:32
	movw	r2, :lower16:pcBlockingTaskName
	movt	r2, :upper16:pcBlockingTaskName
	ldr	r2, [r2]
	.loc	3 171 9                         @ ../../../CORTEX_MPU_M3_NUCLEO_L152RE_GCC/Demo/AbortDelay.c:171:9
	str	r2, [sp, #16]
	add	r2, sp, #12
	str	r2, [sp, #8]                    @ 4-byte Spill
	strh	r3, [r2, #8]
	str	r1, [sp, #24]
	movw	r3, #3
	movt	r3, #32768
	str	r3, [sp, #28]
	movw	r3, :lower16:vCreateAbortDelayTasks.xBlockingTaskStack
	movt	r3, :upper16:vCreateAbortDelayTasks.xBlockingTaskStack
	str	r3, [sp, #32]
	adds	r2, #24
	.loc	3 179 35                        @ ../../../CORTEX_MPU_M3_NUCLEO_L152RE_GCC/Demo/AbortDelay.c:179:35
	movw	r3, :lower16:.Lconstinit.1
	movt	r3, :upper16:.Lconstinit.1
	ldm	r3!, {r4, r5, r6}
	stm	r2!, {r4, r5, r6}
	ldm	r3!, {r4, r5, r6}
	stm	r2!, {r4, r5, r6}
	ldm	r3!, {r4, r5, r6}
	stm	r2!, {r4, r5, r6}
	.loc	3 171 9                         @ ../../../CORTEX_MPU_M3_NUCLEO_L152RE_GCC/Demo/AbortDelay.c:171:9
	str	r1, [sp, #72]
	.loc	3 192 9                         @ ../../../CORTEX_MPU_M3_NUCLEO_L152RE_GCC/Demo/AbortDelay.c:192:9
	bl	xTaskCreateRestricted
	ldr	r1, [sp, #4]                    @ 4-byte Reload
                                        @ kill: def $r2 killed $r0
	.loc	3 193 9                         @ ../../../CORTEX_MPU_M3_NUCLEO_L152RE_GCC/Demo/AbortDelay.c:193:9
	ldr	r0, [sp, #8]                    @ 4-byte Reload
	bl	xTaskCreateRestricted
	.loc	3 195 5                         @ ../../../CORTEX_MPU_M3_NUCLEO_L152RE_GCC/Demo/AbortDelay.c:195:5
	add	sp, #140
	pop	{r4, r5, r6, r7, pc}
.Ltmp1:
.Lfunc_end0:
	.size	vCreateAbortDelayTasks, .Lfunc_end0-vCreateAbortDelayTasks
	.cfi_endproc
	.cantunwind
	.fnend
                                        @ -- End function
	.section	.text.prvControllingTask,"ax",%progbits
	.p2align	1                               @ -- Begin function prvControllingTask
	.type	prvControllingTask,%function
	.code	16                              @ @prvControllingTask
	.thumb_func
prvControllingTask:
.Lfunc_begin1:
	.loc	3 199 0                         @ ../../../CORTEX_MPU_M3_NUCLEO_L152RE_GCC/Demo/AbortDelay.c:199:0
	.fnstart
	.cfi_startproc
@ %bb.0:
	.save	{r7, lr}
	push	{r7, lr}
	.cfi_def_cfa_offset 8
	.cfi_offset lr, -4
	.cfi_offset r7, -8
	.pad	#40
	sub	sp, #40
	.cfi_def_cfa_offset 48
	str	r0, [sp, #36]
	movs	r0, #0
.Ltmp2:
	.loc	3 201 18 prologue_end           @ ../../../CORTEX_MPU_M3_NUCLEO_L152RE_GCC/Demo/AbortDelay.c:201:18
	str	r0, [sp, #28]
	movs	r0, #2
	.loc	3 203 26                        @ ../../../CORTEX_MPU_M3_NUCLEO_L152RE_GCC/Demo/AbortDelay.c:203:26
	str	r0, [sp, #20]
	.loc	3 208 41                        @ ../../../CORTEX_MPU_M3_NUCLEO_L152RE_GCC/Demo/AbortDelay.c:208:41
	movw	r0, :lower16:pcBlockingTaskName
	movt	r0, :upper16:pcBlockingTaskName
	ldr	r0, [r0]
	.loc	3 208 25 is_stmt 0              @ ../../../CORTEX_MPU_M3_NUCLEO_L152RE_GCC/Demo/AbortDelay.c:208:25
	bl	MPU_xTaskGetHandle
	.loc	3 208 23                        @ ../../../CORTEX_MPU_M3_NUCLEO_L152RE_GCC/Demo/AbortDelay.c:208:23
	str	r0, [sp, #32]
.Ltmp3:
	.loc	3 209 9 is_stmt 1               @ ../../../CORTEX_MPU_M3_NUCLEO_L152RE_GCC/Demo/AbortDelay.c:209:9
	ldr	r0, [sp, #32]
.Ltmp4:
	.loc	3 209 9 is_stmt 0               @ ../../../CORTEX_MPU_M3_NUCLEO_L152RE_GCC/Demo/AbortDelay.c:209:9
	cbnz	r0, .LBB1_3
	b	.LBB1_1
.LBB1_1:
.Ltmp5:
	.loc	3 209 9                         @ ../../../CORTEX_MPU_M3_NUCLEO_L152RE_GCC/Demo/AbortDelay.c:209:9
	@APP
	cpsid i
	@NO_APP
	b	.LBB1_2
.LBB1_2:                                @ =>This Inner Loop Header: Depth=1
.Ltmp6:
	.loc	3 209 9                         @ ../../../CORTEX_MPU_M3_NUCLEO_L152RE_GCC/Demo/AbortDelay.c:209:9
	b	.LBB1_2
.Ltmp7:
.LBB1_3:
	.loc	3 211 9 is_stmt 1               @ ../../../CORTEX_MPU_M3_NUCLEO_L152RE_GCC/Demo/AbortDelay.c:211:9
	b	.LBB1_4
.LBB1_4:                                @ =>This Inner Loop Header: Depth=1
.Ltmp8:
	.loc	3 214 28                        @ ../../../CORTEX_MPU_M3_NUCLEO_L152RE_GCC/Demo/AbortDelay.c:214:28
	bl	MPU_xTaskGetTickCount
	.loc	3 214 26 is_stmt 0              @ ../../../CORTEX_MPU_M3_NUCLEO_L152RE_GCC/Demo/AbortDelay.c:214:26
	str	r0, [sp, #24]
	.loc	3 215 13 is_stmt 1              @ ../../../CORTEX_MPU_M3_NUCLEO_L152RE_GCC/Demo/AbortDelay.c:215:13
	ldr	r0, [sp, #32]
	ldr	r2, [sp, #28]
	movs	r1, #0
	str	r1, [sp, #16]                   @ 4-byte Spill
	str	r1, [sp]
	movs	r3, #3
	str	r3, [sp, #12]                   @ 4-byte Spill
	bl	MPU_xTaskGenericNotify
	ldr	r1, [sp, #12]                   @ 4-byte Reload
                                        @ kill: def $r2 killed $r0
	.loc	3 228 13                        @ ../../../CORTEX_MPU_M3_NUCLEO_L152RE_GCC/Demo/AbortDelay.c:228:13
	ldr	r0, [sp, #16]                   @ 4-byte Reload
	bl	MPU_vTaskPrioritySet
	movs	r0, #17
	.loc	3 229 13                        @ ../../../CORTEX_MPU_M3_NUCLEO_L152RE_GCC/Demo/AbortDelay.c:229:13
	bl	MPU_vTaskDelay
.Ltmp9:
	.loc	3 231 34                        @ ../../../CORTEX_MPU_M3_NUCLEO_L152RE_GCC/Demo/AbortDelay.c:231:34
	ldr	r0, [sp, #32]
	.loc	3 231 17 is_stmt 0              @ ../../../CORTEX_MPU_M3_NUCLEO_L152RE_GCC/Demo/AbortDelay.c:231:17
	bl	MPU_xTaskAbortDelay
.Ltmp10:
	.loc	3 231 17                        @ ../../../CORTEX_MPU_M3_NUCLEO_L152RE_GCC/Demo/AbortDelay.c:231:17
	cmp	r0, #1
	beq	.LBB1_6
	b	.LBB1_5
.LBB1_5:                                @   in Loop: Header=BB1_4 Depth=1
.Ltmp11:
	.loc	3 233 37 is_stmt 1              @ ../../../CORTEX_MPU_M3_NUCLEO_L152RE_GCC/Demo/AbortDelay.c:233:37
	movw	r1, :lower16:xErrorOccurred
	movt	r1, :upper16:xErrorOccurred
	movs	r0, #1
	str	r0, [r1]
	.loc	3 234 13                        @ ../../../CORTEX_MPU_M3_NUCLEO_L152RE_GCC/Demo/AbortDelay.c:234:13
	b	.LBB1_6
.Ltmp12:
.LBB1_6:                                @   in Loop: Header=BB1_4 Depth=1
	.loc	3 0 13 is_stmt 0                @ ../../../CORTEX_MPU_M3_NUCLEO_L152RE_GCC/Demo/AbortDelay.c:0:13
	movs	r0, #0
	str	r0, [sp, #8]                    @ 4-byte Spill
	movs	r1, #2
	.loc	3 237 13 is_stmt 1              @ ../../../CORTEX_MPU_M3_NUCLEO_L152RE_GCC/Demo/AbortDelay.c:237:13
	bl	MPU_vTaskPrioritySet
	ldr	r0, [sp, #8]                    @ 4-byte Reload
	mvns	r2, r0
	movs	r1, #1
	.loc	3 241 13                        @ ../../../CORTEX_MPU_M3_NUCLEO_L152RE_GCC/Demo/AbortDelay.c:241:13
	bl	MPU_ulTaskGenericNotifyTake
	.loc	3 246 61                        @ ../../../CORTEX_MPU_M3_NUCLEO_L152RE_GCC/Demo/AbortDelay.c:246:61
	ldr	r0, [sp, #24]
	movs	r1, #25
	.loc	3 246 13 is_stmt 0              @ ../../../CORTEX_MPU_M3_NUCLEO_L152RE_GCC/Demo/AbortDelay.c:246:13
	bl	prvCheckExpectedTimeIsWithinAnAcceptableMargin
	.loc	3 249 28 is_stmt 1              @ ../../../CORTEX_MPU_M3_NUCLEO_L152RE_GCC/Demo/AbortDelay.c:249:28
	ldr	r0, [sp, #28]
	adds	r0, r0, #1
	str	r0, [sp, #28]
.Ltmp13:
	.loc	3 251 17                        @ ../../../CORTEX_MPU_M3_NUCLEO_L152RE_GCC/Demo/AbortDelay.c:251:17
	ldr	r0, [sp, #28]
.Ltmp14:
	.loc	3 251 17 is_stmt 0              @ ../../../CORTEX_MPU_M3_NUCLEO_L152RE_GCC/Demo/AbortDelay.c:251:17
	cmp	r0, #8
	blo	.LBB1_8
	b	.LBB1_7
.LBB1_7:                                @   in Loop: Header=BB1_4 Depth=1
	.loc	3 0 17                          @ ../../../CORTEX_MPU_M3_NUCLEO_L152RE_GCC/Demo/AbortDelay.c:0:17
	movs	r0, #0
.Ltmp15:
	.loc	3 253 33 is_stmt 1              @ ../../../CORTEX_MPU_M3_NUCLEO_L152RE_GCC/Demo/AbortDelay.c:253:33
	str	r0, [sp, #28]
	.loc	3 254 13                        @ ../../../CORTEX_MPU_M3_NUCLEO_L152RE_GCC/Demo/AbortDelay.c:254:13
	b	.LBB1_8
.Ltmp16:
.LBB1_8:                                @   in Loop: Header=BB1_4 Depth=1
	.loc	3 257 36                        @ ../../../CORTEX_MPU_M3_NUCLEO_L152RE_GCC/Demo/AbortDelay.c:257:36
	movw	r1, :lower16:xControllingCycles
	movt	r1, :upper16:xControllingCycles
	ldr	r0, [r1]
	adds	r0, r0, #1
	str	r0, [r1]
.Ltmp17:
	.loc	3 211 9                         @ ../../../CORTEX_MPU_M3_NUCLEO_L152RE_GCC/Demo/AbortDelay.c:211:9
	b	.LBB1_4
.Ltmp18:
.Lfunc_end1:
	.size	prvControllingTask, .Lfunc_end1-prvControllingTask
	.cfi_endproc
	.cantunwind
	.fnend
                                        @ -- End function
	.section	.text.prvBlockingTask,"ax",%progbits
	.p2align	2                               @ -- Begin function prvBlockingTask
	.type	prvBlockingTask,%function
	.code	16                              @ @prvBlockingTask
	.thumb_func
prvBlockingTask:
.Lfunc_begin2:
	.loc	3 263 0                         @ ../../../CORTEX_MPU_M3_NUCLEO_L152RE_GCC/Demo/AbortDelay.c:263:0
	.fnstart
	.cfi_startproc
@ %bb.0:
	.save	{r7, lr}
	push	{r7, lr}
	.cfi_def_cfa_offset 8
	.cfi_offset lr, -4
	.cfi_offset r7, -8
	.pad	#24
	sub	sp, #24
	.cfi_def_cfa_offset 32
	str	r0, [sp, #20]
	movs	r0, #0
	mvns	r0, r0
.Ltmp19:
	.loc	3 266 24 prologue_end           @ ../../../CORTEX_MPU_M3_NUCLEO_L152RE_GCC/Demo/AbortDelay.c:266:24
	str	r0, [sp, #8]
	.loc	3 273 9                         @ ../../../CORTEX_MPU_M3_NUCLEO_L152RE_GCC/Demo/AbortDelay.c:273:9
	bl	prvPerformSingleTaskTests
	.loc	3 275 44                        @ ../../../CORTEX_MPU_M3_NUCLEO_L152RE_GCC/Demo/AbortDelay.c:275:44
	movw	r0, :lower16:pcControllingTaskName
	movt	r0, :upper16:pcControllingTaskName
	ldr	r0, [r0]
	.loc	3 275 28 is_stmt 0              @ ../../../CORTEX_MPU_M3_NUCLEO_L152RE_GCC/Demo/AbortDelay.c:275:28
	bl	MPU_xTaskGetHandle
	.loc	3 275 26                        @ ../../../CORTEX_MPU_M3_NUCLEO_L152RE_GCC/Demo/AbortDelay.c:275:26
	str	r0, [sp, #16]
.Ltmp20:
	.loc	3 276 9 is_stmt 1               @ ../../../CORTEX_MPU_M3_NUCLEO_L152RE_GCC/Demo/AbortDelay.c:276:9
	ldr	r0, [sp, #16]
.Ltmp21:
	.loc	3 276 9 is_stmt 0               @ ../../../CORTEX_MPU_M3_NUCLEO_L152RE_GCC/Demo/AbortDelay.c:276:9
	cbnz	r0, .LBB2_3
	b	.LBB2_1
.LBB2_1:
.Ltmp22:
	.loc	3 276 9                         @ ../../../CORTEX_MPU_M3_NUCLEO_L152RE_GCC/Demo/AbortDelay.c:276:9
	@APP
	cpsid i
	@NO_APP
	b	.LBB2_2
.LBB2_2:                                @ =>This Inner Loop Header: Depth=1
.Ltmp23:
	.loc	3 276 9                         @ ../../../CORTEX_MPU_M3_NUCLEO_L152RE_GCC/Demo/AbortDelay.c:276:9
	b	.LBB2_2
.Ltmp24:
.LBB2_3:
	.loc	3 278 9 is_stmt 1               @ ../../../CORTEX_MPU_M3_NUCLEO_L152RE_GCC/Demo/AbortDelay.c:278:9
	b	.LBB2_4
.LBB2_4:                                @ =>This Inner Loop Header: Depth=1
	.loc	3 0 9 is_stmt 0                 @ ../../../CORTEX_MPU_M3_NUCLEO_L152RE_GCC/Demo/AbortDelay.c:0:9
	movs	r1, #0
	mvns	r2, r1
.Ltmp25:
	.loc	3 281 13 is_stmt 1              @ ../../../CORTEX_MPU_M3_NUCLEO_L152RE_GCC/Demo/AbortDelay.c:281:13
	str	r2, [sp]
	add	r3, sp, #12
	mov	r0, r1
	bl	MPU_xTaskGenericNotifyWait
	.loc	3 283 21                        @ ../../../CORTEX_MPU_M3_NUCLEO_L152RE_GCC/Demo/AbortDelay.c:283:21
	ldr	r0, [sp, #12]
	.loc	3 283 13 is_stmt 0              @ ../../../CORTEX_MPU_M3_NUCLEO_L152RE_GCC/Demo/AbortDelay.c:283:13
	str	r0, [sp, #4]                    @ 4-byte Spill
	cmp	r0, #7
	bhi	.LBB2_15
@ %bb.5:                                @   in Loop: Header=BB2_4 Depth=1
	.loc	3 0 13                          @ ../../../CORTEX_MPU_M3_NUCLEO_L152RE_GCC/Demo/AbortDelay.c:0:13
	ldr	r1, [sp, #4]                    @ 4-byte Reload
	lsls	r2, r1, #2
	adr	r0, .LJTI2_0
	adds	r0, r0, r2
	mov	pc, r0
@ %bb.6:
	.p2align	2
.LJTI2_0:
	b.w	.LBB2_7
	b.w	.LBB2_8
	b.w	.LBB2_9
	b.w	.LBB2_10
	b.w	.LBB2_11
	b.w	.LBB2_12
	b.w	.LBB2_13
	b.w	.LBB2_14
.LBB2_7:                                @   in Loop: Header=BB2_4 Depth=1
.Ltmp26:
	.loc	3 286 21 is_stmt 1              @ ../../../CORTEX_MPU_M3_NUCLEO_L152RE_GCC/Demo/AbortDelay.c:286:21
	bl	prvTestAbortingTaskNotifyWait
	.loc	3 287 21                        @ ../../../CORTEX_MPU_M3_NUCLEO_L152RE_GCC/Demo/AbortDelay.c:287:21
	b	.LBB2_16
.LBB2_8:                                @   in Loop: Header=BB2_4 Depth=1
	.loc	3 290 21                        @ ../../../CORTEX_MPU_M3_NUCLEO_L152RE_GCC/Demo/AbortDelay.c:290:21
	bl	prvTestAbortingTaskNotifyTake
	.loc	3 291 21                        @ ../../../CORTEX_MPU_M3_NUCLEO_L152RE_GCC/Demo/AbortDelay.c:291:21
	b	.LBB2_16
.LBB2_9:                                @   in Loop: Header=BB2_4 Depth=1
	.loc	3 294 21                        @ ../../../CORTEX_MPU_M3_NUCLEO_L152RE_GCC/Demo/AbortDelay.c:294:21
	bl	prvTestAbortingTaskDelay
	.loc	3 295 21                        @ ../../../CORTEX_MPU_M3_NUCLEO_L152RE_GCC/Demo/AbortDelay.c:295:21
	b	.LBB2_16
.LBB2_10:                               @   in Loop: Header=BB2_4 Depth=1
	.loc	3 298 21                        @ ../../../CORTEX_MPU_M3_NUCLEO_L152RE_GCC/Demo/AbortDelay.c:298:21
	bl	prvTestAbortingTaskDelayUntil
	.loc	3 299 21                        @ ../../../CORTEX_MPU_M3_NUCLEO_L152RE_GCC/Demo/AbortDelay.c:299:21
	b	.LBB2_16
.LBB2_11:                               @   in Loop: Header=BB2_4 Depth=1
	.loc	3 302 21                        @ ../../../CORTEX_MPU_M3_NUCLEO_L152RE_GCC/Demo/AbortDelay.c:302:21
	bl	prvTestAbortingSemaphoreTake
	.loc	3 303 21                        @ ../../../CORTEX_MPU_M3_NUCLEO_L152RE_GCC/Demo/AbortDelay.c:303:21
	b	.LBB2_16
.LBB2_12:                               @   in Loop: Header=BB2_4 Depth=1
	.loc	3 306 21                        @ ../../../CORTEX_MPU_M3_NUCLEO_L152RE_GCC/Demo/AbortDelay.c:306:21
	bl	prvTestAbortingEventGroupWait
	.loc	3 307 21                        @ ../../../CORTEX_MPU_M3_NUCLEO_L152RE_GCC/Demo/AbortDelay.c:307:21
	b	.LBB2_16
.LBB2_13:                               @   in Loop: Header=BB2_4 Depth=1
	.loc	3 310 21                        @ ../../../CORTEX_MPU_M3_NUCLEO_L152RE_GCC/Demo/AbortDelay.c:310:21
	bl	prvTestAbortingQueueSend
	.loc	3 311 21                        @ ../../../CORTEX_MPU_M3_NUCLEO_L152RE_GCC/Demo/AbortDelay.c:311:21
	b	.LBB2_16
.LBB2_14:                               @   in Loop: Header=BB2_4 Depth=1
	.loc	3 314 21                        @ ../../../CORTEX_MPU_M3_NUCLEO_L152RE_GCC/Demo/AbortDelay.c:314:21
	bl	prvTestAbortingStreamBufferReceive
	.loc	3 315 21                        @ ../../../CORTEX_MPU_M3_NUCLEO_L152RE_GCC/Demo/AbortDelay.c:315:21
	b	.LBB2_16
.LBB2_15:                               @   in Loop: Header=BB2_4 Depth=1
	.loc	3 319 21                        @ ../../../CORTEX_MPU_M3_NUCLEO_L152RE_GCC/Demo/AbortDelay.c:319:21
	b	.LBB2_16
.Ltmp27:
.LBB2_16:                               @   in Loop: Header=BB2_4 Depth=1
	.loc	3 323 13                        @ ../../../CORTEX_MPU_M3_NUCLEO_L152RE_GCC/Demo/AbortDelay.c:323:13
	ldr	r0, [sp, #16]
	movs	r2, #0
	str	r2, [sp]
	movs	r3, #2
	mov	r1, r2
	bl	MPU_xTaskGenericNotify
	.loc	3 326 33                        @ ../../../CORTEX_MPU_M3_NUCLEO_L152RE_GCC/Demo/AbortDelay.c:326:33
	movw	r1, :lower16:xBlockingCycles
	movt	r1, :upper16:xBlockingCycles
	ldr	r0, [r1]
	adds	r0, r0, #1
	str	r0, [r1]
.Ltmp28:
	.loc	3 278 9                         @ ../../../CORTEX_MPU_M3_NUCLEO_L152RE_GCC/Demo/AbortDelay.c:278:9
	b	.LBB2_4
.Ltmp29:
.Lfunc_end2:
	.size	prvBlockingTask, .Lfunc_end2-prvBlockingTask
	.cfi_endproc
	.cantunwind
	.fnend
                                        @ -- End function
	.section	.text.xAreAbortDelayTestTasksStillRunning,"ax",%progbits
	.hidden	xAreAbortDelayTestTasksStillRunning @ -- Begin function xAreAbortDelayTestTasksStillRunning
	.globl	xAreAbortDelayTestTasksStillRunning
	.p2align	1
	.type	xAreAbortDelayTestTasksStillRunning,%function
	.code	16                              @ @xAreAbortDelayTestTasksStillRunning
	.thumb_func
xAreAbortDelayTestTasksStillRunning:
.Lfunc_begin3:
	.loc	3 825 0                         @ ../../../CORTEX_MPU_M3_NUCLEO_L152RE_GCC/Demo/AbortDelay.c:825:0
	.fnstart
	.cfi_startproc
@ %bb.0:
	.pad	#4
	sub	sp, #4
	.cfi_def_cfa_offset 4
	movs	r0, #1
.Ltmp30:
	.loc	3 827 20 prologue_end           @ ../../../CORTEX_MPU_M3_NUCLEO_L152RE_GCC/Demo/AbortDelay.c:827:20
	str	r0, [sp]
.Ltmp31:
	.loc	3 831 13                        @ ../../../CORTEX_MPU_M3_NUCLEO_L152RE_GCC/Demo/AbortDelay.c:831:13
	movw	r0, :lower16:xControllingCycles
	movt	r0, :upper16:xControllingCycles
	ldr	r0, [r0]
	.loc	3 831 40 is_stmt 0              @ ../../../CORTEX_MPU_M3_NUCLEO_L152RE_GCC/Demo/AbortDelay.c:831:40
	movw	r1, :lower16:xAreAbortDelayTestTasksStillRunning.xLastControllingCycleCount
	movt	r1, :upper16:xAreAbortDelayTestTasksStillRunning.xLastControllingCycleCount
	ldr	r1, [r1]
.Ltmp32:
	.loc	3 831 13                        @ ../../../CORTEX_MPU_M3_NUCLEO_L152RE_GCC/Demo/AbortDelay.c:831:13
	cmp	r0, r1
	bne	.LBB3_2
	b	.LBB3_1
.LBB3_1:
	.loc	3 0 13                          @ ../../../CORTEX_MPU_M3_NUCLEO_L152RE_GCC/Demo/AbortDelay.c:0:13
	movs	r0, #0
.Ltmp33:
	.loc	3 833 21 is_stmt 1              @ ../../../CORTEX_MPU_M3_NUCLEO_L152RE_GCC/Demo/AbortDelay.c:833:21
	str	r0, [sp]
	.loc	3 834 9                         @ ../../../CORTEX_MPU_M3_NUCLEO_L152RE_GCC/Demo/AbortDelay.c:834:9
	b	.LBB3_2
.Ltmp34:
.LBB3_2:
	.loc	3 836 13                        @ ../../../CORTEX_MPU_M3_NUCLEO_L152RE_GCC/Demo/AbortDelay.c:836:13
	movw	r0, :lower16:xBlockingCycles
	movt	r0, :upper16:xBlockingCycles
	ldr	r0, [r0]
	.loc	3 836 37 is_stmt 0              @ ../../../CORTEX_MPU_M3_NUCLEO_L152RE_GCC/Demo/AbortDelay.c:836:37
	movw	r1, :lower16:xAreAbortDelayTestTasksStillRunning.xLastBlockingCycleCount
	movt	r1, :upper16:xAreAbortDelayTestTasksStillRunning.xLastBlockingCycleCount
	ldr	r1, [r1]
.Ltmp35:
	.loc	3 836 13                        @ ../../../CORTEX_MPU_M3_NUCLEO_L152RE_GCC/Demo/AbortDelay.c:836:13
	cmp	r0, r1
	bne	.LBB3_4
	b	.LBB3_3
.LBB3_3:
	.loc	3 0 13                          @ ../../../CORTEX_MPU_M3_NUCLEO_L152RE_GCC/Demo/AbortDelay.c:0:13
	movs	r0, #0
.Ltmp36:
	.loc	3 838 21 is_stmt 1              @ ../../../CORTEX_MPU_M3_NUCLEO_L152RE_GCC/Demo/AbortDelay.c:838:21
	str	r0, [sp]
	.loc	3 839 9                         @ ../../../CORTEX_MPU_M3_NUCLEO_L152RE_GCC/Demo/AbortDelay.c:839:9
	b	.LBB3_4
.Ltmp37:
.LBB3_4:
	.loc	3 841 13                        @ ../../../CORTEX_MPU_M3_NUCLEO_L152RE_GCC/Demo/AbortDelay.c:841:13
	movw	r0, :lower16:xErrorOccurred
	movt	r0, :upper16:xErrorOccurred
	ldr	r0, [r0]
.Ltmp38:
	.loc	3 841 13 is_stmt 0              @ ../../../CORTEX_MPU_M3_NUCLEO_L152RE_GCC/Demo/AbortDelay.c:841:13
	cmp	r0, #1
	bne	.LBB3_6
	b	.LBB3_5
.LBB3_5:
	.loc	3 0 13                          @ ../../../CORTEX_MPU_M3_NUCLEO_L152RE_GCC/Demo/AbortDelay.c:0:13
	movs	r0, #0
.Ltmp39:
	.loc	3 843 21 is_stmt 1              @ ../../../CORTEX_MPU_M3_NUCLEO_L152RE_GCC/Demo/AbortDelay.c:843:21
	str	r0, [sp]
	.loc	3 844 9                         @ ../../../CORTEX_MPU_M3_NUCLEO_L152RE_GCC/Demo/AbortDelay.c:844:9
	b	.LBB3_6
.Ltmp40:
.LBB3_6:
	.loc	3 846 35                        @ ../../../CORTEX_MPU_M3_NUCLEO_L152RE_GCC/Demo/AbortDelay.c:846:35
	movw	r0, :lower16:xBlockingCycles
	movt	r0, :upper16:xBlockingCycles
	ldr	r0, [r0]
	.loc	3 846 33 is_stmt 0              @ ../../../CORTEX_MPU_M3_NUCLEO_L152RE_GCC/Demo/AbortDelay.c:846:33
	movw	r1, :lower16:xAreAbortDelayTestTasksStillRunning.xLastBlockingCycleCount
	movt	r1, :upper16:xAreAbortDelayTestTasksStillRunning.xLastBlockingCycleCount
	str	r0, [r1]
	.loc	3 847 38 is_stmt 1              @ ../../../CORTEX_MPU_M3_NUCLEO_L152RE_GCC/Demo/AbortDelay.c:847:38
	movw	r0, :lower16:xControllingCycles
	movt	r0, :upper16:xControllingCycles
	ldr	r0, [r0]
	.loc	3 847 36 is_stmt 0              @ ../../../CORTEX_MPU_M3_NUCLEO_L152RE_GCC/Demo/AbortDelay.c:847:36
	movw	r1, :lower16:xAreAbortDelayTestTasksStillRunning.xLastControllingCycleCount
	movt	r1, :upper16:xAreAbortDelayTestTasksStillRunning.xLastControllingCycleCount
	str	r0, [r1]
	.loc	3 849 16 is_stmt 1              @ ../../../CORTEX_MPU_M3_NUCLEO_L152RE_GCC/Demo/AbortDelay.c:849:16
	ldr	r0, [sp]
	.loc	3 849 9 is_stmt 0               @ ../../../CORTEX_MPU_M3_NUCLEO_L152RE_GCC/Demo/AbortDelay.c:849:9
	add	sp, #4
	bx	lr
.Ltmp41:
.Lfunc_end3:
	.size	xAreAbortDelayTestTasksStillRunning, .Lfunc_end3-xAreAbortDelayTestTasksStillRunning
	.cfi_endproc
	.cantunwind
	.fnend
                                        @ -- End function
	.section	.text.prvCheckExpectedTimeIsWithinAnAcceptableMargin,"ax",%progbits
	.p2align	1                               @ -- Begin function prvCheckExpectedTimeIsWithinAnAcceptableMargin
	.type	prvCheckExpectedTimeIsWithinAnAcceptableMargin,%function
	.code	16                              @ @prvCheckExpectedTimeIsWithinAnAcceptableMargin
	.thumb_func
prvCheckExpectedTimeIsWithinAnAcceptableMargin:
.Lfunc_begin4:
	.loc	3 802 0 is_stmt 1               @ ../../../CORTEX_MPU_M3_NUCLEO_L152RE_GCC/Demo/AbortDelay.c:802:0
	.fnstart
	.cfi_startproc
@ %bb.0:
	.save	{r7, lr}
	push	{r7, lr}
	.cfi_def_cfa_offset 8
	.cfi_offset lr, -4
	.cfi_offset r7, -8
	.pad	#16
	sub	sp, #16
	.cfi_def_cfa_offset 24
	str	r0, [sp, #12]
	str	r1, [sp, #8]
.Ltmp42:
	.loc	3 805 20 prologue_end           @ ../../../CORTEX_MPU_M3_NUCLEO_L152RE_GCC/Demo/AbortDelay.c:805:20
	bl	MPU_xTaskGetTickCount
	.loc	3 805 18 is_stmt 0              @ ../../../CORTEX_MPU_M3_NUCLEO_L152RE_GCC/Demo/AbortDelay.c:805:18
	str	r0, [sp, #4]
	.loc	3 806 28 is_stmt 1              @ ../../../CORTEX_MPU_M3_NUCLEO_L152RE_GCC/Demo/AbortDelay.c:806:28
	ldr	r0, [sp, #4]
	.loc	3 806 39 is_stmt 0              @ ../../../CORTEX_MPU_M3_NUCLEO_L152RE_GCC/Demo/AbortDelay.c:806:39
	ldr	r1, [sp, #12]
	.loc	3 806 37                        @ ../../../CORTEX_MPU_M3_NUCLEO_L152RE_GCC/Demo/AbortDelay.c:806:37
	subs	r0, r0, r1
	.loc	3 806 26                        @ ../../../CORTEX_MPU_M3_NUCLEO_L152RE_GCC/Demo/AbortDelay.c:806:26
	str	r0, [sp]
.Ltmp43:
	.loc	3 809 13 is_stmt 1              @ ../../../CORTEX_MPU_M3_NUCLEO_L152RE_GCC/Demo/AbortDelay.c:809:13
	ldr	r0, [sp]
	.loc	3 809 32 is_stmt 0              @ ../../../CORTEX_MPU_M3_NUCLEO_L152RE_GCC/Demo/AbortDelay.c:809:32
	ldr	r1, [sp, #8]
.Ltmp44:
	.loc	3 809 13                        @ ../../../CORTEX_MPU_M3_NUCLEO_L152RE_GCC/Demo/AbortDelay.c:809:13
	cmp	r0, r1
	bhs	.LBB4_2
	b	.LBB4_1
.LBB4_1:
.Ltmp45:
	.loc	3 811 33 is_stmt 1              @ ../../../CORTEX_MPU_M3_NUCLEO_L152RE_GCC/Demo/AbortDelay.c:811:33
	movw	r1, :lower16:xErrorOccurred
	movt	r1, :upper16:xErrorOccurred
	movs	r0, #1
	str	r0, [r1]
	.loc	3 812 9                         @ ../../../CORTEX_MPU_M3_NUCLEO_L152RE_GCC/Demo/AbortDelay.c:812:9
	b	.LBB4_2
.Ltmp46:
.LBB4_2:
	.loc	3 817 13                        @ ../../../CORTEX_MPU_M3_NUCLEO_L152RE_GCC/Demo/AbortDelay.c:817:13
	ldr	r0, [sp]
	.loc	3 817 34 is_stmt 0              @ ../../../CORTEX_MPU_M3_NUCLEO_L152RE_GCC/Demo/AbortDelay.c:817:34
	ldr	r1, [sp, #8]
.Ltmp47:
	.loc	3 817 13                        @ ../../../CORTEX_MPU_M3_NUCLEO_L152RE_GCC/Demo/AbortDelay.c:817:13
	cmp	r0, r1
	bls	.LBB4_4
	b	.LBB4_3
.LBB4_3:
.Ltmp48:
	.loc	3 819 33 is_stmt 1              @ ../../../CORTEX_MPU_M3_NUCLEO_L152RE_GCC/Demo/AbortDelay.c:819:33
	movw	r1, :lower16:xErrorOccurred
	movt	r1, :upper16:xErrorOccurred
	movs	r0, #1
	str	r0, [r1]
	.loc	3 820 9                         @ ../../../CORTEX_MPU_M3_NUCLEO_L152RE_GCC/Demo/AbortDelay.c:820:9
	b	.LBB4_4
.Ltmp49:
.LBB4_4:
	.loc	3 821 5                         @ ../../../CORTEX_MPU_M3_NUCLEO_L152RE_GCC/Demo/AbortDelay.c:821:5
	add	sp, #16
	pop	{r7, pc}
.Ltmp50:
.Lfunc_end4:
	.size	prvCheckExpectedTimeIsWithinAnAcceptableMargin, .Lfunc_end4-prvCheckExpectedTimeIsWithinAnAcceptableMargin
	.cfi_endproc
	.cantunwind
	.fnend
                                        @ -- End function
	.section	.text.prvPerformSingleTaskTests,"ax",%progbits
	.p2align	1                               @ -- Begin function prvPerformSingleTaskTests
	.type	prvPerformSingleTaskTests,%function
	.code	16                              @ @prvPerformSingleTaskTests
	.thumb_func
prvPerformSingleTaskTests:
.Lfunc_begin5:
	.loc	3 332 0                         @ ../../../CORTEX_MPU_M3_NUCLEO_L152RE_GCC/Demo/AbortDelay.c:332:0
	.fnstart
	.cfi_startproc
@ %bb.0:
	.save	{r7, lr}
	push	{r7, lr}
	.cfi_def_cfa_offset 8
	.cfi_offset lr, -4
	.cfi_offset r7, -8
	.pad	#8
	sub	sp, #8
	.cfi_def_cfa_offset 16
.Ltmp51:
	.loc	3 338 21 prologue_end           @ ../../../CORTEX_MPU_M3_NUCLEO_L152RE_GCC/Demo/AbortDelay.c:338:21
	bl	MPU_xTaskGetCurrentTaskHandle
	.loc	3 338 19 is_stmt 0              @ ../../../CORTEX_MPU_M3_NUCLEO_L152RE_GCC/Demo/AbortDelay.c:338:19
	str	r0, [sp, #4]
	.loc	3 340 38 is_stmt 1              @ ../../../CORTEX_MPU_M3_NUCLEO_L152RE_GCC/Demo/AbortDelay.c:340:38
	ldr	r0, [sp, #4]
	.loc	3 340 21 is_stmt 0              @ ../../../CORTEX_MPU_M3_NUCLEO_L152RE_GCC/Demo/AbortDelay.c:340:21
	bl	MPU_xTaskAbortDelay
	.loc	3 340 19                        @ ../../../CORTEX_MPU_M3_NUCLEO_L152RE_GCC/Demo/AbortDelay.c:340:19
	str	r0, [sp]
.Ltmp52:
	.loc	3 342 13 is_stmt 1              @ ../../../CORTEX_MPU_M3_NUCLEO_L152RE_GCC/Demo/AbortDelay.c:342:13
	ldr	r0, [sp]
.Ltmp53:
	.loc	3 342 13 is_stmt 0              @ ../../../CORTEX_MPU_M3_NUCLEO_L152RE_GCC/Demo/AbortDelay.c:342:13
	cbz	r0, .LBB5_2
	b	.LBB5_1
.LBB5_1:
.Ltmp54:
	.loc	3 344 33 is_stmt 1              @ ../../../CORTEX_MPU_M3_NUCLEO_L152RE_GCC/Demo/AbortDelay.c:344:33
	movw	r1, :lower16:xErrorOccurred
	movt	r1, :upper16:xErrorOccurred
	movs	r0, #1
	str	r0, [r1]
	.loc	3 345 9                         @ ../../../CORTEX_MPU_M3_NUCLEO_L152RE_GCC/Demo/AbortDelay.c:345:9
	b	.LBB5_2
.Ltmp55:
.LBB5_2:
	.loc	3 346 5                         @ ../../../CORTEX_MPU_M3_NUCLEO_L152RE_GCC/Demo/AbortDelay.c:346:5
	add	sp, #8
	pop	{r7, pc}
.Ltmp56:
.Lfunc_end5:
	.size	prvPerformSingleTaskTests, .Lfunc_end5-prvPerformSingleTaskTests
	.cfi_endproc
	.cantunwind
	.fnend
                                        @ -- End function
	.section	.text.prvTestAbortingTaskNotifyWait,"ax",%progbits
	.p2align	1                               @ -- Begin function prvTestAbortingTaskNotifyWait
	.type	prvTestAbortingTaskNotifyWait,%function
	.code	16                              @ @prvTestAbortingTaskNotifyWait
	.thumb_func
prvTestAbortingTaskNotifyWait:
.Lfunc_begin6:
	.loc	3 754 0                         @ ../../../CORTEX_MPU_M3_NUCLEO_L152RE_GCC/Demo/AbortDelay.c:754:0
	.fnstart
	.cfi_startproc
@ %bb.0:
	.save	{r7, lr}
	push	{r7, lr}
	.cfi_def_cfa_offset 8
	.cfi_offset lr, -4
	.cfi_offset r7, -8
	.pad	#16
	sub	sp, #16
	.cfi_def_cfa_offset 24
.Ltmp57:
	.loc	3 759 24 prologue_end           @ ../../../CORTEX_MPU_M3_NUCLEO_L152RE_GCC/Demo/AbortDelay.c:759:24
	bl	MPU_xTaskGetTickCount
	.loc	3 759 22 is_stmt 0              @ ../../../CORTEX_MPU_M3_NUCLEO_L152RE_GCC/Demo/AbortDelay.c:759:22
	str	r0, [sp, #12]
	movs	r0, #10
	.loc	3 762 19 is_stmt 1              @ ../../../CORTEX_MPU_M3_NUCLEO_L152RE_GCC/Demo/AbortDelay.c:762:19
	str	r0, [sp]
	movs	r3, #0
	mov	r0, r3
	mov	r1, r3
	mov	r2, r3
	bl	MPU_xTaskGenericNotifyWait
	.loc	3 762 17 is_stmt 0              @ ../../../CORTEX_MPU_M3_NUCLEO_L152RE_GCC/Demo/AbortDelay.c:762:17
	str	r0, [sp, #8]
.Ltmp58:
	.loc	3 764 13 is_stmt 1              @ ../../../CORTEX_MPU_M3_NUCLEO_L152RE_GCC/Demo/AbortDelay.c:764:13
	ldr	r0, [sp, #8]
.Ltmp59:
	.loc	3 764 13 is_stmt 0              @ ../../../CORTEX_MPU_M3_NUCLEO_L152RE_GCC/Demo/AbortDelay.c:764:13
	cbz	r0, .LBB6_2
	b	.LBB6_1
.LBB6_1:
.Ltmp60:
	.loc	3 766 33 is_stmt 1              @ ../../../CORTEX_MPU_M3_NUCLEO_L152RE_GCC/Demo/AbortDelay.c:766:33
	movw	r1, :lower16:xErrorOccurred
	movt	r1, :upper16:xErrorOccurred
	movs	r0, #1
	str	r0, [r1]
	.loc	3 767 9                         @ ../../../CORTEX_MPU_M3_NUCLEO_L152RE_GCC/Demo/AbortDelay.c:767:9
	b	.LBB6_2
.Ltmp61:
.LBB6_2:
	.loc	3 769 57                        @ ../../../CORTEX_MPU_M3_NUCLEO_L152RE_GCC/Demo/AbortDelay.c:769:57
	ldr	r0, [sp, #12]
	movs	r1, #10
	.loc	3 769 9 is_stmt 0               @ ../../../CORTEX_MPU_M3_NUCLEO_L152RE_GCC/Demo/AbortDelay.c:769:9
	bl	prvCheckExpectedTimeIsWithinAnAcceptableMargin
	.loc	3 772 24 is_stmt 1              @ ../../../CORTEX_MPU_M3_NUCLEO_L152RE_GCC/Demo/AbortDelay.c:772:24
	bl	MPU_xTaskGetTickCount
	.loc	3 772 22 is_stmt 0              @ ../../../CORTEX_MPU_M3_NUCLEO_L152RE_GCC/Demo/AbortDelay.c:772:22
	str	r0, [sp, #12]
	movs	r3, #0
	mvns	r0, r3
	.loc	3 776 19 is_stmt 1              @ ../../../CORTEX_MPU_M3_NUCLEO_L152RE_GCC/Demo/AbortDelay.c:776:19
	str	r0, [sp]
	mov	r0, r3
	mov	r1, r3
	mov	r2, r3
	bl	MPU_xTaskGenericNotifyWait
	.loc	3 776 17 is_stmt 0              @ ../../../CORTEX_MPU_M3_NUCLEO_L152RE_GCC/Demo/AbortDelay.c:776:17
	str	r0, [sp, #8]
.Ltmp62:
	.loc	3 778 13 is_stmt 1              @ ../../../CORTEX_MPU_M3_NUCLEO_L152RE_GCC/Demo/AbortDelay.c:778:13
	ldr	r0, [sp, #8]
.Ltmp63:
	.loc	3 778 13 is_stmt 0              @ ../../../CORTEX_MPU_M3_NUCLEO_L152RE_GCC/Demo/AbortDelay.c:778:13
	cbz	r0, .LBB6_4
	b	.LBB6_3
.LBB6_3:
.Ltmp64:
	.loc	3 780 33 is_stmt 1              @ ../../../CORTEX_MPU_M3_NUCLEO_L152RE_GCC/Demo/AbortDelay.c:780:33
	movw	r1, :lower16:xErrorOccurred
	movt	r1, :upper16:xErrorOccurred
	movs	r0, #1
	str	r0, [r1]
	.loc	3 781 9                         @ ../../../CORTEX_MPU_M3_NUCLEO_L152RE_GCC/Demo/AbortDelay.c:781:9
	b	.LBB6_4
.Ltmp65:
.LBB6_4:
	.loc	3 783 57                        @ ../../../CORTEX_MPU_M3_NUCLEO_L152RE_GCC/Demo/AbortDelay.c:783:57
	ldr	r0, [sp, #12]
	movs	r1, #5
	.loc	3 783 9 is_stmt 0               @ ../../../CORTEX_MPU_M3_NUCLEO_L152RE_GCC/Demo/AbortDelay.c:783:9
	bl	prvCheckExpectedTimeIsWithinAnAcceptableMargin
	.loc	3 786 24 is_stmt 1              @ ../../../CORTEX_MPU_M3_NUCLEO_L152RE_GCC/Demo/AbortDelay.c:786:24
	bl	MPU_xTaskGetTickCount
	.loc	3 786 22 is_stmt 0              @ ../../../CORTEX_MPU_M3_NUCLEO_L152RE_GCC/Demo/AbortDelay.c:786:22
	str	r0, [sp, #12]
	movs	r0, #10
	.loc	3 789 19 is_stmt 1              @ ../../../CORTEX_MPU_M3_NUCLEO_L152RE_GCC/Demo/AbortDelay.c:789:19
	str	r0, [sp]
	movs	r3, #0
	mov	r0, r3
	mov	r1, r3
	mov	r2, r3
	bl	MPU_xTaskGenericNotifyWait
	.loc	3 789 17 is_stmt 0              @ ../../../CORTEX_MPU_M3_NUCLEO_L152RE_GCC/Demo/AbortDelay.c:789:17
	str	r0, [sp, #8]
.Ltmp66:
	.loc	3 791 13 is_stmt 1              @ ../../../CORTEX_MPU_M3_NUCLEO_L152RE_GCC/Demo/AbortDelay.c:791:13
	ldr	r0, [sp, #8]
.Ltmp67:
	.loc	3 791 13 is_stmt 0              @ ../../../CORTEX_MPU_M3_NUCLEO_L152RE_GCC/Demo/AbortDelay.c:791:13
	cbz	r0, .LBB6_6
	b	.LBB6_5
.LBB6_5:
.Ltmp68:
	.loc	3 793 33 is_stmt 1              @ ../../../CORTEX_MPU_M3_NUCLEO_L152RE_GCC/Demo/AbortDelay.c:793:33
	movw	r1, :lower16:xErrorOccurred
	movt	r1, :upper16:xErrorOccurred
	movs	r0, #1
	str	r0, [r1]
	.loc	3 794 9                         @ ../../../CORTEX_MPU_M3_NUCLEO_L152RE_GCC/Demo/AbortDelay.c:794:9
	b	.LBB6_6
.Ltmp69:
.LBB6_6:
	.loc	3 796 57                        @ ../../../CORTEX_MPU_M3_NUCLEO_L152RE_GCC/Demo/AbortDelay.c:796:57
	ldr	r0, [sp, #12]
	movs	r1, #10
	.loc	3 796 9 is_stmt 0               @ ../../../CORTEX_MPU_M3_NUCLEO_L152RE_GCC/Demo/AbortDelay.c:796:9
	bl	prvCheckExpectedTimeIsWithinAnAcceptableMargin
	.loc	3 797 5 is_stmt 1               @ ../../../CORTEX_MPU_M3_NUCLEO_L152RE_GCC/Demo/AbortDelay.c:797:5
	add	sp, #16
	pop	{r7, pc}
.Ltmp70:
.Lfunc_end6:
	.size	prvTestAbortingTaskNotifyWait, .Lfunc_end6-prvTestAbortingTaskNotifyWait
	.cfi_endproc
	.cantunwind
	.fnend
                                        @ -- End function
	.section	.text.prvTestAbortingTaskNotifyTake,"ax",%progbits
	.p2align	1                               @ -- Begin function prvTestAbortingTaskNotifyTake
	.type	prvTestAbortingTaskNotifyTake,%function
	.code	16                              @ @prvTestAbortingTaskNotifyTake
	.thumb_func
prvTestAbortingTaskNotifyTake:
.Lfunc_begin7:
	.loc	3 423 0                         @ ../../../CORTEX_MPU_M3_NUCLEO_L152RE_GCC/Demo/AbortDelay.c:423:0
	.fnstart
	.cfi_startproc
@ %bb.0:
	.save	{r7, lr}
	push	{r7, lr}
	.cfi_def_cfa_offset 8
	.cfi_offset lr, -4
	.cfi_offset r7, -8
	.pad	#16
	sub	sp, #16
	.cfi_def_cfa_offset 24
.Ltmp71:
	.loc	3 428 24 prologue_end           @ ../../../CORTEX_MPU_M3_NUCLEO_L152RE_GCC/Demo/AbortDelay.c:428:24
	bl	MPU_xTaskGetTickCount
	.loc	3 428 22 is_stmt 0              @ ../../../CORTEX_MPU_M3_NUCLEO_L152RE_GCC/Demo/AbortDelay.c:428:22
	str	r0, [sp, #12]
	movs	r1, #0
	movs	r2, #10
	.loc	3 431 20 is_stmt 1              @ ../../../CORTEX_MPU_M3_NUCLEO_L152RE_GCC/Demo/AbortDelay.c:431:20
	mov	r0, r1
	bl	MPU_ulTaskGenericNotifyTake
	.loc	3 431 18 is_stmt 0              @ ../../../CORTEX_MPU_M3_NUCLEO_L152RE_GCC/Demo/AbortDelay.c:431:18
	str	r0, [sp, #8]
.Ltmp72:
	.loc	3 433 13 is_stmt 1              @ ../../../CORTEX_MPU_M3_NUCLEO_L152RE_GCC/Demo/AbortDelay.c:433:13
	ldr	r0, [sp, #8]
.Ltmp73:
	.loc	3 433 13 is_stmt 0              @ ../../../CORTEX_MPU_M3_NUCLEO_L152RE_GCC/Demo/AbortDelay.c:433:13
	cbz	r0, .LBB7_2
	b	.LBB7_1
.LBB7_1:
.Ltmp74:
	.loc	3 435 33 is_stmt 1              @ ../../../CORTEX_MPU_M3_NUCLEO_L152RE_GCC/Demo/AbortDelay.c:435:33
	movw	r1, :lower16:xErrorOccurred
	movt	r1, :upper16:xErrorOccurred
	movs	r0, #1
	str	r0, [r1]
	.loc	3 436 9                         @ ../../../CORTEX_MPU_M3_NUCLEO_L152RE_GCC/Demo/AbortDelay.c:436:9
	b	.LBB7_2
.Ltmp75:
.LBB7_2:
	.loc	3 438 57                        @ ../../../CORTEX_MPU_M3_NUCLEO_L152RE_GCC/Demo/AbortDelay.c:438:57
	ldr	r0, [sp, #12]
	movs	r1, #10
	.loc	3 438 9 is_stmt 0               @ ../../../CORTEX_MPU_M3_NUCLEO_L152RE_GCC/Demo/AbortDelay.c:438:9
	str	r1, [sp, #4]                    @ 4-byte Spill
	bl	prvCheckExpectedTimeIsWithinAnAcceptableMargin
	.loc	3 441 24 is_stmt 1              @ ../../../CORTEX_MPU_M3_NUCLEO_L152RE_GCC/Demo/AbortDelay.c:441:24
	bl	MPU_xTaskGetTickCount
	ldr	r2, [sp, #4]                    @ 4-byte Reload
	.loc	3 441 22 is_stmt 0              @ ../../../CORTEX_MPU_M3_NUCLEO_L152RE_GCC/Demo/AbortDelay.c:441:22
	str	r0, [sp, #12]
	movs	r1, #0
	.loc	3 445 20 is_stmt 1              @ ../../../CORTEX_MPU_M3_NUCLEO_L152RE_GCC/Demo/AbortDelay.c:445:20
	mov	r0, r1
	bl	MPU_ulTaskGenericNotifyTake
	.loc	3 445 18 is_stmt 0              @ ../../../CORTEX_MPU_M3_NUCLEO_L152RE_GCC/Demo/AbortDelay.c:445:18
	str	r0, [sp, #8]
.Ltmp76:
	.loc	3 447 13 is_stmt 1              @ ../../../CORTEX_MPU_M3_NUCLEO_L152RE_GCC/Demo/AbortDelay.c:447:13
	ldr	r0, [sp, #8]
.Ltmp77:
	.loc	3 447 13 is_stmt 0              @ ../../../CORTEX_MPU_M3_NUCLEO_L152RE_GCC/Demo/AbortDelay.c:447:13
	cbz	r0, .LBB7_4
	b	.LBB7_3
.LBB7_3:
.Ltmp78:
	.loc	3 449 33 is_stmt 1              @ ../../../CORTEX_MPU_M3_NUCLEO_L152RE_GCC/Demo/AbortDelay.c:449:33
	movw	r1, :lower16:xErrorOccurred
	movt	r1, :upper16:xErrorOccurred
	movs	r0, #1
	str	r0, [r1]
	.loc	3 450 9                         @ ../../../CORTEX_MPU_M3_NUCLEO_L152RE_GCC/Demo/AbortDelay.c:450:9
	b	.LBB7_4
.Ltmp79:
.LBB7_4:
	.loc	3 452 57                        @ ../../../CORTEX_MPU_M3_NUCLEO_L152RE_GCC/Demo/AbortDelay.c:452:57
	ldr	r0, [sp, #12]
	movs	r1, #5
	.loc	3 452 9 is_stmt 0               @ ../../../CORTEX_MPU_M3_NUCLEO_L152RE_GCC/Demo/AbortDelay.c:452:9
	bl	prvCheckExpectedTimeIsWithinAnAcceptableMargin
	.loc	3 455 24 is_stmt 1              @ ../../../CORTEX_MPU_M3_NUCLEO_L152RE_GCC/Demo/AbortDelay.c:455:24
	bl	MPU_xTaskGetTickCount
	.loc	3 455 22 is_stmt 0              @ ../../../CORTEX_MPU_M3_NUCLEO_L152RE_GCC/Demo/AbortDelay.c:455:22
	str	r0, [sp, #12]
	movs	r1, #0
	movs	r2, #10
	.loc	3 458 20 is_stmt 1              @ ../../../CORTEX_MPU_M3_NUCLEO_L152RE_GCC/Demo/AbortDelay.c:458:20
	mov	r0, r1
	bl	MPU_ulTaskGenericNotifyTake
	.loc	3 458 18 is_stmt 0              @ ../../../CORTEX_MPU_M3_NUCLEO_L152RE_GCC/Demo/AbortDelay.c:458:18
	str	r0, [sp, #8]
.Ltmp80:
	.loc	3 460 13 is_stmt 1              @ ../../../CORTEX_MPU_M3_NUCLEO_L152RE_GCC/Demo/AbortDelay.c:460:13
	ldr	r0, [sp, #8]
.Ltmp81:
	.loc	3 460 13 is_stmt 0              @ ../../../CORTEX_MPU_M3_NUCLEO_L152RE_GCC/Demo/AbortDelay.c:460:13
	cbz	r0, .LBB7_6
	b	.LBB7_5
.LBB7_5:
.Ltmp82:
	.loc	3 462 33 is_stmt 1              @ ../../../CORTEX_MPU_M3_NUCLEO_L152RE_GCC/Demo/AbortDelay.c:462:33
	movw	r1, :lower16:xErrorOccurred
	movt	r1, :upper16:xErrorOccurred
	movs	r0, #1
	str	r0, [r1]
	.loc	3 463 9                         @ ../../../CORTEX_MPU_M3_NUCLEO_L152RE_GCC/Demo/AbortDelay.c:463:9
	b	.LBB7_6
.Ltmp83:
.LBB7_6:
	.loc	3 465 57                        @ ../../../CORTEX_MPU_M3_NUCLEO_L152RE_GCC/Demo/AbortDelay.c:465:57
	ldr	r0, [sp, #12]
	movs	r1, #10
	.loc	3 465 9 is_stmt 0               @ ../../../CORTEX_MPU_M3_NUCLEO_L152RE_GCC/Demo/AbortDelay.c:465:9
	bl	prvCheckExpectedTimeIsWithinAnAcceptableMargin
	.loc	3 466 5 is_stmt 1               @ ../../../CORTEX_MPU_M3_NUCLEO_L152RE_GCC/Demo/AbortDelay.c:466:5
	add	sp, #16
	pop	{r7, pc}
.Ltmp84:
.Lfunc_end7:
	.size	prvTestAbortingTaskNotifyTake, .Lfunc_end7-prvTestAbortingTaskNotifyTake
	.cfi_endproc
	.cantunwind
	.fnend
                                        @ -- End function
	.section	.text.prvTestAbortingTaskDelay,"ax",%progbits
	.p2align	1                               @ -- Begin function prvTestAbortingTaskDelay
	.type	prvTestAbortingTaskDelay,%function
	.code	16                              @ @prvTestAbortingTaskDelay
	.thumb_func
prvTestAbortingTaskDelay:
.Lfunc_begin8:
	.loc	3 395 0                         @ ../../../CORTEX_MPU_M3_NUCLEO_L152RE_GCC/Demo/AbortDelay.c:395:0
	.fnstart
	.cfi_startproc
@ %bb.0:
	.save	{r7, lr}
	push	{r7, lr}
	.cfi_def_cfa_offset 8
	.cfi_offset lr, -4
	.cfi_offset r7, -8
	.pad	#8
	sub	sp, #8
	.cfi_def_cfa_offset 16
.Ltmp85:
	.loc	3 399 24 prologue_end           @ ../../../CORTEX_MPU_M3_NUCLEO_L152RE_GCC/Demo/AbortDelay.c:399:24
	bl	MPU_xTaskGetTickCount
	.loc	3 399 22 is_stmt 0              @ ../../../CORTEX_MPU_M3_NUCLEO_L152RE_GCC/Demo/AbortDelay.c:399:22
	str	r0, [sp, #4]
	movs	r0, #10
	.loc	3 402 9 is_stmt 1               @ ../../../CORTEX_MPU_M3_NUCLEO_L152RE_GCC/Demo/AbortDelay.c:402:9
	str	r0, [sp]                        @ 4-byte Spill
	bl	MPU_vTaskDelay
	ldr	r1, [sp]                        @ 4-byte Reload
	.loc	3 403 57                        @ ../../../CORTEX_MPU_M3_NUCLEO_L152RE_GCC/Demo/AbortDelay.c:403:57
	ldr	r0, [sp, #4]
	.loc	3 403 9 is_stmt 0               @ ../../../CORTEX_MPU_M3_NUCLEO_L152RE_GCC/Demo/AbortDelay.c:403:9
	bl	prvCheckExpectedTimeIsWithinAnAcceptableMargin
	.loc	3 406 24 is_stmt 1              @ ../../../CORTEX_MPU_M3_NUCLEO_L152RE_GCC/Demo/AbortDelay.c:406:24
	bl	MPU_xTaskGetTickCount
	mov	r1, r0
	.loc	3 406 22 is_stmt 0              @ ../../../CORTEX_MPU_M3_NUCLEO_L152RE_GCC/Demo/AbortDelay.c:406:22
	ldr	r0, [sp]                        @ 4-byte Reload
	str	r1, [sp, #4]
	.loc	3 410 9 is_stmt 1               @ ../../../CORTEX_MPU_M3_NUCLEO_L152RE_GCC/Demo/AbortDelay.c:410:9
	bl	MPU_vTaskDelay
	.loc	3 411 57                        @ ../../../CORTEX_MPU_M3_NUCLEO_L152RE_GCC/Demo/AbortDelay.c:411:57
	ldr	r0, [sp, #4]
	movs	r1, #5
	.loc	3 411 9 is_stmt 0               @ ../../../CORTEX_MPU_M3_NUCLEO_L152RE_GCC/Demo/AbortDelay.c:411:9
	bl	prvCheckExpectedTimeIsWithinAnAcceptableMargin
	.loc	3 414 24 is_stmt 1              @ ../../../CORTEX_MPU_M3_NUCLEO_L152RE_GCC/Demo/AbortDelay.c:414:24
	bl	MPU_xTaskGetTickCount
	mov	r1, r0
	.loc	3 414 22 is_stmt 0              @ ../../../CORTEX_MPU_M3_NUCLEO_L152RE_GCC/Demo/AbortDelay.c:414:22
	ldr	r0, [sp]                        @ 4-byte Reload
	str	r1, [sp, #4]
	.loc	3 417 9 is_stmt 1               @ ../../../CORTEX_MPU_M3_NUCLEO_L152RE_GCC/Demo/AbortDelay.c:417:9
	bl	MPU_vTaskDelay
	ldr	r1, [sp]                        @ 4-byte Reload
	.loc	3 418 57                        @ ../../../CORTEX_MPU_M3_NUCLEO_L152RE_GCC/Demo/AbortDelay.c:418:57
	ldr	r0, [sp, #4]
	.loc	3 418 9 is_stmt 0               @ ../../../CORTEX_MPU_M3_NUCLEO_L152RE_GCC/Demo/AbortDelay.c:418:9
	bl	prvCheckExpectedTimeIsWithinAnAcceptableMargin
	.loc	3 419 5 is_stmt 1               @ ../../../CORTEX_MPU_M3_NUCLEO_L152RE_GCC/Demo/AbortDelay.c:419:5
	add	sp, #8
	pop	{r7, pc}
.Ltmp86:
.Lfunc_end8:
	.size	prvTestAbortingTaskDelay, .Lfunc_end8-prvTestAbortingTaskDelay
	.cfi_endproc
	.cantunwind
	.fnend
                                        @ -- End function
	.section	.text.prvTestAbortingTaskDelayUntil,"ax",%progbits
	.p2align	1                               @ -- Begin function prvTestAbortingTaskDelayUntil
	.type	prvTestAbortingTaskDelayUntil,%function
	.code	16                              @ @prvTestAbortingTaskDelayUntil
	.thumb_func
prvTestAbortingTaskDelayUntil:
.Lfunc_begin9:
	.loc	3 350 0                         @ ../../../CORTEX_MPU_M3_NUCLEO_L152RE_GCC/Demo/AbortDelay.c:350:0
	.fnstart
	.cfi_startproc
@ %bb.0:
	.save	{r7, lr}
	push	{r7, lr}
	.cfi_def_cfa_offset 8
	.cfi_offset lr, -4
	.cfi_offset r7, -8
	.pad	#24
	sub	sp, #24
	.cfi_def_cfa_offset 32
.Ltmp87:
	.loc	3 355 24 prologue_end           @ ../../../CORTEX_MPU_M3_NUCLEO_L152RE_GCC/Demo/AbortDelay.c:355:24
	bl	MPU_xTaskGetTickCount
	.loc	3 355 22 is_stmt 0              @ ../../../CORTEX_MPU_M3_NUCLEO_L152RE_GCC/Demo/AbortDelay.c:355:22
	str	r0, [sp, #20]
	.loc	3 360 26 is_stmt 1              @ ../../../CORTEX_MPU_M3_NUCLEO_L152RE_GCC/Demo/AbortDelay.c:360:26
	ldr	r0, [sp, #20]
	.loc	3 360 24 is_stmt 0              @ ../../../CORTEX_MPU_M3_NUCLEO_L152RE_GCC/Demo/AbortDelay.c:360:24
	str	r0, [sp, #16]
	add	r0, sp, #16
	movs	r1, #10
	.loc	3 363 21 is_stmt 1              @ ../../../CORTEX_MPU_M3_NUCLEO_L152RE_GCC/Demo/AbortDelay.c:363:21
	str	r1, [sp, #8]                    @ 4-byte Spill
	bl	MPU_xTaskDelayUntil
	ldr	r1, [sp, #8]                    @ 4-byte Reload
	.loc	3 363 19 is_stmt 0              @ ../../../CORTEX_MPU_M3_NUCLEO_L152RE_GCC/Demo/AbortDelay.c:363:19
	str	r0, [sp, #12]
	.loc	3 364 57 is_stmt 1              @ ../../../CORTEX_MPU_M3_NUCLEO_L152RE_GCC/Demo/AbortDelay.c:364:57
	ldr	r0, [sp, #20]
	.loc	3 364 9 is_stmt 0               @ ../../../CORTEX_MPU_M3_NUCLEO_L152RE_GCC/Demo/AbortDelay.c:364:9
	bl	prvCheckExpectedTimeIsWithinAnAcceptableMargin
.Ltmp88:
	.loc	3 365 9 is_stmt 1               @ ../../../CORTEX_MPU_M3_NUCLEO_L152RE_GCC/Demo/AbortDelay.c:365:9
	ldr	r0, [sp, #12]
.Ltmp89:
	.loc	3 365 9 is_stmt 0               @ ../../../CORTEX_MPU_M3_NUCLEO_L152RE_GCC/Demo/AbortDelay.c:365:9
	cmp	r0, #1
	beq	.LBB9_3
	b	.LBB9_1
.LBB9_1:
.Ltmp90:
	.loc	3 365 9                         @ ../../../CORTEX_MPU_M3_NUCLEO_L152RE_GCC/Demo/AbortDelay.c:365:9
	@APP
	cpsid i
	@NO_APP
	b	.LBB9_2
.LBB9_2:                                @ =>This Inner Loop Header: Depth=1
.Ltmp91:
	.loc	3 365 9                         @ ../../../CORTEX_MPU_M3_NUCLEO_L152RE_GCC/Demo/AbortDelay.c:365:9
	b	.LBB9_2
.Ltmp92:
.LBB9_3:
	.loc	3 376 24 is_stmt 1              @ ../../../CORTEX_MPU_M3_NUCLEO_L152RE_GCC/Demo/AbortDelay.c:376:24
	bl	MPU_xTaskGetTickCount
	.loc	3 376 22 is_stmt 0              @ ../../../CORTEX_MPU_M3_NUCLEO_L152RE_GCC/Demo/AbortDelay.c:376:22
	str	r0, [sp, #20]
	.loc	3 377 26 is_stmt 1              @ ../../../CORTEX_MPU_M3_NUCLEO_L152RE_GCC/Demo/AbortDelay.c:377:26
	ldr	r0, [sp, #20]
	.loc	3 377 24 is_stmt 0              @ ../../../CORTEX_MPU_M3_NUCLEO_L152RE_GCC/Demo/AbortDelay.c:377:24
	str	r0, [sp, #16]
	.loc	3 378 9 is_stmt 1               @ ../../../CORTEX_MPU_M3_NUCLEO_L152RE_GCC/Demo/AbortDelay.c:378:9
	b	.LBB9_4
.LBB9_4:
	.loc	3 0 9 is_stmt 0                 @ ../../../CORTEX_MPU_M3_NUCLEO_L152RE_GCC/Demo/AbortDelay.c:0:9
	add	r0, sp, #16
	movs	r1, #10
.Ltmp93:
	.loc	3 378 9                         @ ../../../CORTEX_MPU_M3_NUCLEO_L152RE_GCC/Demo/AbortDelay.c:378:9
	bl	MPU_xTaskDelayUntil
	b	.LBB9_5
.Ltmp94:
.LBB9_5:
	.loc	3 379 57 is_stmt 1              @ ../../../CORTEX_MPU_M3_NUCLEO_L152RE_GCC/Demo/AbortDelay.c:379:57
	ldr	r0, [sp, #20]
	movs	r1, #5
	.loc	3 379 9 is_stmt 0               @ ../../../CORTEX_MPU_M3_NUCLEO_L152RE_GCC/Demo/AbortDelay.c:379:9
	bl	prvCheckExpectedTimeIsWithinAnAcceptableMargin
	.loc	3 382 24 is_stmt 1              @ ../../../CORTEX_MPU_M3_NUCLEO_L152RE_GCC/Demo/AbortDelay.c:382:24
	bl	MPU_xTaskGetTickCount
	.loc	3 382 22 is_stmt 0              @ ../../../CORTEX_MPU_M3_NUCLEO_L152RE_GCC/Demo/AbortDelay.c:382:22
	str	r0, [sp, #20]
	.loc	3 383 26 is_stmt 1              @ ../../../CORTEX_MPU_M3_NUCLEO_L152RE_GCC/Demo/AbortDelay.c:383:26
	ldr	r0, [sp, #20]
	.loc	3 383 24 is_stmt 0              @ ../../../CORTEX_MPU_M3_NUCLEO_L152RE_GCC/Demo/AbortDelay.c:383:24
	str	r0, [sp, #16]
	add	r0, sp, #16
	movs	r1, #10
	.loc	3 384 21 is_stmt 1              @ ../../../CORTEX_MPU_M3_NUCLEO_L152RE_GCC/Demo/AbortDelay.c:384:21
	str	r1, [sp, #4]                    @ 4-byte Spill
	bl	MPU_xTaskDelayUntil
	ldr	r1, [sp, #4]                    @ 4-byte Reload
	.loc	3 384 19 is_stmt 0              @ ../../../CORTEX_MPU_M3_NUCLEO_L152RE_GCC/Demo/AbortDelay.c:384:19
	str	r0, [sp, #12]
	.loc	3 385 57 is_stmt 1              @ ../../../CORTEX_MPU_M3_NUCLEO_L152RE_GCC/Demo/AbortDelay.c:385:57
	ldr	r0, [sp, #20]
	.loc	3 385 9 is_stmt 0               @ ../../../CORTEX_MPU_M3_NUCLEO_L152RE_GCC/Demo/AbortDelay.c:385:9
	bl	prvCheckExpectedTimeIsWithinAnAcceptableMargin
.Ltmp95:
	.loc	3 386 9 is_stmt 1               @ ../../../CORTEX_MPU_M3_NUCLEO_L152RE_GCC/Demo/AbortDelay.c:386:9
	ldr	r0, [sp, #12]
.Ltmp96:
	.loc	3 386 9 is_stmt 0               @ ../../../CORTEX_MPU_M3_NUCLEO_L152RE_GCC/Demo/AbortDelay.c:386:9
	cmp	r0, #1
	beq	.LBB9_8
	b	.LBB9_6
.LBB9_6:
.Ltmp97:
	.loc	3 386 9                         @ ../../../CORTEX_MPU_M3_NUCLEO_L152RE_GCC/Demo/AbortDelay.c:386:9
	@APP
	cpsid i
	@NO_APP
	b	.LBB9_7
.LBB9_7:                                @ =>This Inner Loop Header: Depth=1
.Ltmp98:
	.loc	3 386 9                         @ ../../../CORTEX_MPU_M3_NUCLEO_L152RE_GCC/Demo/AbortDelay.c:386:9
	b	.LBB9_7
.Ltmp99:
.LBB9_8:
	.loc	3 391 5 is_stmt 1               @ ../../../CORTEX_MPU_M3_NUCLEO_L152RE_GCC/Demo/AbortDelay.c:391:5
	add	sp, #24
	pop	{r7, pc}
.Ltmp100:
.Lfunc_end9:
	.size	prvTestAbortingTaskDelayUntil, .Lfunc_end9-prvTestAbortingTaskDelayUntil
	.cfi_endproc
	.cantunwind
	.fnend
                                        @ -- End function
	.section	.text.prvTestAbortingSemaphoreTake,"ax",%progbits
	.p2align	1                               @ -- Begin function prvTestAbortingSemaphoreTake
	.type	prvTestAbortingSemaphoreTake,%function
	.code	16                              @ @prvTestAbortingSemaphoreTake
	.thumb_func
prvTestAbortingSemaphoreTake:
.Lfunc_begin10:
	.loc	3 689 0                         @ ../../../CORTEX_MPU_M3_NUCLEO_L152RE_GCC/Demo/AbortDelay.c:689:0
	.fnstart
	.cfi_startproc
@ %bb.0:
	.save	{r7, lr}
	push	{r7, lr}
	.cfi_def_cfa_offset 8
	.cfi_offset lr, -4
	.cfi_offset r7, -8
	.pad	#16
	sub	sp, #16
	.cfi_def_cfa_offset 24
	movs	r0, #3
.Ltmp101:
	.loc	3 700 26 prologue_end           @ ../../../CORTEX_MPU_M3_NUCLEO_L152RE_GCC/Demo/AbortDelay.c:700:26
	str	r0, [sp]
	movw	r3, :lower16:prvTestAbortingSemaphoreTake.xSemaphoreBuffer
	movt	r3, :upper16:prvTestAbortingSemaphoreTake.xSemaphoreBuffer
	movs	r0, #1
	movs	r2, #0
	mov	r1, r2
	bl	MPU_xQueueGenericCreateStatic
	.loc	3 700 24 is_stmt 0              @ ../../../CORTEX_MPU_M3_NUCLEO_L152RE_GCC/Demo/AbortDelay.c:700:24
	str	r0, [sp, #4]
.Ltmp102:
	.loc	3 709 24 is_stmt 1              @ ../../../CORTEX_MPU_M3_NUCLEO_L152RE_GCC/Demo/AbortDelay.c:709:24
	bl	MPU_xTaskGetTickCount
	.loc	3 709 22 is_stmt 0              @ ../../../CORTEX_MPU_M3_NUCLEO_L152RE_GCC/Demo/AbortDelay.c:709:22
	str	r0, [sp, #12]
	.loc	3 712 19 is_stmt 1              @ ../../../CORTEX_MPU_M3_NUCLEO_L152RE_GCC/Demo/AbortDelay.c:712:19
	ldr	r0, [sp, #4]
	movs	r1, #10
	bl	MPU_xQueueSemaphoreTake
	.loc	3 712 17 is_stmt 0              @ ../../../CORTEX_MPU_M3_NUCLEO_L152RE_GCC/Demo/AbortDelay.c:712:17
	str	r0, [sp, #8]
.Ltmp103:
	.loc	3 714 13 is_stmt 1              @ ../../../CORTEX_MPU_M3_NUCLEO_L152RE_GCC/Demo/AbortDelay.c:714:13
	ldr	r0, [sp, #8]
.Ltmp104:
	.loc	3 714 13 is_stmt 0              @ ../../../CORTEX_MPU_M3_NUCLEO_L152RE_GCC/Demo/AbortDelay.c:714:13
	cbz	r0, .LBB10_2
	b	.LBB10_1
.LBB10_1:
.Ltmp105:
	.loc	3 716 33 is_stmt 1              @ ../../../CORTEX_MPU_M3_NUCLEO_L152RE_GCC/Demo/AbortDelay.c:716:33
	movw	r1, :lower16:xErrorOccurred
	movt	r1, :upper16:xErrorOccurred
	movs	r0, #1
	str	r0, [r1]
	.loc	3 717 9                         @ ../../../CORTEX_MPU_M3_NUCLEO_L152RE_GCC/Demo/AbortDelay.c:717:9
	b	.LBB10_2
.Ltmp106:
.LBB10_2:
	.loc	3 719 57                        @ ../../../CORTEX_MPU_M3_NUCLEO_L152RE_GCC/Demo/AbortDelay.c:719:57
	ldr	r0, [sp, #12]
	movs	r1, #10
	.loc	3 719 9 is_stmt 0               @ ../../../CORTEX_MPU_M3_NUCLEO_L152RE_GCC/Demo/AbortDelay.c:719:9
	bl	prvCheckExpectedTimeIsWithinAnAcceptableMargin
	.loc	3 722 24 is_stmt 1              @ ../../../CORTEX_MPU_M3_NUCLEO_L152RE_GCC/Demo/AbortDelay.c:722:24
	bl	MPU_xTaskGetTickCount
	.loc	3 722 22 is_stmt 0              @ ../../../CORTEX_MPU_M3_NUCLEO_L152RE_GCC/Demo/AbortDelay.c:722:22
	str	r0, [sp, #12]
	.loc	3 726 19 is_stmt 1              @ ../../../CORTEX_MPU_M3_NUCLEO_L152RE_GCC/Demo/AbortDelay.c:726:19
	ldr	r0, [sp, #4]
	movs	r1, #0
	mvns	r1, r1
	bl	MPU_xQueueSemaphoreTake
	.loc	3 726 17 is_stmt 0              @ ../../../CORTEX_MPU_M3_NUCLEO_L152RE_GCC/Demo/AbortDelay.c:726:17
	str	r0, [sp, #8]
.Ltmp107:
	.loc	3 728 13 is_stmt 1              @ ../../../CORTEX_MPU_M3_NUCLEO_L152RE_GCC/Demo/AbortDelay.c:728:13
	ldr	r0, [sp, #8]
.Ltmp108:
	.loc	3 728 13 is_stmt 0              @ ../../../CORTEX_MPU_M3_NUCLEO_L152RE_GCC/Demo/AbortDelay.c:728:13
	cbz	r0, .LBB10_4
	b	.LBB10_3
.LBB10_3:
.Ltmp109:
	.loc	3 730 33 is_stmt 1              @ ../../../CORTEX_MPU_M3_NUCLEO_L152RE_GCC/Demo/AbortDelay.c:730:33
	movw	r1, :lower16:xErrorOccurred
	movt	r1, :upper16:xErrorOccurred
	movs	r0, #1
	str	r0, [r1]
	.loc	3 731 9                         @ ../../../CORTEX_MPU_M3_NUCLEO_L152RE_GCC/Demo/AbortDelay.c:731:9
	b	.LBB10_4
.Ltmp110:
.LBB10_4:
	.loc	3 733 57                        @ ../../../CORTEX_MPU_M3_NUCLEO_L152RE_GCC/Demo/AbortDelay.c:733:57
	ldr	r0, [sp, #12]
	movs	r1, #5
	.loc	3 733 9 is_stmt 0               @ ../../../CORTEX_MPU_M3_NUCLEO_L152RE_GCC/Demo/AbortDelay.c:733:9
	bl	prvCheckExpectedTimeIsWithinAnAcceptableMargin
	.loc	3 736 24 is_stmt 1              @ ../../../CORTEX_MPU_M3_NUCLEO_L152RE_GCC/Demo/AbortDelay.c:736:24
	bl	MPU_xTaskGetTickCount
	.loc	3 736 22 is_stmt 0              @ ../../../CORTEX_MPU_M3_NUCLEO_L152RE_GCC/Demo/AbortDelay.c:736:22
	str	r0, [sp, #12]
	.loc	3 739 19 is_stmt 1              @ ../../../CORTEX_MPU_M3_NUCLEO_L152RE_GCC/Demo/AbortDelay.c:739:19
	ldr	r0, [sp, #4]
	movs	r1, #10
	bl	MPU_xQueueSemaphoreTake
	.loc	3 739 17 is_stmt 0              @ ../../../CORTEX_MPU_M3_NUCLEO_L152RE_GCC/Demo/AbortDelay.c:739:17
	str	r0, [sp, #8]
.Ltmp111:
	.loc	3 741 13 is_stmt 1              @ ../../../CORTEX_MPU_M3_NUCLEO_L152RE_GCC/Demo/AbortDelay.c:741:13
	ldr	r0, [sp, #8]
.Ltmp112:
	.loc	3 741 13 is_stmt 0              @ ../../../CORTEX_MPU_M3_NUCLEO_L152RE_GCC/Demo/AbortDelay.c:741:13
	cbz	r0, .LBB10_6
	b	.LBB10_5
.LBB10_5:
.Ltmp113:
	.loc	3 743 33 is_stmt 1              @ ../../../CORTEX_MPU_M3_NUCLEO_L152RE_GCC/Demo/AbortDelay.c:743:33
	movw	r1, :lower16:xErrorOccurred
	movt	r1, :upper16:xErrorOccurred
	movs	r0, #1
	str	r0, [r1]
	.loc	3 744 9                         @ ../../../CORTEX_MPU_M3_NUCLEO_L152RE_GCC/Demo/AbortDelay.c:744:9
	b	.LBB10_6
.Ltmp114:
.LBB10_6:
	.loc	3 746 57                        @ ../../../CORTEX_MPU_M3_NUCLEO_L152RE_GCC/Demo/AbortDelay.c:746:57
	ldr	r0, [sp, #12]
	movs	r1, #10
	.loc	3 746 9 is_stmt 0               @ ../../../CORTEX_MPU_M3_NUCLEO_L152RE_GCC/Demo/AbortDelay.c:746:9
	bl	prvCheckExpectedTimeIsWithinAnAcceptableMargin
	.loc	3 749 9 is_stmt 1               @ ../../../CORTEX_MPU_M3_NUCLEO_L152RE_GCC/Demo/AbortDelay.c:749:9
	ldr	r0, [sp, #4]
	bl	MPU_vQueueDelete
	.loc	3 750 5                         @ ../../../CORTEX_MPU_M3_NUCLEO_L152RE_GCC/Demo/AbortDelay.c:750:5
	add	sp, #16
	pop	{r7, pc}
.Ltmp115:
.Lfunc_end10:
	.size	prvTestAbortingSemaphoreTake, .Lfunc_end10-prvTestAbortingSemaphoreTake
	.cfi_endproc
	.cantunwind
	.fnend
                                        @ -- End function
	.section	.text.prvTestAbortingEventGroupWait,"ax",%progbits
	.p2align	1                               @ -- Begin function prvTestAbortingEventGroupWait
	.type	prvTestAbortingEventGroupWait,%function
	.code	16                              @ @prvTestAbortingEventGroupWait
	.thumb_func
prvTestAbortingEventGroupWait:
.Lfunc_begin11:
	.loc	3 470 0                         @ ../../../CORTEX_MPU_M3_NUCLEO_L152RE_GCC/Demo/AbortDelay.c:470:0
	.fnstart
	.cfi_startproc
@ %bb.0:
	.save	{r7, lr}
	push	{r7, lr}
	.cfi_def_cfa_offset 8
	.cfi_offset lr, -4
	.cfi_offset r7, -8
	.pad	#32
	sub	sp, #32
	.cfi_def_cfa_offset 40
	movs	r0, #1
.Ltmp116:
	.loc	3 473 21 prologue_end           @ ../../../CORTEX_MPU_M3_NUCLEO_L152RE_GCC/Demo/AbortDelay.c:473:21
	str	r0, [sp, #12]                   @ 4-byte Spill
	str	r0, [sp, #20]
.Ltmp117:
	.loc	3 481 27                        @ ../../../CORTEX_MPU_M3_NUCLEO_L152RE_GCC/Demo/AbortDelay.c:481:27
	movw	r0, :lower16:prvTestAbortingEventGroupWait.xEventGroupBuffer
	movt	r0, :upper16:prvTestAbortingEventGroupWait.xEventGroupBuffer
	bl	MPU_xEventGroupCreateStatic
	.loc	3 481 25 is_stmt 0              @ ../../../CORTEX_MPU_M3_NUCLEO_L152RE_GCC/Demo/AbortDelay.c:481:25
	str	r0, [sp, #24]
.Ltmp118:
	.loc	3 491 24 is_stmt 1              @ ../../../CORTEX_MPU_M3_NUCLEO_L152RE_GCC/Demo/AbortDelay.c:491:24
	bl	MPU_xTaskGetTickCount
	ldr	r3, [sp, #12]                   @ 4-byte Reload
	.loc	3 491 22 is_stmt 0              @ ../../../CORTEX_MPU_M3_NUCLEO_L152RE_GCC/Demo/AbortDelay.c:491:22
	str	r0, [sp, #28]
	.loc	3 494 40 is_stmt 1              @ ../../../CORTEX_MPU_M3_NUCLEO_L152RE_GCC/Demo/AbortDelay.c:494:40
	ldr	r0, [sp, #24]
	.loc	3 494 53 is_stmt 0              @ ../../../CORTEX_MPU_M3_NUCLEO_L152RE_GCC/Demo/AbortDelay.c:494:53
	ldr	r1, [sp, #20]
	movs	r2, #10
	.loc	3 494 19                        @ ../../../CORTEX_MPU_M3_NUCLEO_L152RE_GCC/Demo/AbortDelay.c:494:19
	str	r2, [sp]
	mov	r2, r3
	bl	MPU_xEventGroupWaitBits
	.loc	3 494 17                        @ ../../../CORTEX_MPU_M3_NUCLEO_L152RE_GCC/Demo/AbortDelay.c:494:17
	str	r0, [sp, #16]
.Ltmp119:
	.loc	3 496 13 is_stmt 1              @ ../../../CORTEX_MPU_M3_NUCLEO_L152RE_GCC/Demo/AbortDelay.c:496:13
	ldr	r0, [sp, #16]
.Ltmp120:
	.loc	3 496 13 is_stmt 0              @ ../../../CORTEX_MPU_M3_NUCLEO_L152RE_GCC/Demo/AbortDelay.c:496:13
	cbz	r0, .LBB11_2
	b	.LBB11_1
.LBB11_1:
.Ltmp121:
	.loc	3 498 33 is_stmt 1              @ ../../../CORTEX_MPU_M3_NUCLEO_L152RE_GCC/Demo/AbortDelay.c:498:33
	movw	r1, :lower16:xErrorOccurred
	movt	r1, :upper16:xErrorOccurred
	movs	r0, #1
	str	r0, [r1]
	.loc	3 499 9                         @ ../../../CORTEX_MPU_M3_NUCLEO_L152RE_GCC/Demo/AbortDelay.c:499:9
	b	.LBB11_2
.Ltmp122:
.LBB11_2:
	.loc	3 501 57                        @ ../../../CORTEX_MPU_M3_NUCLEO_L152RE_GCC/Demo/AbortDelay.c:501:57
	ldr	r0, [sp, #28]
	movs	r1, #10
	.loc	3 501 9 is_stmt 0               @ ../../../CORTEX_MPU_M3_NUCLEO_L152RE_GCC/Demo/AbortDelay.c:501:9
	str	r1, [sp, #8]                    @ 4-byte Spill
	bl	prvCheckExpectedTimeIsWithinAnAcceptableMargin
	.loc	3 504 24 is_stmt 1              @ ../../../CORTEX_MPU_M3_NUCLEO_L152RE_GCC/Demo/AbortDelay.c:504:24
	bl	MPU_xTaskGetTickCount
	ldr	r2, [sp, #8]                    @ 4-byte Reload
	.loc	3 504 22 is_stmt 0              @ ../../../CORTEX_MPU_M3_NUCLEO_L152RE_GCC/Demo/AbortDelay.c:504:22
	str	r0, [sp, #28]
	.loc	3 508 40 is_stmt 1              @ ../../../CORTEX_MPU_M3_NUCLEO_L152RE_GCC/Demo/AbortDelay.c:508:40
	ldr	r0, [sp, #24]
	.loc	3 508 53 is_stmt 0              @ ../../../CORTEX_MPU_M3_NUCLEO_L152RE_GCC/Demo/AbortDelay.c:508:53
	ldr	r1, [sp, #20]
	.loc	3 508 19                        @ ../../../CORTEX_MPU_M3_NUCLEO_L152RE_GCC/Demo/AbortDelay.c:508:19
	str	r2, [sp]
	movs	r3, #1
	mov	r2, r3
	bl	MPU_xEventGroupWaitBits
	.loc	3 508 17                        @ ../../../CORTEX_MPU_M3_NUCLEO_L152RE_GCC/Demo/AbortDelay.c:508:17
	str	r0, [sp, #16]
.Ltmp123:
	.loc	3 510 13 is_stmt 1              @ ../../../CORTEX_MPU_M3_NUCLEO_L152RE_GCC/Demo/AbortDelay.c:510:13
	ldr	r0, [sp, #16]
.Ltmp124:
	.loc	3 510 13 is_stmt 0              @ ../../../CORTEX_MPU_M3_NUCLEO_L152RE_GCC/Demo/AbortDelay.c:510:13
	cbz	r0, .LBB11_4
	b	.LBB11_3
.LBB11_3:
.Ltmp125:
	.loc	3 512 33 is_stmt 1              @ ../../../CORTEX_MPU_M3_NUCLEO_L152RE_GCC/Demo/AbortDelay.c:512:33
	movw	r1, :lower16:xErrorOccurred
	movt	r1, :upper16:xErrorOccurred
	movs	r0, #1
	str	r0, [r1]
	.loc	3 513 9                         @ ../../../CORTEX_MPU_M3_NUCLEO_L152RE_GCC/Demo/AbortDelay.c:513:9
	b	.LBB11_4
.Ltmp126:
.LBB11_4:
	.loc	3 515 57                        @ ../../../CORTEX_MPU_M3_NUCLEO_L152RE_GCC/Demo/AbortDelay.c:515:57
	ldr	r0, [sp, #28]
	movs	r1, #5
	.loc	3 515 9 is_stmt 0               @ ../../../CORTEX_MPU_M3_NUCLEO_L152RE_GCC/Demo/AbortDelay.c:515:9
	bl	prvCheckExpectedTimeIsWithinAnAcceptableMargin
	.loc	3 518 24 is_stmt 1              @ ../../../CORTEX_MPU_M3_NUCLEO_L152RE_GCC/Demo/AbortDelay.c:518:24
	bl	MPU_xTaskGetTickCount
	.loc	3 518 22 is_stmt 0              @ ../../../CORTEX_MPU_M3_NUCLEO_L152RE_GCC/Demo/AbortDelay.c:518:22
	str	r0, [sp, #28]
	.loc	3 521 40 is_stmt 1              @ ../../../CORTEX_MPU_M3_NUCLEO_L152RE_GCC/Demo/AbortDelay.c:521:40
	ldr	r0, [sp, #24]
	.loc	3 521 53 is_stmt 0              @ ../../../CORTEX_MPU_M3_NUCLEO_L152RE_GCC/Demo/AbortDelay.c:521:53
	ldr	r1, [sp, #20]
	movs	r2, #10
	.loc	3 521 19                        @ ../../../CORTEX_MPU_M3_NUCLEO_L152RE_GCC/Demo/AbortDelay.c:521:19
	str	r2, [sp]
	movs	r3, #1
	mov	r2, r3
	bl	MPU_xEventGroupWaitBits
	.loc	3 521 17                        @ ../../../CORTEX_MPU_M3_NUCLEO_L152RE_GCC/Demo/AbortDelay.c:521:17
	str	r0, [sp, #16]
.Ltmp127:
	.loc	3 523 13 is_stmt 1              @ ../../../CORTEX_MPU_M3_NUCLEO_L152RE_GCC/Demo/AbortDelay.c:523:13
	ldr	r0, [sp, #16]
.Ltmp128:
	.loc	3 523 13 is_stmt 0              @ ../../../CORTEX_MPU_M3_NUCLEO_L152RE_GCC/Demo/AbortDelay.c:523:13
	cbz	r0, .LBB11_6
	b	.LBB11_5
.LBB11_5:
.Ltmp129:
	.loc	3 525 33 is_stmt 1              @ ../../../CORTEX_MPU_M3_NUCLEO_L152RE_GCC/Demo/AbortDelay.c:525:33
	movw	r1, :lower16:xErrorOccurred
	movt	r1, :upper16:xErrorOccurred
	movs	r0, #1
	str	r0, [r1]
	.loc	3 526 9                         @ ../../../CORTEX_MPU_M3_NUCLEO_L152RE_GCC/Demo/AbortDelay.c:526:9
	b	.LBB11_6
.Ltmp130:
.LBB11_6:
	.loc	3 528 57                        @ ../../../CORTEX_MPU_M3_NUCLEO_L152RE_GCC/Demo/AbortDelay.c:528:57
	ldr	r0, [sp, #28]
	movs	r1, #10
	.loc	3 528 9 is_stmt 0               @ ../../../CORTEX_MPU_M3_NUCLEO_L152RE_GCC/Demo/AbortDelay.c:528:9
	bl	prvCheckExpectedTimeIsWithinAnAcceptableMargin
	.loc	3 531 28 is_stmt 1              @ ../../../CORTEX_MPU_M3_NUCLEO_L152RE_GCC/Demo/AbortDelay.c:531:28
	ldr	r0, [sp, #24]
	.loc	3 531 9 is_stmt 0               @ ../../../CORTEX_MPU_M3_NUCLEO_L152RE_GCC/Demo/AbortDelay.c:531:9
	bl	MPU_vEventGroupDelete
	.loc	3 532 5 is_stmt 1               @ ../../../CORTEX_MPU_M3_NUCLEO_L152RE_GCC/Demo/AbortDelay.c:532:5
	add	sp, #32
	pop	{r7, pc}
.Ltmp131:
.Lfunc_end11:
	.size	prvTestAbortingEventGroupWait, .Lfunc_end11-prvTestAbortingEventGroupWait
	.cfi_endproc
	.cantunwind
	.fnend
                                        @ -- End function
	.section	.text.prvTestAbortingQueueSend,"ax",%progbits
	.p2align	1                               @ -- Begin function prvTestAbortingQueueSend
	.type	prvTestAbortingQueueSend,%function
	.code	16                              @ @prvTestAbortingQueueSend
	.thumb_func
prvTestAbortingQueueSend:
.Lfunc_begin12:
	.loc	3 611 0                         @ ../../../CORTEX_MPU_M3_NUCLEO_L152RE_GCC/Demo/AbortDelay.c:611:0
	.fnstart
	.cfi_startproc
@ %bb.0:
	.save	{r7, lr}
	push	{r7, lr}
	.cfi_def_cfa_offset 8
	.cfi_offset lr, -4
	.cfi_offset r7, -8
	.pad	#32
	sub	sp, #32
	.cfi_def_cfa_offset 40
	movs	r1, #1
.Ltmp132:
	.loc	3 614 27 prologue_end           @ ../../../CORTEX_MPU_M3_NUCLEO_L152RE_GCC/Demo/AbortDelay.c:614:27
	str	r1, [sp, #20]
	movs	r0, #0
.Ltmp133:
	.loc	3 625 22                        @ ../../../CORTEX_MPU_M3_NUCLEO_L152RE_GCC/Demo/AbortDelay.c:625:22
	str	r0, [sp, #8]                    @ 4-byte Spill
	str	r0, [sp]
	movw	r2, :lower16:prvTestAbortingQueueSend.ucQueueStorage
	movt	r2, :upper16:prvTestAbortingQueueSend.ucQueueStorage
	movw	r3, :lower16:prvTestAbortingQueueSend.xQueueBuffer
	movt	r3, :upper16:prvTestAbortingQueueSend.xQueueBuffer
	mov	r0, r1
	bl	MPU_xQueueGenericCreateStatic
	ldr	r3, [sp, #8]                    @ 4-byte Reload
	.loc	3 625 20 is_stmt 0              @ ../../../CORTEX_MPU_M3_NUCLEO_L152RE_GCC/Demo/AbortDelay.c:625:20
	str	r0, [sp, #16]
.Ltmp134:
	.loc	3 636 19 is_stmt 1              @ ../../../CORTEX_MPU_M3_NUCLEO_L152RE_GCC/Demo/AbortDelay.c:636:19
	ldr	r0, [sp, #16]
	add	r1, sp, #12
	movs	r2, #10
	bl	MPU_xQueueGenericSend
	.loc	3 636 17 is_stmt 0              @ ../../../CORTEX_MPU_M3_NUCLEO_L152RE_GCC/Demo/AbortDelay.c:636:17
	str	r0, [sp, #24]
.Ltmp135:
	.loc	3 638 13 is_stmt 1              @ ../../../CORTEX_MPU_M3_NUCLEO_L152RE_GCC/Demo/AbortDelay.c:638:13
	ldr	r0, [sp, #24]
.Ltmp136:
	.loc	3 638 13 is_stmt 0              @ ../../../CORTEX_MPU_M3_NUCLEO_L152RE_GCC/Demo/AbortDelay.c:638:13
	cmp	r0, #1
	beq	.LBB12_2
	b	.LBB12_1
.LBB12_1:
.Ltmp137:
	.loc	3 640 33 is_stmt 1              @ ../../../CORTEX_MPU_M3_NUCLEO_L152RE_GCC/Demo/AbortDelay.c:640:33
	movw	r1, :lower16:xErrorOccurred
	movt	r1, :upper16:xErrorOccurred
	movs	r0, #1
	str	r0, [r1]
	.loc	3 641 9                         @ ../../../CORTEX_MPU_M3_NUCLEO_L152RE_GCC/Demo/AbortDelay.c:641:9
	b	.LBB12_2
.Ltmp138:
.LBB12_2:
	.loc	3 644 24                        @ ../../../CORTEX_MPU_M3_NUCLEO_L152RE_GCC/Demo/AbortDelay.c:644:24
	bl	MPU_xTaskGetTickCount
	.loc	3 644 22 is_stmt 0              @ ../../../CORTEX_MPU_M3_NUCLEO_L152RE_GCC/Demo/AbortDelay.c:644:22
	str	r0, [sp, #28]
	.loc	3 647 19 is_stmt 1              @ ../../../CORTEX_MPU_M3_NUCLEO_L152RE_GCC/Demo/AbortDelay.c:647:19
	ldr	r0, [sp, #16]
	add	r1, sp, #12
	movs	r2, #10
	movs	r3, #0
	bl	MPU_xQueueGenericSend
	.loc	3 647 17 is_stmt 0              @ ../../../CORTEX_MPU_M3_NUCLEO_L152RE_GCC/Demo/AbortDelay.c:647:17
	str	r0, [sp, #24]
.Ltmp139:
	.loc	3 649 13 is_stmt 1              @ ../../../CORTEX_MPU_M3_NUCLEO_L152RE_GCC/Demo/AbortDelay.c:649:13
	ldr	r0, [sp, #24]
.Ltmp140:
	.loc	3 649 13 is_stmt 0              @ ../../../CORTEX_MPU_M3_NUCLEO_L152RE_GCC/Demo/AbortDelay.c:649:13
	cbz	r0, .LBB12_4
	b	.LBB12_3
.LBB12_3:
.Ltmp141:
	.loc	3 651 33 is_stmt 1              @ ../../../CORTEX_MPU_M3_NUCLEO_L152RE_GCC/Demo/AbortDelay.c:651:33
	movw	r1, :lower16:xErrorOccurred
	movt	r1, :upper16:xErrorOccurred
	movs	r0, #1
	str	r0, [r1]
	.loc	3 652 9                         @ ../../../CORTEX_MPU_M3_NUCLEO_L152RE_GCC/Demo/AbortDelay.c:652:9
	b	.LBB12_4
.Ltmp142:
.LBB12_4:
	.loc	3 654 57                        @ ../../../CORTEX_MPU_M3_NUCLEO_L152RE_GCC/Demo/AbortDelay.c:654:57
	ldr	r0, [sp, #28]
	movs	r1, #10
	.loc	3 654 9 is_stmt 0               @ ../../../CORTEX_MPU_M3_NUCLEO_L152RE_GCC/Demo/AbortDelay.c:654:9
	str	r1, [sp, #4]                    @ 4-byte Spill
	bl	prvCheckExpectedTimeIsWithinAnAcceptableMargin
	.loc	3 657 24 is_stmt 1              @ ../../../CORTEX_MPU_M3_NUCLEO_L152RE_GCC/Demo/AbortDelay.c:657:24
	bl	MPU_xTaskGetTickCount
	ldr	r2, [sp, #4]                    @ 4-byte Reload
	.loc	3 657 22 is_stmt 0              @ ../../../CORTEX_MPU_M3_NUCLEO_L152RE_GCC/Demo/AbortDelay.c:657:22
	str	r0, [sp, #28]
	.loc	3 661 19 is_stmt 1              @ ../../../CORTEX_MPU_M3_NUCLEO_L152RE_GCC/Demo/AbortDelay.c:661:19
	ldr	r0, [sp, #16]
	add	r1, sp, #12
	movs	r3, #0
	bl	MPU_xQueueGenericSend
	.loc	3 661 17 is_stmt 0              @ ../../../CORTEX_MPU_M3_NUCLEO_L152RE_GCC/Demo/AbortDelay.c:661:17
	str	r0, [sp, #24]
.Ltmp143:
	.loc	3 663 13 is_stmt 1              @ ../../../CORTEX_MPU_M3_NUCLEO_L152RE_GCC/Demo/AbortDelay.c:663:13
	ldr	r0, [sp, #24]
.Ltmp144:
	.loc	3 663 13 is_stmt 0              @ ../../../CORTEX_MPU_M3_NUCLEO_L152RE_GCC/Demo/AbortDelay.c:663:13
	cbz	r0, .LBB12_6
	b	.LBB12_5
.LBB12_5:
.Ltmp145:
	.loc	3 665 33 is_stmt 1              @ ../../../CORTEX_MPU_M3_NUCLEO_L152RE_GCC/Demo/AbortDelay.c:665:33
	movw	r1, :lower16:xErrorOccurred
	movt	r1, :upper16:xErrorOccurred
	movs	r0, #1
	str	r0, [r1]
	.loc	3 666 9                         @ ../../../CORTEX_MPU_M3_NUCLEO_L152RE_GCC/Demo/AbortDelay.c:666:9
	b	.LBB12_6
.Ltmp146:
.LBB12_6:
	.loc	3 668 57                        @ ../../../CORTEX_MPU_M3_NUCLEO_L152RE_GCC/Demo/AbortDelay.c:668:57
	ldr	r0, [sp, #28]
	movs	r1, #5
	.loc	3 668 9 is_stmt 0               @ ../../../CORTEX_MPU_M3_NUCLEO_L152RE_GCC/Demo/AbortDelay.c:668:9
	bl	prvCheckExpectedTimeIsWithinAnAcceptableMargin
	.loc	3 671 24 is_stmt 1              @ ../../../CORTEX_MPU_M3_NUCLEO_L152RE_GCC/Demo/AbortDelay.c:671:24
	bl	MPU_xTaskGetTickCount
	.loc	3 671 22 is_stmt 0              @ ../../../CORTEX_MPU_M3_NUCLEO_L152RE_GCC/Demo/AbortDelay.c:671:22
	str	r0, [sp, #28]
	.loc	3 674 19 is_stmt 1              @ ../../../CORTEX_MPU_M3_NUCLEO_L152RE_GCC/Demo/AbortDelay.c:674:19
	ldr	r0, [sp, #16]
	add	r1, sp, #12
	movs	r2, #10
	movs	r3, #0
	bl	MPU_xQueueGenericSend
	.loc	3 674 17 is_stmt 0              @ ../../../CORTEX_MPU_M3_NUCLEO_L152RE_GCC/Demo/AbortDelay.c:674:17
	str	r0, [sp, #24]
.Ltmp147:
	.loc	3 676 13 is_stmt 1              @ ../../../CORTEX_MPU_M3_NUCLEO_L152RE_GCC/Demo/AbortDelay.c:676:13
	ldr	r0, [sp, #24]
.Ltmp148:
	.loc	3 676 13 is_stmt 0              @ ../../../CORTEX_MPU_M3_NUCLEO_L152RE_GCC/Demo/AbortDelay.c:676:13
	cbz	r0, .LBB12_8
	b	.LBB12_7
.LBB12_7:
.Ltmp149:
	.loc	3 678 33 is_stmt 1              @ ../../../CORTEX_MPU_M3_NUCLEO_L152RE_GCC/Demo/AbortDelay.c:678:33
	movw	r1, :lower16:xErrorOccurred
	movt	r1, :upper16:xErrorOccurred
	movs	r0, #1
	str	r0, [r1]
	.loc	3 679 9                         @ ../../../CORTEX_MPU_M3_NUCLEO_L152RE_GCC/Demo/AbortDelay.c:679:9
	b	.LBB12_8
.Ltmp150:
.LBB12_8:
	.loc	3 681 57                        @ ../../../CORTEX_MPU_M3_NUCLEO_L152RE_GCC/Demo/AbortDelay.c:681:57
	ldr	r0, [sp, #28]
	movs	r1, #10
	.loc	3 681 9 is_stmt 0               @ ../../../CORTEX_MPU_M3_NUCLEO_L152RE_GCC/Demo/AbortDelay.c:681:9
	bl	prvCheckExpectedTimeIsWithinAnAcceptableMargin
	.loc	3 684 23 is_stmt 1              @ ../../../CORTEX_MPU_M3_NUCLEO_L152RE_GCC/Demo/AbortDelay.c:684:23
	ldr	r0, [sp, #16]
	.loc	3 684 9 is_stmt 0               @ ../../../CORTEX_MPU_M3_NUCLEO_L152RE_GCC/Demo/AbortDelay.c:684:9
	bl	MPU_vQueueDelete
	.loc	3 685 5 is_stmt 1               @ ../../../CORTEX_MPU_M3_NUCLEO_L152RE_GCC/Demo/AbortDelay.c:685:5
	add	sp, #32
	pop	{r7, pc}
.Ltmp151:
.Lfunc_end12:
	.size	prvTestAbortingQueueSend, .Lfunc_end12-prvTestAbortingQueueSend
	.cfi_endproc
	.cantunwind
	.fnend
                                        @ -- End function
	.section	.text.prvTestAbortingStreamBufferReceive,"ax",%progbits
	.p2align	1                               @ -- Begin function prvTestAbortingStreamBufferReceive
	.type	prvTestAbortingStreamBufferReceive,%function
	.code	16                              @ @prvTestAbortingStreamBufferReceive
	.thumb_func
prvTestAbortingStreamBufferReceive:
.Lfunc_begin13:
	.loc	3 536 0                         @ ../../../CORTEX_MPU_M3_NUCLEO_L152RE_GCC/Demo/AbortDelay.c:536:0
	.fnstart
	.cfi_startproc
@ %bb.0:
	.save	{r7, lr}
	push	{r7, lr}
	.cfi_def_cfa_offset 8
	.cfi_offset lr, -4
	.cfi_offset r7, -8
	.pad	#80
	sub	sp, #80
	.cfi_def_cfa_offset 88
	movs	r1, #1
.Ltmp152:
	.loc	3 540 22 prologue_end           @ ../../../CORTEX_MPU_M3_NUCLEO_L152RE_GCC/Demo/AbortDelay.c:540:22
	str	r1, [sp, #20]                   @ 4-byte Spill
	str	r1, [sp, #64]
	movs	r2, #0
.Ltmp153:
	.loc	3 553 29                        @ ../../../CORTEX_MPU_M3_NUCLEO_L152RE_GCC/Demo/AbortDelay.c:553:29
	str	r2, [sp, #8]
	str	r2, [sp, #4]
	add	r0, sp, #24
	str	r0, [sp]
	movw	r3, :lower16:prvTestAbortingStreamBufferReceive.ucStorageBuffer
	movt	r3, :upper16:prvTestAbortingStreamBufferReceive.ucStorageBuffer
	movs	r0, #5
	bl	MPU_xStreamBufferGenericCreateStatic
	.loc	3 553 27 is_stmt 0              @ ../../../CORTEX_MPU_M3_NUCLEO_L152RE_GCC/Demo/AbortDelay.c:553:27
	str	r0, [sp, #72]
.Ltmp154:
	.loc	3 566 24 is_stmt 1              @ ../../../CORTEX_MPU_M3_NUCLEO_L152RE_GCC/Demo/AbortDelay.c:566:24
	bl	MPU_xTaskGetTickCount
	ldr	r2, [sp, #20]                   @ 4-byte Reload
	.loc	3 566 22 is_stmt 0              @ ../../../CORTEX_MPU_M3_NUCLEO_L152RE_GCC/Demo/AbortDelay.c:566:22
	str	r0, [sp, #76]
	.loc	3 569 41 is_stmt 1              @ ../../../CORTEX_MPU_M3_NUCLEO_L152RE_GCC/Demo/AbortDelay.c:569:41
	ldr	r0, [sp, #72]
	add	r1, sp, #60
	movs	r3, #10
	.loc	3 569 19 is_stmt 0              @ ../../../CORTEX_MPU_M3_NUCLEO_L152RE_GCC/Demo/AbortDelay.c:569:19
	bl	MPU_xStreamBufferReceive
	.loc	3 569 17                        @ ../../../CORTEX_MPU_M3_NUCLEO_L152RE_GCC/Demo/AbortDelay.c:569:17
	str	r0, [sp, #68]
.Ltmp155:
	.loc	3 571 13 is_stmt 1              @ ../../../CORTEX_MPU_M3_NUCLEO_L152RE_GCC/Demo/AbortDelay.c:571:13
	ldr	r0, [sp, #68]
.Ltmp156:
	.loc	3 571 13 is_stmt 0              @ ../../../CORTEX_MPU_M3_NUCLEO_L152RE_GCC/Demo/AbortDelay.c:571:13
	cbz	r0, .LBB13_2
	b	.LBB13_1
.LBB13_1:
.Ltmp157:
	.loc	3 573 33 is_stmt 1              @ ../../../CORTEX_MPU_M3_NUCLEO_L152RE_GCC/Demo/AbortDelay.c:573:33
	movw	r1, :lower16:xErrorOccurred
	movt	r1, :upper16:xErrorOccurred
	movs	r0, #1
	str	r0, [r1]
	.loc	3 574 9                         @ ../../../CORTEX_MPU_M3_NUCLEO_L152RE_GCC/Demo/AbortDelay.c:574:9
	b	.LBB13_2
.Ltmp158:
.LBB13_2:
	.loc	3 576 57                        @ ../../../CORTEX_MPU_M3_NUCLEO_L152RE_GCC/Demo/AbortDelay.c:576:57
	ldr	r0, [sp, #76]
	movs	r1, #10
	.loc	3 576 9 is_stmt 0               @ ../../../CORTEX_MPU_M3_NUCLEO_L152RE_GCC/Demo/AbortDelay.c:576:9
	str	r1, [sp, #16]                   @ 4-byte Spill
	bl	prvCheckExpectedTimeIsWithinAnAcceptableMargin
	.loc	3 579 24 is_stmt 1              @ ../../../CORTEX_MPU_M3_NUCLEO_L152RE_GCC/Demo/AbortDelay.c:579:24
	bl	MPU_xTaskGetTickCount
	ldr	r3, [sp, #16]                   @ 4-byte Reload
	.loc	3 579 22 is_stmt 0              @ ../../../CORTEX_MPU_M3_NUCLEO_L152RE_GCC/Demo/AbortDelay.c:579:22
	str	r0, [sp, #76]
	.loc	3 583 41 is_stmt 1              @ ../../../CORTEX_MPU_M3_NUCLEO_L152RE_GCC/Demo/AbortDelay.c:583:41
	ldr	r0, [sp, #72]
	add	r1, sp, #60
	movs	r2, #1
	.loc	3 583 19 is_stmt 0              @ ../../../CORTEX_MPU_M3_NUCLEO_L152RE_GCC/Demo/AbortDelay.c:583:19
	bl	MPU_xStreamBufferReceive
	.loc	3 583 17                        @ ../../../CORTEX_MPU_M3_NUCLEO_L152RE_GCC/Demo/AbortDelay.c:583:17
	str	r0, [sp, #68]
.Ltmp159:
	.loc	3 585 13 is_stmt 1              @ ../../../CORTEX_MPU_M3_NUCLEO_L152RE_GCC/Demo/AbortDelay.c:585:13
	ldr	r0, [sp, #68]
.Ltmp160:
	.loc	3 585 13 is_stmt 0              @ ../../../CORTEX_MPU_M3_NUCLEO_L152RE_GCC/Demo/AbortDelay.c:585:13
	cbz	r0, .LBB13_4
	b	.LBB13_3
.LBB13_3:
.Ltmp161:
	.loc	3 587 33 is_stmt 1              @ ../../../CORTEX_MPU_M3_NUCLEO_L152RE_GCC/Demo/AbortDelay.c:587:33
	movw	r1, :lower16:xErrorOccurred
	movt	r1, :upper16:xErrorOccurred
	movs	r0, #1
	str	r0, [r1]
	.loc	3 588 9                         @ ../../../CORTEX_MPU_M3_NUCLEO_L152RE_GCC/Demo/AbortDelay.c:588:9
	b	.LBB13_4
.Ltmp162:
.LBB13_4:
	.loc	3 590 57                        @ ../../../CORTEX_MPU_M3_NUCLEO_L152RE_GCC/Demo/AbortDelay.c:590:57
	ldr	r0, [sp, #76]
	movs	r1, #5
	.loc	3 590 9 is_stmt 0               @ ../../../CORTEX_MPU_M3_NUCLEO_L152RE_GCC/Demo/AbortDelay.c:590:9
	bl	prvCheckExpectedTimeIsWithinAnAcceptableMargin
	.loc	3 593 24 is_stmt 1              @ ../../../CORTEX_MPU_M3_NUCLEO_L152RE_GCC/Demo/AbortDelay.c:593:24
	bl	MPU_xTaskGetTickCount
	.loc	3 593 22 is_stmt 0              @ ../../../CORTEX_MPU_M3_NUCLEO_L152RE_GCC/Demo/AbortDelay.c:593:22
	str	r0, [sp, #76]
	.loc	3 596 41 is_stmt 1              @ ../../../CORTEX_MPU_M3_NUCLEO_L152RE_GCC/Demo/AbortDelay.c:596:41
	ldr	r0, [sp, #72]
	add	r1, sp, #60
	movs	r2, #1
	movs	r3, #10
	.loc	3 596 19 is_stmt 0              @ ../../../CORTEX_MPU_M3_NUCLEO_L152RE_GCC/Demo/AbortDelay.c:596:19
	bl	MPU_xStreamBufferReceive
	.loc	3 596 17                        @ ../../../CORTEX_MPU_M3_NUCLEO_L152RE_GCC/Demo/AbortDelay.c:596:17
	str	r0, [sp, #68]
.Ltmp163:
	.loc	3 598 13 is_stmt 1              @ ../../../CORTEX_MPU_M3_NUCLEO_L152RE_GCC/Demo/AbortDelay.c:598:13
	ldr	r0, [sp, #68]
.Ltmp164:
	.loc	3 598 13 is_stmt 0              @ ../../../CORTEX_MPU_M3_NUCLEO_L152RE_GCC/Demo/AbortDelay.c:598:13
	cbz	r0, .LBB13_6
	b	.LBB13_5
.LBB13_5:
.Ltmp165:
	.loc	3 600 33 is_stmt 1              @ ../../../CORTEX_MPU_M3_NUCLEO_L152RE_GCC/Demo/AbortDelay.c:600:33
	movw	r1, :lower16:xErrorOccurred
	movt	r1, :upper16:xErrorOccurred
	movs	r0, #1
	str	r0, [r1]
	.loc	3 601 9                         @ ../../../CORTEX_MPU_M3_NUCLEO_L152RE_GCC/Demo/AbortDelay.c:601:9
	b	.LBB13_6
.Ltmp166:
.LBB13_6:
	.loc	3 603 57                        @ ../../../CORTEX_MPU_M3_NUCLEO_L152RE_GCC/Demo/AbortDelay.c:603:57
	ldr	r0, [sp, #76]
	movs	r1, #10
	.loc	3 603 9 is_stmt 0               @ ../../../CORTEX_MPU_M3_NUCLEO_L152RE_GCC/Demo/AbortDelay.c:603:9
	bl	prvCheckExpectedTimeIsWithinAnAcceptableMargin
	.loc	3 606 30 is_stmt 1              @ ../../../CORTEX_MPU_M3_NUCLEO_L152RE_GCC/Demo/AbortDelay.c:606:30
	ldr	r0, [sp, #72]
	.loc	3 606 9 is_stmt 0               @ ../../../CORTEX_MPU_M3_NUCLEO_L152RE_GCC/Demo/AbortDelay.c:606:9
	bl	MPU_vStreamBufferDelete
	.loc	3 607 5 is_stmt 1               @ ../../../CORTEX_MPU_M3_NUCLEO_L152RE_GCC/Demo/AbortDelay.c:607:5
	add	sp, #80
	pop	{r7, pc}
.Ltmp167:
.Lfunc_end13:
	.size	prvTestAbortingStreamBufferReceive, .Lfunc_end13-prvTestAbortingStreamBufferReceive
	.cfi_endproc
	.cantunwind
	.fnend
                                        @ -- End function
	.hidden	xMaxBlockTime                   @ @xMaxBlockTime
	.type	xMaxBlockTime,%object
	.section	.rodata.xMaxBlockTime,"a",%progbits
	.globl	xMaxBlockTime
	.p2align	2, 0x0
xMaxBlockTime:
	.long	10                              @ 0xa
	.size	xMaxBlockTime, 4

	.hidden	xHalfMaxBlockTime               @ @xHalfMaxBlockTime
	.type	xHalfMaxBlockTime,%object
	.section	.rodata.xHalfMaxBlockTime,"a",%progbits
	.globl	xHalfMaxBlockTime
	.p2align	2, 0x0
xHalfMaxBlockTime:
	.long	5                               @ 0x5
	.size	xHalfMaxBlockTime, 4

	.hidden	xAllowableMargin                @ @xAllowableMargin
	.type	xAllowableMargin,%object
	.section	.rodata.xAllowableMargin,"a",%progbits
	.globl	xAllowableMargin
	.p2align	2, 0x0
xAllowableMargin:
	.long	0                               @ 0x0
	.size	xAllowableMargin, 4

	.type	vCreateAbortDelayTasks.xControllingTaskStack,%object @ @vCreateAbortDelayTasks.xControllingTaskStack
	.section	.bss.vCreateAbortDelayTasks.xControllingTaskStack,"aw",%nobits
	.p2align	9, 0x0
vCreateAbortDelayTasks.xControllingTaskStack:
	.zero	512
	.size	vCreateAbortDelayTasks.xControllingTaskStack, 512

	.type	vCreateAbortDelayTasks.xBlockingTaskStack,%object @ @vCreateAbortDelayTasks.xBlockingTaskStack
	.section	.bss.vCreateAbortDelayTasks.xBlockingTaskStack,"aw",%nobits
	.p2align	9, 0x0
vCreateAbortDelayTasks.xBlockingTaskStack:
	.zero	512
	.size	vCreateAbortDelayTasks.xBlockingTaskStack, 512

	.type	xErrorOccurred,%object          @ @xErrorOccurred
	.section	.bss.xErrorOccurred,"aw",%nobits
	.p2align	5, 0x0
xErrorOccurred:
	.zero	32
	.size	xErrorOccurred, 32

	.type	xControllingCycles,%object      @ @xControllingCycles
	.section	.bss.xControllingCycles,"aw",%nobits
	.p2align	5, 0x0
xControllingCycles:
	.zero	32
	.size	xControllingCycles, 32

	.type	.Lconstinit,%object             @ @constinit
	.section	.data..Lconstinit,"aw",%progbits
	.p2align	2, 0x0
.Lconstinit:
	.long	pcBlockingTaskName
	.long	32                              @ 0x20
	.long	3                               @ 0x3
	.long	xErrorOccurred
	.long	32                              @ 0x20
	.long	3                               @ 0x3
	.long	xControllingCycles
	.long	32                              @ 0x20
	.long	3                               @ 0x3
	.size	.Lconstinit, 36

	.type	xBlockingCycles,%object         @ @xBlockingCycles
	.section	.bss.xBlockingCycles,"aw",%nobits
	.p2align	5, 0x0
xBlockingCycles:
	.zero	32
	.size	xBlockingCycles, 32

	.type	.Lconstinit.1,%object           @ @constinit.1
	.section	.data..Lconstinit.1,"aw",%progbits
	.p2align	2, 0x0
.Lconstinit.1:
	.long	pcControllingTaskName
	.long	32                              @ 0x20
	.long	3                               @ 0x3
	.long	xBlockingCycles
	.long	32                              @ 0x20
	.long	3                               @ 0x3
	.long	xErrorOccurred
	.long	32                              @ 0x20
	.long	3                               @ 0x3
	.size	.Lconstinit.1, 36

	.type	xAreAbortDelayTestTasksStillRunning.xLastControllingCycleCount,%object @ @xAreAbortDelayTestTasksStillRunning.xLastControllingCycleCount
	.section	.bss.xAreAbortDelayTestTasksStillRunning.xLastControllingCycleCount,"aw",%nobits
	.p2align	2, 0x0
xAreAbortDelayTestTasksStillRunning.xLastControllingCycleCount:
	.long	0                               @ 0x0
	.size	xAreAbortDelayTestTasksStillRunning.xLastControllingCycleCount, 4

	.type	xAreAbortDelayTestTasksStillRunning.xLastBlockingCycleCount,%object @ @xAreAbortDelayTestTasksStillRunning.xLastBlockingCycleCount
	.section	.bss.xAreAbortDelayTestTasksStillRunning.xLastBlockingCycleCount,"aw",%nobits
	.p2align	2, 0x0
xAreAbortDelayTestTasksStillRunning.xLastBlockingCycleCount:
	.long	0                               @ 0x0
	.size	xAreAbortDelayTestTasksStillRunning.xLastBlockingCycleCount, 4

	.type	.L.str,%object                  @ @.str
	.section	.rodata.str1.1,"aMS",%progbits,1
.L.str:
	.asciz	"AbtCtrl"
	.size	.L.str, 8

	.type	pcControllingTaskName,%object   @ @pcControllingTaskName
	.section	.data.pcControllingTaskName,"aw",%progbits
	.p2align	5, 0x0
pcControllingTaskName:
	.long	.L.str
	.zero	124
	.size	pcControllingTaskName, 128

	.type	.L.str.3,%object                @ @.str.3
	.section	.rodata.str1.1,"aMS",%progbits,1
.L.str.3:
	.asciz	"AbtBlk"
	.size	.L.str.3, 7

	.type	pcBlockingTaskName,%object      @ @pcBlockingTaskName
	.section	.data.pcBlockingTaskName,"aw",%progbits
	.p2align	5, 0x0
pcBlockingTaskName:
	.long	.L.str.3
	.zero	124
	.size	pcBlockingTaskName, 128

	.type	prvTestAbortingSemaphoreTake.xSemaphoreBuffer,%object @ @prvTestAbortingSemaphoreTake.xSemaphoreBuffer
	.section	.bss.prvTestAbortingSemaphoreTake.xSemaphoreBuffer,"aw",%nobits
	.p2align	2, 0x0
prvTestAbortingSemaphoreTake.xSemaphoreBuffer:
	.zero	84
	.size	prvTestAbortingSemaphoreTake.xSemaphoreBuffer, 84

	.type	prvTestAbortingEventGroupWait.xEventGroupBuffer,%object @ @prvTestAbortingEventGroupWait.xEventGroupBuffer
	.section	.bss.prvTestAbortingEventGroupWait.xEventGroupBuffer,"aw",%nobits
	.p2align	2, 0x0
prvTestAbortingEventGroupWait.xEventGroupBuffer:
	.zero	32
	.size	prvTestAbortingEventGroupWait.xEventGroupBuffer, 32

	.type	prvTestAbortingQueueSend.xQueueBuffer,%object @ @prvTestAbortingQueueSend.xQueueBuffer
	.section	.bss.prvTestAbortingQueueSend.xQueueBuffer,"aw",%nobits
	.p2align	2, 0x0
prvTestAbortingQueueSend.xQueueBuffer:
	.zero	84
	.size	prvTestAbortingQueueSend.xQueueBuffer, 84

	.type	prvTestAbortingQueueSend.ucQueueStorage,%object @ @prvTestAbortingQueueSend.ucQueueStorage
	.section	.bss.prvTestAbortingQueueSend.ucQueueStorage,"aw",%nobits
prvTestAbortingQueueSend.ucQueueStorage:
	.zero	1
	.size	prvTestAbortingQueueSend.ucQueueStorage, 1

	.type	prvTestAbortingStreamBufferReceive.ucStorageBuffer,%object @ @prvTestAbortingStreamBufferReceive.ucStorageBuffer
	.section	.bss.prvTestAbortingStreamBufferReceive.ucStorageBuffer,"aw",%nobits
prvTestAbortingStreamBufferReceive.ucStorageBuffer:
	.zero	5
	.size	prvTestAbortingStreamBufferReceive.ucStorageBuffer, 5

	.file	9 "C:\\Users\\karahulx\\Downloads\\Kernel\\FreeRTOS\\FreeRTOS\\Demo\\CORTEX_MPU_M23_Nuvoton_NuMaker_PFM_M2351_IAR_GCC\\Projects_NTZ\\Keil" "../../../../Source/include/projdefs.h"
	.file	10 "C:\\Users\\karahulx\\Downloads\\Kernel\\FreeRTOS\\FreeRTOS\\Demo\\CORTEX_MPU_M23_Nuvoton_NuMaker_PFM_M2351_IAR_GCC\\Projects_NTZ\\Keil" "../../../../Source/include\\semphr.h"
	.file	11 "C:\\Users\\karahulx\\Downloads\\Kernel\\FreeRTOS\\FreeRTOS\\Demo\\CORTEX_MPU_M23_Nuvoton_NuMaker_PFM_M2351_IAR_GCC\\Projects_NTZ\\Keil" "../../../../Source/include\\stream_buffer.h"
	.section	".note.GNU-stack","",%progbits
	.eabi_attribute	30, 6	@ Tag_ABI_optimization_goals
	.ARM_attribute	16, 1	@ Tag_AV_eba