	.text
	.syntax unified
	.eabi_attribute	67, "2.09"	@ Tag_conformance
	.eabi_attribute	6, 16	@ Tag_CPU_arch
	.eabi_attribute	7, 77	@ Tag_CPU_arch_profile
	.eabi_attribute	8, 0	@ Tag_ARM_ISA_use
	.eabi_attribute	9, 3	@ Tag_THUMB_ISA_use
	.eabi_attribute	34, 0	@ Tag_CPU_unaligned_access
	.eabi_attribute	17, 1	@ Tag_ABI_PCS_GOT_use
	.eabi_attribute	20, 2	@ Tag_ABI_FP_denormal
	.eabi_attribute	21, 0	@ Tag_ABI_FP_exceptions
	.eabi_attribute	23, 1	@ Tag_ABI_FP_number_model
	.eabi_attribute	24, 1	@ Tag_ABI_align_needed
	.eabi_attribute	25, 1	@ Tag_ABI_align_preserved
	.eabi_attribute	38, 1	@ Tag_ABI_FP_16bit_format
	.eabi_attribute	18, 4	@ Tag_ABI_PCS_wchar_t
	.eabi_attribute	26, 2	@ Tag_ABI_enum_size
	.eabi_attribute	14, 0	@ Tag_ABI_PCS_R9_use
	.file	"BlockQ.c"
	.file	1 "C:\\Keil_v5\\ARM\\ARMCLANG\\Bin\\..\\include" "stdint.h"
	.file	2 "C:\\Users\\karahulx\\Downloads\\Kernel\\FreeRTOS\\FreeRTOS\\Demo\\CORTEX_MPU_M23_Nuvoton_NuMaker_PFM_M2351_IAR_GCC\\Projects_NTZ\\Keil" "../../../../Source/portable/GCC/ARM_CM23_NTZ/non_secure/portmacrocommon.h"
	.file	3 "C:\\Users\\karahulx\\Downloads\\Kernel\\FreeRTOS\\FreeRTOS\\Demo\\CORTEX_MPU_M23_Nuvoton_NuMaker_PFM_M2351_IAR_GCC\\Projects_NTZ\\Keil" "../../../CORTEX_MPU_M3_NUCLEO_L152RE_GCC/Demo/BlockQ.c"
	.file	4 "C:\\Users\\karahulx\\Downloads\\Kernel\\FreeRTOS\\FreeRTOS\\Demo\\CORTEX_MPU_M23_Nuvoton_NuMaker_PFM_M2351_IAR_GCC\\Projects_NTZ\\Keil" "../../../../Source/include\\queue.h"
	.section	.text.vStartBlockingQueueTasks,"ax",%progbits
	.hidden	vStartBlockingQueueTasks        @ -- Begin function vStartBlockingQueueTasks
	.globl	vStartBlockingQueueTasks
	.p2align	1
	.type	vStartBlockingQueueTasks,%function
	.code	16                              @ @vStartBlockingQueueTasks
	.thumb_func
vStartBlockingQueueTasks:
.Lfunc_begin0:
	.loc	3 105 0                         @ ../../../CORTEX_MPU_M3_NUCLEO_L152RE_GCC/Demo/BlockQ.c:105:0
	.fnstart
	.cfi_sections .debug_frame
	.cfi_startproc
@ %bb.0:
	.save	{r4, r5, r6, r7, lr}
	push	{r4, r5, r6, r7, lr}
	.cfi_def_cfa_offset 20
	.cfi_offset lr, -4
	.cfi_offset r7, -8
	.cfi_offset r6, -12
	.cfi_offset r5, -16
	.cfi_offset r4, -20
	.pad	#476
	sub	sp, #476
	.cfi_def_cfa_offset 496
	str	r0, [sp, #472]
	movs	r0, #1
.Ltmp0:
	.loc	3 109 23 prologue_end           @ ../../../CORTEX_MPU_M3_NUCLEO_L152RE_GCC/Demo/BlockQ.c:109:23
	str	r0, [sp, #8]                    @ 4-byte Spill
	str	r0, [sp, #444]
	movs	r1, #5
	.loc	3 109 41 is_stmt 0              @ ../../../CORTEX_MPU_M3_NUCLEO_L152RE_GCC/Demo/BlockQ.c:109:41
	str	r1, [sp, #24]                   @ 4-byte Spill
	str	r1, [sp, #440]
	movs	r5, #100
	.loc	3 110 22 is_stmt 1              @ ../../../CORTEX_MPU_M3_NUCLEO_L152RE_GCC/Demo/BlockQ.c:110:22
	str	r5, [sp, #436]
	movs	r2, #0
	.loc	3 111 22                        @ ../../../CORTEX_MPU_M3_NUCLEO_L152RE_GCC/Demo/BlockQ.c:111:22
	str	r2, [sp, #40]                   @ 4-byte Spill
	str	r2, [sp, #432]
	.loc	3 123 24                        @ ../../../CORTEX_MPU_M3_NUCLEO_L152RE_GCC/Demo/BlockQ.c:123:24
	movw	r1, :lower16:xQueueParameters1
	movt	r1, :upper16:xQueueParameters1
	str	r1, [sp, #468]
	movs	r1, #2
	.loc	3 127 34                        @ ../../../CORTEX_MPU_M3_NUCLEO_L152RE_GCC/Demo/BlockQ.c:127:34
	str	r1, [sp, #20]                   @ 4-byte Spill
	bl	MPU_xQueueGenericCreate
	mov	r1, r0
	.loc	3 127 5 is_stmt 0               @ ../../../CORTEX_MPU_M3_NUCLEO_L152RE_GCC/Demo/BlockQ.c:127:5
	ldr	r0, [sp, #40]                   @ 4-byte Reload
	ldr	r2, [sp, #468]
	.loc	3 127 32                        @ ../../../CORTEX_MPU_M3_NUCLEO_L152RE_GCC/Demo/BlockQ.c:127:32
	str	r1, [r2]
	.loc	3 130 5 is_stmt 1               @ ../../../CORTEX_MPU_M3_NUCLEO_L152RE_GCC/Demo/BlockQ.c:130:5
	ldr	r1, [sp, #468]
	.loc	3 130 36 is_stmt 0              @ ../../../CORTEX_MPU_M3_NUCLEO_L152RE_GCC/Demo/BlockQ.c:130:36
	str	r5, [r1, #4]
	.loc	3 134 5 is_stmt 1               @ ../../../CORTEX_MPU_M3_NUCLEO_L152RE_GCC/Demo/BlockQ.c:134:5
	ldr	r1, [sp, #468]
	.loc	3 134 41 is_stmt 0              @ ../../../CORTEX_MPU_M3_NUCLEO_L152RE_GCC/Demo/BlockQ.c:134:41
	movw	r4, :lower16:sBlockingConsumerCount
	movt	r4, :upper16:sBlockingConsumerCount
	str	r4, [r1, #8]
	.loc	3 137 24 is_stmt 1              @ ../../../CORTEX_MPU_M3_NUCLEO_L152RE_GCC/Demo/BlockQ.c:137:24
	movw	r1, :lower16:xQueueParameters2
	movt	r1, :upper16:xQueueParameters2
	str	r1, [sp, #464]
	.loc	3 140 34                        @ ../../../CORTEX_MPU_M3_NUCLEO_L152RE_GCC/Demo/BlockQ.c:140:34
	ldr	r1, [sp, #468]
	.loc	3 140 54 is_stmt 0              @ ../../../CORTEX_MPU_M3_NUCLEO_L152RE_GCC/Demo/BlockQ.c:140:54
	ldr	r1, [r1]
	.loc	3 140 5                         @ ../../../CORTEX_MPU_M3_NUCLEO_L152RE_GCC/Demo/BlockQ.c:140:5
	ldr	r2, [sp, #464]
	.loc	3 140 32                        @ ../../../CORTEX_MPU_M3_NUCLEO_L152RE_GCC/Demo/BlockQ.c:140:32
	str	r1, [r2]
	.loc	3 144 5 is_stmt 1               @ ../../../CORTEX_MPU_M3_NUCLEO_L152RE_GCC/Demo/BlockQ.c:144:5
	ldr	r1, [sp, #464]
	.loc	3 144 36 is_stmt 0              @ ../../../CORTEX_MPU_M3_NUCLEO_L152RE_GCC/Demo/BlockQ.c:144:36
	str	r0, [r1, #4]
	.loc	3 148 5 is_stmt 1               @ ../../../CORTEX_MPU_M3_NUCLEO_L152RE_GCC/Demo/BlockQ.c:148:5
	ldr	r0, [sp, #464]
	.loc	3 148 41 is_stmt 0              @ ../../../CORTEX_MPU_M3_NUCLEO_L152RE_GCC/Demo/BlockQ.c:148:41
	movw	r6, :lower16:sBlockingProducerCount
	movt	r6, :upper16:sBlockingProducerCount
	str	r6, [r0, #8]
	.loc	3 156 9 is_stmt 1               @ ../../../CORTEX_MPU_M3_NUCLEO_L152RE_GCC/Demo/BlockQ.c:156:9
	movw	r0, :lower16:vBlockingQueueConsumer
	movt	r0, :upper16:vBlockingQueueConsumer
	str	r0, [sp, #28]                   @ 4-byte Spill
	str	r0, [sp, #368]
	movw	r0, :lower16:.L.str
	movt	r0, :upper16:.L.str
	str	r0, [sp, #372]
	add	r2, sp, #368
	str	r2, [sp]                        @ 4-byte Spill
	movs	r0, #128
	str	r0, [sp, #32]                   @ 4-byte Spill
	strh	r0, [r2, #8]
	.loc	3 160 43                        @ ../../../CORTEX_MPU_M3_NUCLEO_L152RE_GCC/Demo/BlockQ.c:160:43
	ldr	r0, [sp, #468]
	.loc	3 156 9                         @ ../../../CORTEX_MPU_M3_NUCLEO_L152RE_GCC/Demo/BlockQ.c:156:9
	str	r0, [sp, #380]
	.loc	3 161 32                        @ ../../../CORTEX_MPU_M3_NUCLEO_L152RE_GCC/Demo/BlockQ.c:161:32
	ldr	r0, [sp, #472]
	.loc	3 156 9                         @ ../../../CORTEX_MPU_M3_NUCLEO_L152RE_GCC/Demo/BlockQ.c:156:9
	str	r0, [sp, #384]
	movw	r0, :lower16:vStartBlockingQueueTasks.xBlockingQueueConsumerB1TaskStack
	movt	r0, :upper16:vStartBlockingQueueTasks.xBlockingQueueConsumerB1TaskStack
	str	r0, [sp, #388]
	adds	r2, #24
	.loc	3 163 35                        @ ../../../CORTEX_MPU_M3_NUCLEO_L152RE_GCC/Demo/BlockQ.c:163:35
	movw	r3, :lower16:.Lconstinit
	movt	r3, :upper16:.Lconstinit
	ldm	r3!, {r0, r1, r7}
	stm	r2!, {r0, r1, r7}
	ldm	r3!, {r0, r1, r7}
	stm	r2!, {r0, r1, r7}
	ldm	r3!, {r0, r1, r7}
	stm	r2!, {r0, r1, r7}
	.loc	3 156 9                         @ ../../../CORTEX_MPU_M3_NUCLEO_L152RE_GCC/Demo/BlockQ.c:156:9
	ldr	r1, [sp, #32]                   @ 4-byte Reload
	ldr	r0, [sp, #40]                   @ 4-byte Reload
	str	r0, [sp, #428]
	.loc	3 174 9                         @ ../../../CORTEX_MPU_M3_NUCLEO_L152RE_GCC/Demo/BlockQ.c:174:9
	movw	r2, :lower16:vBlockingQueueProducer
	movt	r2, :upper16:vBlockingQueueProducer
	str	r2, [sp, #36]                   @ 4-byte Spill
	str	r2, [sp, #304]
	movw	r2, :lower16:.L.str.1
	movt	r2, :upper16:.L.str.1
	str	r2, [sp, #308]
	add	r2, sp, #304
	str	r2, [sp, #4]                    @ 4-byte Spill
	strh	r1, [r2, #8]
	.loc	3 178 43                        @ ../../../CORTEX_MPU_M3_NUCLEO_L152RE_GCC/Demo/BlockQ.c:178:43
	ldr	r1, [sp, #464]
	.loc	3 174 9                         @ ../../../CORTEX_MPU_M3_NUCLEO_L152RE_GCC/Demo/BlockQ.c:174:9
	str	r1, [sp, #316]
	str	r0, [sp, #320]
	movw	r0, :lower16:vStartBlockingQueueTasks.xBlockingQueueProducerB2TaskStack
	movt	r0, :upper16:vStartBlockingQueueTasks.xBlockingQueueProducerB2TaskStack
	str	r0, [sp, #324]
	adds	r2, #24
	.loc	3 181 35                        @ ../../../CORTEX_MPU_M3_NUCLEO_L152RE_GCC/Demo/BlockQ.c:181:35
	movw	r3, :lower16:.Lconstinit.2
	movt	r3, :upper16:.Lconstinit.2
	ldm	r3!, {r0, r1, r7}
	stm	r2!, {r0, r1, r7}
	ldm	r3!, {r0, r1, r7}
	stm	r2!, {r0, r1, r7}
	ldm	r3!, {r0, r1, r7}
	stm	r2!, {r0, r1, r7}
	.loc	3 174 9                         @ ../../../CORTEX_MPU_M3_NUCLEO_L152RE_GCC/Demo/BlockQ.c:174:9
	ldr	r0, [sp]                        @ 4-byte Reload
	ldr	r1, [sp, #40]                   @ 4-byte Reload
	str	r1, [sp, #364]
	.loc	3 192 5                         @ ../../../CORTEX_MPU_M3_NUCLEO_L152RE_GCC/Demo/BlockQ.c:192:5
	bl	xTaskCreateRestricted
	ldr	r1, [sp, #40]                   @ 4-byte Reload
                                        @ kill: def $r2 killed $r0
	.loc	3 193 5                         @ ../../../CORTEX_MPU_M3_NUCLEO_L152RE_GCC/Demo/BlockQ.c:193:5
	ldr	r0, [sp, #4]                    @ 4-byte Reload
	bl	xTaskCreateRestricted
	ldr	r1, [sp, #20]                   @ 4-byte Reload
	ldr	r2, [sp, #40]                   @ 4-byte Reload
                                        @ kill: def $r3 killed $r0
	.loc	3 199 24                        @ ../../../CORTEX_MPU_M3_NUCLEO_L152RE_GCC/Demo/BlockQ.c:199:24
	ldr	r0, [sp, #8]                    @ 4-byte Reload
	movw	r3, :lower16:xQueueParameters3
	movt	r3, :upper16:xQueueParameters3
	str	r3, [sp, #460]
	.loc	3 200 34                        @ ../../../CORTEX_MPU_M3_NUCLEO_L152RE_GCC/Demo/BlockQ.c:200:34
	bl	MPU_xQueueGenericCreate
	ldr	r2, [sp, #28]                   @ 4-byte Reload
	ldr	r1, [sp, #32]                   @ 4-byte Reload
	mov	r3, r0
	.loc	3 200 5 is_stmt 0               @ ../../../CORTEX_MPU_M3_NUCLEO_L152RE_GCC/Demo/BlockQ.c:200:5
	ldr	r0, [sp, #40]                   @ 4-byte Reload
	ldr	r7, [sp, #460]
	.loc	3 200 32                        @ ../../../CORTEX_MPU_M3_NUCLEO_L152RE_GCC/Demo/BlockQ.c:200:32
	str	r3, [r7]
	.loc	3 201 5 is_stmt 1               @ ../../../CORTEX_MPU_M3_NUCLEO_L152RE_GCC/Demo/BlockQ.c:201:5
	ldr	r3, [sp, #460]
	.loc	3 201 36 is_stmt 0              @ ../../../CORTEX_MPU_M3_NUCLEO_L152RE_GCC/Demo/BlockQ.c:201:36
	str	r0, [r3, #4]
	.loc	3 202 5 is_stmt 1               @ ../../../CORTEX_MPU_M3_NUCLEO_L152RE_GCC/Demo/BlockQ.c:202:5
	ldr	r7, [sp, #460]
	.loc	3 202 41 is_stmt 0              @ ../../../CORTEX_MPU_M3_NUCLEO_L152RE_GCC/Demo/BlockQ.c:202:41
	adds	r3, r4, #2
	str	r3, [r7, #8]
	.loc	3 204 24 is_stmt 1              @ ../../../CORTEX_MPU_M3_NUCLEO_L152RE_GCC/Demo/BlockQ.c:204:24
	movw	r3, :lower16:xQueueParameters4
	movt	r3, :upper16:xQueueParameters4
	str	r3, [sp, #456]
	.loc	3 205 34                        @ ../../../CORTEX_MPU_M3_NUCLEO_L152RE_GCC/Demo/BlockQ.c:205:34
	ldr	r3, [sp, #460]
	.loc	3 205 54 is_stmt 0              @ ../../../CORTEX_MPU_M3_NUCLEO_L152RE_GCC/Demo/BlockQ.c:205:54
	ldr	r3, [r3]
	.loc	3 205 5                         @ ../../../CORTEX_MPU_M3_NUCLEO_L152RE_GCC/Demo/BlockQ.c:205:5
	ldr	r7, [sp, #456]
	.loc	3 205 32                        @ ../../../CORTEX_MPU_M3_NUCLEO_L152RE_GCC/Demo/BlockQ.c:205:32
	str	r3, [r7]
	.loc	3 206 5 is_stmt 1               @ ../../../CORTEX_MPU_M3_NUCLEO_L152RE_GCC/Demo/BlockQ.c:206:5
	ldr	r3, [sp, #456]
	.loc	3 206 36 is_stmt 0              @ ../../../CORTEX_MPU_M3_NUCLEO_L152RE_GCC/Demo/BlockQ.c:206:36
	str	r5, [r3, #4]
	.loc	3 207 5 is_stmt 1               @ ../../../CORTEX_MPU_M3_NUCLEO_L152RE_GCC/Demo/BlockQ.c:207:5
	ldr	r7, [sp, #456]
	.loc	3 207 41 is_stmt 0              @ ../../../CORTEX_MPU_M3_NUCLEO_L152RE_GCC/Demo/BlockQ.c:207:41
	adds	r3, r6, #2
	str	r3, [r7, #8]
	.loc	3 210 9 is_stmt 1               @ ../../../CORTEX_MPU_M3_NUCLEO_L152RE_GCC/Demo/BlockQ.c:210:9
	str	r2, [sp, #240]
	movw	r2, :lower16:.L.str.3
	movt	r2, :upper16:.L.str.3
	str	r2, [sp, #244]
	add	r3, sp, #240
	str	r3, [sp, #12]                   @ 4-byte Spill
	strh	r1, [r3, #8]
	.loc	3 214 43                        @ ../../../CORTEX_MPU_M3_NUCLEO_L152RE_GCC/Demo/BlockQ.c:214:43
	ldr	r1, [sp, #460]
	.loc	3 210 9                         @ ../../../CORTEX_MPU_M3_NUCLEO_L152RE_GCC/Demo/BlockQ.c:210:9
	str	r1, [sp, #252]
	str	r0, [sp, #256]
	movw	r0, :lower16:vStartBlockingQueueTasks.xBlockingQueueConsumerB3TaskStack
	movt	r0, :upper16:vStartBlockingQueueTasks.xBlockingQueueConsumerB3TaskStack
	str	r0, [sp, #260]
	adds	r3, #24
	.loc	3 217 35                        @ ../../../CORTEX_MPU_M3_NUCLEO_L152RE_GCC/Demo/BlockQ.c:217:35
	movw	r7, :lower16:.Lconstinit.4
	movt	r7, :upper16:.Lconstinit.4
	ldm	r7!, {r0, r1, r2}
	stm	r3!, {r0, r1, r2}
	ldm	r7!, {r0, r1, r2}
	stm	r3!, {r0, r1, r2}
	ldm	r7!, {r0, r1, r2}
	stm	r3!, {r0, r1, r2}
	.loc	3 210 9                         @ ../../../CORTEX_MPU_M3_NUCLEO_L152RE_GCC/Demo/BlockQ.c:210:9
	ldr	r2, [sp, #40]                   @ 4-byte Reload
	ldr	r1, [sp, #36]                   @ 4-byte Reload
	ldr	r0, [sp, #32]                   @ 4-byte Reload
	str	r2, [sp, #300]
	.loc	3 228 9                         @ ../../../CORTEX_MPU_M3_NUCLEO_L152RE_GCC/Demo/BlockQ.c:228:9
	str	r1, [sp, #176]
	movw	r1, :lower16:.L.str.5
	movt	r1, :upper16:.L.str.5
	str	r1, [sp, #180]
	add	r2, sp, #176
	str	r2, [sp, #16]                   @ 4-byte Spill
	strh	r0, [r2, #8]
	.loc	3 232 43                        @ ../../../CORTEX_MPU_M3_NUCLEO_L152RE_GCC/Demo/BlockQ.c:232:43
	ldr	r0, [sp, #456]
	.loc	3 228 9                         @ ../../../CORTEX_MPU_M3_NUCLEO_L152RE_GCC/Demo/BlockQ.c:228:9
	str	r0, [sp, #188]
	.loc	3 233 32                        @ ../../../CORTEX_MPU_M3_NUCLEO_L152RE_GCC/Demo/BlockQ.c:233:32
	ldr	r0, [sp, #472]
	.loc	3 228 9                         @ ../../../CORTEX_MPU_M3_NUCLEO_L152RE_GCC/Demo/BlockQ.c:228:9
	str	r0, [sp, #192]
	movw	r0, :lower16:vStartBlockingQueueTasks.xBlockingQueueProducerB4TaskStack
	movt	r0, :upper16:vStartBlockingQueueTasks.xBlockingQueueProducerB4TaskStack
	str	r0, [sp, #196]
	adds	r2, #24
	.loc	3 235 35                        @ ../../../CORTEX_MPU_M3_NUCLEO_L152RE_GCC/Demo/BlockQ.c:235:35
	movw	r3, :lower16:.Lconstinit.6
	movt	r3, :upper16:.Lconstinit.6
	ldm	r3!, {r0, r1, r7}
	stm	r2!, {r0, r1, r7}
	ldm	r3!, {r0, r1, r7}
	stm	r2!, {r0, r1, r7}
	ldm	r3!, {r0, r1, r7}
	stm	r2!, {r0, r1, r7}
	.loc	3 228 9                         @ ../../../CORTEX_MPU_M3_NUCLEO_L152RE_GCC/Demo/BlockQ.c:228:9
	ldr	r0, [sp, #12]                   @ 4-byte Reload
	ldr	r1, [sp, #40]                   @ 4-byte Reload
	str	r1, [sp, #236]
	.loc	3 246 5                         @ ../../../CORTEX_MPU_M3_NUCLEO_L152RE_GCC/Demo/BlockQ.c:246:5
	bl	xTaskCreateRestricted
	ldr	r1, [sp, #40]                   @ 4-byte Reload
                                        @ kill: def $r2 killed $r0
	.loc	3 247 5                         @ ../../../CORTEX_MPU_M3_NUCLEO_L152RE_GCC/Demo/BlockQ.c:247:5
	ldr	r0, [sp, #16]                   @ 4-byte Reload
	bl	xTaskCreateRestricted
	ldr	r1, [sp, #20]                   @ 4-byte Reload
	ldr	r2, [sp, #40]                   @ 4-byte Reload
                                        @ kill: def $r3 killed $r0
	.loc	3 251 24                        @ ../../../CORTEX_MPU_M3_NUCLEO_L152RE_GCC/Demo/BlockQ.c:251:24
	ldr	r0, [sp, #24]                   @ 4-byte Reload
	movw	r3, :lower16:xQueueParameters5
	movt	r3, :upper16:xQueueParameters5
	str	r3, [sp, #452]
	.loc	3 252 34                        @ ../../../CORTEX_MPU_M3_NUCLEO_L152RE_GCC/Demo/BlockQ.c:252:34
	bl	MPU_xQueueGenericCreate
	ldr	r2, [sp, #28]                   @ 4-byte Reload
	ldr	r3, [sp, #32]                   @ 4-byte Reload
	mov	r7, r0
	.loc	3 252 5 is_stmt 0               @ ../../../CORTEX_MPU_M3_NUCLEO_L152RE_GCC/Demo/BlockQ.c:252:5
	ldr	r0, [sp, #36]                   @ 4-byte Reload
	ldr	r1, [sp, #452]
	.loc	3 252 32                        @ ../../../CORTEX_MPU_M3_NUCLEO_L152RE_GCC/Demo/BlockQ.c:252:32
	str	r7, [r1]
	.loc	3 253 5 is_stmt 1               @ ../../../CORTEX_MPU_M3_NUCLEO_L152RE_GCC/Demo/BlockQ.c:253:5
	ldr	r1, [sp, #40]                   @ 4-byte Reload
	ldr	r7, [sp, #452]
	.loc	3 253 36 is_stmt 0              @ ../../../CORTEX_MPU_M3_NUCLEO_L152RE_GCC/Demo/BlockQ.c:253:36
	str	r5, [r7, #4]
	.loc	3 254 5 is_stmt 1               @ ../../../CORTEX_MPU_M3_NUCLEO_L152RE_GCC/Demo/BlockQ.c:254:5
	ldr	r7, [sp, #452]
	.loc	3 254 41 is_stmt 0              @ ../../../CORTEX_MPU_M3_NUCLEO_L152RE_GCC/Demo/BlockQ.c:254:41
	adds	r6, r6, #4
	str	r6, [r7, #8]
	.loc	3 256 24 is_stmt 1              @ ../../../CORTEX_MPU_M3_NUCLEO_L152RE_GCC/Demo/BlockQ.c:256:24
	movw	r6, :lower16:xQueueParameters6
	movt	r6, :upper16:xQueueParameters6
	str	r6, [sp, #448]
	.loc	3 257 34                        @ ../../../CORTEX_MPU_M3_NUCLEO_L152RE_GCC/Demo/BlockQ.c:257:34
	ldr	r6, [sp, #452]
	.loc	3 257 54 is_stmt 0              @ ../../../CORTEX_MPU_M3_NUCLEO_L152RE_GCC/Demo/BlockQ.c:257:54
	ldr	r6, [r6]
	.loc	3 257 5                         @ ../../../CORTEX_MPU_M3_NUCLEO_L152RE_GCC/Demo/BlockQ.c:257:5
	ldr	r7, [sp, #448]
	.loc	3 257 32                        @ ../../../CORTEX_MPU_M3_NUCLEO_L152RE_GCC/Demo/BlockQ.c:257:32
	str	r6, [r7]
	.loc	3 258 5 is_stmt 1               @ ../../../CORTEX_MPU_M3_NUCLEO_L152RE_GCC/Demo/BlockQ.c:258:5
	ldr	r6, [sp, #448]
	.loc	3 258 36 is_stmt 0              @ ../../../CORTEX_MPU_M3_NUCLEO_L152RE_GCC/Demo/BlockQ.c:258:36
	str	r5, [r6, #4]
	.loc	3 259 5 is_stmt 1               @ ../../../CORTEX_MPU_M3_NUCLEO_L152RE_GCC/Demo/BlockQ.c:259:5
	ldr	r5, [sp, #448]
	.loc	3 259 41 is_stmt 0              @ ../../../CORTEX_MPU_M3_NUCLEO_L152RE_GCC/Demo/BlockQ.c:259:41
	adds	r4, r4, #4
	str	r4, [r5, #8]
	.loc	3 262 9 is_stmt 1               @ ../../../CORTEX_MPU_M3_NUCLEO_L152RE_GCC/Demo/BlockQ.c:262:9
	str	r0, [sp, #112]
	movw	r0, :lower16:.L.str.7
	movt	r0, :upper16:.L.str.7
	str	r0, [sp, #116]
	add	r0, sp, #112
	strh	r3, [r0, #8]
	.loc	3 266 43                        @ ../../../CORTEX_MPU_M3_NUCLEO_L152RE_GCC/Demo/BlockQ.c:266:43
	ldr	r4, [sp, #452]
	.loc	3 262 9                         @ ../../../CORTEX_MPU_M3_NUCLEO_L152RE_GCC/Demo/BlockQ.c:262:9
	str	r4, [sp, #124]
	str	r1, [sp, #128]
	movw	r1, :lower16:vStartBlockingQueueTasks.xBlockingQueueProducerB5TaskStack
	movt	r1, :upper16:vStartBlockingQueueTasks.xBlockingQueueProducerB5TaskStack
	str	r1, [sp, #132]
	mov	r4, r0
	adds	r4, #24
	.loc	3 269 35                        @ ../../../CORTEX_MPU_M3_NUCLEO_L152RE_GCC/Demo/BlockQ.c:269:35
	movw	r5, :lower16:.Lconstinit.8
	movt	r5, :upper16:.Lconstinit.8
	ldm	r5!, {r1, r6, r7}
	stm	r4!, {r1, r6, r7}
	ldm	r5!, {r1, r6, r7}
	stm	r4!, {r1, r6, r7}
	ldm	r5!, {r1, r6, r7}
	stm	r4!, {r1, r6, r7}
	.loc	3 262 9                         @ ../../../CORTEX_MPU_M3_NUCLEO_L152RE_GCC/Demo/BlockQ.c:262:9
	ldr	r1, [sp, #40]                   @ 4-byte Reload
	str	r1, [sp, #172]
	.loc	3 280 9                         @ ../../../CORTEX_MPU_M3_NUCLEO_L152RE_GCC/Demo/BlockQ.c:280:9
	str	r2, [sp, #48]
	movw	r2, :lower16:.L.str.9
	movt	r2, :upper16:.L.str.9
	str	r2, [sp, #52]
	add	r2, sp, #48
	str	r2, [sp, #44]                   @ 4-byte Spill
	strh	r3, [r2, #8]
	.loc	3 284 43                        @ ../../../CORTEX_MPU_M3_NUCLEO_L152RE_GCC/Demo/BlockQ.c:284:43
	ldr	r3, [sp, #448]
	.loc	3 280 9                         @ ../../../CORTEX_MPU_M3_NUCLEO_L152RE_GCC/Demo/BlockQ.c:280:9
	str	r3, [sp, #60]
	str	r1, [sp, #64]
	movw	r3, :lower16:vStartBlockingQueueTasks.xBlockingQueueConsumerB6TaskStack
	movt	r3, :upper16:vStartBlockingQueueTasks.xBlockingQueueConsumerB6TaskStack
	str	r3, [sp, #68]
	adds	r2, #24
	.loc	3 287 35                        @ ../../../CORTEX_MPU_M3_NUCLEO_L152RE_GCC/Demo/BlockQ.c:287:35
	movw	r3, :lower16:.Lconstinit.10
	movt	r3, :upper16:.Lconstinit.10
	ldm	r3!, {r4, r5, r6}
	stm	r2!, {r4, r5, r6}
	ldm	r3!, {r4, r5, r6}
	stm	r2!, {r4, r5, r6}
	ldm	r3!, {r4, r5, r6}
	stm	r2!, {r4, r5, r6}
	.loc	3 280 9                         @ ../../../CORTEX_MPU_M3_NUCLEO_L152RE_GCC/Demo/BlockQ.c:280:9
	str	r1, [sp, #108]
	.loc	3 298 5                         @ ../../../CORTEX_MPU_M3_NUCLEO_L152RE_GCC/Demo/BlockQ.c:298:5
	bl	xTaskCreateRestricted
	ldr	r1, [sp, #40]                   @ 4-byte Reload
                                        @ kill: def $r2 killed $r0
	.loc	3 299 5                         @ ../../../CORTEX_MPU_M3_NUCLEO_L152RE_GCC/Demo/BlockQ.c:299:5
	ldr	r0, [sp, #44]                   @ 4-byte Reload
	bl	xTaskCreateRestricted
	.loc	3 300 1                         @ ../../../CORTEX_MPU_M3_NUCLEO_L152RE_GCC/Demo/BlockQ.c:300:1
	add	sp, #476
	pop	{r4, r5, r6, r7, pc}
.Ltmp1:
.Lfunc_end0:
	.size	vStartBlockingQueueTasks, .Lfunc_end0-vStartBlockingQueueTasks
	.cfi_endproc
	.cantunwind
	.fnend
                                        @ -- End function
	.section	.text.vBlockingQueueConsumer,"ax",%progbits
	.p2align	1                               @ -- Begin function vBlockingQueueConsumer
	.type	vBlockingQueueConsumer,%function
	.code	16                              @ @vBlockingQueueConsumer
	.thumb_func
vBlockingQueueConsumer:
.Lfunc_begin1:
	.loc	3 339 0                         @ ../../../CORTEX_MPU_M3_NUCLEO_L152RE_GCC/Demo/BlockQ.c:339:0
	.fnstart
	.cfi_startproc
@ %bb.0:
	.save	{r7, lr}
	push	{r7, lr}
	.cfi_def_cfa_offset 8
	.cfi_offset lr, -4
	.cfi_offset r7, -8
	.pad	#24
	sub	sp, #24
	.cfi_def_cfa_offset 32
	str	r0, [sp, #20]
	add	r1, sp, #12
	movs	r0, #0
.Ltmp2:
	.loc	3 340 22 prologue_end           @ ../../../CORTEX_MPU_M3_NUCLEO_L152RE_GCC/Demo/BlockQ.c:340:22
	strh	r0, [r1]
	add	r1, sp, #4
	.loc	3 342 11                        @ ../../../CORTEX_MPU_M3_NUCLEO_L152RE_GCC/Demo/BlockQ.c:342:11
	strh	r0, [r1]
	.loc	3 344 56                        @ ../../../CORTEX_MPU_M3_NUCLEO_L152RE_GCC/Demo/BlockQ.c:344:56
	ldr	r0, [sp, #20]
	.loc	3 344 23 is_stmt 0              @ ../../../CORTEX_MPU_M3_NUCLEO_L152RE_GCC/Demo/BlockQ.c:344:23
	str	r0, [sp, #8]
	.loc	3 346 5 is_stmt 1               @ ../../../CORTEX_MPU_M3_NUCLEO_L152RE_GCC/Demo/BlockQ.c:346:5
	b	.LBB1_1
.LBB1_1:                                @ =>This Inner Loop Header: Depth=1
.Ltmp3:
	.loc	3 348 28                        @ ../../../CORTEX_MPU_M3_NUCLEO_L152RE_GCC/Demo/BlockQ.c:348:28
	ldr	r1, [sp, #8]
	.loc	3 348 47 is_stmt 0              @ ../../../CORTEX_MPU_M3_NUCLEO_L152RE_GCC/Demo/BlockQ.c:348:47
	ldr	r0, [r1]
	.loc	3 348 83                        @ ../../../CORTEX_MPU_M3_NUCLEO_L152RE_GCC/Demo/BlockQ.c:348:83
	ldr	r2, [r1, #4]
	add	r1, sp, #16
	.loc	3 348 13                        @ ../../../CORTEX_MPU_M3_NUCLEO_L152RE_GCC/Demo/BlockQ.c:348:13
	bl	MPU_xQueueReceive
.Ltmp4:
	.loc	3 348 13                        @ ../../../CORTEX_MPU_M3_NUCLEO_L152RE_GCC/Demo/BlockQ.c:348:13
	cmp	r0, #1
	bne	.LBB1_8
	b	.LBB1_2
.LBB1_2:                                @   in Loop: Header=BB1_1 Depth=1
	.loc	3 0 13                          @ ../../../CORTEX_MPU_M3_NUCLEO_L152RE_GCC/Demo/BlockQ.c:0:13
	add	r0, sp, #16
.Ltmp5:
	.loc	3 350 17 is_stmt 1              @ ../../../CORTEX_MPU_M3_NUCLEO_L152RE_GCC/Demo/BlockQ.c:350:17
	ldrh	r0, [r0]
	add	r1, sp, #12
	.loc	3 350 27 is_stmt 0              @ ../../../CORTEX_MPU_M3_NUCLEO_L152RE_GCC/Demo/BlockQ.c:350:27
	ldrh	r1, [r1]
.Ltmp6:
	.loc	3 350 17                        @ ../../../CORTEX_MPU_M3_NUCLEO_L152RE_GCC/Demo/BlockQ.c:350:17
	cmp	r0, r1
	beq	.LBB1_4
	b	.LBB1_3
.LBB1_3:                                @   in Loop: Header=BB1_1 Depth=1
.Ltmp7:
	.loc	3 353 35 is_stmt 1              @ ../../../CORTEX_MPU_M3_NUCLEO_L152RE_GCC/Demo/BlockQ.c:353:35
	ldr	r0, [sp, #16]
	add	r1, sp, #12
	.loc	3 353 33 is_stmt 0              @ ../../../CORTEX_MPU_M3_NUCLEO_L152RE_GCC/Demo/BlockQ.c:353:33
	strh	r0, [r1]
	add	r1, sp, #4
	movs	r0, #1
	.loc	3 355 36 is_stmt 1              @ ../../../CORTEX_MPU_M3_NUCLEO_L152RE_GCC/Demo/BlockQ.c:355:36
	strh	r0, [r1]
	.loc	3 356 13                        @ ../../../CORTEX_MPU_M3_NUCLEO_L152RE_GCC/Demo/BlockQ.c:356:13
	b	.LBB1_7
.Ltmp8:
.LBB1_4:                                @   in Loop: Header=BB1_1 Depth=1
	.loc	3 361 21                        @ ../../../CORTEX_MPU_M3_NUCLEO_L152RE_GCC/Demo/BlockQ.c:361:21
	movs	r1, #0
	add	r0, sp, #4
	ldrsh	r0, [r0, r1]
.Ltmp9:
	.loc	3 361 21 is_stmt 0              @ ../../../CORTEX_MPU_M3_NUCLEO_L152RE_GCC/Demo/BlockQ.c:361:21
	cbnz	r0, .LBB1_6
	b	.LBB1_5
.LBB1_5:                                @   in Loop: Header=BB1_1 Depth=1
.Ltmp10:
	.loc	3 363 24 is_stmt 1              @ ../../../CORTEX_MPU_M3_NUCLEO_L152RE_GCC/Demo/BlockQ.c:363:24
	ldr	r0, [sp, #8]
	.loc	3 363 43 is_stmt 0              @ ../../../CORTEX_MPU_M3_NUCLEO_L152RE_GCC/Demo/BlockQ.c:363:43
	ldr	r1, [r0, #8]
	.loc	3 363 60                        @ ../../../CORTEX_MPU_M3_NUCLEO_L152RE_GCC/Demo/BlockQ.c:363:60
	ldrh	r0, [r1]
	adds	r0, r0, #1
	strh	r0, [r1]
	.loc	3 364 17 is_stmt 1              @ ../../../CORTEX_MPU_M3_NUCLEO_L152RE_GCC/Demo/BlockQ.c:364:17
	b	.LBB1_6
.Ltmp11:
.LBB1_6:                                @   in Loop: Header=BB1_1 Depth=1
	.loc	3 368 17                        @ ../../../CORTEX_MPU_M3_NUCLEO_L152RE_GCC/Demo/BlockQ.c:368:17
	ldr	r0, [sp, #12]
	adds	r0, r0, #1
	add	r1, sp, #12
	strh	r0, [r1]
	b	.LBB1_7
.Ltmp12:
.LBB1_7:                                @   in Loop: Header=BB1_1 Depth=1
	.loc	3 379 9                         @ ../../../CORTEX_MPU_M3_NUCLEO_L152RE_GCC/Demo/BlockQ.c:379:9
	b	.LBB1_8
.Ltmp13:
.LBB1_8:                                @   in Loop: Header=BB1_1 Depth=1
	.loc	3 346 5                         @ ../../../CORTEX_MPU_M3_NUCLEO_L152RE_GCC/Demo/BlockQ.c:346:5
	b	.LBB1_1
.Ltmp14:
.Lfunc_end1:
	.size	vBlockingQueueConsumer, .Lfunc_end1-vBlockingQueueConsumer
	.cfi_endproc
	.cantunwind
	.fnend
                                        @ -- End function
	.section	.text.vBlockingQueueProducer,"ax",%progbits
	.p2align	1                               @ -- Begin function vBlockingQueueProducer
	.type	vBlockingQueueProducer,%function
	.code	16                              @ @vBlockingQueueProducer
	.thumb_func
vBlockingQueueProducer:
.Lfunc_begin2:
	.loc	3 304 0                         @ ../../../CORTEX_MPU_M3_NUCLEO_L152RE_GCC/Demo/BlockQ.c:304:0
	.fnstart
	.cfi_startproc
@ %bb.0:
	.save	{r7, lr}
	push	{r7, lr}
	.cfi_def_cfa_offset 8
	.cfi_offset lr, -4
	.cfi_offset r7, -8
	.pad	#16
	sub	sp, #16
	.cfi_def_cfa_offset 24
	str	r0, [sp, #12]
	add	r1, sp, #8
	movs	r0, #0
.Ltmp15:
	.loc	3 305 14 prologue_end           @ ../../../CORTEX_MPU_M3_NUCLEO_L152RE_GCC/Demo/BlockQ.c:305:14
	strh	r0, [r1]
	mov	r1, sp
	.loc	3 307 11                        @ ../../../CORTEX_MPU_M3_NUCLEO_L152RE_GCC/Demo/BlockQ.c:307:11
	strh	r0, [r1]
	.loc	3 309 56                        @ ../../../CORTEX_MPU_M3_NUCLEO_L152RE_GCC/Demo/BlockQ.c:309:56
	ldr	r0, [sp, #12]
	.loc	3 309 23 is_stmt 0              @ ../../../CORTEX_MPU_M3_NUCLEO_L152RE_GCC/Demo/BlockQ.c:309:23
	str	r0, [sp, #4]
	.loc	3 311 5 is_stmt 1               @ ../../../CORTEX_MPU_M3_NUCLEO_L152RE_GCC/Demo/BlockQ.c:311:5
	b	.LBB2_1
.LBB2_1:                                @ =>This Inner Loop Header: Depth=1
.Ltmp16:
	.loc	3 313 13                        @ ../../../CORTEX_MPU_M3_NUCLEO_L152RE_GCC/Demo/BlockQ.c:313:13
	ldr	r1, [sp, #4]
	ldr	r0, [r1]
	ldr	r2, [r1, #4]
	add	r1, sp, #8
	movs	r3, #0
	bl	MPU_xQueueGenericSend
.Ltmp17:
	.loc	3 313 13 is_stmt 0              @ ../../../CORTEX_MPU_M3_NUCLEO_L152RE_GCC/Demo/BlockQ.c:313:13
	cmp	r0, #1
	beq	.LBB2_3
	b	.LBB2_2
.LBB2_2:                                @   in Loop: Header=BB2_1 Depth=1
	.loc	3 0 13                          @ ../../../CORTEX_MPU_M3_NUCLEO_L152RE_GCC/Demo/BlockQ.c:0:13
	mov	r1, sp
	movs	r0, #1
.Ltmp18:
	.loc	3 315 32 is_stmt 1              @ ../../../CORTEX_MPU_M3_NUCLEO_L152RE_GCC/Demo/BlockQ.c:315:32
	strh	r0, [r1]
	.loc	3 316 9                         @ ../../../CORTEX_MPU_M3_NUCLEO_L152RE_GCC/Demo/BlockQ.c:316:9
	b	.LBB2_6
.Ltmp19:
.LBB2_3:                                @   in Loop: Header=BB2_1 Depth=1
	.loc	3 321 17                        @ ../../../CORTEX_MPU_M3_NUCLEO_L152RE_GCC/Demo/BlockQ.c:321:17
	movs	r1, #0
	mov	r0, sp
	ldrsh	r0, [r0, r1]
.Ltmp20:
	.loc	3 321 17 is_stmt 0              @ ../../../CORTEX_MPU_M3_NUCLEO_L152RE_GCC/Demo/BlockQ.c:321:17
	cbnz	r0, .LBB2_5
	b	.LBB2_4
.LBB2_4:                                @   in Loop: Header=BB2_1 Depth=1
.Ltmp21:
	.loc	3 323 20 is_stmt 1              @ ../../../CORTEX_MPU_M3_NUCLEO_L152RE_GCC/Demo/BlockQ.c:323:20
	ldr	r0, [sp, #4]
	.loc	3 323 39 is_stmt 0              @ ../../../CORTEX_MPU_M3_NUCLEO_L152RE_GCC/Demo/BlockQ.c:323:39
	ldr	r1, [r0, #8]
	.loc	3 323 56                        @ ../../../CORTEX_MPU_M3_NUCLEO_L152RE_GCC/Demo/BlockQ.c:323:56
	ldrh	r0, [r1]
	adds	r0, r0, #1
	strh	r0, [r1]
	.loc	3 324 13 is_stmt 1              @ ../../../CORTEX_MPU_M3_NUCLEO_L152RE_GCC/Demo/BlockQ.c:324:13
	b	.LBB2_5
.Ltmp22:
.LBB2_5:                                @   in Loop: Header=BB2_1 Depth=1
	.loc	3 328 13                        @ ../../../CORTEX_MPU_M3_NUCLEO_L152RE_GCC/Demo/BlockQ.c:328:13
	ldr	r0, [sp, #8]
	adds	r0, r0, #1
	add	r1, sp, #8
	strh	r0, [r1]
	b	.LBB2_6
.Ltmp23:
.LBB2_6:                                @   in Loop: Header=BB2_1 Depth=1
	.loc	3 311 5                         @ ../../../CORTEX_MPU_M3_NUCLEO_L152RE_GCC/Demo/BlockQ.c:311:5
	b	.LBB2_1
.Ltmp24:
.Lfunc_end2:
	.size	vBlockingQueueProducer, .Lfunc_end2-vBlockingQueueProducer
	.cfi_endproc
	.cantunwind
	.fnend
                                        @ -- End function
	.section	.text.xAreBlockingQueuesStillRunning,"ax",%progbits
	.hidden	xAreBlockingQueuesStillRunning  @ -- Begin function xAreBlockingQueuesStillRunning
	.globl	xAreBlockingQueuesStillRunning
	.p2align	1
	.type	xAreBlockingQueuesStillRunning,%function
	.code	16                              @ @xAreBlockingQueuesStillRunning
	.thumb_func
xAreBlockingQueuesStillRunning:
.Lfunc_begin3:
	.loc	3 386 0                         @ ../../../CORTEX_MPU_M3_NUCLEO_L152RE_GCC/Demo/BlockQ.c:386:0
	.fnstart
	.cfi_startproc
@ %bb.0:
	.pad	#8
	sub	sp, #8
	.cfi_def_cfa_offset 8
	movs	r0, #1
.Ltmp25:
	.loc	3 389 16 prologue_end           @ ../../../CORTEX_MPU_M3_NUCLEO_L152RE_GCC/Demo/BlockQ.c:389:16
	str	r0, [sp, #4]
	movs	r0, #0
.Ltmp26:
	.loc	3 398 17                        @ ../../../CORTEX_MPU_M3_NUCLEO_L152RE_GCC/Demo/BlockQ.c:398:17
	str	r0, [sp]
	.loc	3 398 10 is_stmt 0              @ ../../../CORTEX_MPU_M3_NUCLEO_L152RE_GCC/Demo/BlockQ.c:398:10
	b	.LBB3_1
.LBB3_1:                                @ =>This Inner Loop Header: Depth=1
.Ltmp27:
	.loc	3 398 22                        @ ../../../CORTEX_MPU_M3_NUCLEO_L152RE_GCC/Demo/BlockQ.c:398:22
	ldr	r0, [sp]
.Ltmp28:
	.loc	3 398 5                         @ ../../../CORTEX_MPU_M3_NUCLEO_L152RE_GCC/Demo/BlockQ.c:398:5
	cmp	r0, #2
	bgt	.LBB3_8
	b	.LBB3_2
.LBB3_2:                                @   in Loop: Header=BB3_1 Depth=1
.Ltmp29:
	.loc	3 400 37 is_stmt 1              @ ../../../CORTEX_MPU_M3_NUCLEO_L152RE_GCC/Demo/BlockQ.c:400:37
	ldr	r0, [sp]
	.loc	3 400 13 is_stmt 0              @ ../../../CORTEX_MPU_M3_NUCLEO_L152RE_GCC/Demo/BlockQ.c:400:13
	lsls	r1, r0, #1
	movw	r0, :lower16:sBlockingConsumerCount
	movt	r0, :upper16:sBlockingConsumerCount
	ldrsh	r0, [r0, r1]
	.loc	3 400 77                        @ ../../../CORTEX_MPU_M3_NUCLEO_L152RE_GCC/Demo/BlockQ.c:400:77
	ldr	r1, [sp]
	.loc	3 400 49                        @ ../../../CORTEX_MPU_M3_NUCLEO_L152RE_GCC/Demo/BlockQ.c:400:49
	lsls	r2, r1, #1
	movw	r1, :lower16:xAreBlockingQueuesStillRunning.sLastBlockingConsumerCount
	movt	r1, :upper16:xAreBlockingQueuesStillRunning.sLastBlockingConsumerCount
	ldrsh	r1, [r1, r2]
.Ltmp30:
	.loc	3 400 13                        @ ../../../CORTEX_MPU_M3_NUCLEO_L152RE_GCC/Demo/BlockQ.c:400:13
	cmp	r0, r1
	bne	.LBB3_4
	b	.LBB3_3
.LBB3_3:                                @   in Loop: Header=BB3_1 Depth=1
	.loc	3 0 13                          @ ../../../CORTEX_MPU_M3_NUCLEO_L152RE_GCC/Demo/BlockQ.c:0:13
	movs	r0, #0
.Ltmp31:
	.loc	3 402 21 is_stmt 1              @ ../../../CORTEX_MPU_M3_NUCLEO_L152RE_GCC/Demo/BlockQ.c:402:21
	str	r0, [sp, #4]
	.loc	3 403 9                         @ ../../../CORTEX_MPU_M3_NUCLEO_L152RE_GCC/Demo/BlockQ.c:403:9
	b	.LBB3_4
.Ltmp32:
.LBB3_4:                                @   in Loop: Header=BB3_1 Depth=1
	.loc	3 405 72                        @ ../../../CORTEX_MPU_M3_NUCLEO_L152RE_GCC/Demo/BlockQ.c:405:72
	ldr	r0, [sp]
	.loc	3 405 48 is_stmt 0              @ ../../../CORTEX_MPU_M3_NUCLEO_L152RE_GCC/Demo/BlockQ.c:405:48
	lsls	r1, r0, #1
	movw	r0, :lower16:sBlockingConsumerCount
	movt	r0, :upper16:sBlockingConsumerCount
	ldrh	r0, [r0, r1]
	.loc	3 405 37                        @ ../../../CORTEX_MPU_M3_NUCLEO_L152RE_GCC/Demo/BlockQ.c:405:37
	ldr	r1, [sp]
	.loc	3 405 9                         @ ../../../CORTEX_MPU_M3_NUCLEO_L152RE_GCC/Demo/BlockQ.c:405:9
	lsls	r2, r1, #1
	movw	r1, :lower16:xAreBlockingQueuesStillRunning.sLastBlockingConsumerCount
	movt	r1, :upper16:xAreBlockingQueuesStillRunning.sLastBlockingConsumerCount
	.loc	3 405 46                        @ ../../../CORTEX_MPU_M3_NUCLEO_L152RE_GCC/Demo/BlockQ.c:405:46
	strh	r0, [r1, r2]
.Ltmp33:
	.loc	3 407 37 is_stmt 1              @ ../../../CORTEX_MPU_M3_NUCLEO_L152RE_GCC/Demo/BlockQ.c:407:37
	ldr	r0, [sp]
	.loc	3 407 13 is_stmt 0              @ ../../../CORTEX_MPU_M3_NUCLEO_L152RE_GCC/Demo/BlockQ.c:407:13
	lsls	r1, r0, #1
	movw	r0, :lower16:sBlockingProducerCount
	movt	r0, :upper16:sBlockingProducerCount
	ldrsh	r0, [r0, r1]
	.loc	3 407 77                        @ ../../../CORTEX_MPU_M3_NUCLEO_L152RE_GCC/Demo/BlockQ.c:407:77
	ldr	r1, [sp]
	.loc	3 407 49                        @ ../../../CORTEX_MPU_M3_NUCLEO_L152RE_GCC/Demo/BlockQ.c:407:49
	lsls	r2, r1, #1
	movw	r1, :lower16:xAreBlockingQueuesStillRunning.sLastBlockingProducerCount
	movt	r1, :upper16:xAreBlockingQueuesStillRunning.sLastBlockingProducerCount
	ldrsh	r1, [r1, r2]
.Ltmp34:
	.loc	3 407 13                        @ ../../../CORTEX_MPU_M3_NUCLEO_L152RE_GCC/Demo/BlockQ.c:407:13
	cmp	r0, r1
	bne	.LBB3_6
	b	.LBB3_5
.LBB3_5:                                @   in Loop: Header=BB3_1 Depth=1
	.loc	3 0 13                          @ ../../../CORTEX_MPU_M3_NUCLEO_L152RE_GCC/Demo/BlockQ.c:0:13
	movs	r0, #0
.Ltmp35:
	.loc	3 409 21 is_stmt 1              @ ../../../CORTEX_MPU_M3_NUCLEO_L152RE_GCC/Demo/BlockQ.c:409:21
	str	r0, [sp, #4]
	.loc	3 410 9                         @ ../../../CORTEX_MPU_M3_NUCLEO_L152RE_GCC/Demo/BlockQ.c:410:9
	b	.LBB3_6
.Ltmp36:
.LBB3_6:                                @   in Loop: Header=BB3_1 Depth=1
	.loc	3 412 72                        @ ../../../CORTEX_MPU_M3_NUCLEO_L152RE_GCC/Demo/BlockQ.c:412:72
	ldr	r0, [sp]
	.loc	3 412 48 is_stmt 0              @ ../../../CORTEX_MPU_M3_NUCLEO_L152RE_GCC/Demo/BlockQ.c:412:48
	lsls	r1, r0, #1
	movw	r0, :lower16:sBlockingProducerCount
	movt	r0, :upper16:sBlockingProducerCount
	ldrh	r0, [r0, r1]
	.loc	3 412 37                        @ ../../../CORTEX_MPU_M3_NUCLEO_L152RE_GCC/Demo/BlockQ.c:412:37
	ldr	r1, [sp]
	.loc	3 412 9                         @ ../../../CORTEX_MPU_M3_NUCLEO_L152RE_GCC/Demo/BlockQ.c:412:9
	lsls	r2, r1, #1
	movw	r1, :lower16:xAreBlockingQueuesStillRunning.sLastBlockingProducerCount
	movt	r1, :upper16:xAreBlockingQueuesStillRunning.sLastBlockingProducerCount
	.loc	3 412 46                        @ ../../../CORTEX_MPU_M3_NUCLEO_L152RE_GCC/Demo/BlockQ.c:412:46
	strh	r0, [r1, r2]
	.loc	3 413 5 is_stmt 1               @ ../../../CORTEX_MPU_M3_NUCLEO_L152RE_GCC/Demo/BlockQ.c:413:5
	b	.LBB3_7
.Ltmp37:
.LBB3_7:                                @   in Loop: Header=BB3_1 Depth=1
	.loc	3 398 57                        @ ../../../CORTEX_MPU_M3_NUCLEO_L152RE_GCC/Demo/BlockQ.c:398:57
	ldr	r0, [sp]
	adds	r0, r0, #1
	str	r0, [sp]
	.loc	3 398 5 is_stmt 0               @ ../../../CORTEX_MPU_M3_NUCLEO_L152RE_GCC/Demo/BlockQ.c:398:5
	b	.LBB3_1
.Ltmp38:
.LBB3_8:
	.loc	3 415 12 is_stmt 1              @ ../../../CORTEX_MPU_M3_NUCLEO_L152RE_GCC/Demo/BlockQ.c:415:12
	ldr	r0, [sp, #4]
	.loc	3 415 5 is_stmt 0               @ ../../../CORTEX_MPU_M3_NUCLEO_L152RE_GCC/Demo/BlockQ.c:415:5
	add	sp, #8
	bx	lr
.Ltmp39:
.Lfunc_end3:
	.size	xAreBlockingQueuesStillRunning, .Lfunc_end3-xAreBlockingQueuesStillRunning
	.cfi_endproc
	.cantunwind
	.fnend
                                        @ -- End function
	.type	vStartBlockingQueueTasks.xBlockingQueueConsumerB1TaskStack,%object @ @vStartBlockingQueueTasks.xBlockingQueueConsumerB1TaskStack
	.section	.bss.vStartBlockingQueueTasks.xBlockingQueueConsumerB1TaskStack,"aw",%nobits
	.p2align	9, 0x0
vStartBlockingQueueTasks.xBlockingQueueConsumerB1TaskStack:
	.zero	512
	.size	vStartBlockingQueueTasks.xBlockingQueueConsumerB1TaskStack, 512

	.type	vStartBlockingQueueTasks.xBlockingQueueProducerB2TaskStack,%object @ @vStartBlockingQueueTasks.xBlockingQueueProducerB2TaskStack
	.section	.bss.vStartBlockingQueueTasks.xBlockingQueueProducerB2TaskStack,"aw",%nobits
	.p2align	9, 0x0
vStartBlockingQueueTasks.xBlockingQueueProducerB2TaskStack:
	.zero	512
	.size	vStartBlockingQueueTasks.xBlockingQueueProducerB2TaskStack, 512

	.type	vStartBlockingQueueTasks.xBlockingQueueConsumerB3TaskStack,%object @ @vStartBlockingQueueTasks.xBlockingQueueConsumerB3TaskStack
	.section	.bss.vStartBlockingQueueTasks.xBlockingQueueConsumerB3TaskStack,"aw",%nobits
	.p2align	9, 0x0
vStartBlockingQueueTasks.xBlockingQueueConsumerB3TaskStack:
	.zero	512
	.size	vStartBlockingQueueTasks.xBlockingQueueConsumerB3TaskStack, 512

	.type	vStartBlockingQueueTasks.xBlockingQueueProducerB4TaskStack,%object @ @vStartBlockingQueueTasks.xBlockingQueueProducerB4TaskStack
	.section	.bss.vStartBlockingQueueTasks.xBlockingQueueProducerB4TaskStack,"aw",%nobits
	.p2align	9, 0x0
vStartBlockingQueueTasks.xBlockingQueueProducerB4TaskStack:
	.zero	512
	.size	vStartBlockingQueueTasks.xBlockingQueueProducerB4TaskStack, 512

	.type	vStartBlockingQueueTasks.xBlockingQueueProducerB5TaskStack,%object @ @vStartBlockingQueueTasks.xBlockingQueueProducerB5TaskStack
	.section	.bss.vStartBlockingQueueTasks.xBlockingQueueProducerB5TaskStack,"aw",%nobits
	.p2align	9, 0x0
vStartBlockingQueueTasks.xBlockingQueueProducerB5TaskStack:
	.zero	512
	.size	vStartBlockingQueueTasks.xBlockingQueueProducerB5TaskStack, 512

	.type	vStartBlockingQueueTasks.xBlockingQueueConsumerB6TaskStack,%object @ @vStartBlockingQueueTasks.xBlockingQueueConsumerB6TaskStack
	.section	.bss.vStartBlockingQueueTasks.xBlockingQueueConsumerB6TaskStack,"aw",%nobits
	.p2align	9, 0x0
vStartBlockingQueueTasks.xBlockingQueueConsumerB6TaskStack:
	.zero	512
	.size	vStartBlockingQueueTasks.xBlockingQueueConsumerB6TaskStack, 512

	.type	xQueueParameters1,%object       @ @xQueueParameters1
	.section	.bss.xQueueParameters1,"aw",%nobits
	.p2align	5, 0x0
xQueueParameters1:
	.zero	32
	.size	xQueueParameters1, 32

	.type	sBlockingConsumerCount,%object  @ @sBlockingConsumerCount
	.section	.bss.sBlockingConsumerCount,"aw",%nobits
	.p2align	5, 0x0
sBlockingConsumerCount:
	.zero	32
	.size	sBlockingConsumerCount, 32

	.type	xQueueParameters2,%object       @ @xQueueParameters2
	.section	.bss.xQueueParameters2,"aw",%nobits
	.p2align	5, 0x0
xQueueParameters2:
	.zero	32
	.size	xQueueParameters2, 32

	.type	sBlockingProducerCount,%object  @ @sBlockingProducerCount
	.section	.bss.sBlockingProducerCount,"aw",%nobits
	.p2align	5, 0x0
sBlockingProducerCount:
	.zero	32
	.size	sBlockingProducerCount, 32

	.type	.L.str,%object                  @ @.str
	.section	.rodata.str1.1,"aMS",%progbits,1
.L.str:
	.asciz	"QConsB1"
	.size	.L.str, 8

	.type	.Lconstinit,%object             @ @constinit
	.section	.data..Lconstinit,"aw",%progbits
	.p2align	2, 0x0
.Lconstinit:
	.long	sBlockingConsumerCount
	.long	32                              @ 0x20
	.long	3                               @ 0x3
	.long	xQueueParameters1
	.long	32                              @ 0x20
	.long	3                               @ 0x3
	.zero	12
	.size	.Lconstinit, 36

	.type	.L.str.1,%object                @ @.str.1
	.section	.rodata.str1.1,"aMS",%progbits,1
.L.str.1:
	.asciz	"QProdB2"
	.size	.L.str.1, 8

	.type	.Lconstinit.2,%object           @ @constinit.2
	.section	.data..Lconstinit.2,"aw",%progbits
	.p2align	2, 0x0
.Lconstinit.2:
	.long	sBlockingProducerCount
	.long	32                              @ 0x20
	.long	3                               @ 0x3
	.long	xQueueParameters2
	.long	32                              @ 0x20
	.long	3                               @ 0x3
	.zero	12
	.size	.Lconstinit.2, 36

	.type	xQueueParameters3,%object       @ @xQueueParameters3
	.section	.bss.xQueueParameters3,"aw",%nobits
	.p2align	5, 0x0
xQueueParameters3:
	.zero	32
	.size	xQueueParameters3, 32

	.type	xQueueParameters4,%object       @ @xQueueParameters4
	.section	.bss.xQueueParameters4,"aw",%nobits
	.p2align	5, 0x0
xQueueParameters4:
	.zero	32
	.size	xQueueParameters4, 32

	.type	.L.str.3,%object                @ @.str.3
	.section	.rodata.str1.1,"aMS",%progbits,1
.L.str.3:
	.asciz	"QConsB3"
	.size	.L.str.3, 8

	.type	.Lconstinit.4,%object           @ @constinit.4
	.section	.data..Lconstinit.4,"aw",%progbits
	.p2align	2, 0x0
.Lconstinit.4:
	.long	sBlockingConsumerCount
	.long	32                              @ 0x20
	.long	3                               @ 0x3
	.long	xQueueParameters3
	.long	32                              @ 0x20
	.long	3                               @ 0x3
	.zero	12
	.size	.Lconstinit.4, 36

	.type	.L.str.5,%object                @ @.str.5
	.section	.rodata.str1.1,"aMS",%progbits,1
.L.str.5:
	.asciz	"QProdB4"
	.size	.L.str.5, 8

	.type	.Lconstinit.6,%object           @ @constinit.6
	.section	.data..Lconstinit.6,"aw",%progbits
	.p2align	2, 0x0
.Lconstinit.6:
	.long	sBlockingProducerCount
	.long	32                              @ 0x20
	.long	3                               @ 0x3
	.long	xQueueParameters4
	.long	32                              @ 0x20
	.long	3                               @ 0x3
	.zero	12
	.size	.Lconstinit.6, 36

	.type	xQueueParameters5,%object       @ @xQueueParameters5
	.section	.bss.xQueueParameters5,"aw",%nobits
	.p2align	5, 0x0
xQueueParameters5:
	.zero	32
	.size	xQueueParameters5, 32

	.type	xQueueParameters6,%object       @ @xQueueParameters6
	.section	.bss.xQueueParameters6,"aw",%nobits
	.p2align	5, 0x0
xQueueParameters6:
	.zero	32
	.size	xQueueParameters6, 32

	.type	.L.str.7,%object                @ @.str.7
	.section	.rodata.str1.1,"aMS",%progbits,1
.L.str.7:
	.asciz	"QProdB5"
	.size	.L.str.7, 8

	.type	.Lconstinit.8,%object           @ @constinit.8
	.section	.data..Lconstinit.8,"aw",%progbits
	.p2align	2, 0x0
.Lconstinit.8:
	.long	sBlockingProducerCount
	.long	32                              @ 0x20
	.long	3                               @ 0x3
	.long	xQueueParameters5
	.long	32                              @ 0x20
	.long	3                               @ 0x3
	.zero	12
	.size	.Lconstinit.8, 36

	.type	.L.str.9,%object                @ @.str.9
	.section	.rodata.str1.1,"aMS",%progbits,1
.L.str.9:
	.asciz	"QConsB6"
	.size	.L.str.9, 8

	.type	.Lconstinit.10,%object          @ @constinit.10
	.section	.data..Lconstinit.10,"aw",%progbits
	.p2align	2, 0x0
.Lconstinit.10:
	.long	sBlockingConsumerCount
	.long	32                              @ 0x20
	.long	3                               @ 0x3
	.long	xQueueParameters6
	.long	32                              @ 0x20
	.long	3                               @ 0x3
	.zero	12
	.size	.Lconstinit.10, 36

	.type	xAreBlockingQueuesStillRunning.sLastBlockingConsumerCount,%object @ @xAreBlockingQueuesStillRunning.sLastBlockingConsumerCount
	.section	.bss.xAreBlockingQueuesStillRunning.sLastBlockingConsumerCount,"aw",%nobits
	.p2align	1, 0x0
xAreBlockingQueuesStillRunning.sLastBlockingConsumerCount:
	.zero	6
	.size	xAreBlockingQueuesStillRunning.sLastBlockingConsumerCount, 6

	.type	xAreBlockingQueuesStillRunning.sLastBlockingProducerCount,%object @ @xAreBlockingQueuesStillRunning.sLastBlockingProducerCount
	.section	.bss.xAreBlockingQueuesStillRunning.sLastBlockingProducerCount,"aw",%nobits
	.p2align	1, 0x0
xAreBlockingQueuesStillRunning.sLastBlockingProducerCount:
	.zero	6
	.size	xAreBlockingQueuesStillRunning.sLastBlockingProducerCount, 6

	.file	5 "C:\\Users\\karahulx\\Downloads\\Kernel\\FreeRTOS\\FreeRTOS\\Demo\\CORTEX_MPU_M23_Nuvoton_NuMaker_PFM_M2351_IAR_GCC\\Projects_NTZ\\Keil" "../../../../Source/include/projdefs.h"
	.file	6 "C:\\Users\\karahulx\\Downloads\\Kernel\\FreeRTOS\\FreeRTOS\\Demo\\CORTEX_MPU_M23_Nuvoton_NuMaker_PFM_M2351_IAR_GCC\\Projects_NTZ\\Keil" "../../../../Source/include/task.h"
	.file	7 "C:\\Users\\karahulx\\Downloads\\Kernel\\FreeRTOS\\FreeRTOS\\Demo\\CORTEX_MPU_M23_Nuvoton_NuMaker_PFM_M2351_IAR_GCC\\Projects_NTZ\\Keil" "../../../../Source/include\\FreeRTOS.h"
	.section	".note.GNU-stack","",%progbits
	.eabi_attribute	30, 6	@ Tag_ABI_optimization_goals
	.ARM_attribute	16, 1	@ Tag_AV_eba