	.text
	.syntax unified
	.eabi_attribute	67, "2.09"	@ Tag_conformance
	.eabi_attribute	6, 16	@ Tag_CPU_arch
	.eabi_attribute	7, 77	@ Tag_CPU_arch_profile
	.eabi_attribute	8, 0	@ Tag_ARM_ISA_use
	.eabi_attribute	9, 3	@ Tag_THUMB_ISA_use
	.eabi_attribute	34, 0	@ Tag_CPU_unaligned_access
	.eabi_attribute	17, 1	@ Tag_ABI_PCS_GOT_use
	.eabi_attribute	20, 2	@ Tag_ABI_FP_denormal
	.eabi_attribute	21, 0	@ Tag_ABI_FP_exceptions
	.eabi_attribute	23, 1	@ Tag_ABI_FP_number_model
	.eabi_attribute	24, 1	@ Tag_ABI_align_needed
	.eabi_attribute	25, 1	@ Tag_ABI_align_preserved
	.eabi_attribute	38, 1	@ Tag_ABI_FP_16bit_format
	.eabi_attribute	18, 4	@ Tag_ABI_PCS_wchar_t
	.eabi_attribute	26, 2	@ Tag_ABI_enum_size
	.eabi_attribute	14, 0	@ Tag_ABI_PCS_R9_use
	.file	"blocktim.c"
	.file	1 "C:\\Keil_v5\\ARM\\ARMCLANG\\Bin\\..\\include" "stdint.h"
	.file	2 "C:\\Users\\karahulx\\Downloads\\Kernel\\FreeRTOS\\FreeRTOS\\Demo\\CORTEX_MPU_M23_Nuvoton_NuMaker_PFM_M2351_IAR_GCC\\Projects_NTZ\\Keil" "../../../../Source/portable/GCC/ARM_CM23_NTZ/non_secure/portmacrocommon.h"
	.file	3 "C:\\Users\\karahulx\\Downloads\\Kernel\\FreeRTOS\\FreeRTOS\\Demo\\CORTEX_MPU_M23_Nuvoton_NuMaker_PFM_M2351_IAR_GCC\\Projects_NTZ\\Keil" "../../../CORTEX_MPU_M3_NUCLEO_L152RE_GCC/Demo/blocktim.c"
	.file	4 "C:\\Users\\karahulx\\Downloads\\Kernel\\FreeRTOS\\FreeRTOS\\Demo\\CORTEX_MPU_M23_Nuvoton_NuMaker_PFM_M2351_IAR_GCC\\Projects_NTZ\\Keil" "../../../../Source/include\\queue.h"
	.file	5 "C:\\Users\\karahulx\\Downloads\\Kernel\\FreeRTOS\\FreeRTOS\\Demo\\CORTEX_MPU_M23_Nuvoton_NuMaker_PFM_M2351_IAR_GCC\\Projects_NTZ\\Keil" "../../../../Source/include/task.h"
	.section	.text.vCreateBlockTimeTasks,"ax",%progbits
	.hidden	vCreateBlockTimeTasks           @ -- Begin function vCreateBlockTimeTasks
	.globl	vCreateBlockTimeTasks
	.p2align	1
	.type	vCreateBlockTimeTasks,%function
	.code	16                              @ @vCreateBlockTimeTasks
	.thumb_func
vCreateBlockTimeTasks:
.Lfunc_begin0:
	.loc	3 106 0                         @ ../../../CORTEX_MPU_M3_NUCLEO_L152RE_GCC/Demo/blocktim.c:106:0
	.fnstart
	.cfi_sections .debug_frame
	.cfi_startproc
@ %bb.0:
	.save	{r4, r5, r6, r7, lr}
	push	{r4, r5, r6, r7, lr}
	.cfi_def_cfa_offset 20
	.cfi_offset lr, -4
	.cfi_offset r7, -8
	.cfi_offset r6, -12
	.cfi_offset r5, -16
	.cfi_offset r4, -20
	.pad	#148
	sub	sp, #148
	.cfi_def_cfa_offset 168
	movs	r0, #5
	movs	r1, #4
	movs	r2, #0
.Ltmp0:
	.loc	3 108 23 prologue_end           @ ../../../CORTEX_MPU_M3_NUCLEO_L152RE_GCC/Demo/blocktim.c:108:23
	bl	MPU_xQueueGenericCreate
	mov	r1, r0
	.loc	3 108 21 is_stmt 0              @ ../../../CORTEX_MPU_M3_NUCLEO_L152RE_GCC/Demo/blocktim.c:108:21
	movw	r0, :lower16:xTestQueue
	movt	r0, :upper16:xTestQueue
	str	r1, [r0]
.Ltmp1:
	.loc	3 113 9 is_stmt 1               @ ../../../CORTEX_MPU_M3_NUCLEO_L152RE_GCC/Demo/blocktim.c:113:9
	ldr	r0, [r0]
.Ltmp2:
	.loc	3 113 9 is_stmt 0               @ ../../../CORTEX_MPU_M3_NUCLEO_L152RE_GCC/Demo/blocktim.c:113:9
	cmp	r0, #0
	beq	.LBB0_2
	b	.LBB0_1
.LBB0_1:
.Ltmp3:
	.loc	3 125 9 is_stmt 1               @ ../../../CORTEX_MPU_M3_NUCLEO_L152RE_GCC/Demo/blocktim.c:125:9
	movw	r0, :lower16:vPrimaryBlockTimeTestTask
	movt	r0, :upper16:vPrimaryBlockTimeTestTask
	str	r0, [sp, #84]
	movw	r0, :lower16:.L.str
	movt	r0, :upper16:.L.str
	str	r0, [sp, #88]
	add	r0, sp, #84
	str	r0, [sp, #12]                   @ 4-byte Spill
	movs	r4, #128
	strh	r4, [r0, #8]
	.loc	3 129 42                        @ ../../../CORTEX_MPU_M3_NUCLEO_L152RE_GCC/Demo/blocktim.c:129:42
	movw	r1, :lower16:xTestQueue
	movt	r1, :upper16:xTestQueue
	str	r1, [sp, #8]                    @ 4-byte Spill
	ldr	r1, [r1]
	.loc	3 125 9                         @ ../../../CORTEX_MPU_M3_NUCLEO_L152RE_GCC/Demo/blocktim.c:125:9
	str	r1, [sp, #96]
	movw	r1, #2
	movt	r1, #32768
	str	r1, [sp, #100]
	movw	r1, :lower16:vCreateBlockTimeTasks.xPrimaryBlockTimeTestTaskStack
	movt	r1, :upper16:vCreateBlockTimeTasks.xPrimaryBlockTimeTestTaskStack
	str	r1, [sp, #104]
	adds	r0, #24
	str	r0, [sp, #4]                    @ 4-byte Spill
	movs	r1, #36
	bl	__aeabi_memclr4
	ldr	r1, [sp, #4]                    @ 4-byte Reload
	ldr	r3, [sp, #8]                    @ 4-byte Reload
	ldr	r0, [sp, #12]                   @ 4-byte Reload
	.loc	3 134 13                        @ ../../../CORTEX_MPU_M3_NUCLEO_L152RE_GCC/Demo/blocktim.c:134:13
	movw	r2, :lower16:.Lconstinit
	movt	r2, :upper16:.Lconstinit
	ldm	r2!, {r5, r6, r7}
	stm	r1!, {r5, r6, r7}
	ldm	r2!, {r5, r6, r7}
	stm	r1!, {r5, r6, r7}
	ldm	r2!, {r5, r6, r7}
	stm	r1!, {r5, r6, r7}
	movs	r1, #0
	.loc	3 125 9                         @ ../../../CORTEX_MPU_M3_NUCLEO_L152RE_GCC/Demo/blocktim.c:125:9
	str	r1, [sp, #144]
	.loc	3 141 9                         @ ../../../CORTEX_MPU_M3_NUCLEO_L152RE_GCC/Demo/blocktim.c:141:9
	movw	r2, :lower16:vSecondaryBlockTimeTestTask
	movt	r2, :upper16:vSecondaryBlockTimeTestTask
	str	r2, [sp, #20]
	movw	r2, :lower16:.L.str.1
	movt	r2, :upper16:.L.str.1
	str	r2, [sp, #24]
	add	r2, sp, #20
	str	r2, [sp, #16]                   @ 4-byte Spill
	strh	r4, [r2, #8]
	.loc	3 145 42                        @ ../../../CORTEX_MPU_M3_NUCLEO_L152RE_GCC/Demo/blocktim.c:145:42
	ldr	r3, [r3]
	.loc	3 141 9                         @ ../../../CORTEX_MPU_M3_NUCLEO_L152RE_GCC/Demo/blocktim.c:141:9
	str	r3, [sp, #32]
	movs	r3, #1
	str	r3, [sp, #36]
	movw	r3, :lower16:vCreateBlockTimeTasks.xSecondaryBlockTimeTestTaskStack
	movt	r3, :upper16:vCreateBlockTimeTasks.xSecondaryBlockTimeTestTaskStack
	str	r3, [sp, #40]
	adds	r2, #24
	.loc	3 149 13                        @ ../../../CORTEX_MPU_M3_NUCLEO_L152RE_GCC/Demo/blocktim.c:149:13
	movw	r3, :lower16:.Lconstinit.2
	movt	r3, :upper16:.Lconstinit.2
	ldm	r3!, {r4, r5, r6}
	stm	r2!, {r4, r5, r6}
	ldm	r3!, {r4, r5, r6}
	stm	r2!, {r4, r5, r6}
	ldm	r3!, {r4, r5, r6}
	stm	r2!, {r4, r5, r6}
	.loc	3 141 9                         @ ../../../CORTEX_MPU_M3_NUCLEO_L152RE_GCC/Demo/blocktim.c:141:9
	str	r1, [sp, #80]
	.loc	3 158 9                         @ ../../../CORTEX_MPU_M3_NUCLEO_L152RE_GCC/Demo/blocktim.c:158:9
	bl	xTaskCreateRestricted
                                        @ kill: def $r1 killed $r0
	.loc	3 159 9                         @ ../../../CORTEX_MPU_M3_NUCLEO_L152RE_GCC/Demo/blocktim.c:159:9
	ldr	r0, [sp, #16]                   @ 4-byte Reload
	movw	r1, :lower16:xSecondary
	movt	r1, :upper16:xSecondary
	bl	xTaskCreateRestricted
	.loc	3 160 5                         @ ../../../CORTEX_MPU_M3_NUCLEO_L152RE_GCC/Demo/blocktim.c:160:5
	b	.LBB0_2
.Ltmp4:
.LBB0_2:
	.loc	3 161 1                         @ ../../../CORTEX_MPU_M3_NUCLEO_L152RE_GCC/Demo/blocktim.c:161:1
	add	sp, #148
	pop	{r4, r5, r6, r7, pc}
.Ltmp5:
.Lfunc_end0:
	.size	vCreateBlockTimeTasks, .Lfunc_end0-vCreateBlockTimeTasks
	.cfi_endproc
	.cantunwind
	.fnend
                                        @ -- End function
	.section	.text.vPrimaryBlockTimeTestTask,"ax",%progbits
	.p2align	1                               @ -- Begin function vPrimaryBlockTimeTestTask
	.type	vPrimaryBlockTimeTestTask,%function
	.code	16                              @ @vPrimaryBlockTimeTestTask
	.thumb_func
vPrimaryBlockTimeTestTask:
.Lfunc_begin1:
	.loc	3 165 0                         @ ../../../CORTEX_MPU_M3_NUCLEO_L152RE_GCC/Demo/blocktim.c:165:0
	.fnstart
	.cfi_startproc
@ %bb.0:
	.save	{r7, lr}
	push	{r7, lr}
	.cfi_def_cfa_offset 8
	.cfi_offset lr, -4
	.cfi_offset r7, -8
	.pad	#24
	sub	sp, #24
	.cfi_def_cfa_offset 32
	str	r0, [sp, #20]
.Ltmp6:
	.loc	3 172 5 prologue_end            @ ../../../CORTEX_MPU_M3_NUCLEO_L152RE_GCC/Demo/blocktim.c:172:5
	b	.LBB1_1
.LBB1_1:                                @ =>This Loop Header: Depth=1
                                        @     Child Loop BB1_2 Depth 2
                                        @     Child Loop BB1_12 Depth 2
                                        @     Child Loop BB1_18 Depth 2
                                        @     Child Loop BB1_28 Depth 2
                                        @     Child Loop BB1_31 Depth 2
                                        @     Child Loop BB1_43 Depth 2
                                        @     Child Loop BB1_46 Depth 2
                                        @     Child Loop BB1_52 Depth 2
                                        @     Child Loop BB1_55 Depth 2
                                        @     Child Loop BB1_67 Depth 2
.Ltmp7:
	.loc	3 178 9                         @ ../../../CORTEX_MPU_M3_NUCLEO_L152RE_GCC/Demo/blocktim.c:178:9
	bl	prvBasicDelayTests
	movs	r0, #0
.Ltmp8:
	.loc	3 184 20                        @ ../../../CORTEX_MPU_M3_NUCLEO_L152RE_GCC/Demo/blocktim.c:184:20
	str	r0, [sp, #16]
	.loc	3 184 14 is_stmt 0              @ ../../../CORTEX_MPU_M3_NUCLEO_L152RE_GCC/Demo/blocktim.c:184:14
	b	.LBB1_2
.LBB1_2:                                @   Parent Loop BB1_1 Depth=1
                                        @ =>  This Inner Loop Header: Depth=2
.Ltmp9:
	.loc	3 184 25                        @ ../../../CORTEX_MPU_M3_NUCLEO_L152RE_GCC/Demo/blocktim.c:184:25
	ldr	r0, [sp, #16]
.Ltmp10:
	.loc	3 184 9                         @ ../../../CORTEX_MPU_M3_NUCLEO_L152RE_GCC/Demo/blocktim.c:184:9
	cmp	r0, #4
	bgt	.LBB1_11
	b	.LBB1_3
.LBB1_3:                                @   in Loop: Header=BB1_2 Depth=2
.Ltmp11:
	.loc	3 188 70 is_stmt 1              @ ../../../CORTEX_MPU_M3_NUCLEO_L152RE_GCC/Demo/blocktim.c:188:70
	ldr	r1, [sp, #16]
	movs	r0, #10
	.loc	3 188 67 is_stmt 0              @ ../../../CORTEX_MPU_M3_NUCLEO_L152RE_GCC/Demo/blocktim.c:188:67
	lsls	r0, r1
	.loc	3 188 26                        @ ../../../CORTEX_MPU_M3_NUCLEO_L152RE_GCC/Demo/blocktim.c:188:26
	str	r0, [sp, #4]
	.loc	3 190 33 is_stmt 1              @ ../../../CORTEX_MPU_M3_NUCLEO_L152RE_GCC/Demo/blocktim.c:190:33
	bl	MPU_xTaskGetTickCount
	.loc	3 190 31 is_stmt 0              @ ../../../CORTEX_MPU_M3_NUCLEO_L152RE_GCC/Demo/blocktim.c:190:31
	str	r0, [sp, #8]
.Ltmp12:
	.loc	3 194 32 is_stmt 1              @ ../../../CORTEX_MPU_M3_NUCLEO_L152RE_GCC/Demo/blocktim.c:194:32
	movw	r0, :lower16:xTestQueue
	movt	r0, :upper16:xTestQueue
	ldr	r0, [r0]
	.loc	3 194 57 is_stmt 0              @ ../../../CORTEX_MPU_M3_NUCLEO_L152RE_GCC/Demo/blocktim.c:194:57
	ldr	r2, [sp, #4]
	add	r1, sp, #12
	.loc	3 194 17                        @ ../../../CORTEX_MPU_M3_NUCLEO_L152RE_GCC/Demo/blocktim.c:194:17
	bl	MPU_xQueueReceive
.Ltmp13:
	.loc	3 194 17                        @ ../../../CORTEX_MPU_M3_NUCLEO_L152RE_GCC/Demo/blocktim.c:194:17
	cbz	r0, .LBB1_5
	b	.LBB1_4
.LBB1_4:                                @   in Loop: Header=BB1_2 Depth=2
.Ltmp14:
	.loc	3 196 52 is_stmt 1              @ ../../../CORTEX_MPU_M3_NUCLEO_L152RE_GCC/Demo/blocktim.c:196:52
	movw	r1, :lower16:xSharedArray
	movt	r1, :upper16:xSharedArray
	movs	r0, #1
	str	r0, [r1]
	.loc	3 197 13                        @ ../../../CORTEX_MPU_M3_NUCLEO_L152RE_GCC/Demo/blocktim.c:197:13
	b	.LBB1_5
.Ltmp15:
.LBB1_5:                                @   in Loop: Header=BB1_2 Depth=2
	.loc	3 200 28                        @ ../../../CORTEX_MPU_M3_NUCLEO_L152RE_GCC/Demo/blocktim.c:200:28
	bl	MPU_xTaskGetTickCount
	.loc	3 200 50 is_stmt 0              @ ../../../CORTEX_MPU_M3_NUCLEO_L152RE_GCC/Demo/blocktim.c:200:50
	ldr	r1, [sp, #8]
	.loc	3 200 48                        @ ../../../CORTEX_MPU_M3_NUCLEO_L152RE_GCC/Demo/blocktim.c:200:48
	subs	r0, r0, r1
	.loc	3 200 26                        @ ../../../CORTEX_MPU_M3_NUCLEO_L152RE_GCC/Demo/blocktim.c:200:26
	str	r0, [sp]
.Ltmp16:
	.loc	3 202 17 is_stmt 1              @ ../../../CORTEX_MPU_M3_NUCLEO_L152RE_GCC/Demo/blocktim.c:202:17
	ldr	r0, [sp]
	.loc	3 202 32 is_stmt 0              @ ../../../CORTEX_MPU_M3_NUCLEO_L152RE_GCC/Demo/blocktim.c:202:32
	ldr	r1, [sp, #4]
.Ltmp17:
	.loc	3 202 17                        @ ../../../CORTEX_MPU_M3_NUCLEO_L152RE_GCC/Demo/blocktim.c:202:17
	cmp	r0, r1
	bhs	.LBB1_7
	b	.LBB1_6
.LBB1_6:                                @   in Loop: Header=BB1_2 Depth=2
.Ltmp18:
	.loc	3 205 52 is_stmt 1              @ ../../../CORTEX_MPU_M3_NUCLEO_L152RE_GCC/Demo/blocktim.c:205:52
	movw	r1, :lower16:xSharedArray
	movt	r1, :upper16:xSharedArray
	movs	r0, #1
	str	r0, [r1]
	.loc	3 206 13                        @ ../../../CORTEX_MPU_M3_NUCLEO_L152RE_GCC/Demo/blocktim.c:206:13
	b	.LBB1_7
.Ltmp19:
.LBB1_7:                                @   in Loop: Header=BB1_2 Depth=2
	.loc	3 208 17                        @ ../../../CORTEX_MPU_M3_NUCLEO_L152RE_GCC/Demo/blocktim.c:208:17
	ldr	r0, [sp]
	.loc	3 208 34 is_stmt 0              @ ../../../CORTEX_MPU_M3_NUCLEO_L152RE_GCC/Demo/blocktim.c:208:34
	ldr	r1, [sp, #4]
	.loc	3 208 47                        @ ../../../CORTEX_MPU_M3_NUCLEO_L152RE_GCC/Demo/blocktim.c:208:47
	adds	r1, #15
.Ltmp20:
	.loc	3 208 17                        @ ../../../CORTEX_MPU_M3_NUCLEO_L152RE_GCC/Demo/blocktim.c:208:17
	cmp	r0, r1
	bls	.LBB1_9
	b	.LBB1_8
.LBB1_8:                                @   in Loop: Header=BB1_2 Depth=2
.Ltmp21:
	.loc	3 213 52 is_stmt 1              @ ../../../CORTEX_MPU_M3_NUCLEO_L152RE_GCC/Demo/blocktim.c:213:52
	movw	r1, :lower16:xSharedArray
	movt	r1, :upper16:xSharedArray
	movs	r0, #1
	str	r0, [r1]
	.loc	3 214 13                        @ ../../../CORTEX_MPU_M3_NUCLEO_L152RE_GCC/Demo/blocktim.c:214:13
	b	.LBB1_9
.Ltmp22:
.LBB1_9:                                @   in Loop: Header=BB1_2 Depth=2
	.loc	3 215 9                         @ ../../../CORTEX_MPU_M3_NUCLEO_L152RE_GCC/Demo/blocktim.c:215:9
	b	.LBB1_10
.Ltmp23:
.LBB1_10:                               @   in Loop: Header=BB1_2 Depth=2
	.loc	3 184 55                        @ ../../../CORTEX_MPU_M3_NUCLEO_L152RE_GCC/Demo/blocktim.c:184:55
	ldr	r0, [sp, #16]
	adds	r0, r0, #1
	str	r0, [sp, #16]
	.loc	3 184 9 is_stmt 0               @ ../../../CORTEX_MPU_M3_NUCLEO_L152RE_GCC/Demo/blocktim.c:184:9
	b	.LBB1_2
.Ltmp24:
.LBB1_11:                               @   in Loop: Header=BB1_1 Depth=1
	.loc	3 0 9                           @ ../../../CORTEX_MPU_M3_NUCLEO_L152RE_GCC/Demo/blocktim.c:0:9
	movs	r0, #0
.Ltmp25:
	.loc	3 223 20 is_stmt 1              @ ../../../CORTEX_MPU_M3_NUCLEO_L152RE_GCC/Demo/blocktim.c:223:20
	str	r0, [sp, #16]
	.loc	3 223 14 is_stmt 0              @ ../../../CORTEX_MPU_M3_NUCLEO_L152RE_GCC/Demo/blocktim.c:223:14
	b	.LBB1_12
.LBB1_12:                               @   Parent Loop BB1_1 Depth=1
                                        @ =>  This Inner Loop Header: Depth=2
.Ltmp26:
	.loc	3 223 25                        @ ../../../CORTEX_MPU_M3_NUCLEO_L152RE_GCC/Demo/blocktim.c:223:25
	ldr	r0, [sp, #16]
.Ltmp27:
	.loc	3 223 9                         @ ../../../CORTEX_MPU_M3_NUCLEO_L152RE_GCC/Demo/blocktim.c:223:9
	cmp	r0, #4
	bgt	.LBB1_17
	b	.LBB1_13
.LBB1_13:                               @   in Loop: Header=BB1_12 Depth=2
.Ltmp28:
	.loc	3 225 17 is_stmt 1              @ ../../../CORTEX_MPU_M3_NUCLEO_L152RE_GCC/Demo/blocktim.c:225:17
	movw	r0, :lower16:xTestQueue
	movt	r0, :upper16:xTestQueue
	ldr	r0, [r0]
	add	r1, sp, #16
	movs	r3, #0
	mov	r2, r3
	bl	MPU_xQueueGenericSend
.Ltmp29:
	.loc	3 225 17 is_stmt 0              @ ../../../CORTEX_MPU_M3_NUCLEO_L152RE_GCC/Demo/blocktim.c:225:17
	cmp	r0, #1
	beq	.LBB1_15
	b	.LBB1_14
.LBB1_14:                               @   in Loop: Header=BB1_12 Depth=2
.Ltmp30:
	.loc	3 227 52 is_stmt 1              @ ../../../CORTEX_MPU_M3_NUCLEO_L152RE_GCC/Demo/blocktim.c:227:52
	movw	r1, :lower16:xSharedArray
	movt	r1, :upper16:xSharedArray
	movs	r0, #1
	str	r0, [r1]
	.loc	3 228 13                        @ ../../../CORTEX_MPU_M3_NUCLEO_L152RE_GCC/Demo/blocktim.c:228:13
	b	.LBB1_15
.Ltmp31:
.LBB1_15:                               @   in Loop: Header=BB1_12 Depth=2
	.loc	3 233 9                         @ ../../../CORTEX_MPU_M3_NUCLEO_L152RE_GCC/Demo/blocktim.c:233:9
	b	.LBB1_16
.Ltmp32:
.LBB1_16:                               @   in Loop: Header=BB1_12 Depth=2
	.loc	3 223 55                        @ ../../../CORTEX_MPU_M3_NUCLEO_L152RE_GCC/Demo/blocktim.c:223:55
	ldr	r0, [sp, #16]
	adds	r0, r0, #1
	str	r0, [sp, #16]
	.loc	3 223 9 is_stmt 0               @ ../../../CORTEX_MPU_M3_NUCLEO_L152RE_GCC/Demo/blocktim.c:223:9
	b	.LBB1_12
.Ltmp33:
.LBB1_17:                               @   in Loop: Header=BB1_1 Depth=1
	.loc	3 0 9                           @ ../../../CORTEX_MPU_M3_NUCLEO_L152RE_GCC/Demo/blocktim.c:0:9
	movs	r0, #0
.Ltmp34:
	.loc	3 235 20 is_stmt 1              @ ../../../CORTEX_MPU_M3_NUCLEO_L152RE_GCC/Demo/blocktim.c:235:20
	str	r0, [sp, #16]
	.loc	3 235 14 is_stmt 0              @ ../../../CORTEX_MPU_M3_NUCLEO_L152RE_GCC/Demo/blocktim.c:235:14
	b	.LBB1_18
.LBB1_18:                               @   Parent Loop BB1_1 Depth=1
                                        @ =>  This Inner Loop Header: Depth=2
.Ltmp35:
	.loc	3 235 25                        @ ../../../CORTEX_MPU_M3_NUCLEO_L152RE_GCC/Demo/blocktim.c:235:25
	ldr	r0, [sp, #16]
.Ltmp36:
	.loc	3 235 9                         @ ../../../CORTEX_MPU_M3_NUCLEO_L152RE_GCC/Demo/blocktim.c:235:9
	cmp	r0, #4
	bgt	.LBB1_27
	b	.LBB1_19
.LBB1_19:                               @   in Loop: Header=BB1_18 Depth=2
.Ltmp37:
	.loc	3 239 70 is_stmt 1              @ ../../../CORTEX_MPU_M3_NUCLEO_L152RE_GCC/Demo/blocktim.c:239:70
	ldr	r1, [sp, #16]
	movs	r0, #10
	.loc	3 239 67 is_stmt 0              @ ../../../CORTEX_MPU_M3_NUCLEO_L152RE_GCC/Demo/blocktim.c:239:67
	lsls	r0, r1
	.loc	3 239 26                        @ ../../../CORTEX_MPU_M3_NUCLEO_L152RE_GCC/Demo/blocktim.c:239:26
	str	r0, [sp, #4]
	.loc	3 241 33 is_stmt 1              @ ../../../CORTEX_MPU_M3_NUCLEO_L152RE_GCC/Demo/blocktim.c:241:33
	bl	MPU_xTaskGetTickCount
	.loc	3 241 31 is_stmt 0              @ ../../../CORTEX_MPU_M3_NUCLEO_L152RE_GCC/Demo/blocktim.c:241:31
	str	r0, [sp, #8]
.Ltmp38:
	.loc	3 245 17 is_stmt 1              @ ../../../CORTEX_MPU_M3_NUCLEO_L152RE_GCC/Demo/blocktim.c:245:17
	movw	r0, :lower16:xTestQueue
	movt	r0, :upper16:xTestQueue
	ldr	r0, [r0]
	ldr	r2, [sp, #4]
	add	r1, sp, #16
	movs	r3, #0
	bl	MPU_xQueueGenericSend
.Ltmp39:
	.loc	3 245 17 is_stmt 0              @ ../../../CORTEX_MPU_M3_NUCLEO_L152RE_GCC/Demo/blocktim.c:245:17
	cbz	r0, .LBB1_21
	b	.LBB1_20
.LBB1_20:                               @   in Loop: Header=BB1_18 Depth=2
.Ltmp40:
	.loc	3 247 52 is_stmt 1              @ ../../../CORTEX_MPU_M3_NUCLEO_L152RE_GCC/Demo/blocktim.c:247:52
	movw	r1, :lower16:xSharedArray
	movt	r1, :upper16:xSharedArray
	movs	r0, #1
	str	r0, [r1]
	.loc	3 248 13                        @ ../../../CORTEX_MPU_M3_NUCLEO_L152RE_GCC/Demo/blocktim.c:248:13
	b	.LBB1_21
.Ltmp41:
.LBB1_21:                               @   in Loop: Header=BB1_18 Depth=2
	.loc	3 251 28                        @ ../../../CORTEX_MPU_M3_NUCLEO_L152RE_GCC/Demo/blocktim.c:251:28
	bl	MPU_xTaskGetTickCount
	.loc	3 251 50 is_stmt 0              @ ../../../CORTEX_MPU_M3_NUCLEO_L152RE_GCC/Demo/blocktim.c:251:50
	ldr	r1, [sp, #8]
	.loc	3 251 48                        @ ../../../CORTEX_MPU_M3_NUCLEO_L152RE_GCC/Demo/blocktim.c:251:48
	subs	r0, r0, r1
	.loc	3 251 26                        @ ../../../CORTEX_MPU_M3_NUCLEO_L152RE_GCC/Demo/blocktim.c:251:26
	str	r0, [sp]
.Ltmp42:
	.loc	3 253 17 is_stmt 1              @ ../../../CORTEX_MPU_M3_NUCLEO_L152RE_GCC/Demo/blocktim.c:253:17
	ldr	r0, [sp]
	.loc	3 253 32 is_stmt 0              @ ../../../CORTEX_MPU_M3_NUCLEO_L152RE_GCC/Demo/blocktim.c:253:32
	ldr	r1, [sp, #4]
.Ltmp43:
	.loc	3 253 17                        @ ../../../CORTEX_MPU_M3_NUCLEO_L152RE_GCC/Demo/blocktim.c:253:17
	cmp	r0, r1
	bhs	.LBB1_23
	b	.LBB1_22
.LBB1_22:                               @   in Loop: Header=BB1_18 Depth=2
.Ltmp44:
	.loc	3 256 52 is_stmt 1              @ ../../../CORTEX_MPU_M3_NUCLEO_L152RE_GCC/Demo/blocktim.c:256:52
	movw	r1, :lower16:xSharedArray
	movt	r1, :upper16:xSharedArray
	movs	r0, #1
	str	r0, [r1]
	.loc	3 257 13                        @ ../../../CORTEX_MPU_M3_NUCLEO_L152RE_GCC/Demo/blocktim.c:257:13
	b	.LBB1_23
.Ltmp45:
.LBB1_23:                               @   in Loop: Header=BB1_18 Depth=2
	.loc	3 259 17                        @ ../../../CORTEX_MPU_M3_NUCLEO_L152RE_GCC/Demo/blocktim.c:259:17
	ldr	r0, [sp]
	.loc	3 259 34 is_stmt 0              @ ../../../CORTEX_MPU_M3_NUCLEO_L152RE_GCC/Demo/blocktim.c:259:34
	ldr	r1, [sp, #4]
	.loc	3 259 47                        @ ../../../CORTEX_MPU_M3_NUCLEO_L152RE_GCC/Demo/blocktim.c:259:47
	adds	r1, #15
.Ltmp46:
	.loc	3 259 17                        @ ../../../CORTEX_MPU_M3_NUCLEO_L152RE_GCC/Demo/blocktim.c:259:17
	cmp	r0, r1
	bls	.LBB1_25
	b	.LBB1_24
.LBB1_24:                               @   in Loop: Header=BB1_18 Depth=2
.Ltmp47:
	.loc	3 264 52 is_stmt 1              @ ../../../CORTEX_MPU_M3_NUCLEO_L152RE_GCC/Demo/blocktim.c:264:52
	movw	r1, :lower16:xSharedArray
	movt	r1, :upper16:xSharedArray
	movs	r0, #1
	str	r0, [r1]
	.loc	3 265 13                        @ ../../../CORTEX_MPU_M3_NUCLEO_L152RE_GCC/Demo/blocktim.c:265:13
	b	.LBB1_25
.Ltmp48:
.LBB1_25:                               @   in Loop: Header=BB1_18 Depth=2
	.loc	3 266 9                         @ ../../../CORTEX_MPU_M3_NUCLEO_L152RE_GCC/Demo/blocktim.c:266:9
	b	.LBB1_26
.Ltmp49:
.LBB1_26:                               @   in Loop: Header=BB1_18 Depth=2
	.loc	3 235 55                        @ ../../../CORTEX_MPU_M3_NUCLEO_L152RE_GCC/Demo/blocktim.c:235:55
	ldr	r0, [sp, #16]
	adds	r0, r0, #1
	str	r0, [sp, #16]
	.loc	3 235 9 is_stmt 0               @ ../../../CORTEX_MPU_M3_NUCLEO_L152RE_GCC/Demo/blocktim.c:235:9
	b	.LBB1_18
.Ltmp50:
.LBB1_27:                               @   in Loop: Header=BB1_1 Depth=1
	.loc	3 280 43 is_stmt 1              @ ../../../CORTEX_MPU_M3_NUCLEO_L152RE_GCC/Demo/blocktim.c:280:43
	movw	r1, :lower16:xSharedArray
	movt	r1, :upper16:xSharedArray
	movs	r0, #0
	str	r0, [r1, #12]
	.loc	3 281 22                        @ ../../../CORTEX_MPU_M3_NUCLEO_L152RE_GCC/Demo/blocktim.c:281:22
	movw	r0, :lower16:xSecondary
	movt	r0, :upper16:xSecondary
	ldr	r0, [r0]
	.loc	3 281 9 is_stmt 0               @ ../../../CORTEX_MPU_M3_NUCLEO_L152RE_GCC/Demo/blocktim.c:281:9
	bl	MPU_vTaskResume
	.loc	3 284 9 is_stmt 1               @ ../../../CORTEX_MPU_M3_NUCLEO_L152RE_GCC/Demo/blocktim.c:284:9
	b	.LBB1_28
.LBB1_28:                               @   Parent Loop BB1_1 Depth=1
                                        @ =>  This Inner Loop Header: Depth=2
	.loc	3 284 16 is_stmt 0              @ ../../../CORTEX_MPU_M3_NUCLEO_L152RE_GCC/Demo/blocktim.c:284:16
	movw	r0, :lower16:xSharedArray
	movt	r0, :upper16:xSharedArray
	ldr	r0, [r0, #12]
	.loc	3 284 9                         @ ../../../CORTEX_MPU_M3_NUCLEO_L152RE_GCC/Demo/blocktim.c:284:9
	cmp	r0, #85
	beq	.LBB1_30
	b	.LBB1_29
.LBB1_29:                               @   in Loop: Header=BB1_28 Depth=2
	.loc	3 0 9                           @ ../../../CORTEX_MPU_M3_NUCLEO_L152RE_GCC/Demo/blocktim.c:0:9
	movs	r0, #2
.Ltmp51:
	.loc	3 287 13 is_stmt 1              @ ../../../CORTEX_MPU_M3_NUCLEO_L152RE_GCC/Demo/blocktim.c:287:13
	bl	MPU_vTaskDelay
.Ltmp52:
	.loc	3 284 9                         @ ../../../CORTEX_MPU_M3_NUCLEO_L152RE_GCC/Demo/blocktim.c:284:9
	b	.LBB1_28
.LBB1_30:                               @   in Loop: Header=BB1_1 Depth=1
	.loc	3 0 9 is_stmt 0                 @ ../../../CORTEX_MPU_M3_NUCLEO_L152RE_GCC/Demo/blocktim.c:0:9
	movs	r0, #2
	.loc	3 291 9 is_stmt 1               @ ../../../CORTEX_MPU_M3_NUCLEO_L152RE_GCC/Demo/blocktim.c:291:9
	bl	MPU_vTaskDelay
	.loc	3 292 43                        @ ../../../CORTEX_MPU_M3_NUCLEO_L152RE_GCC/Demo/blocktim.c:292:43
	movw	r1, :lower16:xSharedArray
	movt	r1, :upper16:xSharedArray
	movs	r0, #0
	str	r0, [r1, #12]
.Ltmp53:
	.loc	3 294 20                        @ ../../../CORTEX_MPU_M3_NUCLEO_L152RE_GCC/Demo/blocktim.c:294:20
	str	r0, [sp, #16]
	.loc	3 294 14 is_stmt 0              @ ../../../CORTEX_MPU_M3_NUCLEO_L152RE_GCC/Demo/blocktim.c:294:14
	b	.LBB1_31
.LBB1_31:                               @   Parent Loop BB1_1 Depth=1
                                        @ =>  This Inner Loop Header: Depth=2
.Ltmp54:
	.loc	3 294 25                        @ ../../../CORTEX_MPU_M3_NUCLEO_L152RE_GCC/Demo/blocktim.c:294:25
	ldr	r0, [sp, #16]
.Ltmp55:
	.loc	3 294 9                         @ ../../../CORTEX_MPU_M3_NUCLEO_L152RE_GCC/Demo/blocktim.c:294:9
	cmp	r0, #4
	bgt	.LBB1_42
	b	.LBB1_32
.LBB1_32:                               @   in Loop: Header=BB1_31 Depth=2
.Ltmp56:
	.loc	3 298 32 is_stmt 1              @ ../../../CORTEX_MPU_M3_NUCLEO_L152RE_GCC/Demo/blocktim.c:298:32
	movw	r0, :lower16:xTestQueue
	movt	r0, :upper16:xTestQueue
	ldr	r0, [r0]
	add	r1, sp, #12
	movs	r2, #0
	.loc	3 298 17 is_stmt 0              @ ../../../CORTEX_MPU_M3_NUCLEO_L152RE_GCC/Demo/blocktim.c:298:17
	bl	MPU_xQueueReceive
.Ltmp57:
	.loc	3 298 17                        @ ../../../CORTEX_MPU_M3_NUCLEO_L152RE_GCC/Demo/blocktim.c:298:17
	cmp	r0, #1
	beq	.LBB1_34
	b	.LBB1_33
.LBB1_33:                               @   in Loop: Header=BB1_31 Depth=2
.Ltmp58:
	.loc	3 300 52 is_stmt 1              @ ../../../CORTEX_MPU_M3_NUCLEO_L152RE_GCC/Demo/blocktim.c:300:52
	movw	r1, :lower16:xSharedArray
	movt	r1, :upper16:xSharedArray
	movs	r0, #1
	str	r0, [r1]
	.loc	3 301 13                        @ ../../../CORTEX_MPU_M3_NUCLEO_L152RE_GCC/Demo/blocktim.c:301:13
	b	.LBB1_34
.Ltmp59:
.LBB1_34:                               @   in Loop: Header=BB1_31 Depth=2
	.loc	3 306 17                        @ ../../../CORTEX_MPU_M3_NUCLEO_L152RE_GCC/Demo/blocktim.c:306:17
	movw	r0, :lower16:xTestQueue
	movt	r0, :upper16:xTestQueue
	ldr	r0, [r0]
	add	r1, sp, #16
	movs	r3, #0
	mov	r2, r3
	bl	MPU_xQueueGenericSend
.Ltmp60:
	.loc	3 306 17 is_stmt 0              @ ../../../CORTEX_MPU_M3_NUCLEO_L152RE_GCC/Demo/blocktim.c:306:17
	cmp	r0, #1
	beq	.LBB1_36
	b	.LBB1_35
.LBB1_35:                               @   in Loop: Header=BB1_31 Depth=2
.Ltmp61:
	.loc	3 308 52 is_stmt 1              @ ../../../CORTEX_MPU_M3_NUCLEO_L152RE_GCC/Demo/blocktim.c:308:52
	movw	r1, :lower16:xSharedArray
	movt	r1, :upper16:xSharedArray
	movs	r0, #1
	str	r0, [r1]
	.loc	3 309 13                        @ ../../../CORTEX_MPU_M3_NUCLEO_L152RE_GCC/Demo/blocktim.c:309:13
	b	.LBB1_36
.Ltmp62:
.LBB1_36:                               @   in Loop: Header=BB1_31 Depth=2
	.loc	3 311 17                        @ ../../../CORTEX_MPU_M3_NUCLEO_L152RE_GCC/Demo/blocktim.c:311:17
	movw	r0, :lower16:xSharedArray
	movt	r0, :upper16:xSharedArray
	ldr	r0, [r0, #12]
.Ltmp63:
	.loc	3 311 17 is_stmt 0              @ ../../../CORTEX_MPU_M3_NUCLEO_L152RE_GCC/Demo/blocktim.c:311:17
	cmp	r0, #85
	bne	.LBB1_38
	b	.LBB1_37
.LBB1_37:                               @   in Loop: Header=BB1_31 Depth=2
.Ltmp64:
	.loc	3 314 52 is_stmt 1              @ ../../../CORTEX_MPU_M3_NUCLEO_L152RE_GCC/Demo/blocktim.c:314:52
	movw	r1, :lower16:xSharedArray
	movt	r1, :upper16:xSharedArray
	movs	r0, #1
	str	r0, [r1]
	.loc	3 315 13                        @ ../../../CORTEX_MPU_M3_NUCLEO_L152RE_GCC/Demo/blocktim.c:315:13
	b	.LBB1_38
.Ltmp65:
.LBB1_38:                               @   in Loop: Header=BB1_31 Depth=2
	.loc	3 319 31                        @ ../../../CORTEX_MPU_M3_NUCLEO_L152RE_GCC/Demo/blocktim.c:319:31
	movw	r0, :lower16:xSecondary
	movt	r0, :upper16:xSecondary
	ldr	r0, [r0]
	movs	r1, #4
	.loc	3 319 13 is_stmt 0              @ ../../../CORTEX_MPU_M3_NUCLEO_L152RE_GCC/Demo/blocktim.c:319:13
	bl	MPU_vTaskPrioritySet
.Ltmp66:
	.loc	3 323 17 is_stmt 1              @ ../../../CORTEX_MPU_M3_NUCLEO_L152RE_GCC/Demo/blocktim.c:323:17
	movw	r0, :lower16:xSharedArray
	movt	r0, :upper16:xSharedArray
	ldr	r0, [r0, #12]
.Ltmp67:
	.loc	3 323 17 is_stmt 0              @ ../../../CORTEX_MPU_M3_NUCLEO_L152RE_GCC/Demo/blocktim.c:323:17
	cmp	r0, #85
	bne	.LBB1_40
	b	.LBB1_39
.LBB1_39:                               @   in Loop: Header=BB1_31 Depth=2
.Ltmp68:
	.loc	3 327 52 is_stmt 1              @ ../../../CORTEX_MPU_M3_NUCLEO_L152RE_GCC/Demo/blocktim.c:327:52
	movw	r1, :lower16:xSharedArray
	movt	r1, :upper16:xSharedArray
	movs	r0, #1
	str	r0, [r1]
	.loc	3 328 13                        @ ../../../CORTEX_MPU_M3_NUCLEO_L152RE_GCC/Demo/blocktim.c:328:13
	b	.LBB1_40
.Ltmp69:
.LBB1_40:                               @   in Loop: Header=BB1_31 Depth=2
	.loc	3 331 31                        @ ../../../CORTEX_MPU_M3_NUCLEO_L152RE_GCC/Demo/blocktim.c:331:31
	movw	r0, :lower16:xSecondary
	movt	r0, :upper16:xSecondary
	ldr	r0, [r0]
	movs	r1, #1
	.loc	3 331 13 is_stmt 0              @ ../../../CORTEX_MPU_M3_NUCLEO_L152RE_GCC/Demo/blocktim.c:331:13
	bl	MPU_vTaskPrioritySet
	.loc	3 332 9 is_stmt 1               @ ../../../CORTEX_MPU_M3_NUCLEO_L152RE_GCC/Demo/blocktim.c:332:9
	b	.LBB1_41
.Ltmp70:
.LBB1_41:                               @   in Loop: Header=BB1_31 Depth=2
	.loc	3 294 55                        @ ../../../CORTEX_MPU_M3_NUCLEO_L152RE_GCC/Demo/blocktim.c:294:55
	ldr	r0, [sp, #16]
	adds	r0, r0, #1
	str	r0, [sp, #16]
	.loc	3 294 9 is_stmt 0               @ ../../../CORTEX_MPU_M3_NUCLEO_L152RE_GCC/Demo/blocktim.c:294:9
	b	.LBB1_31
.Ltmp71:
.LBB1_42:                               @   in Loop: Header=BB1_1 Depth=1
	.loc	3 336 9 is_stmt 1               @ ../../../CORTEX_MPU_M3_NUCLEO_L152RE_GCC/Demo/blocktim.c:336:9
	b	.LBB1_43
.LBB1_43:                               @   Parent Loop BB1_1 Depth=1
                                        @ =>  This Inner Loop Header: Depth=2
	.loc	3 336 16 is_stmt 0              @ ../../../CORTEX_MPU_M3_NUCLEO_L152RE_GCC/Demo/blocktim.c:336:16
	movw	r0, :lower16:xSharedArray
	movt	r0, :upper16:xSharedArray
	ldr	r0, [r0, #12]
	.loc	3 336 9                         @ ../../../CORTEX_MPU_M3_NUCLEO_L152RE_GCC/Demo/blocktim.c:336:9
	cmp	r0, #85
	beq	.LBB1_45
	b	.LBB1_44
.LBB1_44:                               @   in Loop: Header=BB1_43 Depth=2
	.loc	3 0 9                           @ ../../../CORTEX_MPU_M3_NUCLEO_L152RE_GCC/Demo/blocktim.c:0:9
	movs	r0, #2
.Ltmp72:
	.loc	3 338 13 is_stmt 1              @ ../../../CORTEX_MPU_M3_NUCLEO_L152RE_GCC/Demo/blocktim.c:338:13
	bl	MPU_vTaskDelay
.Ltmp73:
	.loc	3 336 9                         @ ../../../CORTEX_MPU_M3_NUCLEO_L152RE_GCC/Demo/blocktim.c:336:9
	b	.LBB1_43
.LBB1_45:                               @   in Loop: Header=BB1_1 Depth=1
	.loc	3 0 9 is_stmt 0                 @ ../../../CORTEX_MPU_M3_NUCLEO_L152RE_GCC/Demo/blocktim.c:0:9
	movs	r0, #2
	.loc	3 341 9 is_stmt 1               @ ../../../CORTEX_MPU_M3_NUCLEO_L152RE_GCC/Demo/blocktim.c:341:9
	bl	MPU_vTaskDelay
	.loc	3 342 43                        @ ../../../CORTEX_MPU_M3_NUCLEO_L152RE_GCC/Demo/blocktim.c:342:43
	movw	r1, :lower16:xSharedArray
	movt	r1, :upper16:xSharedArray
	movs	r0, #0
	str	r0, [r1, #12]
.Ltmp74:
	.loc	3 351 20                        @ ../../../CORTEX_MPU_M3_NUCLEO_L152RE_GCC/Demo/blocktim.c:351:20
	str	r0, [sp, #16]
	.loc	3 351 14 is_stmt 0              @ ../../../CORTEX_MPU_M3_NUCLEO_L152RE_GCC/Demo/blocktim.c:351:14
	b	.LBB1_46
.LBB1_46:                               @   Parent Loop BB1_1 Depth=1
                                        @ =>  This Inner Loop Header: Depth=2
.Ltmp75:
	.loc	3 351 25                        @ ../../../CORTEX_MPU_M3_NUCLEO_L152RE_GCC/Demo/blocktim.c:351:25
	ldr	r0, [sp, #16]
.Ltmp76:
	.loc	3 351 9                         @ ../../../CORTEX_MPU_M3_NUCLEO_L152RE_GCC/Demo/blocktim.c:351:9
	cmp	r0, #4
	bgt	.LBB1_51
	b	.LBB1_47
.LBB1_47:                               @   in Loop: Header=BB1_46 Depth=2
.Ltmp77:
	.loc	3 353 32 is_stmt 1              @ ../../../CORTEX_MPU_M3_NUCLEO_L152RE_GCC/Demo/blocktim.c:353:32
	movw	r0, :lower16:xTestQueue
	movt	r0, :upper16:xTestQueue
	ldr	r0, [r0]
	add	r1, sp, #12
	movs	r2, #0
	.loc	3 353 17 is_stmt 0              @ ../../../CORTEX_MPU_M3_NUCLEO_L152RE_GCC/Demo/blocktim.c:353:17
	bl	MPU_xQueueReceive
.Ltmp78:
	.loc	3 353 17                        @ ../../../CORTEX_MPU_M3_NUCLEO_L152RE_GCC/Demo/blocktim.c:353:17
	cmp	r0, #1
	beq	.LBB1_49
	b	.LBB1_48
.LBB1_48:                               @   in Loop: Header=BB1_46 Depth=2
.Ltmp79:
	.loc	3 355 52 is_stmt 1              @ ../../../CORTEX_MPU_M3_NUCLEO_L152RE_GCC/Demo/blocktim.c:355:52
	movw	r1, :lower16:xSharedArray
	movt	r1, :upper16:xSharedArray
	movs	r0, #1
	str	r0, [r1]
	.loc	3 356 13                        @ ../../../CORTEX_MPU_M3_NUCLEO_L152RE_GCC/Demo/blocktim.c:356:13
	b	.LBB1_49
.Ltmp80:
.LBB1_49:                               @   in Loop: Header=BB1_46 Depth=2
	.loc	3 357 9                         @ ../../../CORTEX_MPU_M3_NUCLEO_L152RE_GCC/Demo/blocktim.c:357:9
	b	.LBB1_50
.Ltmp81:
.LBB1_50:                               @   in Loop: Header=BB1_46 Depth=2
	.loc	3 351 55                        @ ../../../CORTEX_MPU_M3_NUCLEO_L152RE_GCC/Demo/blocktim.c:351:55
	ldr	r0, [sp, #16]
	adds	r0, r0, #1
	str	r0, [sp, #16]
	.loc	3 351 9 is_stmt 0               @ ../../../CORTEX_MPU_M3_NUCLEO_L152RE_GCC/Demo/blocktim.c:351:9
	b	.LBB1_46
.Ltmp82:
.LBB1_51:                               @   in Loop: Header=BB1_1 Depth=1
	.loc	3 361 22 is_stmt 1              @ ../../../CORTEX_MPU_M3_NUCLEO_L152RE_GCC/Demo/blocktim.c:361:22
	movw	r0, :lower16:xSecondary
	movt	r0, :upper16:xSecondary
	ldr	r0, [r0]
	.loc	3 361 9 is_stmt 0               @ ../../../CORTEX_MPU_M3_NUCLEO_L152RE_GCC/Demo/blocktim.c:361:9
	bl	MPU_vTaskResume
	.loc	3 364 9 is_stmt 1               @ ../../../CORTEX_MPU_M3_NUCLEO_L152RE_GCC/Demo/blocktim.c:364:9
	b	.LBB1_52
.LBB1_52:                               @   Parent Loop BB1_1 Depth=1
                                        @ =>  This Inner Loop Header: Depth=2
	.loc	3 364 16 is_stmt 0              @ ../../../CORTEX_MPU_M3_NUCLEO_L152RE_GCC/Demo/blocktim.c:364:16
	movw	r0, :lower16:xSharedArray
	movt	r0, :upper16:xSharedArray
	ldr	r0, [r0, #12]
	.loc	3 364 9                         @ ../../../CORTEX_MPU_M3_NUCLEO_L152RE_GCC/Demo/blocktim.c:364:9
	cmp	r0, #85
	beq	.LBB1_54
	b	.LBB1_53
.LBB1_53:                               @   in Loop: Header=BB1_52 Depth=2
	.loc	3 0 9                           @ ../../../CORTEX_MPU_M3_NUCLEO_L152RE_GCC/Demo/blocktim.c:0:9
	movs	r0, #2
.Ltmp83:
	.loc	3 366 13 is_stmt 1              @ ../../../CORTEX_MPU_M3_NUCLEO_L152RE_GCC/Demo/blocktim.c:366:13
	bl	MPU_vTaskDelay
.Ltmp84:
	.loc	3 364 9                         @ ../../../CORTEX_MPU_M3_NUCLEO_L152RE_GCC/Demo/blocktim.c:364:9
	b	.LBB1_52
.LBB1_54:                               @   in Loop: Header=BB1_1 Depth=1
	.loc	3 0 9 is_stmt 0                 @ ../../../CORTEX_MPU_M3_NUCLEO_L152RE_GCC/Demo/blocktim.c:0:9
	movs	r0, #2
	.loc	3 369 9 is_stmt 1               @ ../../../CORTEX_MPU_M3_NUCLEO_L152RE_GCC/Demo/blocktim.c:369:9
	bl	MPU_vTaskDelay
	.loc	3 370 43                        @ ../../../CORTEX_MPU_M3_NUCLEO_L152RE_GCC/Demo/blocktim.c:370:43
	movw	r1, :lower16:xSharedArray
	movt	r1, :upper16:xSharedArray
	movs	r0, #0
	str	r0, [r1, #12]
.Ltmp85:
	.loc	3 372 20                        @ ../../../CORTEX_MPU_M3_NUCLEO_L152RE_GCC/Demo/blocktim.c:372:20
	str	r0, [sp, #16]
	.loc	3 372 14 is_stmt 0              @ ../../../CORTEX_MPU_M3_NUCLEO_L152RE_GCC/Demo/blocktim.c:372:14
	b	.LBB1_55
.LBB1_55:                               @   Parent Loop BB1_1 Depth=1
                                        @ =>  This Inner Loop Header: Depth=2
.Ltmp86:
	.loc	3 372 25                        @ ../../../CORTEX_MPU_M3_NUCLEO_L152RE_GCC/Demo/blocktim.c:372:25
	ldr	r0, [sp, #16]
.Ltmp87:
	.loc	3 372 9                         @ ../../../CORTEX_MPU_M3_NUCLEO_L152RE_GCC/Demo/blocktim.c:372:9
	cmp	r0, #4
	bgt	.LBB1_66
	b	.LBB1_56
.LBB1_56:                               @   in Loop: Header=BB1_55 Depth=2
.Ltmp88:
	.loc	3 376 17 is_stmt 1              @ ../../../CORTEX_MPU_M3_NUCLEO_L152RE_GCC/Demo/blocktim.c:376:17
	movw	r0, :lower16:xTestQueue
	movt	r0, :upper16:xTestQueue
	ldr	r0, [r0]
	add	r1, sp, #16
	movs	r3, #0
	mov	r2, r3
	bl	MPU_xQueueGenericSend
.Ltmp89:
	.loc	3 376 17 is_stmt 0              @ ../../../CORTEX_MPU_M3_NUCLEO_L152RE_GCC/Demo/blocktim.c:376:17
	cmp	r0, #1
	beq	.LBB1_58
	b	.LBB1_57
.LBB1_57:                               @   in Loop: Header=BB1_55 Depth=2
.Ltmp90:
	.loc	3 378 52 is_stmt 1              @ ../../../CORTEX_MPU_M3_NUCLEO_L152RE_GCC/Demo/blocktim.c:378:52
	movw	r1, :lower16:xSharedArray
	movt	r1, :upper16:xSharedArray
	movs	r0, #1
	str	r0, [r1]
	.loc	3 379 13                        @ ../../../CORTEX_MPU_M3_NUCLEO_L152RE_GCC/Demo/blocktim.c:379:13
	b	.LBB1_58
.Ltmp91:
.LBB1_58:                               @   in Loop: Header=BB1_55 Depth=2
	.loc	3 384 32                        @ ../../../CORTEX_MPU_M3_NUCLEO_L152RE_GCC/Demo/blocktim.c:384:32
	movw	r0, :lower16:xTestQueue
	movt	r0, :upper16:xTestQueue
	ldr	r0, [r0]
	add	r1, sp, #12
	movs	r2, #0
	.loc	3 384 17 is_stmt 0              @ ../../../CORTEX_MPU_M3_NUCLEO_L152RE_GCC/Demo/blocktim.c:384:17
	bl	MPU_xQueueReceive
.Ltmp92:
	.loc	3 384 17                        @ ../../../CORTEX_MPU_M3_NUCLEO_L152RE_GCC/Demo/blocktim.c:384:17
	cmp	r0, #1
	beq	.LBB1_60
	b	.LBB1_59
.LBB1_59:                               @   in Loop: Header=BB1_55 Depth=2
.Ltmp93:
	.loc	3 386 52 is_stmt 1              @ ../../../CORTEX_MPU_M3_NUCLEO_L152RE_GCC/Demo/blocktim.c:386:52
	movw	r1, :lower16:xSharedArray
	movt	r1, :upper16:xSharedArray
	movs	r0, #1
	str	r0, [r1]
	.loc	3 387 13                        @ ../../../CORTEX_MPU_M3_NUCLEO_L152RE_GCC/Demo/blocktim.c:387:13
	b	.LBB1_60
.Ltmp94:
.LBB1_60:                               @   in Loop: Header=BB1_55 Depth=2
	.loc	3 389 17                        @ ../../../CORTEX_MPU_M3_NUCLEO_L152RE_GCC/Demo/blocktim.c:389:17
	movw	r0, :lower16:xSharedArray
	movt	r0, :upper16:xSharedArray
	ldr	r0, [r0, #12]
.Ltmp95:
	.loc	3 389 17 is_stmt 0              @ ../../../CORTEX_MPU_M3_NUCLEO_L152RE_GCC/Demo/blocktim.c:389:17
	cmp	r0, #85
	bne	.LBB1_62
	b	.LBB1_61
.LBB1_61:                               @   in Loop: Header=BB1_55 Depth=2
.Ltmp96:
	.loc	3 392 52 is_stmt 1              @ ../../../CORTEX_MPU_M3_NUCLEO_L152RE_GCC/Demo/blocktim.c:392:52
	movw	r1, :lower16:xSharedArray
	movt	r1, :upper16:xSharedArray
	movs	r0, #1
	str	r0, [r1]
	.loc	3 393 13                        @ ../../../CORTEX_MPU_M3_NUCLEO_L152RE_GCC/Demo/blocktim.c:393:13
	b	.LBB1_62
.Ltmp97:
.LBB1_62:                               @   in Loop: Header=BB1_55 Depth=2
	.loc	3 397 31                        @ ../../../CORTEX_MPU_M3_NUCLEO_L152RE_GCC/Demo/blocktim.c:397:31
	movw	r0, :lower16:xSecondary
	movt	r0, :upper16:xSecondary
	ldr	r0, [r0]
	movs	r1, #4
	.loc	3 397 13 is_stmt 0              @ ../../../CORTEX_MPU_M3_NUCLEO_L152RE_GCC/Demo/blocktim.c:397:13
	bl	MPU_vTaskPrioritySet
.Ltmp98:
	.loc	3 401 17 is_stmt 1              @ ../../../CORTEX_MPU_M3_NUCLEO_L152RE_GCC/Demo/blocktim.c:401:17
	movw	r0, :lower16:xSharedArray
	movt	r0, :upper16:xSharedArray
	ldr	r0, [r0, #12]
.Ltmp99:
	.loc	3 401 17 is_stmt 0              @ ../../../CORTEX_MPU_M3_NUCLEO_L152RE_GCC/Demo/blocktim.c:401:17
	cmp	r0, #85
	bne	.LBB1_64
	b	.LBB1_63
.LBB1_63:                               @   in Loop: Header=BB1_55 Depth=2
.Ltmp100:
	.loc	3 405 52 is_stmt 1              @ ../../../CORTEX_MPU_M3_NUCLEO_L152RE_GCC/Demo/blocktim.c:405:52
	movw	r1, :lower16:xSharedArray
	movt	r1, :upper16:xSharedArray
	movs	r0, #1
	str	r0, [r1]
	.loc	3 406 13                        @ ../../../CORTEX_MPU_M3_NUCLEO_L152RE_GCC/Demo/blocktim.c:406:13
	b	.LBB1_64
.Ltmp101:
.LBB1_64:                               @   in Loop: Header=BB1_55 Depth=2
	.loc	3 408 31                        @ ../../../CORTEX_MPU_M3_NUCLEO_L152RE_GCC/Demo/blocktim.c:408:31
	movw	r0, :lower16:xSecondary
	movt	r0, :upper16:xSecondary
	ldr	r0, [r0]
	movs	r1, #1
	.loc	3 408 13 is_stmt 0              @ ../../../CORTEX_MPU_M3_NUCLEO_L152RE_GCC/Demo/blocktim.c:408:13
	bl	MPU_vTaskPrioritySet
	.loc	3 409 9 is_stmt 1               @ ../../../CORTEX_MPU_M3_NUCLEO_L152RE_GCC/Demo/blocktim.c:409:9
	b	.LBB1_65
.Ltmp102:
.LBB1_65:                               @   in Loop: Header=BB1_55 Depth=2
	.loc	3 372 55                        @ ../../../CORTEX_MPU_M3_NUCLEO_L152RE_GCC/Demo/blocktim.c:372:55
	ldr	r0, [sp, #16]
	adds	r0, r0, #1
	str	r0, [sp, #16]
	.loc	3 372 9 is_stmt 0               @ ../../../CORTEX_MPU_M3_NUCLEO_L152RE_GCC/Demo/blocktim.c:372:9
	b	.LBB1_55
.Ltmp103:
.LBB1_66:                               @   in Loop: Header=BB1_1 Depth=1
	.loc	3 413 9 is_stmt 1               @ ../../../CORTEX_MPU_M3_NUCLEO_L152RE_GCC/Demo/blocktim.c:413:9
	b	.LBB1_67
.LBB1_67:                               @   Parent Loop BB1_1 Depth=1
                                        @ =>  This Inner Loop Header: Depth=2
	.loc	3 413 16 is_stmt 0              @ ../../../CORTEX_MPU_M3_NUCLEO_L152RE_GCC/Demo/blocktim.c:413:16
	movw	r0, :lower16:xSharedArray
	movt	r0, :upper16:xSharedArray
	ldr	r0, [r0, #12]
	.loc	3 413 9                         @ ../../../CORTEX_MPU_M3_NUCLEO_L152RE_GCC/Demo/blocktim.c:413:9
	cmp	r0, #85
	beq	.LBB1_69
	b	.LBB1_68
.LBB1_68:                               @   in Loop: Header=BB1_67 Depth=2
	.loc	3 0 9                           @ ../../../CORTEX_MPU_M3_NUCLEO_L152RE_GCC/Demo/blocktim.c:0:9
	movs	r0, #2
.Ltmp104:
	.loc	3 415 13 is_stmt 1              @ ../../../CORTEX_MPU_M3_NUCLEO_L152RE_GCC/Demo/blocktim.c:415:13
	bl	MPU_vTaskDelay
.Ltmp105:
	.loc	3 413 9                         @ ../../../CORTEX_MPU_M3_NUCLEO_L152RE_GCC/Demo/blocktim.c:413:9
	b	.LBB1_67
.LBB1_69:                               @   in Loop: Header=BB1_1 Depth=1
	.loc	3 0 9 is_stmt 0                 @ ../../../CORTEX_MPU_M3_NUCLEO_L152RE_GCC/Demo/blocktim.c:0:9
	movs	r0, #2
	.loc	3 418 9 is_stmt 1               @ ../../../CORTEX_MPU_M3_NUCLEO_L152RE_GCC/Demo/blocktim.c:418:9
	bl	MPU_vTaskDelay
	.loc	3 420 43                        @ ../../../CORTEX_MPU_M3_NUCLEO_L152RE_GCC/Demo/blocktim.c:420:43
	movw	r1, :lower16:xSharedArray
	movt	r1, :upper16:xSharedArray
	ldr	r0, [r1, #4]
	adds	r0, r0, #1
	str	r0, [r1, #4]
.Ltmp106:
	.loc	3 172 5                         @ ../../../CORTEX_MPU_M3_NUCLEO_L152RE_GCC/Demo/blocktim.c:172:5
	b	.LBB1_1
.Ltmp107:
.Lfunc_end1:
	.size	vPrimaryBlockTimeTestTask, .Lfunc_end1-vPrimaryBlockTimeTestTask
	.cfi_endproc
	.cantunwind
	.fnend
                                        @ -- End function
	.section	.text.vSecondaryBlockTimeTestTask,"ax",%progbits
	.p2align	1                               @ -- Begin function vSecondaryBlockTimeTestTask
	.type	vSecondaryBlockTimeTestTask,%function
	.code	16                              @ @vSecondaryBlockTimeTestTask
	.thumb_func
vSecondaryBlockTimeTestTask:
.Lfunc_begin2:
	.loc	3 426 0                         @ ../../../CORTEX_MPU_M3_NUCLEO_L152RE_GCC/Demo/blocktim.c:426:0
	.fnstart
	.cfi_startproc
@ %bb.0:
	.save	{r7, lr}
	push	{r7, lr}
	.cfi_def_cfa_offset 8
	.cfi_offset lr, -4
	.cfi_offset r7, -8
	.pad	#32
	sub	sp, #32
	.cfi_def_cfa_offset 40
	str	r0, [sp, #28]
.Ltmp108:
	.loc	3 432 5 prologue_end            @ ../../../CORTEX_MPU_M3_NUCLEO_L152RE_GCC/Demo/blocktim.c:432:5
	b	.LBB2_1
.LBB2_1:                                @ =>This Inner Loop Header: Depth=1
	.loc	3 0 5 is_stmt 0                 @ ../../../CORTEX_MPU_M3_NUCLEO_L152RE_GCC/Demo/blocktim.c:0:5
	movs	r0, #0
.Ltmp109:
	.loc	3 438 9 is_stmt 1               @ ../../../CORTEX_MPU_M3_NUCLEO_L152RE_GCC/Demo/blocktim.c:438:9
	str	r0, [sp, #12]                   @ 4-byte Spill
	bl	MPU_vTaskSuspend
	.loc	3 446 29                        @ ../../../CORTEX_MPU_M3_NUCLEO_L152RE_GCC/Demo/blocktim.c:446:29
	bl	MPU_xTaskGetTickCount
	ldr	r3, [sp, #12]                   @ 4-byte Reload
	.loc	3 446 27 is_stmt 0              @ ../../../CORTEX_MPU_M3_NUCLEO_L152RE_GCC/Demo/blocktim.c:446:27
	str	r0, [sp, #24]
	.loc	3 450 15 is_stmt 1              @ ../../../CORTEX_MPU_M3_NUCLEO_L152RE_GCC/Demo/blocktim.c:450:15
	str	r3, [sp, #16]
	.loc	3 451 43                        @ ../../../CORTEX_MPU_M3_NUCLEO_L152RE_GCC/Demo/blocktim.c:451:43
	movw	r1, :lower16:xSharedArray
	movt	r1, :upper16:xSharedArray
	movs	r0, #85
	str	r0, [r1, #12]
.Ltmp110:
	.loc	3 453 13                        @ ../../../CORTEX_MPU_M3_NUCLEO_L152RE_GCC/Demo/blocktim.c:453:13
	movw	r0, :lower16:xTestQueue
	movt	r0, :upper16:xTestQueue
	ldr	r0, [r0]
	add	r1, sp, #16
	movs	r2, #175
	bl	MPU_xQueueGenericSend
.Ltmp111:
	.loc	3 453 13 is_stmt 0              @ ../../../CORTEX_MPU_M3_NUCLEO_L152RE_GCC/Demo/blocktim.c:453:13
	cbz	r0, .LBB2_3
	b	.LBB2_2
.LBB2_2:                                @   in Loop: Header=BB2_1 Depth=1
.Ltmp112:
	.loc	3 455 48 is_stmt 1              @ ../../../CORTEX_MPU_M3_NUCLEO_L152RE_GCC/Demo/blocktim.c:455:48
	movw	r1, :lower16:xSharedArray
	movt	r1, :upper16:xSharedArray
	movs	r0, #1
	str	r0, [r1]
	.loc	3 456 9                         @ ../../../CORTEX_MPU_M3_NUCLEO_L152RE_GCC/Demo/blocktim.c:456:9
	b	.LBB2_3
.Ltmp113:
.LBB2_3:                                @   in Loop: Header=BB2_1 Depth=1
	.loc	3 459 24                        @ ../../../CORTEX_MPU_M3_NUCLEO_L152RE_GCC/Demo/blocktim.c:459:24
	bl	MPU_xTaskGetTickCount
	.loc	3 459 46 is_stmt 0              @ ../../../CORTEX_MPU_M3_NUCLEO_L152RE_GCC/Demo/blocktim.c:459:46
	ldr	r1, [sp, #24]
	.loc	3 459 44                        @ ../../../CORTEX_MPU_M3_NUCLEO_L152RE_GCC/Demo/blocktim.c:459:44
	subs	r0, r0, r1
	.loc	3 459 22                        @ ../../../CORTEX_MPU_M3_NUCLEO_L152RE_GCC/Demo/blocktim.c:459:22
	str	r0, [sp, #20]
.Ltmp114:
	.loc	3 462 13 is_stmt 1              @ ../../../CORTEX_MPU_M3_NUCLEO_L152RE_GCC/Demo/blocktim.c:462:13
	ldr	r0, [sp, #20]
.Ltmp115:
	.loc	3 462 13 is_stmt 0              @ ../../../CORTEX_MPU_M3_NUCLEO_L152RE_GCC/Demo/blocktim.c:462:13
	cmp	r0, #174
	bhi	.LBB2_5
	b	.LBB2_4
.LBB2_4:                                @   in Loop: Header=BB2_1 Depth=1
.Ltmp116:
	.loc	3 464 48 is_stmt 1              @ ../../../CORTEX_MPU_M3_NUCLEO_L152RE_GCC/Demo/blocktim.c:464:48
	movw	r1, :lower16:xSharedArray
	movt	r1, :upper16:xSharedArray
	movs	r0, #1
	str	r0, [r1]
	.loc	3 465 9                         @ ../../../CORTEX_MPU_M3_NUCLEO_L152RE_GCC/Demo/blocktim.c:465:9
	b	.LBB2_5
.Ltmp117:
.LBB2_5:                                @   in Loop: Header=BB2_1 Depth=1
	.loc	3 470 13                        @ ../../../CORTEX_MPU_M3_NUCLEO_L152RE_GCC/Demo/blocktim.c:470:13
	ldr	r0, [sp, #20]
.Ltmp118:
	.loc	3 470 13 is_stmt 0              @ ../../../CORTEX_MPU_M3_NUCLEO_L152RE_GCC/Demo/blocktim.c:470:13
	cmp	r0, #191
	blo	.LBB2_7
	b	.LBB2_6
.LBB2_6:                                @   in Loop: Header=BB2_1 Depth=1
.Ltmp119:
	.loc	3 472 48 is_stmt 1              @ ../../../CORTEX_MPU_M3_NUCLEO_L152RE_GCC/Demo/blocktim.c:472:48
	movw	r1, :lower16:xSharedArray
	movt	r1, :upper16:xSharedArray
	movs	r0, #1
	str	r0, [r1]
	.loc	3 473 9                         @ ../../../CORTEX_MPU_M3_NUCLEO_L152RE_GCC/Demo/blocktim.c:473:9
	b	.LBB2_7
.Ltmp120:
.LBB2_7:                                @   in Loop: Header=BB2_1 Depth=1
	.loc	3 476 43                        @ ../../../CORTEX_MPU_M3_NUCLEO_L152RE_GCC/Demo/blocktim.c:476:43
	movw	r1, :lower16:xSharedArray
	movt	r1, :upper16:xSharedArray
	str	r1, [sp, #4]                    @ 4-byte Spill
	movs	r0, #85
	str	r0, [sp, #8]                    @ 4-byte Spill
	str	r0, [r1, #12]
	movs	r0, #0
	.loc	3 477 9                         @ ../../../CORTEX_MPU_M3_NUCLEO_L152RE_GCC/Demo/blocktim.c:477:9
	bl	MPU_vTaskSuspend
	.loc	3 483 29                        @ ../../../CORTEX_MPU_M3_NUCLEO_L152RE_GCC/Demo/blocktim.c:483:29
	bl	MPU_xTaskGetTickCount
	ldr	r1, [sp, #4]                    @ 4-byte Reload
	mov	r2, r0
	.loc	3 483 27 is_stmt 0              @ ../../../CORTEX_MPU_M3_NUCLEO_L152RE_GCC/Demo/blocktim.c:483:27
	ldr	r0, [sp, #8]                    @ 4-byte Reload
	str	r2, [sp, #24]
	.loc	3 487 43 is_stmt 1              @ ../../../CORTEX_MPU_M3_NUCLEO_L152RE_GCC/Demo/blocktim.c:487:43
	str	r0, [r1, #12]
.Ltmp121:
	.loc	3 489 28                        @ ../../../CORTEX_MPU_M3_NUCLEO_L152RE_GCC/Demo/blocktim.c:489:28
	movw	r0, :lower16:xTestQueue
	movt	r0, :upper16:xTestQueue
	ldr	r0, [r0]
	add	r1, sp, #16
	movs	r2, #175
	.loc	3 489 13 is_stmt 0              @ ../../../CORTEX_MPU_M3_NUCLEO_L152RE_GCC/Demo/blocktim.c:489:13
	bl	MPU_xQueueReceive
.Ltmp122:
	.loc	3 489 13                        @ ../../../CORTEX_MPU_M3_NUCLEO_L152RE_GCC/Demo/blocktim.c:489:13
	cbz	r0, .LBB2_9
	b	.LBB2_8
.LBB2_8:                                @   in Loop: Header=BB2_1 Depth=1
.Ltmp123:
	.loc	3 491 48 is_stmt 1              @ ../../../CORTEX_MPU_M3_NUCLEO_L152RE_GCC/Demo/blocktim.c:491:48
	movw	r1, :lower16:xSharedArray
	movt	r1, :upper16:xSharedArray
	movs	r0, #1
	str	r0, [r1]
	.loc	3 492 9                         @ ../../../CORTEX_MPU_M3_NUCLEO_L152RE_GCC/Demo/blocktim.c:492:9
	b	.LBB2_9
.Ltmp124:
.LBB2_9:                                @   in Loop: Header=BB2_1 Depth=1
	.loc	3 494 24                        @ ../../../CORTEX_MPU_M3_NUCLEO_L152RE_GCC/Demo/blocktim.c:494:24
	bl	MPU_xTaskGetTickCount
	.loc	3 494 46 is_stmt 0              @ ../../../CORTEX_MPU_M3_NUCLEO_L152RE_GCC/Demo/blocktim.c:494:46
	ldr	r1, [sp, #24]
	.loc	3 494 44                        @ ../../../CORTEX_MPU_M3_NUCLEO_L152RE_GCC/Demo/blocktim.c:494:44
	subs	r0, r0, r1
	.loc	3 494 22                        @ ../../../CORTEX_MPU_M3_NUCLEO_L152RE_GCC/Demo/blocktim.c:494:22
	str	r0, [sp, #20]
.Ltmp125:
	.loc	3 497 13 is_stmt 1              @ ../../../CORTEX_MPU_M3_NUCLEO_L152RE_GCC/Demo/blocktim.c:497:13
	ldr	r0, [sp, #20]
.Ltmp126:
	.loc	3 497 13 is_stmt 0              @ ../../../CORTEX_MPU_M3_NUCLEO_L152RE_GCC/Demo/blocktim.c:497:13
	cmp	r0, #174
	bhi	.LBB2_11
	b	.LBB2_10
.LBB2_10:                               @   in Loop: Header=BB2_1 Depth=1
.Ltmp127:
	.loc	3 499 48 is_stmt 1              @ ../../../CORTEX_MPU_M3_NUCLEO_L152RE_GCC/Demo/blocktim.c:499:48
	movw	r1, :lower16:xSharedArray
	movt	r1, :upper16:xSharedArray
	movs	r0, #1
	str	r0, [r1]
	.loc	3 500 9                         @ ../../../CORTEX_MPU_M3_NUCLEO_L152RE_GCC/Demo/blocktim.c:500:9
	b	.LBB2_11
.Ltmp128:
.LBB2_11:                               @   in Loop: Header=BB2_1 Depth=1
	.loc	3 505 13                        @ ../../../CORTEX_MPU_M3_NUCLEO_L152RE_GCC/Demo/blocktim.c:505:13
	ldr	r0, [sp, #20]
.Ltmp129:
	.loc	3 505 13 is_stmt 0              @ ../../../CORTEX_MPU_M3_NUCLEO_L152RE_GCC/Demo/blocktim.c:505:13
	cmp	r0, #191
	blo	.LBB2_13
	b	.LBB2_12
.LBB2_12:                               @   in Loop: Header=BB2_1 Depth=1
.Ltmp130:
	.loc	3 507 48 is_stmt 1              @ ../../../CORTEX_MPU_M3_NUCLEO_L152RE_GCC/Demo/blocktim.c:507:48
	movw	r1, :lower16:xSharedArray
	movt	r1, :upper16:xSharedArray
	movs	r0, #1
	str	r0, [r1]
	.loc	3 508 9                         @ ../../../CORTEX_MPU_M3_NUCLEO_L152RE_GCC/Demo/blocktim.c:508:9
	b	.LBB2_13
.Ltmp131:
.LBB2_13:                               @   in Loop: Header=BB2_1 Depth=1
	.loc	3 510 43                        @ ../../../CORTEX_MPU_M3_NUCLEO_L152RE_GCC/Demo/blocktim.c:510:43
	movw	r1, :lower16:xSharedArray
	movt	r1, :upper16:xSharedArray
	movs	r0, #85
	str	r0, [r1, #12]
	.loc	3 512 45                        @ ../../../CORTEX_MPU_M3_NUCLEO_L152RE_GCC/Demo/blocktim.c:512:45
	ldr	r0, [r1, #8]
	adds	r0, r0, #1
	str	r0, [r1, #8]
.Ltmp132:
	.loc	3 432 5                         @ ../../../CORTEX_MPU_M3_NUCLEO_L152RE_GCC/Demo/blocktim.c:432:5
	b	.LBB2_1
.Ltmp133:
.Lfunc_end2:
	.size	vSecondaryBlockTimeTestTask, .Lfunc_end2-vSecondaryBlockTimeTestTask
	.cfi_endproc
	.cantunwind
	.fnend
                                        @ -- End function
	.section	.text.xAreBlockTimeTestTasksStillRunning,"ax",%progbits
	.hidden	xAreBlockTimeTestTasksStillRunning @ -- Begin function xAreBlockTimeTestTasksStillRunning
	.globl	xAreBlockTimeTestTasksStillRunning
	.p2align	1
	.type	xAreBlockTimeTestTasksStillRunning,%function
	.code	16                              @ @xAreBlockTimeTestTasksStillRunning
	.thumb_func
xAreBlockTimeTestTasksStillRunning:
.Lfunc_begin3:
	.loc	3 613 0                         @ ../../../CORTEX_MPU_M3_NUCLEO_L152RE_GCC/Demo/blocktim.c:613:0
	.fnstart
	.cfi_startproc
@ %bb.0:
	.pad	#4
	sub	sp, #4
	.cfi_def_cfa_offset 4
	movs	r0, #1
.Ltmp134:
	.loc	3 615 16 prologue_end           @ ../../../CORTEX_MPU_M3_NUCLEO_L152RE_GCC/Demo/blocktim.c:615:16
	str	r0, [sp]
.Ltmp135:
	.loc	3 619 9                         @ ../../../CORTEX_MPU_M3_NUCLEO_L152RE_GCC/Demo/blocktim.c:619:9
	movw	r0, :lower16:xSharedArray
	movt	r0, :upper16:xSharedArray
	ldr	r0, [r0, #4]
	.loc	3 619 47 is_stmt 0              @ ../../../CORTEX_MPU_M3_NUCLEO_L152RE_GCC/Demo/blocktim.c:619:47
	movw	r1, :lower16:xAreBlockTimeTestTasksStillRunning.xLastPrimaryCycleCount
	movt	r1, :upper16:xAreBlockTimeTestTasksStillRunning.xLastPrimaryCycleCount
	ldr	r1, [r1]
.Ltmp136:
	.loc	3 619 9                         @ ../../../CORTEX_MPU_M3_NUCLEO_L152RE_GCC/Demo/blocktim.c:619:9
	cmp	r0, r1
	bne	.LBB3_2
	b	.LBB3_1
.LBB3_1:
	.loc	3 0 9                           @ ../../../CORTEX_MPU_M3_NUCLEO_L152RE_GCC/Demo/blocktim.c:0:9
	movs	r0, #0
.Ltmp137:
	.loc	3 621 17 is_stmt 1              @ ../../../CORTEX_MPU_M3_NUCLEO_L152RE_GCC/Demo/blocktim.c:621:17
	str	r0, [sp]
	.loc	3 622 5                         @ ../../../CORTEX_MPU_M3_NUCLEO_L152RE_GCC/Demo/blocktim.c:622:5
	b	.LBB3_2
.Ltmp138:
.LBB3_2:
	.loc	3 624 9                         @ ../../../CORTEX_MPU_M3_NUCLEO_L152RE_GCC/Demo/blocktim.c:624:9
	movw	r0, :lower16:xSharedArray
	movt	r0, :upper16:xSharedArray
	ldr	r0, [r0, #8]
	.loc	3 624 49 is_stmt 0              @ ../../../CORTEX_MPU_M3_NUCLEO_L152RE_GCC/Demo/blocktim.c:624:49
	movw	r1, :lower16:xAreBlockTimeTestTasksStillRunning.xLastSecondaryCycleCount
	movt	r1, :upper16:xAreBlockTimeTestTasksStillRunning.xLastSecondaryCycleCount
	ldr	r1, [r1]
.Ltmp139:
	.loc	3 624 9                         @ ../../../CORTEX_MPU_M3_NUCLEO_L152RE_GCC/Demo/blocktim.c:624:9
	cmp	r0, r1
	bne	.LBB3_4
	b	.LBB3_3
.LBB3_3:
	.loc	3 0 9                           @ ../../../CORTEX_MPU_M3_NUCLEO_L152RE_GCC/Demo/blocktim.c:0:9
	movs	r0, #0
.Ltmp140:
	.loc	3 626 17 is_stmt 1              @ ../../../CORTEX_MPU_M3_NUCLEO_L152RE_GCC/Demo/blocktim.c:626:17
	str	r0, [sp]
	.loc	3 627 5                         @ ../../../CORTEX_MPU_M3_NUCLEO_L152RE_GCC/Demo/blocktim.c:627:5
	b	.LBB3_4
.Ltmp141:
.LBB3_4:
	.loc	3 629 9                         @ ../../../CORTEX_MPU_M3_NUCLEO_L152RE_GCC/Demo/blocktim.c:629:9
	movw	r0, :lower16:xSharedArray
	movt	r0, :upper16:xSharedArray
	ldr	r0, [r0]
.Ltmp142:
	.loc	3 629 9 is_stmt 0               @ ../../../CORTEX_MPU_M3_NUCLEO_L152RE_GCC/Demo/blocktim.c:629:9
	cmp	r0, #1
	bne	.LBB3_6
	b	.LBB3_5
.LBB3_5:
	.loc	3 0 9                           @ ../../../CORTEX_MPU_M3_NUCLEO_L152RE_GCC/Demo/blocktim.c:0:9
	movs	r0, #0
.Ltmp143:
	.loc	3 631 17 is_stmt 1              @ ../../../CORTEX_MPU_M3_NUCLEO_L152RE_GCC/Demo/blocktim.c:631:17
	str	r0, [sp]
	.loc	3 632 5                         @ ../../../CORTEX_MPU_M3_NUCLEO_L152RE_GCC/Demo/blocktim.c:632:5
	b	.LBB3_6
.Ltmp144:
.LBB3_6:
	.loc	3 634 32                        @ ../../../CORTEX_MPU_M3_NUCLEO_L152RE_GCC/Demo/blocktim.c:634:32
	movw	r0, :lower16:xSharedArray
	movt	r0, :upper16:xSharedArray
	ldr	r1, [r0, #8]
	.loc	3 634 30 is_stmt 0              @ ../../../CORTEX_MPU_M3_NUCLEO_L152RE_GCC/Demo/blocktim.c:634:30
	movw	r2, :lower16:xAreBlockTimeTestTasksStillRunning.xLastSecondaryCycleCount
	movt	r2, :upper16:xAreBlockTimeTestTasksStillRunning.xLastSecondaryCycleCount
	str	r1, [r2]
	.loc	3 635 30 is_stmt 1              @ ../../../CORTEX_MPU_M3_NUCLEO_L152RE_GCC/Demo/blocktim.c:635:30
	ldr	r0, [r0, #4]
	.loc	3 635 28 is_stmt 0              @ ../../../CORTEX_MPU_M3_NUCLEO_L152RE_GCC/Demo/blocktim.c:635:28
	movw	r1, :lower16:xAreBlockTimeTestTasksStillRunning.xLastPrimaryCycleCount
	movt	r1, :upper16:xAreBlockTimeTestTasksStillRunning.xLastPrimaryCycleCount
	str	r0, [r1]
	.loc	3 637 12 is_stmt 1              @ ../../../CORTEX_MPU_M3_NUCLEO_L152RE_GCC/Demo/blocktim.c:637:12
	ldr	r0, [sp]
	.loc	3 637 5 is_stmt 0               @ ../../../CORTEX_MPU_M3_NUCLEO_L152RE_GCC/Demo/blocktim.c:637:5
	add	sp, #4
	bx	lr
.Ltmp145:
.Lfunc_end3:
	.size	xAreBlockTimeTestTasksStillRunning, .Lfunc_end3-xAreBlockTimeTestTasksStillRunning
	.cfi_endproc
	.cantunwind
	.fnend
                                        @ -- End function
	.section	.text.prvBasicDelayTests,"ax",%progbits
	.p2align	1                               @ -- Begin function prvBasicDelayTests
	.type	prvBasicDelayTests,%function
	.code	16                              @ @prvBasicDelayTests
	.thumb_func
prvBasicDelayTests:
.Lfunc_begin4:
	.loc	3 518 0 is_stmt 1               @ ../../../CORTEX_MPU_M3_NUCLEO_L152RE_GCC/Demo/blocktim.c:518:0
	.fnstart
	.cfi_startproc
@ %bb.0:
	.save	{r7, lr}
	push	{r7, lr}
	.cfi_def_cfa_offset 8
	.cfi_offset lr, -4
	.cfi_offset r7, -8
	.pad	#48
	sub	sp, #48
	.cfi_def_cfa_offset 56
	movs	r0, #75
.Ltmp146:
	.loc	3 520 22 prologue_end           @ ../../../CORTEX_MPU_M3_NUCLEO_L152RE_GCC/Demo/blocktim.c:520:22
	str	r0, [sp, #24]
	movs	r0, #5
	.loc	3 520 36 is_stmt 0              @ ../../../CORTEX_MPU_M3_NUCLEO_L152RE_GCC/Demo/blocktim.c:520:36
	str	r0, [sp, #20]
	movs	r0, #7
	.loc	3 520 49                        @ ../../../CORTEX_MPU_M3_NUCLEO_L152RE_GCC/Demo/blocktim.c:520:49
	str	r0, [sp, #16]
	movs	r0, #37
	.loc	3 520 98                        @ ../../../CORTEX_MPU_M3_NUCLEO_L152RE_GCC/Demo/blocktim.c:520:98
	str	r0, [sp, #12]
	movs	r0, #0
	movs	r1, #2
	.loc	3 525 5 is_stmt 1               @ ../../../CORTEX_MPU_M3_NUCLEO_L152RE_GCC/Demo/blocktim.c:525:5
	bl	MPU_vTaskPrioritySet
	.loc	3 529 16                        @ ../../../CORTEX_MPU_M3_NUCLEO_L152RE_GCC/Demo/blocktim.c:529:16
	bl	MPU_xTaskGetTickCount
	.loc	3 529 14 is_stmt 0              @ ../../../CORTEX_MPU_M3_NUCLEO_L152RE_GCC/Demo/blocktim.c:529:14
	str	r0, [sp, #44]
	movs	r0, #175
	.loc	3 530 5 is_stmt 1               @ ../../../CORTEX_MPU_M3_NUCLEO_L152RE_GCC/Demo/blocktim.c:530:5
	bl	MPU_vTaskDelay
	.loc	3 531 17                        @ ../../../CORTEX_MPU_M3_NUCLEO_L152RE_GCC/Demo/blocktim.c:531:17
	bl	MPU_xTaskGetTickCount
	.loc	3 531 15 is_stmt 0              @ ../../../CORTEX_MPU_M3_NUCLEO_L152RE_GCC/Demo/blocktim.c:531:15
	str	r0, [sp, #40]
.Ltmp147:
	.loc	3 535 11 is_stmt 1              @ ../../../CORTEX_MPU_M3_NUCLEO_L152RE_GCC/Demo/blocktim.c:535:11
	ldr	r0, [sp, #40]
	.loc	3 535 23 is_stmt 0              @ ../../../CORTEX_MPU_M3_NUCLEO_L152RE_GCC/Demo/blocktim.c:535:23
	ldr	r1, [sp, #44]
	.loc	3 535 21                        @ ../../../CORTEX_MPU_M3_NUCLEO_L152RE_GCC/Demo/blocktim.c:535:21
	subs	r0, r0, r1
.Ltmp148:
	.loc	3 535 9                         @ ../../../CORTEX_MPU_M3_NUCLEO_L152RE_GCC/Demo/blocktim.c:535:9
	cmp	r0, #183
	blo	.LBB4_2
	b	.LBB4_1
.LBB4_1:
.Ltmp149:
	.loc	3 537 44 is_stmt 1              @ ../../../CORTEX_MPU_M3_NUCLEO_L152RE_GCC/Demo/blocktim.c:537:44
	movw	r1, :lower16:xSharedArray
	movt	r1, :upper16:xSharedArray
	movs	r0, #1
	str	r0, [r1]
	.loc	3 538 5                         @ ../../../CORTEX_MPU_M3_NUCLEO_L152RE_GCC/Demo/blocktim.c:538:5
	b	.LBB4_2
.Ltmp150:
.LBB4_2:
	.loc	3 541 17                        @ ../../../CORTEX_MPU_M3_NUCLEO_L152RE_GCC/Demo/blocktim.c:541:17
	bl	MPU_xTaskGetTickCount
	.loc	3 541 15 is_stmt 0              @ ../../../CORTEX_MPU_M3_NUCLEO_L152RE_GCC/Demo/blocktim.c:541:15
	str	r0, [sp, #40]
	.loc	3 542 24 is_stmt 1              @ ../../../CORTEX_MPU_M3_NUCLEO_L152RE_GCC/Demo/blocktim.c:542:24
	ldr	r0, [sp, #40]
	.loc	3 542 22 is_stmt 0              @ ../../../CORTEX_MPU_M3_NUCLEO_L152RE_GCC/Demo/blocktim.c:542:22
	str	r0, [sp, #32]
	movs	r0, #0
.Ltmp151:
	.loc	3 544 12 is_stmt 1              @ ../../../CORTEX_MPU_M3_NUCLEO_L152RE_GCC/Demo/blocktim.c:544:12
	str	r0, [sp, #36]
	.loc	3 544 10 is_stmt 0              @ ../../../CORTEX_MPU_M3_NUCLEO_L152RE_GCC/Demo/blocktim.c:544:10
	b	.LBB4_3
.LBB4_3:                                @ =>This Inner Loop Header: Depth=1
.Ltmp152:
	.loc	3 544 17                        @ ../../../CORTEX_MPU_M3_NUCLEO_L152RE_GCC/Demo/blocktim.c:544:17
	ldr	r0, [sp, #36]
.Ltmp153:
	.loc	3 544 5                         @ ../../../CORTEX_MPU_M3_NUCLEO_L152RE_GCC/Demo/blocktim.c:544:5
	cmp	r0, #4
	bhi	.LBB4_10
	b	.LBB4_4
.LBB4_4:                                @   in Loop: Header=BB4_3 Depth=1
.Ltmp154:
	.loc	3 548 32 is_stmt 1              @ ../../../CORTEX_MPU_M3_NUCLEO_L152RE_GCC/Demo/blocktim.c:548:32
	ldr	r0, [sp, #40]
	.loc	3 548 46 is_stmt 0              @ ../../../CORTEX_MPU_M3_NUCLEO_L152RE_GCC/Demo/blocktim.c:548:46
	ldr	r2, [sp, #36]
	movs	r1, #75
	.loc	3 548 48                        @ ../../../CORTEX_MPU_M3_NUCLEO_L152RE_GCC/Demo/blocktim.c:548:48
	muls	r1, r2, r1
	.loc	3 548 42                        @ ../../../CORTEX_MPU_M3_NUCLEO_L152RE_GCC/Demo/blocktim.c:548:42
	adds	r0, r0, r1
	.loc	3 548 30                        @ ../../../CORTEX_MPU_M3_NUCLEO_L152RE_GCC/Demo/blocktim.c:548:30
	str	r0, [sp, #28]
	.loc	3 550 9 is_stmt 1               @ ../../../CORTEX_MPU_M3_NUCLEO_L152RE_GCC/Demo/blocktim.c:550:9
	b	.LBB4_5
.LBB4_5:                                @   in Loop: Header=BB4_3 Depth=1
	.loc	3 0 9 is_stmt 0                 @ ../../../CORTEX_MPU_M3_NUCLEO_L152RE_GCC/Demo/blocktim.c:0:9
	add	r0, sp, #32
	movs	r1, #75
.Ltmp155:
	.loc	3 550 9                         @ ../../../CORTEX_MPU_M3_NUCLEO_L152RE_GCC/Demo/blocktim.c:550:9
	bl	MPU_xTaskDelayUntil
	b	.LBB4_6
.Ltmp156:
.LBB4_6:                                @   in Loop: Header=BB4_3 Depth=1
	.loc	3 552 15 is_stmt 1              @ ../../../CORTEX_MPU_M3_NUCLEO_L152RE_GCC/Demo/blocktim.c:552:15
	bl	MPU_xTaskGetTickCount
	.loc	3 552 37 is_stmt 0              @ ../../../CORTEX_MPU_M3_NUCLEO_L152RE_GCC/Demo/blocktim.c:552:37
	ldr	r1, [sp, #28]
	.loc	3 552 35                        @ ../../../CORTEX_MPU_M3_NUCLEO_L152RE_GCC/Demo/blocktim.c:552:35
	subs	r0, r0, r1
.Ltmp157:
	.loc	3 552 13                        @ ../../../CORTEX_MPU_M3_NUCLEO_L152RE_GCC/Demo/blocktim.c:552:13
	cmp	r0, #183
	blo	.LBB4_8
	b	.LBB4_7
.LBB4_7:                                @   in Loop: Header=BB4_3 Depth=1
.Ltmp158:
	.loc	3 554 48 is_stmt 1              @ ../../../CORTEX_MPU_M3_NUCLEO_L152RE_GCC/Demo/blocktim.c:554:48
	movw	r1, :lower16:xSharedArray
	movt	r1, :upper16:xSharedArray
	movs	r0, #1
	str	r0, [r1]
	.loc	3 555 9                         @ ../../../CORTEX_MPU_M3_NUCLEO_L152RE_GCC/Demo/blocktim.c:555:9
	b	.LBB4_8
.Ltmp159:
.LBB4_8:                                @   in Loop: Header=BB4_3 Depth=1
	.loc	3 557 43                        @ ../../../CORTEX_MPU_M3_NUCLEO_L152RE_GCC/Demo/blocktim.c:557:43
	movw	r1, :lower16:xSharedArray
	movt	r1, :upper16:xSharedArray
	ldr	r0, [r1, #4]
	adds	r0, r0, #1
	str	r0, [r1, #4]
	.loc	3 558 5                         @ ../../../CORTEX_MPU_M3_NUCLEO_L152RE_GCC/Demo/blocktim.c:558:5
	b	.LBB4_9
.Ltmp160:
.LBB4_9:                                @   in Loop: Header=BB4_3 Depth=1
	.loc	3 544 31                        @ ../../../CORTEX_MPU_M3_NUCLEO_L152RE_GCC/Demo/blocktim.c:544:31
	ldr	r0, [sp, #36]
	adds	r0, r0, #1
	str	r0, [sp, #36]
	.loc	3 544 5 is_stmt 0               @ ../../../CORTEX_MPU_M3_NUCLEO_L152RE_GCC/Demo/blocktim.c:544:5
	b	.LBB4_3
.Ltmp161:
.LBB4_10:
	.loc	3 0 5                           @ ../../../CORTEX_MPU_M3_NUCLEO_L152RE_GCC/Demo/blocktim.c:0:5
	add	r0, sp, #32
	movs	r1, #75
	.loc	3 562 17 is_stmt 1              @ ../../../CORTEX_MPU_M3_NUCLEO_L152RE_GCC/Demo/blocktim.c:562:17
	bl	MPU_xTaskDelayUntil
	.loc	3 562 15 is_stmt 0              @ ../../../CORTEX_MPU_M3_NUCLEO_L152RE_GCC/Demo/blocktim.c:562:15
	str	r0, [sp, #8]
.Ltmp162:
	.loc	3 564 9 is_stmt 1               @ ../../../CORTEX_MPU_M3_NUCLEO_L152RE_GCC/Demo/blocktim.c:564:9
	ldr	r0, [sp, #8]
.Ltmp163:
	.loc	3 564 9 is_stmt 0               @ ../../../CORTEX_MPU_M3_NUCLEO_L152RE_GCC/Demo/blocktim.c:564:9
	cmp	r0, #1
	beq	.LBB4_12
	b	.LBB4_11
.LBB4_11:
.Ltmp164:
	.loc	3 566 44 is_stmt 1              @ ../../../CORTEX_MPU_M3_NUCLEO_L152RE_GCC/Demo/blocktim.c:566:44
	movw	r1, :lower16:xSharedArray
	movt	r1, :upper16:xSharedArray
	movs	r0, #1
	str	r0, [r1]
	.loc	3 567 5                         @ ../../../CORTEX_MPU_M3_NUCLEO_L152RE_GCC/Demo/blocktim.c:567:5
	b	.LBB4_12
.Ltmp165:
.LBB4_12:
	.loc	3 0 5 is_stmt 0                 @ ../../../CORTEX_MPU_M3_NUCLEO_L152RE_GCC/Demo/blocktim.c:0:5
	movs	r0, #37
	.loc	3 571 5 is_stmt 1               @ ../../../CORTEX_MPU_M3_NUCLEO_L152RE_GCC/Demo/blocktim.c:571:5
	bl	MPU_vTaskDelay
	add	r0, sp, #32
	movs	r1, #75
	.loc	3 572 17                        @ ../../../CORTEX_MPU_M3_NUCLEO_L152RE_GCC/Demo/blocktim.c:572:17
	bl	MPU_xTaskDelayUntil
	.loc	3 572 15 is_stmt 0              @ ../../../CORTEX_MPU_M3_NUCLEO_L152RE_GCC/Demo/blocktim.c:572:15
	str	r0, [sp, #8]
.Ltmp166:
	.loc	3 574 9 is_stmt 1               @ ../../../CORTEX_MPU_M3_NUCLEO_L152RE_GCC/Demo/blocktim.c:574:9
	ldr	r0, [sp, #8]
.Ltmp167:
	.loc	3 574 9 is_stmt 0               @ ../../../CORTEX_MPU_M3_NUCLEO_L152RE_GCC/Demo/blocktim.c:574:9
	cmp	r0, #1
	beq	.LBB4_14
	b	.LBB4_13
.LBB4_13:
.Ltmp168:
	.loc	3 576 44 is_stmt 1              @ ../../../CORTEX_MPU_M3_NUCLEO_L152RE_GCC/Demo/blocktim.c:576:44
	movw	r1, :lower16:xSharedArray
	movt	r1, :upper16:xSharedArray
	movs	r0, #1
	str	r0, [r1]
	.loc	3 577 5                         @ ../../../CORTEX_MPU_M3_NUCLEO_L152RE_GCC/Demo/blocktim.c:577:5
	b	.LBB4_14
.Ltmp169:
.LBB4_14:
	.loc	3 0 5 is_stmt 0                 @ ../../../CORTEX_MPU_M3_NUCLEO_L152RE_GCC/Demo/blocktim.c:0:5
	movs	r0, #75
	.loc	3 581 5 is_stmt 1               @ ../../../CORTEX_MPU_M3_NUCLEO_L152RE_GCC/Demo/blocktim.c:581:5
	str	r0, [sp, #4]                    @ 4-byte Spill
	bl	MPU_vTaskDelay
	ldr	r1, [sp, #4]                    @ 4-byte Reload
	add	r0, sp, #32
	.loc	3 582 17                        @ ../../../CORTEX_MPU_M3_NUCLEO_L152RE_GCC/Demo/blocktim.c:582:17
	bl	MPU_xTaskDelayUntil
	.loc	3 582 15 is_stmt 0              @ ../../../CORTEX_MPU_M3_NUCLEO_L152RE_GCC/Demo/blocktim.c:582:15
	str	r0, [sp, #8]
.Ltmp170:
	.loc	3 584 9 is_stmt 1               @ ../../../CORTEX_MPU_M3_NUCLEO_L152RE_GCC/Demo/blocktim.c:584:9
	ldr	r0, [sp, #8]
.Ltmp171:
	.loc	3 584 9 is_stmt 0               @ ../../../CORTEX_MPU_M3_NUCLEO_L152RE_GCC/Demo/blocktim.c:584:9
	cbz	r0, .LBB4_16
	b	.LBB4_15
.LBB4_15:
.Ltmp172:
	.loc	3 586 44 is_stmt 1              @ ../../../CORTEX_MPU_M3_NUCLEO_L152RE_GCC/Demo/blocktim.c:586:44
	movw	r1, :lower16:xSharedArray
	movt	r1, :upper16:xSharedArray
	movs	r0, #1
	str	r0, [r1]
	.loc	3 587 5                         @ ../../../CORTEX_MPU_M3_NUCLEO_L152RE_GCC/Demo/blocktim.c:587:5
	b	.LBB4_16
.Ltmp173:
.LBB4_16:
	.loc	3 0 5 is_stmt 0                 @ ../../../CORTEX_MPU_M3_NUCLEO_L152RE_GCC/Demo/blocktim.c:0:5
	add	r0, sp, #32
	movs	r1, #75
	.loc	3 590 17 is_stmt 1              @ ../../../CORTEX_MPU_M3_NUCLEO_L152RE_GCC/Demo/blocktim.c:590:17
	bl	MPU_xTaskDelayUntil
	.loc	3 590 15 is_stmt 0              @ ../../../CORTEX_MPU_M3_NUCLEO_L152RE_GCC/Demo/blocktim.c:590:15
	str	r0, [sp, #8]
.Ltmp174:
	.loc	3 592 9 is_stmt 1               @ ../../../CORTEX_MPU_M3_NUCLEO_L152RE_GCC/Demo/blocktim.c:592:9
	ldr	r0, [sp, #8]
.Ltmp175:
	.loc	3 592 9 is_stmt 0               @ ../../../CORTEX_MPU_M3_NUCLEO_L152RE_GCC/Demo/blocktim.c:592:9
	cmp	r0, #1
	beq	.LBB4_18
	b	.LBB4_17
.LBB4_17:
.Ltmp176:
	.loc	3 594 44 is_stmt 1              @ ../../../CORTEX_MPU_M3_NUCLEO_L152RE_GCC/Demo/blocktim.c:594:44
	movw	r1, :lower16:xSharedArray
	movt	r1, :upper16:xSharedArray
	movs	r0, #1
	str	r0, [r1]
	.loc	3 595 5                         @ ../../../CORTEX_MPU_M3_NUCLEO_L152RE_GCC/Demo/blocktim.c:595:5
	b	.LBB4_18
.Ltmp177:
.LBB4_18:
	.loc	3 0 5 is_stmt 0                 @ ../../../CORTEX_MPU_M3_NUCLEO_L152RE_GCC/Demo/blocktim.c:0:5
	movs	r0, #82
	.loc	3 599 5 is_stmt 1               @ ../../../CORTEX_MPU_M3_NUCLEO_L152RE_GCC/Demo/blocktim.c:599:5
	bl	MPU_vTaskDelay
	add	r0, sp, #32
	movs	r1, #75
	.loc	3 600 17                        @ ../../../CORTEX_MPU_M3_NUCLEO_L152RE_GCC/Demo/blocktim.c:600:17
	bl	MPU_xTaskDelayUntil
	.loc	3 600 15 is_stmt 0              @ ../../../CORTEX_MPU_M3_NUCLEO_L152RE_GCC/Demo/blocktim.c:600:15
	str	r0, [sp, #8]
.Ltmp178:
	.loc	3 602 9 is_stmt 1               @ ../../../CORTEX_MPU_M3_NUCLEO_L152RE_GCC/Demo/blocktim.c:602:9
	ldr	r0, [sp, #8]
.Ltmp179:
	.loc	3 602 9 is_stmt 0               @ ../../../CORTEX_MPU_M3_NUCLEO_L152RE_GCC/Demo/blocktim.c:602:9
	cbz	r0, .LBB4_20
	b	.LBB4_19
.LBB4_19:
.Ltmp180:
	.loc	3 604 44 is_stmt 1              @ ../../../CORTEX_MPU_M3_NUCLEO_L152RE_GCC/Demo/blocktim.c:604:44
	movw	r1, :lower16:xSharedArray
	movt	r1, :upper16:xSharedArray
	movs	r0, #1
	str	r0, [r1]
	.loc	3 605 5                         @ ../../../CORTEX_MPU_M3_NUCLEO_L152RE_GCC/Demo/blocktim.c:605:5
	b	.LBB4_20
.Ltmp181:
.LBB4_20:
	.loc	3 0 5 is_stmt 0                 @ ../../../CORTEX_MPU_M3_NUCLEO_L152RE_GCC/Demo/blocktim.c:0:5
	movs	r0, #0
	movs	r1, #2
	.loc	3 608 5 is_stmt 1               @ ../../../CORTEX_MPU_M3_NUCLEO_L152RE_GCC/Demo/blocktim.c:608:5
	bl	MPU_vTaskPrioritySet
	.loc	3 609 1                         @ ../../../CORTEX_MPU_M3_NUCLEO_L152RE_GCC/Demo/blocktim.c:609:1
	add	sp, #48
	pop	{r7, pc}
.Ltmp182:
.Lfunc_end4:
	.size	prvBasicDelayTests, .Lfunc_end4-prvBasicDelayTests
	.cfi_endproc
	.cantunwind
	.fnend
                                        @ -- End function
	.type	xTestQueue,%object              @ @xTestQueue
	.section	.bss.xTestQueue,"aw",%nobits
	.p2align	5, 0x0
xTestQueue:
	.zero	32
	.size	xTestQueue, 32

	.type	vCreateBlockTimeTasks.xPrimaryBlockTimeTestTaskStack,%object @ @vCreateBlockTimeTasks.xPrimaryBlockTimeTestTaskStack
	.section	.bss.vCreateBlockTimeTasks.xPrimaryBlockTimeTestTaskStack,"aw",%nobits
	.p2align	9, 0x0
vCreateBlockTimeTasks.xPrimaryBlockTimeTestTaskStack:
	.zero	512
	.size	vCreateBlockTimeTasks.xPrimaryBlockTimeTestTaskStack, 512

	.type	vCreateBlockTimeTasks.xSecondaryBlockTimeTestTaskStack,%object @ @vCreateBlockTimeTasks.xSecondaryBlockTimeTestTaskStack
	.section	.bss.vCreateBlockTimeTasks.xSecondaryBlockTimeTestTaskStack,"aw",%nobits
	.p2align	9, 0x0
vCreateBlockTimeTasks.xSecondaryBlockTimeTestTaskStack:
	.zero	512
	.size	vCreateBlockTimeTasks.xSecondaryBlockTimeTestTaskStack, 512

	.type	.L.str,%object                  @ @.str
	.section	.rodata.str1.1,"aMS",%progbits,1
.L.str:
	.asciz	"BTest1"
	.size	.L.str, 7

	.type	.Lconstinit,%object             @ @constinit
	.section	.bss..Lconstinit,"aw",%nobits
	.p2align	2, 0x0
.Lconstinit:
	.zero	36
	.size	.Lconstinit, 36

	.type	.L.str.1,%object                @ @.str.1
	.section	.rodata.str1.1,"aMS",%progbits,1
.L.str.1:
	.asciz	"BTest2"
	.size	.L.str.1, 7

	.type	xSecondary,%object              @ @xSecondary
	.section	.bss.xSecondary,"aw",%nobits
	.p2align	5, 0x0
xSecondary:
	.zero	32
	.size	xSecondary, 32

	.type	xSharedArray,%object            @ @xSharedArray
	.section	.bss.xSharedArray,"aw",%nobits
	.p2align	5, 0x0
xSharedArray:
	.zero	32
	.size	xSharedArray, 32

	.type	.Lconstinit.2,%object           @ @constinit.2
	.section	.data..Lconstinit.2,"aw",%progbits
	.p2align	2, 0x0
.Lconstinit.2:
	.long	xSecondary
	.long	32                              @ 0x20
	.long	3                               @ 0x3
	.long	xSharedArray
	.long	32                              @ 0x20
	.long	3                               @ 0x3
	.long	xTestQueue
	.long	32                              @ 0x20
	.long	3                               @ 0x3
	.size	.Lconstinit.2, 36

	.type	xAreBlockTimeTestTasksStillRunning.xLastPrimaryCycleCount,%object @ @xAreBlockTimeTestTasksStillRunning.xLastPrimaryCycleCount
	.section	.bss.xAreBlockTimeTestTasksStillRunning.xLastPrimaryCycleCount,"aw",%nobits
	.p2align	2, 0x0
xAreBlockTimeTestTasksStillRunning.xLastPrimaryCycleCount:
	.long	0                               @ 0x0
	.size	xAreBlockTimeTestTasksStillRunning.xLastPrimaryCycleCount, 4

	.type	xAreBlockTimeTestTasksStillRunning.xLastSecondaryCycleCount,%object @ @xAreBlockTimeTestTasksStillRunning.xLastSecondaryCycleCount
	.section	.bss.xAreBlockTimeTestTasksStillRunning.xLastSecondaryCycleCount,"aw",%nobits
	.p2align	2, 0x0
xAreBlockTimeTestTasksStillRunning.xLastSecondaryCycleCount:
	.long	0                               @ 0x0
	.size	xAreBlockTimeTestTasksStillRunning.xLastSecondaryCycleCount, 4

	.file	6 "C:\\Users\\karahulx\\Downloads\\Kernel\\FreeRTOS\\FreeRTOS\\Demo\\CORTEX_MPU_M23_Nuvoton_NuMaker_PFM_M2351_IAR_GCC\\Projects_NTZ\\Keil" "../../../../Source/include/projdefs.h"
	.file	7 "C:\\Users\\karahulx\\Downloads\\Kernel\\FreeRTOS\\FreeRTOS\\Demo\\CORTEX_MPU_M23_Nuvoton_NuMaker_PFM_M2351_IAR_GCC\\Projects_NTZ\\Keil" "../../../../Source/include\\FreeRTOS.h"
	.section	".note.GNU-stack","",%progbits
	.eabi_attribute	30, 6	@ Tag_ABI_optimization_goals
	.ARM_attribute	16, 1	@ Tag_AV_eba