	.text
	.syntax unified
	.eabi_attribute	67, "2.09"	@ Tag_conformance
	.eabi_attribute	6, 16	@ Tag_CPU_arch
	.eabi_attribute	7, 77	@ Tag_CPU_arch_profile
	.eabi_attribute	8, 0	@ Tag_ARM_ISA_use
	.eabi_attribute	9, 3	@ Tag_THUMB_ISA_use
	.eabi_attribute	34, 0	@ Tag_CPU_unaligned_access
	.eabi_attribute	17, 1	@ Tag_ABI_PCS_GOT_use
	.eabi_attribute	20, 2	@ Tag_ABI_FP_denormal
	.eabi_attribute	21, 0	@ Tag_ABI_FP_exceptions
	.eabi_attribute	23, 1	@ Tag_ABI_FP_number_model
	.eabi_attribute	24, 1	@ Tag_ABI_align_needed
	.eabi_attribute	25, 1	@ Tag_ABI_align_preserved
	.eabi_attribute	38, 1	@ Tag_ABI_FP_16bit_format
	.eabi_attribute	18, 4	@ Tag_ABI_PCS_wchar_t
	.eabi_attribute	26, 2	@ Tag_ABI_enum_size
	.eabi_attribute	14, 0	@ Tag_ABI_PCS_R9_use
	.file	"countsem.c"
	.file	1 "C:\\Keil_v5\\ARM\\ARMCLANG\\Bin\\..\\include" "stdint.h"
	.file	2 "C:\\Users\\karahulx\\Downloads\\Kernel\\FreeRTOS\\FreeRTOS\\Demo\\CORTEX_MPU_M23_Nuvoton_NuMaker_PFM_M2351_IAR_GCC\\Projects_NTZ\\Keil" "../../../../Source/portable/GCC/ARM_CM23_NTZ/non_secure/portmacrocommon.h"
	.file	3 "C:\\Users\\karahulx\\Downloads\\Kernel\\FreeRTOS\\FreeRTOS\\Demo\\CORTEX_MPU_M23_Nuvoton_NuMaker_PFM_M2351_IAR_GCC\\Projects_NTZ\\Keil" "../../../CORTEX_MPU_M3_NUCLEO_L152RE_GCC/Demo/countsem.c"
	.file	4 "C:\\Users\\karahulx\\Downloads\\Kernel\\FreeRTOS\\FreeRTOS\\Demo\\CORTEX_MPU_M23_Nuvoton_NuMaker_PFM_M2351_IAR_GCC\\Projects_NTZ\\Keil" "../../../../Source/include/queue.h"
	.file	5 "C:\\Users\\karahulx\\Downloads\\Kernel\\FreeRTOS\\FreeRTOS\\Demo\\CORTEX_MPU_M23_Nuvoton_NuMaker_PFM_M2351_IAR_GCC\\Projects_NTZ\\Keil" "../../../../Source/include\\semphr.h"
	.section	.text.vStartCountingSemaphoreTasks,"ax",%progbits
	.hidden	vStartCountingSemaphoreTasks    @ -- Begin function vStartCountingSemaphoreTasks
	.globl	vStartCountingSemaphoreTasks
	.p2align	1
	.type	vStartCountingSemaphoreTasks,%function
	.code	16                              @ @vStartCountingSemaphoreTasks
	.thumb_func
vStartCountingSemaphoreTasks:
.Lfunc_begin0:
	.loc	3 115 0                         @ ../../../CORTEX_MPU_M3_NUCLEO_L152RE_GCC/Demo/countsem.c:115:0
	.fnstart
	.cfi_sections .debug_frame
	.cfi_startproc
@ %bb.0:
	.save	{r4, r5, r6, lr}
	push	{r4, r5, r6, lr}
	.cfi_def_cfa_offset 16
	.cfi_offset lr, -4
	.cfi_offset r6, -8
	.cfi_offset r5, -12
	.cfi_offset r4, -16
	.pad	#144
	sub	sp, #144
	.cfi_def_cfa_offset 160
	movs	r1, #200
.Ltmp0:
	.loc	3 119 31 prologue_end           @ ../../../CORTEX_MPU_M3_NUCLEO_L152RE_GCC/Demo/countsem.c:119:31
	str	r1, [sp, #4]                    @ 4-byte Spill
	mov	r0, r1
	bl	MPU_xQueueCreateCountingSemaphore
	mov	r1, r0
	.loc	3 119 29 is_stmt 0              @ ../../../CORTEX_MPU_M3_NUCLEO_L152RE_GCC/Demo/countsem.c:119:29
	ldr	r0, [sp, #4]                    @ 4-byte Reload
	movw	r2, :lower16:xParameters1
	movt	r2, :upper16:xParameters1
	str	r2, [sp, #12]                   @ 4-byte Spill
	str	r1, [r2]
	movs	r1, #170
	.loc	3 120 39 is_stmt 1              @ ../../../CORTEX_MPU_M3_NUCLEO_L152RE_GCC/Demo/countsem.c:120:39
	str	r1, [r2, #4]
	movs	r1, #0
	.loc	3 121 32                        @ ../../../CORTEX_MPU_M3_NUCLEO_L152RE_GCC/Demo/countsem.c:121:32
	str	r1, [sp, #8]                    @ 4-byte Spill
	str	r1, [r2, #8]
	.loc	3 123 31                        @ ../../../CORTEX_MPU_M3_NUCLEO_L152RE_GCC/Demo/countsem.c:123:31
	bl	MPU_xQueueCreateCountingSemaphore
	ldr	r1, [sp, #8]                    @ 4-byte Reload
	mov	r3, r0
	.loc	3 123 29 is_stmt 0              @ ../../../CORTEX_MPU_M3_NUCLEO_L152RE_GCC/Demo/countsem.c:123:29
	ldr	r0, [sp, #12]                   @ 4-byte Reload
	movw	r2, :lower16:xParameters2
	movt	r2, :upper16:xParameters2
	str	r3, [r2]
	.loc	3 124 39 is_stmt 1              @ ../../../CORTEX_MPU_M3_NUCLEO_L152RE_GCC/Demo/countsem.c:124:39
	str	r1, [r2, #4]
	.loc	3 125 32                        @ ../../../CORTEX_MPU_M3_NUCLEO_L152RE_GCC/Demo/countsem.c:125:32
	str	r1, [r2, #8]
	.loc	3 130 22                        @ ../../../CORTEX_MPU_M3_NUCLEO_L152RE_GCC/Demo/countsem.c:130:22
	movw	r2, :lower16:.L__const.vStartCountingSemaphoreTasks.xCountingSemaphoreTask1
	movt	r2, :upper16:.L__const.vStartCountingSemaphoreTasks.xCountingSemaphoreTask1
	add	r1, sp, #80
	ldm	r2!, {r3, r4, r5, r6}
	stm	r1!, {r3, r4, r5, r6}
	ldm	r2!, {r3, r4, r5, r6}
	stm	r1!, {r3, r4, r5, r6}
	ldm	r2!, {r3, r4, r5, r6}
	stm	r1!, {r3, r4, r5, r6}
	ldm	r2!, {r3, r4, r5, r6}
	stm	r1!, {r3, r4, r5, r6}
	.loc	3 148 22                        @ ../../../CORTEX_MPU_M3_NUCLEO_L152RE_GCC/Demo/countsem.c:148:22
	movw	r2, :lower16:.L__const.vStartCountingSemaphoreTasks.xCountingSemaphoreTask2
	movt	r2, :upper16:.L__const.vStartCountingSemaphoreTasks.xCountingSemaphoreTask2
	add	r1, sp, #16
	ldm	r2!, {r3, r4, r5, r6}
	stm	r1!, {r3, r4, r5, r6}
	ldm	r2!, {r3, r4, r5, r6}
	stm	r1!, {r3, r4, r5, r6}
	ldm	r2!, {r3, r4, r5, r6}
	stm	r1!, {r3, r4, r5, r6}
	ldm	r2!, {r3, r4, r5, r6}
	stm	r1!, {r3, r4, r5, r6}
.Ltmp1:
	.loc	3 168 24                        @ ../../../CORTEX_MPU_M3_NUCLEO_L152RE_GCC/Demo/countsem.c:168:24
	ldr	r0, [r0]
	.loc	3 168 45 is_stmt 0              @ ../../../CORTEX_MPU_M3_NUCLEO_L152RE_GCC/Demo/countsem.c:168:45
	cbnz	r0, .LBB0_2
	b	.LBB0_1
.LBB0_1:
	.loc	3 168 63                        @ ../../../CORTEX_MPU_M3_NUCLEO_L152RE_GCC/Demo/countsem.c:168:63
	movw	r0, :lower16:xParameters2
	movt	r0, :upper16:xParameters2
	ldr	r0, [r0]
.Ltmp2:
	.loc	3 168 9                         @ ../../../CORTEX_MPU_M3_NUCLEO_L152RE_GCC/Demo/countsem.c:168:9
	cbz	r0, .LBB0_3
	b	.LBB0_2
.LBB0_2:
	.loc	3 0 9                           @ ../../../CORTEX_MPU_M3_NUCLEO_L152RE_GCC/Demo/countsem.c:0:9
	add	r0, sp, #80
	movs	r1, #0
.Ltmp3:
	.loc	3 180 9 is_stmt 1               @ ../../../CORTEX_MPU_M3_NUCLEO_L152RE_GCC/Demo/countsem.c:180:9
	str	r1, [sp]                        @ 4-byte Spill
	bl	xTaskCreateRestricted
	ldr	r1, [sp]                        @ 4-byte Reload
	add	r0, sp, #16
	.loc	3 181 9                         @ ../../../CORTEX_MPU_M3_NUCLEO_L152RE_GCC/Demo/countsem.c:181:9
	bl	xTaskCreateRestricted
	.loc	3 182 5                         @ ../../../CORTEX_MPU_M3_NUCLEO_L152RE_GCC/Demo/countsem.c:182:5
	b	.LBB0_3
.Ltmp4:
.LBB0_3:
	.loc	3 183 1                         @ ../../../CORTEX_MPU_M3_NUCLEO_L152RE_GCC/Demo/countsem.c:183:1
	add	sp, #144
	pop	{r4, r5, r6, pc}
.Ltmp5:
.Lfunc_end0:
	.size	vStartCountingSemaphoreTasks, .Lfunc_end0-vStartCountingSemaphoreTasks
	.cfi_endproc
	.cantunwind
	.fnend
                                        @ -- End function
	.section	.text.prvCountingSemaphoreTask,"ax",%progbits
	.p2align	1                               @ -- Begin function prvCountingSemaphoreTask
	.type	prvCountingSemaphoreTask,%function
	.code	16                              @ @prvCountingSemaphoreTask
	.thumb_func
prvCountingSemaphoreTask:
.Lfunc_begin1:
	.loc	3 267 0                         @ ../../../CORTEX_MPU_M3_NUCLEO_L152RE_GCC/Demo/countsem.c:267:0
	.fnstart
	.cfi_startproc
@ %bb.0:
	.save	{r7, lr}
	push	{r7, lr}
	.cfi_def_cfa_offset 8
	.cfi_offset lr, -4
	.cfi_offset r7, -8
	.pad	#8
	sub	sp, #8
	.cfi_def_cfa_offset 16
	str	r0, [sp, #4]
.Ltmp6:
	.loc	3 280 41 prologue_end           @ ../../../CORTEX_MPU_M3_NUCLEO_L152RE_GCC/Demo/countsem.c:280:41
	ldr	r0, [sp, #4]
	.loc	3 280 17 is_stmt 0              @ ../../../CORTEX_MPU_M3_NUCLEO_L152RE_GCC/Demo/countsem.c:280:17
	str	r0, [sp]
.Ltmp7:
	.loc	3 284 9 is_stmt 1               @ ../../../CORTEX_MPU_M3_NUCLEO_L152RE_GCC/Demo/countsem.c:284:9
	ldr	r0, [sp]
	.loc	3 284 22 is_stmt 0              @ ../../../CORTEX_MPU_M3_NUCLEO_L152RE_GCC/Demo/countsem.c:284:22
	ldr	r0, [r0, #4]
.Ltmp8:
	.loc	3 284 9                         @ ../../../CORTEX_MPU_M3_NUCLEO_L152RE_GCC/Demo/countsem.c:284:9
	cmp	r0, #170
	bne	.LBB1_2
	b	.LBB1_1
.LBB1_1:
.Ltmp9:
	.loc	3 286 37 is_stmt 1              @ ../../../CORTEX_MPU_M3_NUCLEO_L152RE_GCC/Demo/countsem.c:286:37
	ldr	r1, [sp]
	.loc	3 286 50 is_stmt 0              @ ../../../CORTEX_MPU_M3_NUCLEO_L152RE_GCC/Demo/countsem.c:286:50
	ldr	r0, [r1]
	.loc	3 286 78                        @ ../../../CORTEX_MPU_M3_NUCLEO_L152RE_GCC/Demo/countsem.c:286:78
	adds	r1, #8
	.loc	3 286 9                         @ ../../../CORTEX_MPU_M3_NUCLEO_L152RE_GCC/Demo/countsem.c:286:9
	bl	prvDecrementSemaphoreCount
	.loc	3 287 5 is_stmt 1               @ ../../../CORTEX_MPU_M3_NUCLEO_L152RE_GCC/Demo/countsem.c:287:5
	b	.LBB1_2
.Ltmp10:
.LBB1_2:
	.loc	3 291 9                         @ ../../../CORTEX_MPU_M3_NUCLEO_L152RE_GCC/Demo/countsem.c:291:9
	ldr	r0, [sp]
	ldr	r0, [r0]
	movs	r1, #0
	bl	MPU_xQueueSemaphoreTake
.Ltmp11:
	.loc	3 291 9 is_stmt 0               @ ../../../CORTEX_MPU_M3_NUCLEO_L152RE_GCC/Demo/countsem.c:291:9
	cmp	r0, #1
	bne	.LBB1_4
	b	.LBB1_3
.LBB1_3:
.Ltmp12:
	.loc	3 293 29 is_stmt 1              @ ../../../CORTEX_MPU_M3_NUCLEO_L152RE_GCC/Demo/countsem.c:293:29
	movw	r1, :lower16:xErrorDetected
	movt	r1, :upper16:xErrorDetected
	movs	r0, #1
	str	r0, [r1]
	.loc	3 294 5                         @ ../../../CORTEX_MPU_M3_NUCLEO_L152RE_GCC/Demo/countsem.c:294:5
	b	.LBB1_4
.Ltmp13:
.LBB1_4:
	.loc	3 296 5                         @ ../../../CORTEX_MPU_M3_NUCLEO_L152RE_GCC/Demo/countsem.c:296:5
	b	.LBB1_5
.LBB1_5:                                @ =>This Inner Loop Header: Depth=1
.Ltmp14:
	.loc	3 298 37                        @ ../../../CORTEX_MPU_M3_NUCLEO_L152RE_GCC/Demo/countsem.c:298:37
	ldr	r1, [sp]
	.loc	3 298 50 is_stmt 0              @ ../../../CORTEX_MPU_M3_NUCLEO_L152RE_GCC/Demo/countsem.c:298:50
	ldr	r0, [r1]
	.loc	3 298 78                        @ ../../../CORTEX_MPU_M3_NUCLEO_L152RE_GCC/Demo/countsem.c:298:78
	adds	r1, #8
	.loc	3 298 9                         @ ../../../CORTEX_MPU_M3_NUCLEO_L152RE_GCC/Demo/countsem.c:298:9
	bl	prvIncrementSemaphoreCount
	.loc	3 299 37 is_stmt 1              @ ../../../CORTEX_MPU_M3_NUCLEO_L152RE_GCC/Demo/countsem.c:299:37
	ldr	r1, [sp]
	.loc	3 299 50 is_stmt 0              @ ../../../CORTEX_MPU_M3_NUCLEO_L152RE_GCC/Demo/countsem.c:299:50
	ldr	r0, [r1]
	.loc	3 299 78                        @ ../../../CORTEX_MPU_M3_NUCLEO_L152RE_GCC/Demo/countsem.c:299:78
	adds	r1, #8
	.loc	3 299 9                         @ ../../../CORTEX_MPU_M3_NUCLEO_L152RE_GCC/Demo/countsem.c:299:9
	bl	prvDecrementSemaphoreCount
.Ltmp15:
	.loc	3 296 5 is_stmt 1               @ ../../../CORTEX_MPU_M3_NUCLEO_L152RE_GCC/Demo/countsem.c:296:5
	b	.LBB1_5
.Ltmp16:
.Lfunc_end1:
	.size	prvCountingSemaphoreTask, .Lfunc_end1-prvCountingSemaphoreTask
	.cfi_endproc
	.cantunwind
	.fnend
                                        @ -- End function
	.section	.text.xAreCountingSemaphoreTasksStillRunning,"ax",%progbits
	.hidden	xAreCountingSemaphoreTasksStillRunning @ -- Begin function xAreCountingSemaphoreTasksStillRunning
	.globl	xAreCountingSemaphoreTasksStillRunning
	.p2align	1
	.type	xAreCountingSemaphoreTasksStillRunning,%function
	.code	16                              @ @xAreCountingSemaphoreTasksStillRunning
	.thumb_func
xAreCountingSemaphoreTasksStillRunning:
.Lfunc_begin2:
	.loc	3 305 0                         @ ../../../CORTEX_MPU_M3_NUCLEO_L152RE_GCC/Demo/countsem.c:305:0
	.fnstart
	.cfi_startproc
@ %bb.0:
	.pad	#4
	sub	sp, #4
	.cfi_def_cfa_offset 4
	movs	r0, #1
.Ltmp17:
	.loc	3 307 16 prologue_end           @ ../../../CORTEX_MPU_M3_NUCLEO_L152RE_GCC/Demo/countsem.c:307:16
	str	r0, [sp]
.Ltmp18:
	.loc	3 311 9                         @ ../../../CORTEX_MPU_M3_NUCLEO_L152RE_GCC/Demo/countsem.c:311:9
	movw	r0, :lower16:xErrorDetected
	movt	r0, :upper16:xErrorDetected
	ldr	r0, [r0]
.Ltmp19:
	.loc	3 311 9 is_stmt 0               @ ../../../CORTEX_MPU_M3_NUCLEO_L152RE_GCC/Demo/countsem.c:311:9
	cbz	r0, .LBB2_2
	b	.LBB2_1
.LBB2_1:
	.loc	3 0 9                           @ ../../../CORTEX_MPU_M3_NUCLEO_L152RE_GCC/Demo/countsem.c:0:9
	movs	r0, #0
.Ltmp20:
	.loc	3 313 17 is_stmt 1              @ ../../../CORTEX_MPU_M3_NUCLEO_L152RE_GCC/Demo/countsem.c:313:17
	str	r0, [sp]
	.loc	3 314 5                         @ ../../../CORTEX_MPU_M3_NUCLEO_L152RE_GCC/Demo/countsem.c:314:5
	b	.LBB2_2
.Ltmp21:
.LBB2_2:
	.loc	3 317 9                         @ ../../../CORTEX_MPU_M3_NUCLEO_L152RE_GCC/Demo/countsem.c:317:9
	movw	r0, :lower16:xAreCountingSemaphoreTasksStillRunning.uxLastCount0
	movt	r0, :upper16:xAreCountingSemaphoreTasksStillRunning.uxLastCount0
	ldr	r0, [r0]
	.loc	3 317 38 is_stmt 0              @ ../../../CORTEX_MPU_M3_NUCLEO_L152RE_GCC/Demo/countsem.c:317:38
	movw	r1, :lower16:xParameters1
	movt	r1, :upper16:xParameters1
	ldr	r1, [r1, #8]
.Ltmp22:
	.loc	3 317 9                         @ ../../../CORTEX_MPU_M3_NUCLEO_L152RE_GCC/Demo/countsem.c:317:9
	cmp	r0, r1
	bne	.LBB2_4
	b	.LBB2_3
.LBB2_3:
	.loc	3 0 9                           @ ../../../CORTEX_MPU_M3_NUCLEO_L152RE_GCC/Demo/countsem.c:0:9
	movs	r0, #0
.Ltmp23:
	.loc	3 319 17 is_stmt 1              @ ../../../CORTEX_MPU_M3_NUCLEO_L152RE_GCC/Demo/countsem.c:319:17
	str	r0, [sp]
	.loc	3 320 5                         @ ../../../CORTEX_MPU_M3_NUCLEO_L152RE_GCC/Demo/countsem.c:320:5
	b	.LBB2_5
.Ltmp24:
.LBB2_4:
	.loc	3 323 37                        @ ../../../CORTEX_MPU_M3_NUCLEO_L152RE_GCC/Demo/countsem.c:323:37
	movw	r0, :lower16:xParameters1
	movt	r0, :upper16:xParameters1
	ldr	r0, [r0, #8]
	.loc	3 323 22 is_stmt 0              @ ../../../CORTEX_MPU_M3_NUCLEO_L152RE_GCC/Demo/countsem.c:323:22
	movw	r1, :lower16:xAreCountingSemaphoreTasksStillRunning.uxLastCount0
	movt	r1, :upper16:xAreCountingSemaphoreTasksStillRunning.uxLastCount0
	str	r0, [r1]
	b	.LBB2_5
.Ltmp25:
.LBB2_5:
	.loc	3 326 9 is_stmt 1               @ ../../../CORTEX_MPU_M3_NUCLEO_L152RE_GCC/Demo/countsem.c:326:9
	movw	r0, :lower16:xAreCountingSemaphoreTasksStillRunning.uxLastCount1
	movt	r0, :upper16:xAreCountingSemaphoreTasksStillRunning.uxLastCount1
	ldr	r0, [r0]
	.loc	3 326 38 is_stmt 0              @ ../../../CORTEX_MPU_M3_NUCLEO_L152RE_GCC/Demo/countsem.c:326:38
	movw	r1, :lower16:xParameters2
	movt	r1, :upper16:xParameters2
	ldr	r1, [r1, #8]
.Ltmp26:
	.loc	3 326 9                         @ ../../../CORTEX_MPU_M3_NUCLEO_L152RE_GCC/Demo/countsem.c:326:9
	cmp	r0, r1
	bne	.LBB2_7
	b	.LBB2_6
.LBB2_6:
	.loc	3 0 9                           @ ../../../CORTEX_MPU_M3_NUCLEO_L152RE_GCC/Demo/countsem.c:0:9
	movs	r0, #0
.Ltmp27:
	.loc	3 328 17 is_stmt 1              @ ../../../CORTEX_MPU_M3_NUCLEO_L152RE_GCC/Demo/countsem.c:328:17
	str	r0, [sp]
	.loc	3 329 5                         @ ../../../CORTEX_MPU_M3_NUCLEO_L152RE_GCC/Demo/countsem.c:329:5
	b	.LBB2_8
.Ltmp28:
.LBB2_7:
	.loc	3 332 37                        @ ../../../CORTEX_MPU_M3_NUCLEO_L152RE_GCC/Demo/countsem.c:332:37
	movw	r0, :lower16:xParameters2
	movt	r0, :upper16:xParameters2
	ldr	r0, [r0, #8]
	.loc	3 332 22 is_stmt 0              @ ../../../CORTEX_MPU_M3_NUCLEO_L152RE_GCC/Demo/countsem.c:332:22
	movw	r1, :lower16:xAreCountingSemaphoreTasksStillRunning.uxLastCount1
	movt	r1, :upper16:xAreCountingSemaphoreTasksStillRunning.uxLastCount1
	str	r0, [r1]
	b	.LBB2_8
.Ltmp29:
.LBB2_8:
	.loc	3 335 12 is_stmt 1              @ ../../../CORTEX_MPU_M3_NUCLEO_L152RE_GCC/Demo/countsem.c:335:12
	ldr	r0, [sp]
	.loc	3 335 5 is_stmt 0               @ ../../../CORTEX_MPU_M3_NUCLEO_L152RE_GCC/Demo/countsem.c:335:5
	add	sp, #4
	bx	lr
.Ltmp30:
.Lfunc_end2:
	.size	xAreCountingSemaphoreTasksStillRunning, .Lfunc_end2-xAreCountingSemaphoreTasksStillRunning
	.cfi_endproc
	.cantunwind
	.fnend
                                        @ -- End function
	.section	.text.prvDecrementSemaphoreCount,"ax",%progbits
	.p2align	1                               @ -- Begin function prvDecrementSemaphoreCount
	.type	prvDecrementSemaphoreCount,%function
	.code	16                              @ @prvDecrementSemaphoreCount
	.thumb_func
prvDecrementSemaphoreCount:
.Lfunc_begin3:
	.loc	3 188 0 is_stmt 1               @ ../../../CORTEX_MPU_M3_NUCLEO_L152RE_GCC/Demo/countsem.c:188:0
	.fnstart
	.cfi_startproc
@ %bb.0:
	.save	{r7, lr}
	push	{r7, lr}
	.cfi_def_cfa_offset 8
	.cfi_offset lr, -4
	.cfi_offset r7, -8
	.pad	#16
	sub	sp, #16
	.cfi_def_cfa_offset 24
	str	r0, [sp, #12]
	str	r1, [sp, #8]
.Ltmp31:
	.loc	3 193 9 prologue_end            @ ../../../CORTEX_MPU_M3_NUCLEO_L152RE_GCC/Demo/countsem.c:193:9
	ldr	r0, [sp, #12]
	movs	r3, #0
	mov	r1, r3
	mov	r2, r3
	bl	MPU_xQueueGenericSend
.Ltmp32:
	.loc	3 193 9 is_stmt 0               @ ../../../CORTEX_MPU_M3_NUCLEO_L152RE_GCC/Demo/countsem.c:193:9
	cmp	r0, #1
	bne	.LBB3_2
	b	.LBB3_1
.LBB3_1:
.Ltmp33:
	.loc	3 195 29 is_stmt 1              @ ../../../CORTEX_MPU_M3_NUCLEO_L152RE_GCC/Demo/countsem.c:195:29
	movw	r1, :lower16:xErrorDetected
	movt	r1, :upper16:xErrorDetected
	movs	r0, #1
	str	r0, [r1]
	.loc	3 196 5                         @ ../../../CORTEX_MPU_M3_NUCLEO_L152RE_GCC/Demo/countsem.c:196:5
	b	.LBB3_2
.Ltmp34:
.LBB3_2:
	.loc	3 0 5 is_stmt 0                 @ ../../../CORTEX_MPU_M3_NUCLEO_L152RE_GCC/Demo/countsem.c:0:5
	movs	r0, #0
.Ltmp35:
	.loc	3 199 13 is_stmt 1              @ ../../../CORTEX_MPU_M3_NUCLEO_L152RE_GCC/Demo/countsem.c:199:13
	str	r0, [sp, #4]
	.loc	3 199 10 is_stmt 0              @ ../../../CORTEX_MPU_M3_NUCLEO_L152RE_GCC/Demo/countsem.c:199:10
	b	.LBB3_3
.LBB3_3:                                @ =>This Inner Loop Header: Depth=1
.Ltmp36:
	.loc	3 199 18                        @ ../../../CORTEX_MPU_M3_NUCLEO_L152RE_GCC/Demo/countsem.c:199:18
	ldr	r0, [sp, #4]
.Ltmp37:
	.loc	3 199 5                         @ ../../../CORTEX_MPU_M3_NUCLEO_L152RE_GCC/Demo/countsem.c:199:5
	cmp	r0, #199
	bhi	.LBB3_11
	b	.LBB3_4
.LBB3_4:                                @   in Loop: Header=BB3_3 Depth=1
.Ltmp38:
	.loc	3 201 9 is_stmt 1               @ ../../../CORTEX_MPU_M3_NUCLEO_L152RE_GCC/Demo/countsem.c:201:9
	ldr	r0, [sp, #12]
	bl	MPU_uxQueueMessagesWaiting
	ldr	r2, [sp, #4]
	movs	r1, #200
	subs	r1, r1, r2
.Ltmp39:
	.loc	3 201 9 is_stmt 0               @ ../../../CORTEX_MPU_M3_NUCLEO_L152RE_GCC/Demo/countsem.c:201:9
	cmp	r0, r1
	beq	.LBB3_7
	b	.LBB3_5
.LBB3_5:
.Ltmp40:
	.loc	3 201 9                         @ ../../../CORTEX_MPU_M3_NUCLEO_L152RE_GCC/Demo/countsem.c:201:9
	@APP
	cpsid i
	@NO_APP
	b	.LBB3_6
.LBB3_6:                                @ =>This Inner Loop Header: Depth=1
.Ltmp41:
	.loc	3 201 9                         @ ../../../CORTEX_MPU_M3_NUCLEO_L152RE_GCC/Demo/countsem.c:201:9
	b	.LBB3_6
.Ltmp42:
.LBB3_7:                                @   in Loop: Header=BB3_3 Depth=1
	.loc	3 203 13 is_stmt 1              @ ../../../CORTEX_MPU_M3_NUCLEO_L152RE_GCC/Demo/countsem.c:203:13
	ldr	r0, [sp, #12]
	movs	r1, #0
	bl	MPU_xQueueSemaphoreTake
.Ltmp43:
	.loc	3 203 13 is_stmt 0              @ ../../../CORTEX_MPU_M3_NUCLEO_L152RE_GCC/Demo/countsem.c:203:13
	cmp	r0, #1
	beq	.LBB3_9
	b	.LBB3_8
.LBB3_8:                                @   in Loop: Header=BB3_3 Depth=1
.Ltmp44:
	.loc	3 206 33 is_stmt 1              @ ../../../CORTEX_MPU_M3_NUCLEO_L152RE_GCC/Demo/countsem.c:206:33
	movw	r1, :lower16:xErrorDetected
	movt	r1, :upper16:xErrorDetected
	movs	r0, #1
	str	r0, [r1]
	.loc	3 207 9                         @ ../../../CORTEX_MPU_M3_NUCLEO_L152RE_GCC/Demo/countsem.c:207:9
	b	.LBB3_9
.Ltmp45:
.LBB3_9:                                @   in Loop: Header=BB3_3 Depth=1
	.loc	3 209 12                        @ ../../../CORTEX_MPU_M3_NUCLEO_L152RE_GCC/Demo/countsem.c:209:12
	ldr	r1, [sp, #8]
	.loc	3 209 28 is_stmt 0              @ ../../../CORTEX_MPU_M3_NUCLEO_L152RE_GCC/Demo/countsem.c:209:28
	ldr	r0, [r1]
	adds	r0, r0, #1
	str	r0, [r1]
	.loc	3 210 5 is_stmt 1               @ ../../../CORTEX_MPU_M3_NUCLEO_L152RE_GCC/Demo/countsem.c:210:5
	b	.LBB3_10
.Ltmp46:
.LBB3_10:                               @   in Loop: Header=BB3_3 Depth=1
	.loc	3 199 47                        @ ../../../CORTEX_MPU_M3_NUCLEO_L152RE_GCC/Demo/countsem.c:199:47
	ldr	r0, [sp, #4]
	adds	r0, r0, #1
	str	r0, [sp, #4]
	.loc	3 199 5 is_stmt 0               @ ../../../CORTEX_MPU_M3_NUCLEO_L152RE_GCC/Demo/countsem.c:199:5
	b	.LBB3_3
.Ltmp47:
.LBB3_11:
	.loc	3 218 5 is_stmt 1               @ ../../../CORTEX_MPU_M3_NUCLEO_L152RE_GCC/Demo/countsem.c:218:5
	ldr	r0, [sp, #12]
	bl	MPU_uxQueueMessagesWaiting
.Ltmp48:
	.loc	3 218 5 is_stmt 0               @ ../../../CORTEX_MPU_M3_NUCLEO_L152RE_GCC/Demo/countsem.c:218:5
	cbz	r0, .LBB3_14
	b	.LBB3_12
.LBB3_12:
.Ltmp49:
	.loc	3 218 5                         @ ../../../CORTEX_MPU_M3_NUCLEO_L152RE_GCC/Demo/countsem.c:218:5
	@APP
	cpsid i
	@NO_APP
	b	.LBB3_13
.LBB3_13:                               @ =>This Inner Loop Header: Depth=1
.Ltmp50:
	.loc	3 218 5                         @ ../../../CORTEX_MPU_M3_NUCLEO_L152RE_GCC/Demo/countsem.c:218:5
	b	.LBB3_13
.Ltmp51:
.LBB3_14:
	.loc	3 220 9 is_stmt 1               @ ../../../CORTEX_MPU_M3_NUCLEO_L152RE_GCC/Demo/countsem.c:220:9
	ldr	r0, [sp, #12]
	movs	r1, #0
	bl	MPU_xQueueSemaphoreTake
.Ltmp52:
	.loc	3 220 9 is_stmt 0               @ ../../../CORTEX_MPU_M3_NUCLEO_L152RE_GCC/Demo/countsem.c:220:9
	cmp	r0, #1
	bne	.LBB3_16
	b	.LBB3_15
.LBB3_15:
.Ltmp53:
	.loc	3 222 29 is_stmt 1              @ ../../../CORTEX_MPU_M3_NUCLEO_L152RE_GCC/Demo/countsem.c:222:29
	movw	r1, :lower16:xErrorDetected
	movt	r1, :upper16:xErrorDetected
	movs	r0, #1
	str	r0, [r1]
	.loc	3 223 5                         @ ../../../CORTEX_MPU_M3_NUCLEO_L152RE_GCC/Demo/countsem.c:223:5
	b	.LBB3_16
.Ltmp54:
.LBB3_16:
	.loc	3 224 1                         @ ../../../CORTEX_MPU_M3_NUCLEO_L152RE_GCC/Demo/countsem.c:224:1
	add	sp, #16
	pop	{r7, pc}
.Ltmp55:
.Lfunc_end3:
	.size	prvDecrementSemaphoreCount, .Lfunc_end3-prvDecrementSemaphoreCount
	.cfi_endproc
	.cantunwind
	.fnend
                                        @ -- End function
	.section	.text.prvIncrementSemaphoreCount,"ax",%progbits
	.p2align	1                               @ -- Begin function prvIncrementSemaphoreCount
	.type	prvIncrementSemaphoreCount,%function
	.code	16                              @ @prvIncrementSemaphoreCount
	.thumb_func
prvIncrementSemaphoreCount:
.Lfunc_begin4:
	.loc	3 229 0                         @ ../../../CORTEX_MPU_M3_NUCLEO_L152RE_GCC/Demo/countsem.c:229:0
	.fnstart
	.cfi_startproc
@ %bb.0:
	.save	{r7, lr}
	push	{r7, lr}
	.cfi_def_cfa_offset 8
	.cfi_offset lr, -4
	.cfi_offset r7, -8
	.pad	#16
	sub	sp, #16
	.cfi_def_cfa_offset 24
	str	r0, [sp, #12]
	str	r1, [sp, #8]
.Ltmp56:
	.loc	3 234 9 prologue_end            @ ../../../CORTEX_MPU_M3_NUCLEO_L152RE_GCC/Demo/countsem.c:234:9
	ldr	r0, [sp, #12]
	movs	r1, #0
	bl	MPU_xQueueSemaphoreTake
.Ltmp57:
	.loc	3 234 9 is_stmt 0               @ ../../../CORTEX_MPU_M3_NUCLEO_L152RE_GCC/Demo/countsem.c:234:9
	cmp	r0, #1
	bne	.LBB4_2
	b	.LBB4_1
.LBB4_1:
.Ltmp58:
	.loc	3 236 29 is_stmt 1              @ ../../../CORTEX_MPU_M3_NUCLEO_L152RE_GCC/Demo/countsem.c:236:29
	movw	r1, :lower16:xErrorDetected
	movt	r1, :upper16:xErrorDetected
	movs	r0, #1
	str	r0, [r1]
	.loc	3 237 5                         @ ../../../CORTEX_MPU_M3_NUCLEO_L152RE_GCC/Demo/countsem.c:237:5
	b	.LBB4_2
.Ltmp59:
.LBB4_2:
	.loc	3 0 5 is_stmt 0                 @ ../../../CORTEX_MPU_M3_NUCLEO_L152RE_GCC/Demo/countsem.c:0:5
	movs	r0, #0
.Ltmp60:
	.loc	3 240 13 is_stmt 1              @ ../../../CORTEX_MPU_M3_NUCLEO_L152RE_GCC/Demo/countsem.c:240:13
	str	r0, [sp, #4]
	.loc	3 240 10 is_stmt 0              @ ../../../CORTEX_MPU_M3_NUCLEO_L152RE_GCC/Demo/countsem.c:240:10
	b	.LBB4_3
.LBB4_3:                                @ =>This Inner Loop Header: Depth=1
.Ltmp61:
	.loc	3 240 18                        @ ../../../CORTEX_MPU_M3_NUCLEO_L152RE_GCC/Demo/countsem.c:240:18
	ldr	r0, [sp, #4]
.Ltmp62:
	.loc	3 240 5                         @ ../../../CORTEX_MPU_M3_NUCLEO_L152RE_GCC/Demo/countsem.c:240:5
	cmp	r0, #199
	bhi	.LBB4_11
	b	.LBB4_4
.LBB4_4:                                @   in Loop: Header=BB4_3 Depth=1
.Ltmp63:
	.loc	3 242 9 is_stmt 1               @ ../../../CORTEX_MPU_M3_NUCLEO_L152RE_GCC/Demo/countsem.c:242:9
	ldr	r0, [sp, #12]
	bl	MPU_uxQueueMessagesWaiting
	ldr	r1, [sp, #4]
.Ltmp64:
	.loc	3 242 9 is_stmt 0               @ ../../../CORTEX_MPU_M3_NUCLEO_L152RE_GCC/Demo/countsem.c:242:9
	cmp	r0, r1
	beq	.LBB4_7
	b	.LBB4_5
.LBB4_5:
.Ltmp65:
	.loc	3 242 9                         @ ../../../CORTEX_MPU_M3_NUCLEO_L152RE_GCC/Demo/countsem.c:242:9
	@APP
	cpsid i
	@NO_APP
	b	.LBB4_6
.LBB4_6:                                @ =>This Inner Loop Header: Depth=1
.Ltmp66:
	.loc	3 242 9                         @ ../../../CORTEX_MPU_M3_NUCLEO_L152RE_GCC/Demo/countsem.c:242:9
	b	.LBB4_6
.Ltmp67:
.LBB4_7:                                @   in Loop: Header=BB4_3 Depth=1
	.loc	3 244 13 is_stmt 1              @ ../../../CORTEX_MPU_M3_NUCLEO_L152RE_GCC/Demo/countsem.c:244:13
	ldr	r0, [sp, #12]
	movs	r3, #0
	mov	r1, r3
	mov	r2, r3
	bl	MPU_xQueueGenericSend
.Ltmp68:
	.loc	3 244 13 is_stmt 0              @ ../../../CORTEX_MPU_M3_NUCLEO_L152RE_GCC/Demo/countsem.c:244:13
	cmp	r0, #1
	beq	.LBB4_9
	b	.LBB4_8
.LBB4_8:                                @   in Loop: Header=BB4_3 Depth=1
.Ltmp69:
	.loc	3 247 33 is_stmt 1              @ ../../../CORTEX_MPU_M3_NUCLEO_L152RE_GCC/Demo/countsem.c:247:33
	movw	r1, :lower16:xErrorDetected
	movt	r1, :upper16:xErrorDetected
	movs	r0, #1
	str	r0, [r1]
	.loc	3 248 9                         @ ../../../CORTEX_MPU_M3_NUCLEO_L152RE_GCC/Demo/countsem.c:248:9
	b	.LBB4_9
.Ltmp70:
.LBB4_9:                                @   in Loop: Header=BB4_3 Depth=1
	.loc	3 250 12                        @ ../../../CORTEX_MPU_M3_NUCLEO_L152RE_GCC/Demo/countsem.c:250:12
	ldr	r1, [sp, #8]
	.loc	3 250 28 is_stmt 0              @ ../../../CORTEX_MPU_M3_NUCLEO_L152RE_GCC/Demo/countsem.c:250:28
	ldr	r0, [r1]
	adds	r0, r0, #1
	str	r0, [r1]
	.loc	3 251 5 is_stmt 1               @ ../../../CORTEX_MPU_M3_NUCLEO_L152RE_GCC/Demo/countsem.c:251:5
	b	.LBB4_10
.Ltmp71:
.LBB4_10:                               @   in Loop: Header=BB4_3 Depth=1
	.loc	3 240 47                        @ ../../../CORTEX_MPU_M3_NUCLEO_L152RE_GCC/Demo/countsem.c:240:47
	ldr	r0, [sp, #4]
	adds	r0, r0, #1
	str	r0, [sp, #4]
	.loc	3 240 5 is_stmt 0               @ ../../../CORTEX_MPU_M3_NUCLEO_L152RE_GCC/Demo/countsem.c:240:5
	b	.LBB4_3
.Ltmp72:
.LBB4_11:
	.loc	3 259 9 is_stmt 1               @ ../../../CORTEX_MPU_M3_NUCLEO_L152RE_GCC/Demo/countsem.c:259:9
	ldr	r0, [sp, #12]
	movs	r3, #0
	mov	r1, r3
	mov	r2, r3
	bl	MPU_xQueueGenericSend
.Ltmp73:
	.loc	3 259 9 is_stmt 0               @ ../../../CORTEX_MPU_M3_NUCLEO_L152RE_GCC/Demo/countsem.c:259:9
	cmp	r0, #1
	bne	.LBB4_13
	b	.LBB4_12
.LBB4_12:
.Ltmp74:
	.loc	3 261 29 is_stmt 1              @ ../../../CORTEX_MPU_M3_NUCLEO_L152RE_GCC/Demo/countsem.c:261:29
	movw	r1, :lower16:xErrorDetected
	movt	r1, :upper16:xErrorDetected
	movs	r0, #1
	str	r0, [r1]
	.loc	3 262 5                         @ ../../../CORTEX_MPU_M3_NUCLEO_L152RE_GCC/Demo/countsem.c:262:5
	b	.LBB4_13
.Ltmp75:
.LBB4_13:
	.loc	3 263 1                         @ ../../../CORTEX_MPU_M3_NUCLEO_L152RE_GCC/Demo/countsem.c:263:1
	add	sp, #16
	pop	{r7, pc}
.Ltmp76:
.Lfunc_end4:
	.size	prvIncrementSemaphoreCount, .Lfunc_end4-prvIncrementSemaphoreCount
	.cfi_endproc
	.cantunwind
	.fnend
                                        @ -- End function
	.type	xParameters1,%object            @ @xParameters1
	.section	.bss.xParameters1,"aw",%nobits
	.p2align	5, 0x0
xParameters1:
	.zero	32
	.size	xParameters1, 32

	.type	xParameters2,%object            @ @xParameters2
	.section	.bss.xParameters2,"aw",%nobits
	.p2align	5, 0x0
xParameters2:
	.zero	32
	.size	xParameters2, 32

	.type	vStartCountingSemaphoreTasks.xCountingSemaphoreTaskStack1,%object @ @vStartCountingSemaphoreTasks.xCountingSemaphoreTaskStack1
	.section	.bss.vStartCountingSemaphoreTasks.xCountingSemaphoreTaskStack1,"aw",%nobits
	.p2align	9, 0x0
vStartCountingSemaphoreTasks.xCountingSemaphoreTaskStack1:
	.zero	512
	.size	vStartCountingSemaphoreTasks.xCountingSemaphoreTaskStack1, 512

	.type	vStartCountingSemaphoreTasks.xCountingSemaphoreTaskStack2,%object @ @vStartCountingSemaphoreTasks.xCountingSemaphoreTaskStack2
	.section	.bss.vStartCountingSemaphoreTasks.xCountingSemaphoreTaskStack2,"aw",%nobits
	.p2align	9, 0x0
vStartCountingSemaphoreTasks.xCountingSemaphoreTaskStack2:
	.zero	512
	.size	vStartCountingSemaphoreTasks.xCountingSemaphoreTaskStack2, 512

	.type	.L.str,%object                  @ @.str
	.section	.rodata.str1.1,"aMS",%progbits,1
.L.str:
	.asciz	"CNT1"
	.size	.L.str, 5

	.type	xErrorDetected,%object          @ @xErrorDetected
	.section	.bss.xErrorDetected,"aw",%nobits
	.p2align	5, 0x0
xErrorDetected:
	.zero	32
	.size	xErrorDetected, 32

	.type	.L__const.vStartCountingSemaphoreTasks.xCountingSemaphoreTask1,%object @ @__const.vStartCountingSemaphoreTasks.xCountingSemaphoreTask1
	.section	.rodata..L__const.vStartCountingSemaphoreTasks.xCountingSemaphoreTask1,"a",%progbits
	.p2align	2, 0x0
.L__const.vStartCountingSemaphoreTasks.xCountingSemaphoreTask1:
	.long	prvCountingSemaphoreTask
	.long	.L.str
	.short	128                             @ 0x80
	.zero	2
	.long	xParameters1
	.long	0                               @ 0x0
	.long	vStartCountingSemaphoreTasks.xCountingSemaphoreTaskStack1
	.long	xErrorDetected
	.long	32                              @ 0x20
	.long	3                               @ 0x3
	.long	xParameters1
	.long	32                              @ 0x20
	.long	3                               @ 0x3
	.zero	12
	.long	0
	.size	.L__const.vStartCountingSemaphoreTasks.xCountingSemaphoreTask1, 64

	.type	.L.str.1,%object                @ @.str.1
	.section	.rodata.str1.1,"aMS",%progbits,1
.L.str.1:
	.asciz	"CNT2"
	.size	.L.str.1, 5

	.type	.L__const.vStartCountingSemaphoreTasks.xCountingSemaphoreTask2,%object @ @__const.vStartCountingSemaphoreTasks.xCountingSemaphoreTask2
	.section	.rodata..L__const.vStartCountingSemaphoreTasks.xCountingSemaphoreTask2,"a",%progbits
	.p2align	2, 0x0
.L__const.vStartCountingSemaphoreTasks.xCountingSemaphoreTask2:
	.long	prvCountingSemaphoreTask
	.long	.L.str.1
	.short	128                             @ 0x80
	.zero	2
	.long	xParameters2
	.long	0                               @ 0x0
	.long	vStartCountingSemaphoreTasks.xCountingSemaphoreTaskStack2
	.long	xErrorDetected
	.long	32                              @ 0x20
	.long	3                               @ 0x3
	.long	xParameters2
	.long	32                              @ 0x20
	.long	3                               @ 0x3
	.zero	12
	.long	0
	.size	.L__const.vStartCountingSemaphoreTasks.xCountingSemaphoreTask2, 64

	.type	xAreCountingSemaphoreTasksStillRunning.uxLastCount0,%object @ @xAreCountingSemaphoreTasksStillRunning.uxLastCount0
	.section	.bss.xAreCountingSemaphoreTasksStillRunning.uxLastCount0,"aw",%nobits
	.p2align	2, 0x0
xAreCountingSemaphoreTasksStillRunning.uxLastCount0:
	.long	0                               @ 0x0
	.size	xAreCountingSemaphoreTasksStillRunning.uxLastCount0, 4

	.type	xAreCountingSemaphoreTasksStillRunning.uxLastCount1,%object @ @xAreCountingSemaphoreTasksStillRunning.uxLastCount1
	.section	.bss.xAreCountingSemaphoreTasksStillRunning.uxLastCount1,"aw",%nobits
	.p2align	2, 0x0
xAreCountingSemaphoreTasksStillRunning.uxLastCount1:
	.long	0                               @ 0x0
	.size	xAreCountingSemaphoreTasksStillRunning.uxLastCount1, 4

	.file	6 "C:\\Users\\karahulx\\Downloads\\Kernel\\FreeRTOS\\FreeRTOS\\Demo\\CORTEX_MPU_M23_Nuvoton_NuMaker_PFM_M2351_IAR_GCC\\Projects_NTZ\\Keil" "../../../../Source/include/projdefs.h"
	.file	7 "C:\\Users\\karahulx\\Downloads\\Kernel\\FreeRTOS\\FreeRTOS\\Demo\\CORTEX_MPU_M23_Nuvoton_NuMaker_PFM_M2351_IAR_GCC\\Projects_NTZ\\Keil" "../../../../Source/include/task.h"
	.file	8 "C:\\Users\\karahulx\\Downloads\\Kernel\\FreeRTOS\\FreeRTOS\\Demo\\CORTEX_MPU_M23_Nuvoton_NuMaker_PFM_M2351_IAR_GCC\\Projects_NTZ\\Keil" "../../../../Source/include\\FreeRTOS.h"
	.section	".note.GNU-stack","",%progbits
	.eabi_attribute	30, 6	@ Tag_ABI_optimization_goals
	.ARM_attribute	16, 1	@ Tag_AV_eba