	.text
	.syntax unified
	.eabi_attribute	67, "2.09"	@ Tag_conformance
	.eabi_attribute	6, 16	@ Tag_CPU_arch
	.eabi_attribute	7, 77	@ Tag_CPU_arch_profile
	.eabi_attribute	8, 0	@ Tag_ARM_ISA_use
	.eabi_attribute	9, 3	@ Tag_THUMB_ISA_use
	.eabi_attribute	34, 0	@ Tag_CPU_unaligned_access
	.eabi_attribute	17, 1	@ Tag_ABI_PCS_GOT_use
	.eabi_attribute	20, 2	@ Tag_ABI_FP_denormal
	.eabi_attribute	21, 0	@ Tag_ABI_FP_exceptions
	.eabi_attribute	23, 1	@ Tag_ABI_FP_number_model
	.eabi_attribute	24, 1	@ Tag_ABI_align_needed
	.eabi_attribute	25, 1	@ Tag_ABI_align_preserved
	.eabi_attribute	38, 1	@ Tag_ABI_FP_16bit_format
	.eabi_attribute	18, 4	@ Tag_ABI_PCS_wchar_t
	.eabi_attribute	26, 2	@ Tag_ABI_enum_size
	.eabi_attribute	14, 0	@ Tag_ABI_PCS_R9_use
	.file	"dynamic.c"
	.file	1 "C:\\Keil_v5\\ARM\\ARMCLANG\\Bin\\..\\include" "stdint.h"
	.file	2 "C:\\Users\\karahulx\\Downloads\\Kernel\\FreeRTOS\\FreeRTOS\\Demo\\CORTEX_MPU_M23_Nuvoton_NuMaker_PFM_M2351_IAR_GCC\\Projects_NTZ\\Keil" "../../../../Source/portable/GCC/ARM_CM23_NTZ/non_secure/portmacrocommon.h"
	.file	3 "C:\\Users\\karahulx\\Downloads\\Kernel\\FreeRTOS\\FreeRTOS\\Demo\\CORTEX_MPU_M23_Nuvoton_NuMaker_PFM_M2351_IAR_GCC\\Projects_NTZ\\Keil" "../../../CORTEX_MPU_M3_NUCLEO_L152RE_GCC/Demo/dynamic.c"
	.file	4 "C:\\Users\\karahulx\\Downloads\\Kernel\\FreeRTOS\\FreeRTOS\\Demo\\CORTEX_MPU_M23_Nuvoton_NuMaker_PFM_M2351_IAR_GCC\\Projects_NTZ\\Keil" "../../../../Source/include/queue.h"
	.file	5 "C:\\Users\\karahulx\\Downloads\\Kernel\\FreeRTOS\\FreeRTOS\\Demo\\CORTEX_MPU_M23_Nuvoton_NuMaker_PFM_M2351_IAR_GCC\\Projects_NTZ\\Keil" "../../../../Source/include/task.h"
	.section	.text.vStartDynamicPriorityTasks,"ax",%progbits
	.hidden	vStartDynamicPriorityTasks      @ -- Begin function vStartDynamicPriorityTasks
	.globl	vStartDynamicPriorityTasks
	.p2align	1
	.type	vStartDynamicPriorityTasks,%function
	.code	16                              @ @vStartDynamicPriorityTasks
	.thumb_func
vStartDynamicPriorityTasks:
.Lfunc_begin0:
	.loc	3 158 0                         @ ../../../CORTEX_MPU_M3_NUCLEO_L152RE_GCC/Demo/dynamic.c:158:0
	.fnstart
	.cfi_sections .debug_frame
	.cfi_startproc
@ %bb.0:
	.save	{r4, r5, r6, lr}
	push	{r4, r5, r6, lr}
	.cfi_def_cfa_offset 16
	.cfi_offset lr, -4
	.cfi_offset r6, -8
	.cfi_offset r5, -12
	.cfi_offset r4, -16
	.pad	#344
	sub	sp, #344
	.cfi_def_cfa_offset 360
	movs	r0, #1
	movs	r1, #4
	movs	r2, #0
.Ltmp0:
	.loc	3 165 32 prologue_end           @ ../../../CORTEX_MPU_M3_NUCLEO_L152RE_GCC/Demo/dynamic.c:165:32
	bl	MPU_xQueueGenericCreate
	mov	r1, r0
	.loc	3 165 30 is_stmt 0              @ ../../../CORTEX_MPU_M3_NUCLEO_L152RE_GCC/Demo/dynamic.c:165:30
	movw	r0, :lower16:xSuspendedTestQueue
	movt	r0, :upper16:xSuspendedTestQueue
	str	r1, [r0]
.Ltmp1:
	.loc	3 167 9 is_stmt 1               @ ../../../CORTEX_MPU_M3_NUCLEO_L152RE_GCC/Demo/dynamic.c:167:9
	ldr	r0, [r0]
.Ltmp2:
	.loc	3 167 9 is_stmt 0               @ ../../../CORTEX_MPU_M3_NUCLEO_L152RE_GCC/Demo/dynamic.c:167:9
	cmp	r0, #0
	beq	.LBB0_2
	b	.LBB0_1
.LBB0_1:
.Ltmp3:
	.loc	3 177 26 is_stmt 1              @ ../../../CORTEX_MPU_M3_NUCLEO_L152RE_GCC/Demo/dynamic.c:177:26
	movw	r2, :lower16:.L__const.vStartDynamicPriorityTasks.xContinuousIncrementTask
	movt	r2, :upper16:.L__const.vStartDynamicPriorityTasks.xContinuousIncrementTask
	add	r0, sp, #280
	mov	r1, r0
	ldm	r2!, {r3, r4, r5, r6}
	stm	r1!, {r3, r4, r5, r6}
	ldm	r2!, {r3, r4, r5, r6}
	stm	r1!, {r3, r4, r5, r6}
	ldm	r2!, {r3, r4, r5, r6}
	stm	r1!, {r3, r4, r5, r6}
	ldm	r2!, {r3, r4, r5, r6}
	stm	r1!, {r3, r4, r5, r6}
	.loc	3 194 26                        @ ../../../CORTEX_MPU_M3_NUCLEO_L152RE_GCC/Demo/dynamic.c:194:26
	movw	r2, :lower16:.L__const.vStartDynamicPriorityTasks.xLimitedIncrementTask
	movt	r2, :upper16:.L__const.vStartDynamicPriorityTasks.xLimitedIncrementTask
	add	r1, sp, #216
	str	r1, [sp, #4]                    @ 4-byte Spill
	ldm	r2!, {r3, r4, r5, r6}
	stm	r1!, {r3, r4, r5, r6}
	ldm	r2!, {r3, r4, r5, r6}
	stm	r1!, {r3, r4, r5, r6}
	ldm	r2!, {r3, r4, r5, r6}
	stm	r1!, {r3, r4, r5, r6}
	ldm	r2!, {r3, r4, r5, r6}
	stm	r1!, {r3, r4, r5, r6}
	.loc	3 210 26                        @ ../../../CORTEX_MPU_M3_NUCLEO_L152RE_GCC/Demo/dynamic.c:210:26
	movw	r2, :lower16:.L__const.vStartDynamicPriorityTasks.xCounterControlTask
	movt	r2, :upper16:.L__const.vStartDynamicPriorityTasks.xCounterControlTask
	add	r1, sp, #152
	str	r1, [sp, #8]                    @ 4-byte Spill
	ldm	r2!, {r3, r4, r5, r6}
	stm	r1!, {r3, r4, r5, r6}
	ldm	r2!, {r3, r4, r5, r6}
	stm	r1!, {r3, r4, r5, r6}
	ldm	r2!, {r3, r4, r5, r6}
	stm	r1!, {r3, r4, r5, r6}
	ldm	r2!, {r3, r4, r5, r6}
	stm	r1!, {r3, r4, r5, r6}
	.loc	3 231 26                        @ ../../../CORTEX_MPU_M3_NUCLEO_L152RE_GCC/Demo/dynamic.c:231:26
	movw	r2, :lower16:.L__const.vStartDynamicPriorityTasks.xQueueSendWhenSuspendedTask
	movt	r2, :upper16:.L__const.vStartDynamicPriorityTasks.xQueueSendWhenSuspendedTask
	add	r1, sp, #88
	str	r1, [sp, #12]                   @ 4-byte Spill
	ldm	r2!, {r3, r4, r5, r6}
	stm	r1!, {r3, r4, r5, r6}
	ldm	r2!, {r3, r4, r5, r6}
	stm	r1!, {r3, r4, r5, r6}
	ldm	r2!, {r3, r4, r5, r6}
	stm	r1!, {r3, r4, r5, r6}
	ldm	r2!, {r3, r4, r5, r6}
	stm	r1!, {r3, r4, r5, r6}
	.loc	3 252 26                        @ ../../../CORTEX_MPU_M3_NUCLEO_L152RE_GCC/Demo/dynamic.c:252:26
	movw	r2, :lower16:.L__const.vStartDynamicPriorityTasks.xQueueReceiveWhenSuspendedTask
	movt	r2, :upper16:.L__const.vStartDynamicPriorityTasks.xQueueReceiveWhenSuspendedTask
	add	r1, sp, #24
	str	r1, [sp, #20]                   @ 4-byte Spill
	ldm	r2!, {r3, r4, r5, r6}
	stm	r1!, {r3, r4, r5, r6}
	ldm	r2!, {r3, r4, r5, r6}
	stm	r1!, {r3, r4, r5, r6}
	ldm	r2!, {r3, r4, r5, r6}
	stm	r1!, {r3, r4, r5, r6}
	ldm	r2!, {r3, r4, r5, r6}
	stm	r1!, {r3, r4, r5, r6}
	.loc	3 274 9                         @ ../../../CORTEX_MPU_M3_NUCLEO_L152RE_GCC/Demo/dynamic.c:274:9
	movw	r1, :lower16:xLocalTaskHandles
	movt	r1, :upper16:xLocalTaskHandles
	str	r1, [sp]                        @ 4-byte Spill
	bl	xTaskCreateRestricted
	ldr	r1, [sp]                        @ 4-byte Reload
                                        @ kill: def $r2 killed $r0
	.loc	3 275 9                         @ ../../../CORTEX_MPU_M3_NUCLEO_L152RE_GCC/Demo/dynamic.c:275:9
	ldr	r0, [sp, #4]                    @ 4-byte Reload
	adds	r1, r1, #4
	bl	xTaskCreateRestricted
                                        @ kill: def $r1 killed $r0
	.loc	3 276 9                         @ ../../../CORTEX_MPU_M3_NUCLEO_L152RE_GCC/Demo/dynamic.c:276:9
	ldr	r0, [sp, #8]                    @ 4-byte Reload
	movs	r1, #0
	str	r1, [sp, #16]                   @ 4-byte Spill
	bl	xTaskCreateRestricted
	ldr	r1, [sp, #16]                   @ 4-byte Reload
                                        @ kill: def $r2 killed $r0
	.loc	3 277 9                         @ ../../../CORTEX_MPU_M3_NUCLEO_L152RE_GCC/Demo/dynamic.c:277:9
	ldr	r0, [sp, #12]                   @ 4-byte Reload
	bl	xTaskCreateRestricted
	ldr	r1, [sp, #16]                   @ 4-byte Reload
                                        @ kill: def $r2 killed $r0
	.loc	3 278 9                         @ ../../../CORTEX_MPU_M3_NUCLEO_L152RE_GCC/Demo/dynamic.c:278:9
	ldr	r0, [sp, #20]                   @ 4-byte Reload
	bl	xTaskCreateRestricted
	.loc	3 279 5                         @ ../../../CORTEX_MPU_M3_NUCLEO_L152RE_GCC/Demo/dynamic.c:279:5
	b	.LBB0_2
.Ltmp4:
.LBB0_2:
	.loc	3 280 1                         @ ../../../CORTEX_MPU_M3_NUCLEO_L152RE_GCC/Demo/dynamic.c:280:1
	add	sp, #344
	pop	{r4, r5, r6, pc}
.Ltmp5:
.Lfunc_end0:
	.size	vStartDynamicPriorityTasks, .Lfunc_end0-vStartDynamicPriorityTasks
	.cfi_endproc
	.cantunwind
	.fnend
                                        @ -- End function
	.section	.text.vContinuousIncrementTask,"ax",%progbits
	.p2align	1                               @ -- Begin function vContinuousIncrementTask
	.type	vContinuousIncrementTask,%function
	.code	16                              @ @vContinuousIncrementTask
	.thumb_func
vContinuousIncrementTask:
.Lfunc_begin1:
	.loc	3 317 0                         @ ../../../CORTEX_MPU_M3_NUCLEO_L152RE_GCC/Demo/dynamic.c:317:0
	.fnstart
	.cfi_startproc
@ %bb.0:
	.save	{r7, lr}
	push	{r7, lr}
	.cfi_def_cfa_offset 8
	.cfi_offset lr, -4
	.cfi_offset r7, -8
	.pad	#24
	sub	sp, #24
	.cfi_def_cfa_offset 32
	str	r0, [sp, #20]
.Ltmp6:
	.loc	3 323 42 prologue_end           @ ../../../CORTEX_MPU_M3_NUCLEO_L152RE_GCC/Demo/dynamic.c:323:42
	ldr	r0, [sp, #20]
	.loc	3 323 16 is_stmt 0              @ ../../../CORTEX_MPU_M3_NUCLEO_L152RE_GCC/Demo/dynamic.c:323:16
	str	r0, [sp, #16]
	movs	r0, #0
	.loc	3 327 21 is_stmt 1              @ ../../../CORTEX_MPU_M3_NUCLEO_L152RE_GCC/Demo/dynamic.c:327:21
	bl	MPU_uxTaskPriorityGet
	.loc	3 327 19 is_stmt 0              @ ../../../CORTEX_MPU_M3_NUCLEO_L152RE_GCC/Demo/dynamic.c:327:19
	str	r0, [sp, #12]
	.loc	3 329 5 is_stmt 1               @ ../../../CORTEX_MPU_M3_NUCLEO_L152RE_GCC/Demo/dynamic.c:329:5
	b	.LBB1_1
.LBB1_1:                                @ =>This Inner Loop Header: Depth=1
.Ltmp7:
	.loc	3 333 33                        @ ../../../CORTEX_MPU_M3_NUCLEO_L152RE_GCC/Demo/dynamic.c:333:33
	ldr	r0, [sp, #12]
	.loc	3 333 47 is_stmt 0              @ ../../../CORTEX_MPU_M3_NUCLEO_L152RE_GCC/Demo/dynamic.c:333:47
	adds	r1, r0, #1
	movs	r0, #0
	.loc	3 333 9                         @ ../../../CORTEX_MPU_M3_NUCLEO_L152RE_GCC/Demo/dynamic.c:333:9
	str	r0, [sp, #8]                    @ 4-byte Spill
	bl	MPU_vTaskPrioritySet
	ldr	r0, [sp, #8]                    @ 4-byte Reload
.Ltmp8:
	.loc	3 335 13 is_stmt 1              @ ../../../CORTEX_MPU_M3_NUCLEO_L152RE_GCC/Demo/dynamic.c:335:13
	bl	MPU_uxTaskPriorityGet
	ldr	r1, [sp, #12]
	adds	r1, r1, #1
.Ltmp9:
	.loc	3 335 13 is_stmt 0              @ ../../../CORTEX_MPU_M3_NUCLEO_L152RE_GCC/Demo/dynamic.c:335:13
	cmp	r0, r1
	beq	.LBB1_4
	b	.LBB1_2
.LBB1_2:
.Ltmp10:
	.loc	3 335 13                        @ ../../../CORTEX_MPU_M3_NUCLEO_L152RE_GCC/Demo/dynamic.c:335:13
	@APP
	cpsid i
	@NO_APP
	b	.LBB1_3
.LBB1_3:                                @ =>This Inner Loop Header: Depth=1
.Ltmp11:
	.loc	3 335 13                        @ ../../../CORTEX_MPU_M3_NUCLEO_L152RE_GCC/Demo/dynamic.c:335:13
	b	.LBB1_3
.Ltmp12:
.LBB1_4:                                @   in Loop: Header=BB1_1 Depth=1
	.loc	3 336 16 is_stmt 1              @ ../../../CORTEX_MPU_M3_NUCLEO_L152RE_GCC/Demo/dynamic.c:336:16
	ldr	r1, [sp, #16]
	.loc	3 336 28 is_stmt 0              @ ../../../CORTEX_MPU_M3_NUCLEO_L152RE_GCC/Demo/dynamic.c:336:28
	ldr	r0, [r1]
	adds	r0, r0, #1
	str	r0, [r1]
.Ltmp13:
	.loc	3 338 33 is_stmt 1              @ ../../../CORTEX_MPU_M3_NUCLEO_L152RE_GCC/Demo/dynamic.c:338:33
	ldr	r1, [sp, #12]
	movs	r0, #0
	.loc	3 338 9 is_stmt 0               @ ../../../CORTEX_MPU_M3_NUCLEO_L152RE_GCC/Demo/dynamic.c:338:9
	str	r0, [sp, #4]                    @ 4-byte Spill
	bl	MPU_vTaskPrioritySet
	ldr	r0, [sp, #4]                    @ 4-byte Reload
.Ltmp14:
	.loc	3 344 9 is_stmt 1               @ ../../../CORTEX_MPU_M3_NUCLEO_L152RE_GCC/Demo/dynamic.c:344:9
	bl	MPU_uxTaskPriorityGet
	ldr	r1, [sp, #12]
.Ltmp15:
	.loc	3 344 9 is_stmt 0               @ ../../../CORTEX_MPU_M3_NUCLEO_L152RE_GCC/Demo/dynamic.c:344:9
	cmp	r0, r1
	beq	.LBB1_7
	b	.LBB1_5
.LBB1_5:
.Ltmp16:
	.loc	3 344 9                         @ ../../../CORTEX_MPU_M3_NUCLEO_L152RE_GCC/Demo/dynamic.c:344:9
	@APP
	cpsid i
	@NO_APP
	b	.LBB1_6
.LBB1_6:                                @ =>This Inner Loop Header: Depth=1
.Ltmp17:
	.loc	3 344 9                         @ ../../../CORTEX_MPU_M3_NUCLEO_L152RE_GCC/Demo/dynamic.c:344:9
	b	.LBB1_6
.Ltmp18:
.LBB1_7:                                @   in Loop: Header=BB1_1 Depth=1
	.loc	3 329 5 is_stmt 1               @ ../../../CORTEX_MPU_M3_NUCLEO_L152RE_GCC/Demo/dynamic.c:329:5
	b	.LBB1_1
.Ltmp19:
.Lfunc_end1:
	.size	vContinuousIncrementTask, .Lfunc_end1-vContinuousIncrementTask
	.cfi_endproc
	.cantunwind
	.fnend
                                        @ -- End function
	.section	.text.vLimitedIncrementTask,"ax",%progbits
	.p2align	1                               @ -- Begin function vLimitedIncrementTask
	.type	vLimitedIncrementTask,%function
	.code	16                              @ @vLimitedIncrementTask
	.thumb_func
vLimitedIncrementTask:
.Lfunc_begin2:
	.loc	3 288 0                         @ ../../../CORTEX_MPU_M3_NUCLEO_L152RE_GCC/Demo/dynamic.c:288:0
	.fnstart
	.cfi_startproc
@ %bb.0:
	.save	{r7, lr}
	push	{r7, lr}
	.cfi_def_cfa_offset 8
	.cfi_offset lr, -4
	.cfi_offset r7, -8
	.pad	#8
	sub	sp, #8
	.cfi_def_cfa_offset 16
	str	r0, [sp, #4]
.Ltmp20:
	.loc	3 293 42 prologue_end           @ ../../../CORTEX_MPU_M3_NUCLEO_L152RE_GCC/Demo/dynamic.c:293:42
	ldr	r0, [sp, #4]
	.loc	3 293 16 is_stmt 0              @ ../../../CORTEX_MPU_M3_NUCLEO_L152RE_GCC/Demo/dynamic.c:293:16
	str	r0, [sp]
	movs	r0, #0
	.loc	3 297 5 is_stmt 1               @ ../../../CORTEX_MPU_M3_NUCLEO_L152RE_GCC/Demo/dynamic.c:297:5
	bl	MPU_vTaskSuspend
	.loc	3 299 5                         @ ../../../CORTEX_MPU_M3_NUCLEO_L152RE_GCC/Demo/dynamic.c:299:5
	b	.LBB2_1
.LBB2_1:                                @ =>This Inner Loop Header: Depth=1
.Ltmp21:
	.loc	3 302 12                        @ ../../../CORTEX_MPU_M3_NUCLEO_L152RE_GCC/Demo/dynamic.c:302:12
	ldr	r1, [sp]
	.loc	3 302 24 is_stmt 0              @ ../../../CORTEX_MPU_M3_NUCLEO_L152RE_GCC/Demo/dynamic.c:302:24
	ldr	r0, [r1]
	adds	r0, r0, #1
	str	r0, [r1]
.Ltmp22:
	.loc	3 304 14 is_stmt 1              @ ../../../CORTEX_MPU_M3_NUCLEO_L152RE_GCC/Demo/dynamic.c:304:14
	ldr	r0, [sp]
	.loc	3 304 13 is_stmt 0              @ ../../../CORTEX_MPU_M3_NUCLEO_L152RE_GCC/Demo/dynamic.c:304:13
	ldr	r0, [r0]
.Ltmp23:
	.loc	3 304 13                        @ ../../../CORTEX_MPU_M3_NUCLEO_L152RE_GCC/Demo/dynamic.c:304:13
	cmp	r0, #255
	blo	.LBB2_3
	b	.LBB2_2
.LBB2_2:                                @   in Loop: Header=BB2_1 Depth=1
	.loc	3 0 13                          @ ../../../CORTEX_MPU_M3_NUCLEO_L152RE_GCC/Demo/dynamic.c:0:13
	movs	r0, #0
.Ltmp24:
	.loc	3 306 13 is_stmt 1              @ ../../../CORTEX_MPU_M3_NUCLEO_L152RE_GCC/Demo/dynamic.c:306:13
	bl	MPU_vTaskSuspend
	.loc	3 307 9                         @ ../../../CORTEX_MPU_M3_NUCLEO_L152RE_GCC/Demo/dynamic.c:307:9
	b	.LBB2_3
.Ltmp25:
.LBB2_3:                                @   in Loop: Header=BB2_1 Depth=1
	.loc	3 299 5                         @ ../../../CORTEX_MPU_M3_NUCLEO_L152RE_GCC/Demo/dynamic.c:299:5
	b	.LBB2_1
.Ltmp26:
.Lfunc_end2:
	.size	vLimitedIncrementTask, .Lfunc_end2-vLimitedIncrementTask
	.cfi_endproc
	.cantunwind
	.fnend
                                        @ -- End function
	.section	.text.vCounterControlTask,"ax",%progbits
	.p2align	1                               @ -- Begin function vCounterControlTask
	.type	vCounterControlTask,%function
	.code	16                              @ @vCounterControlTask
	.thumb_func
vCounterControlTask:
.Lfunc_begin3:
	.loc	3 353 0                         @ ../../../CORTEX_MPU_M3_NUCLEO_L152RE_GCC/Demo/dynamic.c:353:0
	.fnstart
	.cfi_startproc
@ %bb.0:
	.save	{r7, lr}
	push	{r7, lr}
	.cfi_def_cfa_offset 8
	.cfi_offset lr, -4
	.cfi_offset r7, -8
	.pad	#32
	sub	sp, #32
	.cfi_def_cfa_offset 40
	str	r0, [sp, #28]
	add	r1, sp, #16
	movs	r0, #0
.Ltmp27:
	.loc	3 356 11 prologue_end           @ ../../../CORTEX_MPU_M3_NUCLEO_L152RE_GCC/Demo/dynamic.c:356:11
	strh	r0, [r1]
	.loc	3 361 5                         @ ../../../CORTEX_MPU_M3_NUCLEO_L152RE_GCC/Demo/dynamic.c:361:5
	b	.LBB3_1
.LBB3_1:                                @ =>This Loop Header: Depth=1
                                        @     Child Loop BB3_2 Depth 2
.Ltmp28:
	.loc	3 364 24                        @ ../../../CORTEX_MPU_M3_NUCLEO_L152RE_GCC/Demo/dynamic.c:364:24
	movw	r1, :lower16:ulCounter
	movt	r1, :upper16:ulCounter
	movs	r0, #0
	str	r0, [r1]
	add	r1, sp, #20
.Ltmp29:
	.loc	3 369 21                        @ ../../../CORTEX_MPU_M3_NUCLEO_L152RE_GCC/Demo/dynamic.c:369:21
	strh	r0, [r1]
	.loc	3 369 14 is_stmt 0              @ ../../../CORTEX_MPU_M3_NUCLEO_L152RE_GCC/Demo/dynamic.c:369:14
	b	.LBB3_2
.LBB3_2:                                @   Parent Loop BB3_1 Depth=1
                                        @ =>  This Inner Loop Header: Depth=2
.Ltmp30:
	.loc	3 369 26                        @ ../../../CORTEX_MPU_M3_NUCLEO_L152RE_GCC/Demo/dynamic.c:369:26
	movs	r1, #0
	add	r0, sp, #20
	ldrsh	r0, [r0, r1]
.Ltmp31:
	.loc	3 369 9                         @ ../../../CORTEX_MPU_M3_NUCLEO_L152RE_GCC/Demo/dynamic.c:369:9
	cmp	r0, #4
	bgt	.LBB3_13
	b	.LBB3_3
.LBB3_3:                                @   in Loop: Header=BB3_2 Depth=2
.Ltmp32:
	.loc	3 375 27 is_stmt 1              @ ../../../CORTEX_MPU_M3_NUCLEO_L152RE_GCC/Demo/dynamic.c:375:27
	movw	r0, :lower16:xLocalTaskHandles
	movt	r0, :upper16:xLocalTaskHandles
	str	r0, [sp, #12]                   @ 4-byte Spill
	ldr	r0, [r0]
	.loc	3 375 13 is_stmt 0              @ ../../../CORTEX_MPU_M3_NUCLEO_L152RE_GCC/Demo/dynamic.c:375:13
	bl	MPU_vTaskSuspend
	ldr	r0, [sp, #12]                   @ 4-byte Reload
.Ltmp33:
	.loc	3 379 21 is_stmt 1              @ ../../../CORTEX_MPU_M3_NUCLEO_L152RE_GCC/Demo/dynamic.c:379:21
	ldr	r0, [r0]
	bl	MPU_eTaskGetState
.Ltmp34:
	.loc	3 379 21 is_stmt 0              @ ../../../CORTEX_MPU_M3_NUCLEO_L152RE_GCC/Demo/dynamic.c:379:21
	cmp	r0, #3
	beq	.LBB3_6
	b	.LBB3_4
.LBB3_4:
.Ltmp35:
	.loc	3 379 21                        @ ../../../CORTEX_MPU_M3_NUCLEO_L152RE_GCC/Demo/dynamic.c:379:21
	@APP
	cpsid i
	@NO_APP
	b	.LBB3_5
.LBB3_5:                                @ =>This Inner Loop Header: Depth=1
.Ltmp36:
	.loc	3 379 21                        @ ../../../CORTEX_MPU_M3_NUCLEO_L152RE_GCC/Demo/dynamic.c:379:21
	b	.LBB3_5
.Ltmp37:
.LBB3_6:                                @   in Loop: Header=BB3_2 Depth=2
	.loc	3 383 33 is_stmt 1              @ ../../../CORTEX_MPU_M3_NUCLEO_L152RE_GCC/Demo/dynamic.c:383:33
	movw	r0, :lower16:ulCounter
	movt	r0, :upper16:ulCounter
	ldr	r0, [r0]
	.loc	3 383 31 is_stmt 0              @ ../../../CORTEX_MPU_M3_NUCLEO_L152RE_GCC/Demo/dynamic.c:383:31
	str	r0, [sp, #24]
.Ltmp38:
	.loc	3 385 26 is_stmt 1              @ ../../../CORTEX_MPU_M3_NUCLEO_L152RE_GCC/Demo/dynamic.c:385:26
	movw	r0, :lower16:xLocalTaskHandles
	movt	r0, :upper16:xLocalTaskHandles
	str	r0, [sp, #8]                    @ 4-byte Spill
	ldr	r0, [r0]
	.loc	3 385 13 is_stmt 0              @ ../../../CORTEX_MPU_M3_NUCLEO_L152RE_GCC/Demo/dynamic.c:385:13
	bl	MPU_vTaskResume
	ldr	r0, [sp, #8]                    @ 4-byte Reload
.Ltmp39:
	.loc	3 393 17 is_stmt 1              @ ../../../CORTEX_MPU_M3_NUCLEO_L152RE_GCC/Demo/dynamic.c:393:17
	ldr	r0, [r0]
	bl	MPU_eTaskGetState
.Ltmp40:
	.loc	3 393 17 is_stmt 0              @ ../../../CORTEX_MPU_M3_NUCLEO_L152RE_GCC/Demo/dynamic.c:393:17
	cmp	r0, #1
	beq	.LBB3_9
	b	.LBB3_7
.LBB3_7:
.Ltmp41:
	.loc	3 393 17                        @ ../../../CORTEX_MPU_M3_NUCLEO_L152RE_GCC/Demo/dynamic.c:393:17
	@APP
	cpsid i
	@NO_APP
	b	.LBB3_8
.LBB3_8:                                @ =>This Inner Loop Header: Depth=1
.Ltmp42:
	.loc	3 393 17                        @ ../../../CORTEX_MPU_M3_NUCLEO_L152RE_GCC/Demo/dynamic.c:393:17
	b	.LBB3_8
.Ltmp43:
.LBB3_9:                                @   in Loop: Header=BB3_2 Depth=2
	.loc	3 0 17                          @ ../../../CORTEX_MPU_M3_NUCLEO_L152RE_GCC/Demo/dynamic.c:0:17
	movs	r0, #12
	.loc	3 398 13 is_stmt 1              @ ../../../CORTEX_MPU_M3_NUCLEO_L152RE_GCC/Demo/dynamic.c:398:13
	bl	MPU_vTaskDelay
	.loc	3 403 13                        @ ../../../CORTEX_MPU_M3_NUCLEO_L152RE_GCC/Demo/dynamic.c:403:13
	bl	vTaskSuspendAll
.Ltmp44:
	.loc	3 405 21                        @ ../../../CORTEX_MPU_M3_NUCLEO_L152RE_GCC/Demo/dynamic.c:405:21
	ldr	r0, [sp, #24]
	.loc	3 405 38 is_stmt 0              @ ../../../CORTEX_MPU_M3_NUCLEO_L152RE_GCC/Demo/dynamic.c:405:38
	movw	r1, :lower16:ulCounter
	movt	r1, :upper16:ulCounter
	ldr	r1, [r1]
.Ltmp45:
	.loc	3 405 21                        @ ../../../CORTEX_MPU_M3_NUCLEO_L152RE_GCC/Demo/dynamic.c:405:21
	cmp	r0, r1
	bne	.LBB3_11
	b	.LBB3_10
.LBB3_10:                               @   in Loop: Header=BB3_2 Depth=2
	.loc	3 0 21                          @ ../../../CORTEX_MPU_M3_NUCLEO_L152RE_GCC/Demo/dynamic.c:0:21
	add	r1, sp, #16
	movs	r0, #1
.Ltmp46:
	.loc	3 409 28 is_stmt 1              @ ../../../CORTEX_MPU_M3_NUCLEO_L152RE_GCC/Demo/dynamic.c:409:28
	strh	r0, [r1]
	.loc	3 410 17                        @ ../../../CORTEX_MPU_M3_NUCLEO_L152RE_GCC/Demo/dynamic.c:410:17
	b	.LBB3_11
.Ltmp47:
.LBB3_11:                               @   in Loop: Header=BB3_2 Depth=2
	.loc	3 412 13                        @ ../../../CORTEX_MPU_M3_NUCLEO_L152RE_GCC/Demo/dynamic.c:412:13
	bl	xTaskResumeAll
	.loc	3 413 9                         @ ../../../CORTEX_MPU_M3_NUCLEO_L152RE_GCC/Demo/dynamic.c:413:9
	b	.LBB3_12
.Ltmp48:
.LBB3_12:                               @   in Loop: Header=BB3_2 Depth=2
	.loc	3 369 51                        @ ../../../CORTEX_MPU_M3_NUCLEO_L152RE_GCC/Demo/dynamic.c:369:51
	ldr	r0, [sp, #20]
	adds	r0, r0, #1
	add	r1, sp, #20
	strh	r0, [r1]
	.loc	3 369 9 is_stmt 0               @ ../../../CORTEX_MPU_M3_NUCLEO_L152RE_GCC/Demo/dynamic.c:369:9
	b	.LBB3_2
.Ltmp49:
.LBB3_13:                               @   in Loop: Header=BB3_1 Depth=1
	.loc	3 419 23 is_stmt 1              @ ../../../CORTEX_MPU_M3_NUCLEO_L152RE_GCC/Demo/dynamic.c:419:23
	movw	r0, :lower16:xLocalTaskHandles
	movt	r0, :upper16:xLocalTaskHandles
	str	r0, [sp, #4]                    @ 4-byte Spill
	ldr	r0, [r0]
	.loc	3 419 9 is_stmt 0               @ ../../../CORTEX_MPU_M3_NUCLEO_L152RE_GCC/Demo/dynamic.c:419:9
	bl	MPU_vTaskSuspend
	ldr	r0, [sp, #4]                    @ 4-byte Reload
	.loc	3 422 24 is_stmt 1              @ ../../../CORTEX_MPU_M3_NUCLEO_L152RE_GCC/Demo/dynamic.c:422:24
	movw	r2, :lower16:ulCounter
	movt	r2, :upper16:ulCounter
	movs	r1, #0
	str	r1, [r2]
.Ltmp50:
	.loc	3 426 13                        @ ../../../CORTEX_MPU_M3_NUCLEO_L152RE_GCC/Demo/dynamic.c:426:13
	ldr	r0, [r0, #4]
	bl	MPU_eTaskGetState
.Ltmp51:
	.loc	3 426 13 is_stmt 0              @ ../../../CORTEX_MPU_M3_NUCLEO_L152RE_GCC/Demo/dynamic.c:426:13
	cmp	r0, #3
	beq	.LBB3_16
	b	.LBB3_14
.LBB3_14:
.Ltmp52:
	.loc	3 426 13                        @ ../../../CORTEX_MPU_M3_NUCLEO_L152RE_GCC/Demo/dynamic.c:426:13
	@APP
	cpsid i
	@NO_APP
	b	.LBB3_15
.LBB3_15:                               @ =>This Inner Loop Header: Depth=1
.Ltmp53:
	.loc	3 426 13                        @ ../../../CORTEX_MPU_M3_NUCLEO_L152RE_GCC/Demo/dynamic.c:426:13
	b	.LBB3_15
.Ltmp54:
.LBB3_16:                               @   in Loop: Header=BB3_1 Depth=1
	.loc	3 433 22 is_stmt 1              @ ../../../CORTEX_MPU_M3_NUCLEO_L152RE_GCC/Demo/dynamic.c:433:22
	movw	r0, :lower16:xLocalTaskHandles
	movt	r0, :upper16:xLocalTaskHandles
	str	r0, [sp]                        @ 4-byte Spill
	ldr	r0, [r0, #4]
	.loc	3 433 9 is_stmt 0               @ ../../../CORTEX_MPU_M3_NUCLEO_L152RE_GCC/Demo/dynamic.c:433:9
	bl	MPU_vTaskResume
	ldr	r0, [sp]                        @ 4-byte Reload
.Ltmp55:
	.loc	3 443 13 is_stmt 1              @ ../../../CORTEX_MPU_M3_NUCLEO_L152RE_GCC/Demo/dynamic.c:443:13
	ldr	r0, [r0, #4]
	bl	MPU_eTaskGetState
.Ltmp56:
	.loc	3 443 13 is_stmt 0              @ ../../../CORTEX_MPU_M3_NUCLEO_L152RE_GCC/Demo/dynamic.c:443:13
	cmp	r0, #3
	beq	.LBB3_19
	b	.LBB3_17
.LBB3_17:
.Ltmp57:
	.loc	3 443 13                        @ ../../../CORTEX_MPU_M3_NUCLEO_L152RE_GCC/Demo/dynamic.c:443:13
	@APP
	cpsid i
	@NO_APP
	b	.LBB3_18
.LBB3_18:                               @ =>This Inner Loop Header: Depth=1
.Ltmp58:
	.loc	3 443 13                        @ ../../../CORTEX_MPU_M3_NUCLEO_L152RE_GCC/Demo/dynamic.c:443:13
	b	.LBB3_18
.Ltmp59:
.LBB3_19:                               @   in Loop: Header=BB3_1 Depth=1
	.loc	3 448 13 is_stmt 1              @ ../../../CORTEX_MPU_M3_NUCLEO_L152RE_GCC/Demo/dynamic.c:448:13
	movw	r0, :lower16:ulCounter
	movt	r0, :upper16:ulCounter
	ldr	r0, [r0]
.Ltmp60:
	.loc	3 448 13 is_stmt 0              @ ../../../CORTEX_MPU_M3_NUCLEO_L152RE_GCC/Demo/dynamic.c:448:13
	cmp	r0, #255
	beq	.LBB3_21
	b	.LBB3_20
.LBB3_20:                               @   in Loop: Header=BB3_1 Depth=1
	.loc	3 0 13                          @ ../../../CORTEX_MPU_M3_NUCLEO_L152RE_GCC/Demo/dynamic.c:0:13
	add	r1, sp, #16
	movs	r0, #1
.Ltmp61:
	.loc	3 450 20 is_stmt 1              @ ../../../CORTEX_MPU_M3_NUCLEO_L152RE_GCC/Demo/dynamic.c:450:20
	strh	r0, [r1]
	.loc	3 451 9                         @ ../../../CORTEX_MPU_M3_NUCLEO_L152RE_GCC/Demo/dynamic.c:451:9
	b	.LBB3_21
.Ltmp62:
.LBB3_21:                               @   in Loop: Header=BB3_1 Depth=1
	.loc	3 453 13                        @ ../../../CORTEX_MPU_M3_NUCLEO_L152RE_GCC/Demo/dynamic.c:453:13
	movs	r1, #0
	add	r0, sp, #16
	ldrsh	r0, [r0, r1]
.Ltmp63:
	.loc	3 453 13 is_stmt 0              @ ../../../CORTEX_MPU_M3_NUCLEO_L152RE_GCC/Demo/dynamic.c:453:13
	cbnz	r0, .LBB3_23
	b	.LBB3_22
.LBB3_22:                               @   in Loop: Header=BB3_1 Depth=1
.Ltmp64:
	.loc	3 456 13 is_stmt 1              @ ../../../CORTEX_MPU_M3_NUCLEO_L152RE_GCC/Demo/dynamic.c:456:13
	bl	vPortEnterCritical
	.loc	3 457 33                        @ ../../../CORTEX_MPU_M3_NUCLEO_L152RE_GCC/Demo/dynamic.c:457:33
	movw	r1, :lower16:usCheckVariable
	movt	r1, :upper16:usCheckVariable
	ldrh	r0, [r1]
	adds	r0, r0, #1
	strh	r0, [r1]
	.loc	3 458 13                        @ ../../../CORTEX_MPU_M3_NUCLEO_L152RE_GCC/Demo/dynamic.c:458:13
	bl	vPortExitCritical
	.loc	3 459 9                         @ ../../../CORTEX_MPU_M3_NUCLEO_L152RE_GCC/Demo/dynamic.c:459:9
	b	.LBB3_23
.Ltmp65:
.LBB3_23:                               @   in Loop: Header=BB3_1 Depth=1
	.loc	3 462 22                        @ ../../../CORTEX_MPU_M3_NUCLEO_L152RE_GCC/Demo/dynamic.c:462:22
	movw	r0, :lower16:xLocalTaskHandles
	movt	r0, :upper16:xLocalTaskHandles
	ldr	r0, [r0]
	.loc	3 462 9 is_stmt 0               @ ../../../CORTEX_MPU_M3_NUCLEO_L152RE_GCC/Demo/dynamic.c:462:9
	bl	MPU_vTaskResume
.Ltmp66:
	.loc	3 361 5 is_stmt 1               @ ../../../CORTEX_MPU_M3_NUCLEO_L152RE_GCC/Demo/dynamic.c:361:5
	b	.LBB3_1
.Ltmp67:
.Lfunc_end3:
	.size	vCounterControlTask, .Lfunc_end3-vCounterControlTask
	.cfi_endproc
	.cantunwind
	.fnend
                                        @ -- End function
	.section	.text.vQueueSendWhenSuspendedTask,"ax",%progbits
	.p2align	1                               @ -- Begin function vQueueSendWhenSuspendedTask
	.type	vQueueSendWhenSuspendedTask,%function
	.code	16                              @ @vQueueSendWhenSuspendedTask
	.thumb_func
vQueueSendWhenSuspendedTask:
.Lfunc_begin4:
	.loc	3 472 0                         @ ../../../CORTEX_MPU_M3_NUCLEO_L152RE_GCC/Demo/dynamic.c:472:0
	.fnstart
	.cfi_startproc
@ %bb.0:
	.save	{r7, lr}
	push	{r7, lr}
	.cfi_def_cfa_offset 8
	.cfi_offset lr, -4
	.cfi_offset r7, -8
	.pad	#8
	sub	sp, #8
	.cfi_def_cfa_offset 16
	str	r0, [sp, #4]
.Ltmp68:
	.loc	3 477 5 prologue_end            @ ../../../CORTEX_MPU_M3_NUCLEO_L152RE_GCC/Demo/dynamic.c:477:5
	b	.LBB4_1
.LBB4_1:                                @ =>This Inner Loop Header: Depth=1
.Ltmp69:
	.loc	3 479 9                         @ ../../../CORTEX_MPU_M3_NUCLEO_L152RE_GCC/Demo/dynamic.c:479:9
	bl	vTaskSuspendAll
.Ltmp70:
	.loc	3 482 17                        @ ../../../CORTEX_MPU_M3_NUCLEO_L152RE_GCC/Demo/dynamic.c:482:17
	movw	r0, :lower16:xSuspendedTestQueue
	movt	r0, :upper16:xSuspendedTestQueue
	ldr	r0, [r0]
	movw	r1, :lower16:ulValueToSend
	movt	r1, :upper16:ulValueToSend
	movs	r3, #0
	mov	r2, r3
	bl	MPU_xQueueGenericSend
.Ltmp71:
	.loc	3 482 17 is_stmt 0              @ ../../../CORTEX_MPU_M3_NUCLEO_L152RE_GCC/Demo/dynamic.c:482:17
	cmp	r0, #1
	beq	.LBB4_3
	b	.LBB4_2
.LBB4_2:                                @   in Loop: Header=BB4_1 Depth=1
.Ltmp72:
	.loc	3 484 47 is_stmt 1              @ ../../../CORTEX_MPU_M3_NUCLEO_L152RE_GCC/Demo/dynamic.c:484:47
	movw	r1, :lower16:xSuspendedQueueSendError
	movt	r1, :upper16:xSuspendedQueueSendError
	movs	r0, #1
	str	r0, [r1]
	.loc	3 485 13                        @ ../../../CORTEX_MPU_M3_NUCLEO_L152RE_GCC/Demo/dynamic.c:485:13
	b	.LBB4_3
.Ltmp73:
.LBB4_3:                                @   in Loop: Header=BB4_1 Depth=1
	.loc	3 487 9                         @ ../../../CORTEX_MPU_M3_NUCLEO_L152RE_GCC/Demo/dynamic.c:487:9
	bl	xTaskResumeAll
	movs	r0, #12
	.loc	3 489 9                         @ ../../../CORTEX_MPU_M3_NUCLEO_L152RE_GCC/Demo/dynamic.c:489:9
	bl	MPU_vTaskDelay
	.loc	3 491 9                         @ ../../../CORTEX_MPU_M3_NUCLEO_L152RE_GCC/Demo/dynamic.c:491:9
	movw	r1, :lower16:ulValueToSend
	movt	r1, :upper16:ulValueToSend
	ldr	r0, [r1]
	adds	r0, r0, #1
	str	r0, [r1]
.Ltmp74:
	.loc	3 477 5                         @ ../../../CORTEX_MPU_M3_NUCLEO_L152RE_GCC/Demo/dynamic.c:477:5
	b	.LBB4_1
.Ltmp75:
.Lfunc_end4:
	.size	vQueueSendWhenSuspendedTask, .Lfunc_end4-vQueueSendWhenSuspendedTask
	.cfi_endproc
	.cantunwind
	.fnend
                                        @ -- End function
	.section	.text.vQueueReceiveWhenSuspendedTask,"ax",%progbits
	.p2align	1                               @ -- Begin function vQueueReceiveWhenSuspendedTask
	.type	vQueueReceiveWhenSuspendedTask,%function
	.code	16                              @ @vQueueReceiveWhenSuspendedTask
	.thumb_func
vQueueReceiveWhenSuspendedTask:
.Lfunc_begin5:
	.loc	3 497 0                         @ ../../../CORTEX_MPU_M3_NUCLEO_L152RE_GCC/Demo/dynamic.c:497:0
	.fnstart
	.cfi_startproc
@ %bb.0:
	.save	{r7, lr}
	push	{r7, lr}
	.cfi_def_cfa_offset 8
	.cfi_offset lr, -4
	.cfi_offset r7, -8
	.pad	#16
	sub	sp, #16
	.cfi_def_cfa_offset 24
	str	r0, [sp, #12]
.Ltmp76:
	.loc	3 504 5 prologue_end            @ ../../../CORTEX_MPU_M3_NUCLEO_L152RE_GCC/Demo/dynamic.c:504:5
	b	.LBB5_1
.LBB5_1:                                @ =>This Loop Header: Depth=1
                                        @     Child Loop BB5_2 Depth 2
.Ltmp77:
	.loc	3 506 9                         @ ../../../CORTEX_MPU_M3_NUCLEO_L152RE_GCC/Demo/dynamic.c:506:9
	b	.LBB5_2
.LBB5_2:                                @   Parent Loop BB5_1 Depth=1
                                        @ =>  This Inner Loop Header: Depth=2
.Ltmp78:
	.loc	3 513 13                        @ ../../../CORTEX_MPU_M3_NUCLEO_L152RE_GCC/Demo/dynamic.c:513:13
	bl	vTaskSuspendAll
.Ltmp79:
	.loc	3 515 17                        @ ../../../CORTEX_MPU_M3_NUCLEO_L152RE_GCC/Demo/dynamic.c:515:17
	bl	vTaskSuspendAll
.Ltmp80:
	.loc	3 517 48                        @ ../../../CORTEX_MPU_M3_NUCLEO_L152RE_GCC/Demo/dynamic.c:517:48
	movw	r0, :lower16:xSuspendedTestQueue
	movt	r0, :upper16:xSuspendedTestQueue
	ldr	r0, [r0]
	add	r1, sp, #8
	movs	r2, #0
	.loc	3 517 33 is_stmt 0              @ ../../../CORTEX_MPU_M3_NUCLEO_L152RE_GCC/Demo/dynamic.c:517:33
	bl	MPU_xQueueReceive
	.loc	3 517 31                        @ ../../../CORTEX_MPU_M3_NUCLEO_L152RE_GCC/Demo/dynamic.c:517:31
	str	r0, [sp, #4]
.Ltmp81:
	.loc	3 520 21 is_stmt 1              @ ../../../CORTEX_MPU_M3_NUCLEO_L152RE_GCC/Demo/dynamic.c:520:21
	bl	xTaskResumeAll
.Ltmp82:
	.loc	3 520 21 is_stmt 0              @ ../../../CORTEX_MPU_M3_NUCLEO_L152RE_GCC/Demo/dynamic.c:520:21
	cbz	r0, .LBB5_4
	b	.LBB5_3
.LBB5_3:                                @   in Loop: Header=BB5_2 Depth=2
.Ltmp83:
	.loc	3 522 54 is_stmt 1              @ ../../../CORTEX_MPU_M3_NUCLEO_L152RE_GCC/Demo/dynamic.c:522:54
	movw	r1, :lower16:xSuspendedQueueReceiveError
	movt	r1, :upper16:xSuspendedQueueReceiveError
	movs	r0, #1
	str	r0, [r1]
	.loc	3 523 17                        @ ../../../CORTEX_MPU_M3_NUCLEO_L152RE_GCC/Demo/dynamic.c:523:17
	b	.LBB5_4
.Ltmp84:
.LBB5_4:                                @   in Loop: Header=BB5_2 Depth=2
	.loc	3 525 13                        @ ../../../CORTEX_MPU_M3_NUCLEO_L152RE_GCC/Demo/dynamic.c:525:13
	bl	xTaskResumeAll
	.loc	3 532 9                         @ ../../../CORTEX_MPU_M3_NUCLEO_L152RE_GCC/Demo/dynamic.c:532:9
	b	.LBB5_5
.Ltmp85:
.LBB5_5:                                @   in Loop: Header=BB5_2 Depth=2
	.loc	3 532 18 is_stmt 0              @ ../../../CORTEX_MPU_M3_NUCLEO_L152RE_GCC/Demo/dynamic.c:532:18
	ldr	r0, [sp, #4]
.Ltmp86:
	.loc	3 532 9                         @ ../../../CORTEX_MPU_M3_NUCLEO_L152RE_GCC/Demo/dynamic.c:532:9
	cmp	r0, #0
	beq	.LBB5_2
	b	.LBB5_6
.Ltmp87:
.LBB5_6:                                @   in Loop: Header=BB5_1 Depth=1
	.loc	3 534 13 is_stmt 1              @ ../../../CORTEX_MPU_M3_NUCLEO_L152RE_GCC/Demo/dynamic.c:534:13
	ldr	r0, [sp, #8]
	.loc	3 534 32 is_stmt 0              @ ../../../CORTEX_MPU_M3_NUCLEO_L152RE_GCC/Demo/dynamic.c:534:32
	movw	r1, :lower16:ulExpectedValue
	movt	r1, :upper16:ulExpectedValue
	ldr	r1, [r1]
.Ltmp88:
	.loc	3 534 13                        @ ../../../CORTEX_MPU_M3_NUCLEO_L152RE_GCC/Demo/dynamic.c:534:13
	cmp	r0, r1
	beq	.LBB5_8
	b	.LBB5_7
.LBB5_7:                                @   in Loop: Header=BB5_1 Depth=1
.Ltmp89:
	.loc	3 536 46 is_stmt 1              @ ../../../CORTEX_MPU_M3_NUCLEO_L152RE_GCC/Demo/dynamic.c:536:46
	movw	r1, :lower16:xSuspendedQueueReceiveError
	movt	r1, :upper16:xSuspendedQueueReceiveError
	movs	r0, #1
	str	r0, [r1]
	.loc	3 537 9                         @ ../../../CORTEX_MPU_M3_NUCLEO_L152RE_GCC/Demo/dynamic.c:537:9
	b	.LBB5_8
.Ltmp90:
.LBB5_8:                                @   in Loop: Header=BB5_1 Depth=1
	.loc	3 539 13                        @ ../../../CORTEX_MPU_M3_NUCLEO_L152RE_GCC/Demo/dynamic.c:539:13
	movw	r0, :lower16:xSuspendedQueueReceiveError
	movt	r0, :upper16:xSuspendedQueueReceiveError
	ldr	r0, [r0]
.Ltmp91:
	.loc	3 539 13 is_stmt 0              @ ../../../CORTEX_MPU_M3_NUCLEO_L152RE_GCC/Demo/dynamic.c:539:13
	cmp	r0, #1
	beq	.LBB5_10
	b	.LBB5_9
.LBB5_9:                                @   in Loop: Header=BB5_1 Depth=1
.Ltmp92:
	.loc	3 544 13 is_stmt 1              @ ../../../CORTEX_MPU_M3_NUCLEO_L152RE_GCC/Demo/dynamic.c:544:13
	movw	r1, :lower16:ulExpectedValue
	movt	r1, :upper16:ulExpectedValue
	ldr	r0, [r1]
	adds	r0, r0, #1
	str	r0, [r1]
	.loc	3 545 9                         @ ../../../CORTEX_MPU_M3_NUCLEO_L152RE_GCC/Demo/dynamic.c:545:9
	b	.LBB5_10
.Ltmp93:
.LBB5_10:                               @   in Loop: Header=BB5_1 Depth=1
	.loc	3 504 5                         @ ../../../CORTEX_MPU_M3_NUCLEO_L152RE_GCC/Demo/dynamic.c:504:5
	b	.LBB5_1
.Ltmp94:
.Lfunc_end5:
	.size	vQueueReceiveWhenSuspendedTask, .Lfunc_end5-vQueueReceiveWhenSuspendedTask
	.cfi_endproc
	.cantunwind
	.fnend
                                        @ -- End function
	.section	.text.xAreDynamicPriorityTasksStillRunning,"ax",%progbits
	.hidden	xAreDynamicPriorityTasksStillRunning @ -- Begin function xAreDynamicPriorityTasksStillRunning
	.globl	xAreDynamicPriorityTasksStillRunning
	.p2align	1
	.type	xAreDynamicPriorityTasksStillRunning,%function
	.code	16                              @ @xAreDynamicPriorityTasksStillRunning
	.thumb_func
xAreDynamicPriorityTasksStillRunning:
.Lfunc_begin6:
	.loc	3 552 0                         @ ../../../CORTEX_MPU_M3_NUCLEO_L152RE_GCC/Demo/dynamic.c:552:0
	.fnstart
	.cfi_startproc
@ %bb.0:
	.pad	#4
	sub	sp, #4
	.cfi_def_cfa_offset 4
	movs	r0, #1
.Ltmp95:
	.loc	3 557 16 prologue_end           @ ../../../CORTEX_MPU_M3_NUCLEO_L152RE_GCC/Demo/dynamic.c:557:16
	str	r0, [sp]
.Ltmp96:
	.loc	3 562 9                         @ ../../../CORTEX_MPU_M3_NUCLEO_L152RE_GCC/Demo/dynamic.c:562:9
	movw	r0, :lower16:usCheckVariable
	movt	r0, :upper16:usCheckVariable
	ldrh	r0, [r0]
	.loc	3 562 33 is_stmt 0              @ ../../../CORTEX_MPU_M3_NUCLEO_L152RE_GCC/Demo/dynamic.c:562:33
	movw	r1, :lower16:xAreDynamicPriorityTasksStillRunning.usLastTaskCheck
	movt	r1, :upper16:xAreDynamicPriorityTasksStillRunning.usLastTaskCheck
	ldrh	r1, [r1]
.Ltmp97:
	.loc	3 562 9                         @ ../../../CORTEX_MPU_M3_NUCLEO_L152RE_GCC/Demo/dynamic.c:562:9
	cmp	r0, r1
	bne	.LBB6_2
	b	.LBB6_1
.LBB6_1:
	.loc	3 0 9                           @ ../../../CORTEX_MPU_M3_NUCLEO_L152RE_GCC/Demo/dynamic.c:0:9
	movs	r0, #0
.Ltmp98:
	.loc	3 565 17 is_stmt 1              @ ../../../CORTEX_MPU_M3_NUCLEO_L152RE_GCC/Demo/dynamic.c:565:17
	str	r0, [sp]
	.loc	3 566 5                         @ ../../../CORTEX_MPU_M3_NUCLEO_L152RE_GCC/Demo/dynamic.c:566:5
	b	.LBB6_2
.Ltmp99:
.LBB6_2:
	.loc	3 568 9                         @ ../../../CORTEX_MPU_M3_NUCLEO_L152RE_GCC/Demo/dynamic.c:568:9
	movw	r0, :lower16:ulExpectedValue
	movt	r0, :upper16:ulExpectedValue
	ldr	r0, [r0]
	.loc	3 568 33 is_stmt 0              @ ../../../CORTEX_MPU_M3_NUCLEO_L152RE_GCC/Demo/dynamic.c:568:33
	movw	r1, :lower16:xAreDynamicPriorityTasksStillRunning.ulLastExpectedValue
	movt	r1, :upper16:xAreDynamicPriorityTasksStillRunning.ulLastExpectedValue
	ldr	r1, [r1]
.Ltmp100:
	.loc	3 568 9                         @ ../../../CORTEX_MPU_M3_NUCLEO_L152RE_GCC/Demo/dynamic.c:568:9
	cmp	r0, r1
	bne	.LBB6_4
	b	.LBB6_3
.LBB6_3:
	.loc	3 0 9                           @ ../../../CORTEX_MPU_M3_NUCLEO_L152RE_GCC/Demo/dynamic.c:0:9
	movs	r0, #0
.Ltmp101:
	.loc	3 572 17 is_stmt 1              @ ../../../CORTEX_MPU_M3_NUCLEO_L152RE_GCC/Demo/dynamic.c:572:17
	str	r0, [sp]
	.loc	3 573 5                         @ ../../../CORTEX_MPU_M3_NUCLEO_L152RE_GCC/Demo/dynamic.c:573:5
	b	.LBB6_4
.Ltmp102:
.LBB6_4:
	.loc	3 575 9                         @ ../../../CORTEX_MPU_M3_NUCLEO_L152RE_GCC/Demo/dynamic.c:575:9
	movw	r0, :lower16:xSuspendedQueueSendError
	movt	r0, :upper16:xSuspendedQueueSendError
	ldr	r0, [r0]
.Ltmp103:
	.loc	3 575 9 is_stmt 0               @ ../../../CORTEX_MPU_M3_NUCLEO_L152RE_GCC/Demo/dynamic.c:575:9
	cmp	r0, #1
	bne	.LBB6_6
	b	.LBB6_5
.LBB6_5:
	.loc	3 0 9                           @ ../../../CORTEX_MPU_M3_NUCLEO_L152RE_GCC/Demo/dynamic.c:0:9
	movs	r0, #0
.Ltmp104:
	.loc	3 577 17 is_stmt 1              @ ../../../CORTEX_MPU_M3_NUCLEO_L152RE_GCC/Demo/dynamic.c:577:17
	str	r0, [sp]
	.loc	3 578 5                         @ ../../../CORTEX_MPU_M3_NUCLEO_L152RE_GCC/Demo/dynamic.c:578:5
	b	.LBB6_6
.Ltmp105:
.LBB6_6:
	.loc	3 580 9                         @ ../../../CORTEX_MPU_M3_NUCLEO_L152RE_GCC/Demo/dynamic.c:580:9
	movw	r0, :lower16:xSuspendedQueueReceiveError
	movt	r0, :upper16:xSuspendedQueueReceiveError
	ldr	r0, [r0]
.Ltmp106:
	.loc	3 580 9 is_stmt 0               @ ../../../CORTEX_MPU_M3_NUCLEO_L152RE_GCC/Demo/dynamic.c:580:9
	cmp	r0, #1
	bne	.LBB6_8
	b	.LBB6_7
.LBB6_7:
	.loc	3 0 9                           @ ../../../CORTEX_MPU_M3_NUCLEO_L152RE_GCC/Demo/dynamic.c:0:9
	movs	r0, #0
.Ltmp107:
	.loc	3 582 17 is_stmt 1              @ ../../../CORTEX_MPU_M3_NUCLEO_L152RE_GCC/Demo/dynamic.c:582:17
	str	r0, [sp]
	.loc	3 583 5                         @ ../../../CORTEX_MPU_M3_NUCLEO_L152RE_GCC/Demo/dynamic.c:583:5
	b	.LBB6_8
.Ltmp108:
.LBB6_8:
	.loc	3 585 23                        @ ../../../CORTEX_MPU_M3_NUCLEO_L152RE_GCC/Demo/dynamic.c:585:23
	movw	r0, :lower16:usCheckVariable
	movt	r0, :upper16:usCheckVariable
	ldrh	r0, [r0]
	.loc	3 585 21 is_stmt 0              @ ../../../CORTEX_MPU_M3_NUCLEO_L152RE_GCC/Demo/dynamic.c:585:21
	movw	r1, :lower16:xAreDynamicPriorityTasksStillRunning.usLastTaskCheck
	movt	r1, :upper16:xAreDynamicPriorityTasksStillRunning.usLastTaskCheck
	strh	r0, [r1]
	.loc	3 586 27 is_stmt 1              @ ../../../CORTEX_MPU_M3_NUCLEO_L152RE_GCC/Demo/dynamic.c:586:27
	movw	r0, :lower16:ulExpectedValue
	movt	r0, :upper16:ulExpectedValue
	ldr	r0, [r0]
	.loc	3 586 25 is_stmt 0              @ ../../../CORTEX_MPU_M3_NUCLEO_L152RE_GCC/Demo/dynamic.c:586:25
	movw	r1, :lower16:xAreDynamicPriorityTasksStillRunning.ulLastExpectedValue
	movt	r1, :upper16:xAreDynamicPriorityTasksStillRunning.ulLastExpectedValue
	str	r0, [r1]
	.loc	3 588 12 is_stmt 1              @ ../../../CORTEX_MPU_M3_NUCLEO_L152RE_GCC/Demo/dynamic.c:588:12
	ldr	r0, [sp]
	.loc	3 588 5 is_stmt 0               @ ../../../CORTEX_MPU_M3_NUCLEO_L152RE_GCC/Demo/dynamic.c:588:5
	add	sp, #4
	bx	lr
.Ltmp109:
.Lfunc_end6:
	.size	xAreDynamicPriorityTasksStillRunning, .Lfunc_end6-xAreDynamicPriorityTasksStillRunning
	.cfi_endproc
	.cantunwind
	.fnend
                                        @ -- End function
	.type	vStartDynamicPriorityTasks.xContinuousIncrementTaskStack,%object @ @vStartDynamicPriorityTasks.xContinuousIncrementTaskStack
	.section	.bss.vStartDynamicPriorityTasks.xContinuousIncrementTaskStack,"aw",%nobits
	.p2align	9, 0x0
vStartDynamicPriorityTasks.xContinuousIncrementTaskStack:
	.zero	512
	.size	vStartDynamicPriorityTasks.xContinuousIncrementTaskStack, 512

	.type	vStartDynamicPriorityTasks.xLimitedIncrementTaskStack,%object @ @vStartDynamicPriorityTasks.xLimitedIncrementTaskStack
	.section	.bss.vStartDynamicPriorityTasks.xLimitedIncrementTaskStack,"aw",%nobits
	.p2align	9, 0x0
vStartDynamicPriorityTasks.xLimitedIncrementTaskStack:
	.zero	512
	.size	vStartDynamicPriorityTasks.xLimitedIncrementTaskStack, 512

	.type	vStartDynamicPriorityTasks.xCounterControlTaskStack,%object @ @vStartDynamicPriorityTasks.xCounterControlTaskStack
	.section	.bss.vStartDynamicPriorityTasks.xCounterControlTaskStack,"aw",%nobits
	.p2align	9, 0x0
vStartDynamicPriorityTasks.xCounterControlTaskStack:
	.zero	512
	.size	vStartDynamicPriorityTasks.xCounterControlTaskStack, 512

	.type	vStartDynamicPriorityTasks.xQueueSendWhenSuspendedTaskStack,%object @ @vStartDynamicPriorityTasks.xQueueSendWhenSuspendedTaskStack
	.section	.bss.vStartDynamicPriorityTasks.xQueueSendWhenSuspendedTaskStack,"aw",%nobits
	.p2align	9, 0x0
vStartDynamicPriorityTasks.xQueueSendWhenSuspendedTaskStack:
	.zero	512
	.size	vStartDynamicPriorityTasks.xQueueSendWhenSuspendedTaskStack, 512

	.type	vStartDynamicPriorityTasks.xQueueReceiveWhenSuspendedTaskStack,%object @ @vStartDynamicPriorityTasks.xQueueReceiveWhenSuspendedTaskStack
	.section	.bss.vStartDynamicPriorityTasks.xQueueReceiveWhenSuspendedTaskStack,"aw",%nobits
	.p2align	9, 0x0
vStartDynamicPriorityTasks.xQueueReceiveWhenSuspendedTaskStack:
	.zero	512
	.size	vStartDynamicPriorityTasks.xQueueReceiveWhenSuspendedTaskStack, 512

	.hidden	xSuspendedTestQueue             @ @xSuspendedTestQueue
	.type	xSuspendedTestQueue,%object
	.section	.bss.xSuspendedTestQueue,"aw",%nobits
	.globl	xSuspendedTestQueue
	.p2align	5, 0x0
xSuspendedTestQueue:
	.zero	32
	.size	xSuspendedTestQueue, 32

	.type	.L.str,%object                  @ @.str
	.section	.rodata.str1.1,"aMS",%progbits,1
.L.str:
	.asciz	"CNT_INC"
	.size	.L.str, 8

	.type	ulCounter,%object               @ @ulCounter
	.section	.bss.ulCounter,"aw",%nobits
	.p2align	5, 0x0
ulCounter:
	.zero	32
	.size	ulCounter, 32

	.type	.L__const.vStartDynamicPriorityTasks.xContinuousIncrementTask,%object @ @__const.vStartDynamicPriorityTasks.xContinuousIncrementTask
	.section	.rodata..L__const.vStartDynamicPriorityTasks.xContinuousIncrementTask,"a",%progbits
	.p2align	2, 0x0
.L__const.vStartDynamicPriorityTasks.xContinuousIncrementTask:
	.long	vContinuousIncrementTask
	.long	.L.str
	.short	128                             @ 0x80
	.zero	2
	.long	ulCounter
	.long	2147483648                      @ 0x80000000
	.long	vStartDynamicPriorityTasks.xContinuousIncrementTaskStack
	.long	ulCounter
	.long	32                              @ 0x20
	.long	3                               @ 0x3
	.zero	12
	.zero	12
	.long	0
	.size	.L__const.vStartDynamicPriorityTasks.xContinuousIncrementTask, 64

	.type	.L.str.1,%object                @ @.str.1
	.section	.rodata.str1.1,"aMS",%progbits,1
.L.str.1:
	.asciz	"LIM_INC"
	.size	.L.str.1, 8

	.type	.L__const.vStartDynamicPriorityTasks.xLimitedIncrementTask,%object @ @__const.vStartDynamicPriorityTasks.xLimitedIncrementTask
	.section	.rodata..L__const.vStartDynamicPriorityTasks.xLimitedIncrementTask,"a",%progbits
	.p2align	2, 0x0
.L__const.vStartDynamicPriorityTasks.xLimitedIncrementTask:
	.long	vLimitedIncrementTask
	.long	.L.str.1
	.short	128                             @ 0x80
	.zero	2
	.long	ulCounter
	.long	1                               @ 0x1
	.long	vStartDynamicPriorityTasks.xLimitedIncrementTaskStack
	.long	ulCounter
	.long	32                              @ 0x20
	.long	3                               @ 0x3
	.zero	12
	.zero	12
	.long	0
	.size	.L__const.vStartDynamicPriorityTasks.xLimitedIncrementTask, 64

	.type	.L.str.2,%object                @ @.str.2
	.section	.rodata.str1.1,"aMS",%progbits,1
.L.str.2:
	.asciz	"C_CTRL"
	.size	.L.str.2, 7

	.type	xLocalTaskHandles,%object       @ @xLocalTaskHandles
	.section	.bss.xLocalTaskHandles,"aw",%nobits
	.p2align	5, 0x0
xLocalTaskHandles:
	.zero	32
	.size	xLocalTaskHandles, 32

	.type	usCheckVariable,%object         @ @usCheckVariable
	.section	.bss.usCheckVariable,"aw",%nobits
	.p2align	5, 0x0
usCheckVariable:
	.zero	32
	.size	usCheckVariable, 32

	.type	.L__const.vStartDynamicPriorityTasks.xCounterControlTask,%object @ @__const.vStartDynamicPriorityTasks.xCounterControlTask
	.section	.rodata..L__const.vStartDynamicPriorityTasks.xCounterControlTask,"a",%progbits
	.p2align	2, 0x0
.L__const.vStartDynamicPriorityTasks.xCounterControlTask:
	.long	vCounterControlTask
	.long	.L.str.2
	.short	128                             @ 0x80
	.zero	2
	.long	0
	.long	2147483648                      @ 0x80000000
	.long	vStartDynamicPriorityTasks.xCounterControlTaskStack
	.long	ulCounter
	.long	32                              @ 0x20
	.long	3                               @ 0x3
	.long	xLocalTaskHandles
	.long	32                              @ 0x20
	.long	3                               @ 0x3
	.long	usCheckVariable
	.long	32                              @ 0x20
	.long	3                               @ 0x3
	.long	0
	.size	.L__const.vStartDynamicPriorityTasks.xCounterControlTask, 64

	.type	.L.str.3,%object                @ @.str.3
	.section	.rodata.str1.1,"aMS",%progbits,1
.L.str.3:
	.asciz	"SUSP_TX"
	.size	.L.str.3, 8

	.type	xSuspendedQueueSendError,%object @ @xSuspendedQueueSendError
	.section	.bss.xSuspendedQueueSendError,"aw",%nobits
	.p2align	5, 0x0
xSuspendedQueueSendError:
	.zero	32
	.size	xSuspendedQueueSendError, 32

	.type	ulValueToSend,%object           @ @ulValueToSend
	.section	.bss.ulValueToSend,"aw",%nobits
	.p2align	5, 0x0
ulValueToSend:
	.zero	32
	.size	ulValueToSend, 32

	.type	.L__const.vStartDynamicPriorityTasks.xQueueSendWhenSuspendedTask,%object @ @__const.vStartDynamicPriorityTasks.xQueueSendWhenSuspendedTask
	.section	.rodata..L__const.vStartDynamicPriorityTasks.xQueueSendWhenSuspendedTask,"a",%progbits
	.p2align	2, 0x0
.L__const.vStartDynamicPriorityTasks.xQueueSendWhenSuspendedTask:
	.long	vQueueSendWhenSuspendedTask
	.long	.L.str.3
	.short	128                             @ 0x80
	.zero	2
	.long	0
	.long	2147483648                      @ 0x80000000
	.long	vStartDynamicPriorityTasks.xQueueSendWhenSuspendedTaskStack
	.long	xSuspendedTestQueue
	.long	32                              @ 0x20
	.long	3                               @ 0x3
	.long	xSuspendedQueueSendError
	.long	32                              @ 0x20
	.long	3                               @ 0x3
	.long	ulValueToSend
	.long	32                              @ 0x20
	.long	3                               @ 0x3
	.long	0
	.size	.L__const.vStartDynamicPriorityTasks.xQueueSendWhenSuspendedTask, 64

	.type	.L.str.4,%object                @ @.str.4
	.section	.rodata.str1.1,"aMS",%progbits,1
.L.str.4:
	.asciz	"SUSP_RX"
	.size	.L.str.4, 8

	.type	xSuspendedQueueReceiveError,%object @ @xSuspendedQueueReceiveError
	.section	.bss.xSuspendedQueueReceiveError,"aw",%nobits
	.p2align	5, 0x0
xSuspendedQueueReceiveError:
	.zero	32
	.size	xSuspendedQueueReceiveError, 32

	.type	ulExpectedValue,%object         @ @ulExpectedValue
	.section	.bss.ulExpectedValue,"aw",%nobits
	.p2align	5, 0x0
ulExpectedValue:
	.zero	32
	.size	ulExpectedValue, 32

	.type	.L__const.vStartDynamicPriorityTasks.xQueueReceiveWhenSuspendedTask,%object @ @__const.vStartDynamicPriorityTasks.xQueueReceiveWhenSuspendedTask
	.section	.rodata..L__const.vStartDynamicPriorityTasks.xQueueReceiveWhenSuspendedTask,"a",%progbits
	.p2align	2, 0x0
.L__const.vStartDynamicPriorityTasks.xQueueReceiveWhenSuspendedTask:
	.long	vQueueReceiveWhenSuspendedTask
	.long	.L.str.4
	.short	128                             @ 0x80
	.zero	2
	.long	0
	.long	2147483648                      @ 0x80000000
	.long	vStartDynamicPriorityTasks.xQueueReceiveWhenSuspendedTaskStack
	.long	xSuspendedTestQueue
	.long	32                              @ 0x20
	.long	3                               @ 0x3
	.long	xSuspendedQueueReceiveError
	.long	32                              @ 0x20
	.long	3                               @ 0x3
	.long	ulExpectedValue
	.long	32                              @ 0x20
	.long	3                               @ 0x3
	.long	0
	.size	.L__const.vStartDynamicPriorityTasks.xQueueReceiveWhenSuspendedTask, 64

	.type	xAreDynamicPriorityTasksStillRunning.usLastTaskCheck,%object @ @xAreDynamicPriorityTasksStillRunning.usLastTaskCheck
	.section	.bss.xAreDynamicPriorityTasksStillRunning.usLastTaskCheck,"aw",%nobits
	.p2align	1, 0x0
xAreDynamicPriorityTasksStillRunning.usLastTaskCheck:
	.short	0                               @ 0x0
	.size	xAreDynamicPriorityTasksStillRunning.usLastTaskCheck, 2

	.type	xAreDynamicPriorityTasksStillRunning.ulLastExpectedValue,%object @ @xAreDynamicPriorityTasksStillRunning.ulLastExpectedValue
	.section	.bss.xAreDynamicPriorityTasksStillRunning.ulLastExpectedValue,"aw",%nobits
	.p2align	2, 0x0
xAreDynamicPriorityTasksStillRunning.ulLastExpectedValue:
	.long	0                               @ 0x0
	.size	xAreDynamicPriorityTasksStillRunning.ulLastExpectedValue, 4

	.file	6 "C:\\Users\\karahulx\\Downloads\\Kernel\\FreeRTOS\\FreeRTOS\\Demo\\CORTEX_MPU_M23_Nuvoton_NuMaker_PFM_M2351_IAR_GCC\\Projects_NTZ\\Keil" "../../../../Source/include/projdefs.h"
	.file	7 "C:\\Users\\karahulx\\Downloads\\Kernel\\FreeRTOS\\FreeRTOS\\Demo\\CORTEX_MPU_M23_Nuvoton_NuMaker_PFM_M2351_IAR_GCC\\Projects_NTZ\\Keil" "../../../../Source/include\\FreeRTOS.h"
	.section	".note.GNU-stack","",%progbits
	.eabi_attribute	30, 6	@ Tag_ABI_optimization_goals
	.ARM_attribute	16, 1	@ Tag_AV_eba