	.text
	.syntax unified
	.eabi_attribute	67, "2.09"	@ Tag_conformance
	.eabi_attribute	6, 16	@ Tag_CPU_arch
	.eabi_attribute	7, 77	@ Tag_CPU_arch_profile
	.eabi_attribute	8, 0	@ Tag_ARM_ISA_use
	.eabi_attribute	9, 3	@ Tag_THUMB_ISA_use
	.eabi_attribute	34, 0	@ Tag_CPU_unaligned_access
	.eabi_attribute	17, 1	@ Tag_ABI_PCS_GOT_use
	.eabi_attribute	20, 2	@ Tag_ABI_FP_denormal
	.eabi_attribute	21, 0	@ Tag_ABI_FP_exceptions
	.eabi_attribute	23, 1	@ Tag_ABI_FP_number_model
	.eabi_attribute	24, 1	@ Tag_ABI_align_needed
	.eabi_attribute	25, 1	@ Tag_ABI_align_preserved
	.eabi_attribute	38, 1	@ Tag_ABI_FP_16bit_format
	.eabi_attribute	18, 4	@ Tag_ABI_PCS_wchar_t
	.eabi_attribute	26, 2	@ Tag_ABI_enum_size
	.eabi_attribute	14, 0	@ Tag_ABI_PCS_R9_use
	.file	"event_groups.c"
	.file	1 "C:\\Keil_v5\\ARM\\ARMCLANG\\Bin\\..\\include" "stdint.h"
	.file	2 "C:\\Users\\karahulx\\Downloads\\Kernel\\FreeRTOS\\FreeRTOS\\Demo\\CORTEX_MPU_M23_Nuvoton_NuMaker_PFM_M2351_IAR_GCC\\Projects_NTZ\\Keil" "../../../../Source/portable/GCC/ARM_CM23_NTZ/non_secure/portmacrocommon.h"
	.file	3 "C:\\Users\\karahulx\\Downloads\\Kernel\\FreeRTOS\\FreeRTOS\\Demo\\CORTEX_MPU_M23_Nuvoton_NuMaker_PFM_M2351_IAR_GCC\\Projects_NTZ\\Keil" "../../../../Source/include\\event_groups.h"
	.file	4 "C:\\Users\\karahulx\\Downloads\\Kernel\\FreeRTOS\\FreeRTOS\\Demo\\CORTEX_MPU_M23_Nuvoton_NuMaker_PFM_M2351_IAR_GCC\\Projects_NTZ\\Keil" "../../../../Source/event_groups.c"
	.file	5 "C:\\Users\\karahulx\\Downloads\\Kernel\\FreeRTOS\\FreeRTOS\\Demo\\CORTEX_MPU_M23_Nuvoton_NuMaker_PFM_M2351_IAR_GCC\\Projects_NTZ\\Keil" "../../../../Source/include/list.h"
	.file	6 "C:\\Users\\karahulx\\Downloads\\Kernel\\FreeRTOS\\FreeRTOS\\Demo\\CORTEX_MPU_M23_Nuvoton_NuMaker_PFM_M2351_IAR_GCC\\Projects_NTZ\\Keil" "../../../../Source/include\\FreeRTOS.h"
	.section	privileged_functions,"ax",%progbits
	.hidden	xEventGroupCreateStatic         @ -- Begin function xEventGroupCreateStatic
	.globl	xEventGroupCreateStatic
	.p2align	1
	.type	xEventGroupCreateStatic,%function
	.code	16                              @ @xEventGroupCreateStatic
	.thumb_func
xEventGroupCreateStatic:
.Lfunc_begin0:
	.loc	4 102 0                         @ ../../../../Source/event_groups.c:102:0
	.fnstart
	.cfi_sections .debug_frame
	.cfi_startproc
@ %bb.0:
	.save	{r7, lr}
	push	{r7, lr}
	.cfi_def_cfa_offset 8
	.cfi_offset lr, -4
	.cfi_offset r7, -8
	.pad	#16
	sub	sp, #16
	.cfi_def_cfa_offset 24
	str	r0, [sp, #12]
.Ltmp0:
	.loc	4 106 9 prologue_end            @ ../../../../Source/event_groups.c:106:9
	ldr	r0, [sp, #12]
.Ltmp1:
	.loc	4 106 9 is_stmt 0               @ ../../../../Source/event_groups.c:106:9
	cbnz	r0, .LBB0_3
	b	.LBB0_1
.LBB0_1:
.Ltmp2:
	.loc	4 106 9                         @ ../../../../Source/event_groups.c:106:9
	@APP
	cpsid i
	@NO_APP
	b	.LBB0_2
.LBB0_2:                                @ =>This Inner Loop Header: Depth=1
.Ltmp3:
	.loc	4 106 9                         @ ../../../../Source/event_groups.c:106:9
	b	.LBB0_2
.Ltmp4:
.LBB0_3:
	.loc	4 0 9                           @ ../../../../Source/event_groups.c:0:9
	movs	r0, #32
.Ltmp5:
	.loc	4 113 29 is_stmt 1              @ ../../../../Source/event_groups.c:113:29
	str	r0, [sp, #4]
.Ltmp6:
	.loc	4 114 13                        @ ../../../../Source/event_groups.c:114:13
	ldr	r0, [sp, #4]
.Ltmp7:
	.loc	4 114 13 is_stmt 0              @ ../../../../Source/event_groups.c:114:13
	cmp	r0, #32
	beq	.LBB0_6
	b	.LBB0_4
.LBB0_4:
.Ltmp8:
	.loc	4 114 13                        @ ../../../../Source/event_groups.c:114:13
	@APP
	cpsid i
	@NO_APP
	b	.LBB0_5
.LBB0_5:                                @ =>This Inner Loop Header: Depth=1
.Ltmp9:
	.loc	4 114 13                        @ ../../../../Source/event_groups.c:114:13
	b	.LBB0_5
.Ltmp10:
.LBB0_6:
	.loc	4 119 42 is_stmt 1              @ ../../../../Source/event_groups.c:119:42
	ldr	r0, [sp, #12]
	.loc	4 119 21 is_stmt 0              @ ../../../../Source/event_groups.c:119:21
	str	r0, [sp, #8]
.Ltmp11:
	.loc	4 121 13 is_stmt 1              @ ../../../../Source/event_groups.c:121:13
	ldr	r0, [sp, #8]
.Ltmp12:
	.loc	4 121 13 is_stmt 0              @ ../../../../Source/event_groups.c:121:13
	cbz	r0, .LBB0_8
	b	.LBB0_7
.LBB0_7:
.Ltmp13:
	.loc	4 123 13 is_stmt 1              @ ../../../../Source/event_groups.c:123:13
	ldr	r1, [sp, #8]
	movs	r0, #0
	.loc	4 123 38 is_stmt 0              @ ../../../../Source/event_groups.c:123:38
	str	r0, [r1]
	.loc	4 124 33 is_stmt 1              @ ../../../../Source/event_groups.c:124:33
	ldr	r0, [sp, #8]
	.loc	4 124 46 is_stmt 0              @ ../../../../Source/event_groups.c:124:46
	adds	r0, r0, #4
	.loc	4 124 13                        @ ../../../../Source/event_groups.c:124:13
	bl	vListInitialise
.Ltmp14:
	.loc	4 131 17 is_stmt 1              @ ../../../../Source/event_groups.c:131:17
	ldr	r1, [sp, #8]
	movs	r0, #1
	.loc	4 131 52 is_stmt 0              @ ../../../../Source/event_groups.c:131:52
	strb	r0, [r1, #28]
.Ltmp15:
	.loc	4 136 9 is_stmt 1               @ ../../../../Source/event_groups.c:136:9
	b	.LBB0_9
.Ltmp16:
.LBB0_8:
	.loc	4 0 9 is_stmt 0                 @ ../../../../Source/event_groups.c:0:9
	b	.LBB0_9
.LBB0_9:
	.loc	4 145 16 is_stmt 1              @ ../../../../Source/event_groups.c:145:16
	ldr	r0, [sp, #8]
	.loc	4 145 9 is_stmt 0               @ ../../../../Source/event_groups.c:145:9
	add	sp, #16
	pop	{r7, pc}
.Ltmp17:
.Lfunc_end0:
	.size	xEventGroupCreateStatic, .Lfunc_end0-xEventGroupCreateStatic
	.cfi_endproc
	.cantunwind
	.fnend
                                        @ -- End function
	.hidden	xEventGroupCreate               @ -- Begin function xEventGroupCreate
	.globl	xEventGroupCreate
	.p2align	1
	.type	xEventGroupCreate,%function
	.code	16                              @ @xEventGroupCreate
	.thumb_func
xEventGroupCreate:
.Lfunc_begin1:
	.loc	4 154 0 is_stmt 1               @ ../../../../Source/event_groups.c:154:0
	.fnstart
	.cfi_startproc
@ %bb.0:
	.save	{r7, lr}
	push	{r7, lr}
	.cfi_def_cfa_offset 8
	.cfi_offset lr, -4
	.cfi_offset r7, -8
	.pad	#8
	sub	sp, #8
	.cfi_def_cfa_offset 16
	movs	r0, #32
.Ltmp18:
	.loc	4 170 42 prologue_end           @ ../../../../Source/event_groups.c:170:42
	bl	pvPortMalloc
	.loc	4 170 21 is_stmt 0              @ ../../../../Source/event_groups.c:170:21
	str	r0, [sp, #4]
.Ltmp19:
	.loc	4 172 13 is_stmt 1              @ ../../../../Source/event_groups.c:172:13
	ldr	r0, [sp, #4]
.Ltmp20:
	.loc	4 172 13 is_stmt 0              @ ../../../../Source/event_groups.c:172:13
	cbz	r0, .LBB1_2
	b	.LBB1_1
.LBB1_1:
.Ltmp21:
	.loc	4 174 13 is_stmt 1              @ ../../../../Source/event_groups.c:174:13
	ldr	r1, [sp, #4]
	movs	r0, #0
	.loc	4 174 38 is_stmt 0              @ ../../../../Source/event_groups.c:174:38
	str	r0, [sp]                        @ 4-byte Spill
	str	r0, [r1]
	.loc	4 175 33 is_stmt 1              @ ../../../../Source/event_groups.c:175:33
	ldr	r0, [sp, #4]
	.loc	4 175 46 is_stmt 0              @ ../../../../Source/event_groups.c:175:46
	adds	r0, r0, #4
	.loc	4 175 13                        @ ../../../../Source/event_groups.c:175:13
	bl	vListInitialise
	ldr	r0, [sp]                        @ 4-byte Reload
.Ltmp22:
	.loc	4 182 17 is_stmt 1              @ ../../../../Source/event_groups.c:182:17
	ldr	r1, [sp, #4]
	.loc	4 182 52 is_stmt 0              @ ../../../../Source/event_groups.c:182:52
	strb	r0, [r1, #28]
.Ltmp23:
	.loc	4 187 9 is_stmt 1               @ ../../../../Source/event_groups.c:187:9
	b	.LBB1_3
.Ltmp24:
.LBB1_2:
	.loc	4 0 9 is_stmt 0                 @ ../../../../Source/event_groups.c:0:9
	b	.LBB1_3
.LBB1_3:
	.loc	4 193 16 is_stmt 1              @ ../../../../Source/event_groups.c:193:16
	ldr	r0, [sp, #4]
	.loc	4 193 9 is_stmt 0               @ ../../../../Source/event_groups.c:193:9
	add	sp, #8
	pop	{r7, pc}
.Ltmp25:
.Lfunc_end1:
	.size	xEventGroupCreate, .Lfunc_end1-xEventGroupCreate
	.cfi_endproc
	.cantunwind
	.fnend
                                        @ -- End function
	.hidden	xEventGroupSync                 @ -- Begin function xEventGroupSync
	.globl	xEventGroupSync
	.p2align	1
	.type	xEventGroupSync,%function
	.code	16                              @ @xEventGroupSync
	.thumb_func
xEventGroupSync:
.Lfunc_begin2:
	.loc	4 203 0 is_stmt 1               @ ../../../../Source/event_groups.c:203:0
	.fnstart
	.cfi_startproc
@ %bb.0:
	.save	{r7, lr}
	push	{r7, lr}
	.cfi_def_cfa_offset 8
	.cfi_offset lr, -4
	.cfi_offset r7, -8
	.pad	#40
	sub	sp, #40
	.cfi_def_cfa_offset 48
	str	r0, [sp, #36]
	str	r1, [sp, #32]
	str	r2, [sp, #28]
	str	r3, [sp, #24]
.Ltmp26:
	.loc	4 205 34 prologue_end           @ ../../../../Source/event_groups.c:205:34
	ldr	r0, [sp, #36]
	.loc	4 205 20 is_stmt 0              @ ../../../../Source/event_groups.c:205:20
	str	r0, [sp, #12]
	movs	r0, #0
	.loc	4 207 16 is_stmt 1              @ ../../../../Source/event_groups.c:207:16
	str	r0, [sp, #4]
	add	r0, sp, #28
.Ltmp27:
	.loc	4 209 5                         @ ../../../../Source/event_groups.c:209:5
	ldrb	r0, [r0, #3]
.Ltmp28:
	.loc	4 209 5 is_stmt 0               @ ../../../../Source/event_groups.c:209:5
	cbz	r0, .LBB2_3
	b	.LBB2_1
.LBB2_1:
.Ltmp29:
	.loc	4 209 5                         @ ../../../../Source/event_groups.c:209:5
	@APP
	cpsid i
	@NO_APP
	b	.LBB2_2
.LBB2_2:                                @ =>This Inner Loop Header: Depth=1
.Ltmp30:
	.loc	4 209 5                         @ ../../../../Source/event_groups.c:209:5
	b	.LBB2_2
.Ltmp31:
.LBB2_3:
	.loc	4 210 5 is_stmt 1               @ ../../../../Source/event_groups.c:210:5
	ldr	r0, [sp, #28]
.Ltmp32:
	.loc	4 210 5 is_stmt 0               @ ../../../../Source/event_groups.c:210:5
	cbnz	r0, .LBB2_6
	b	.LBB2_4
.LBB2_4:
.Ltmp33:
	.loc	4 210 5                         @ ../../../../Source/event_groups.c:210:5
	@APP
	cpsid i
	@NO_APP
	b	.LBB2_5
.LBB2_5:                                @ =>This Inner Loop Header: Depth=1
.Ltmp34:
	.loc	4 210 5                         @ ../../../../Source/event_groups.c:210:5
	b	.LBB2_5
.Ltmp35:
.LBB2_6:
	.loc	4 213 9 is_stmt 1               @ ../../../../Source/event_groups.c:213:9
	bl	xTaskGetSchedulerState
	mov	r1, r0
	movs	r0, #0
	str	r0, [sp]                        @ 4-byte Spill
	cbnz	r1, .LBB2_8
	b	.LBB2_7
.LBB2_7:
	ldr	r0, [sp, #24]
	subs	r1, r0, #1
	sbcs	r0, r1
	str	r0, [sp]                        @ 4-byte Spill
	b	.LBB2_8
.LBB2_8:
	.loc	4 0 0 is_stmt 0                 @ ../../../../Source/event_groups.c:0:0
	ldr	r0, [sp]                        @ 4-byte Reload
.Ltmp36:
	.loc	4 213 9                         @ ../../../../Source/event_groups.c:213:9
	lsls	r0, r0, #31
	cbz	r0, .LBB2_11
	b	.LBB2_9
.LBB2_9:
.Ltmp37:
	.loc	4 213 9                         @ ../../../../Source/event_groups.c:213:9
	@APP
	cpsid i
	@NO_APP
	b	.LBB2_10
.LBB2_10:                               @ =>This Inner Loop Header: Depth=1
.Ltmp38:
	.loc	4 213 9                         @ ../../../../Source/event_groups.c:213:9
	b	.LBB2_10
.Ltmp39:
.LBB2_11:
	.loc	4 217 5 is_stmt 1               @ ../../../../Source/event_groups.c:217:5
	bl	vTaskSuspendAll
.Ltmp40:
	.loc	4 219 30                        @ ../../../../Source/event_groups.c:219:30
	ldr	r0, [sp, #12]
	.loc	4 219 43 is_stmt 0              @ ../../../../Source/event_groups.c:219:43
	ldr	r0, [r0]
	.loc	4 219 28                        @ ../../../../Source/event_groups.c:219:28
	str	r0, [sp, #20]
	.loc	4 221 38 is_stmt 1              @ ../../../../Source/event_groups.c:221:38
	ldr	r0, [sp, #36]
	.loc	4 221 51 is_stmt 0              @ ../../../../Source/event_groups.c:221:51
	ldr	r1, [sp, #32]
	.loc	4 221 18                        @ ../../../../Source/event_groups.c:221:18
	bl	xEventGroupSetBits
.Ltmp41:
	.loc	4 223 17 is_stmt 1              @ ../../../../Source/event_groups.c:223:17
	ldr	r0, [sp, #20]
	.loc	4 223 38 is_stmt 0              @ ../../../../Source/event_groups.c:223:38
	ldr	r1, [sp, #32]
	.loc	4 223 36                        @ ../../../../Source/event_groups.c:223:36
	orrs	r0, r1
	.loc	4 223 54                        @ ../../../../Source/event_groups.c:223:54
	ldr	r1, [sp, #28]
	.loc	4 223 52                        @ ../../../../Source/event_groups.c:223:52
	ands	r0, r1
.Ltmp42:
	.loc	4 223 13                        @ ../../../../Source/event_groups.c:223:13
	cmp	r0, r1
	bne	.LBB2_13
	b	.LBB2_12
.LBB2_12:
.Ltmp43:
	.loc	4 226 26 is_stmt 1              @ ../../../../Source/event_groups.c:226:26
	ldr	r0, [sp, #20]
	.loc	4 226 47 is_stmt 0              @ ../../../../Source/event_groups.c:226:47
	ldr	r1, [sp, #32]
	.loc	4 226 45                        @ ../../../../Source/event_groups.c:226:45
	orrs	r0, r1
	.loc	4 226 22                        @ ../../../../Source/event_groups.c:226:22
	str	r0, [sp, #16]
	.loc	4 230 42 is_stmt 1              @ ../../../../Source/event_groups.c:230:42
	ldr	r2, [sp, #28]
	.loc	4 230 13 is_stmt 0              @ ../../../../Source/event_groups.c:230:13
	ldr	r1, [sp, #12]
	.loc	4 230 38                        @ ../../../../Source/event_groups.c:230:38
	ldr	r0, [r1]
	bics	r0, r2
	str	r0, [r1]
	movs	r0, #0
	.loc	4 232 26 is_stmt 1              @ ../../../../Source/event_groups.c:232:26
	str	r0, [sp, #24]
	.loc	4 233 9                         @ ../../../../Source/event_groups.c:233:9
	b	.LBB2_17
.Ltmp44:
.LBB2_13:
	.loc	4 236 17                        @ ../../../../Source/event_groups.c:236:17
	ldr	r0, [sp, #24]
.Ltmp45:
	.loc	4 236 17 is_stmt 0              @ ../../../../Source/event_groups.c:236:17
	cbz	r0, .LBB2_15
	b	.LBB2_14
.LBB2_14:
.Ltmp46:
	.loc	4 243 52 is_stmt 1              @ ../../../../Source/event_groups.c:243:52
	ldr	r0, [sp, #12]
	.loc	4 243 65 is_stmt 0              @ ../../../../Source/event_groups.c:243:65
	adds	r0, r0, #4
	.loc	4 243 91                        @ ../../../../Source/event_groups.c:243:91
	ldr	r1, [sp, #28]
	movs	r2, #5
	lsls	r2, r2, #24
	.loc	4 243 139                       @ ../../../../Source/event_groups.c:243:139
	orrs	r1, r2
	.loc	4 243 167                       @ ../../../../Source/event_groups.c:243:167
	ldr	r2, [sp, #24]
	.loc	4 243 17                        @ ../../../../Source/event_groups.c:243:17
	bl	vTaskPlaceOnUnorderedEventList
	movs	r0, #0
	.loc	4 249 26 is_stmt 1              @ ../../../../Source/event_groups.c:249:26
	str	r0, [sp, #16]
	.loc	4 250 13                        @ ../../../../Source/event_groups.c:250:13
	b	.LBB2_16
.Ltmp47:
.LBB2_15:
	.loc	4 255 28                        @ ../../../../Source/event_groups.c:255:28
	ldr	r0, [sp, #12]
	.loc	4 255 41 is_stmt 0              @ ../../../../Source/event_groups.c:255:41
	ldr	r0, [r0]
	.loc	4 255 26                        @ ../../../../Source/event_groups.c:255:26
	str	r0, [sp, #16]
	movs	r0, #1
	.loc	4 256 34 is_stmt 1              @ ../../../../Source/event_groups.c:256:34
	str	r0, [sp, #4]
	b	.LBB2_16
.Ltmp48:
.LBB2_16:
	.loc	4 0 34 is_stmt 0                @ ../../../../Source/event_groups.c:0:34
	b	.LBB2_17
.LBB2_17:
	.loc	4 260 23 is_stmt 1              @ ../../../../Source/event_groups.c:260:23
	bl	xTaskResumeAll
	.loc	4 260 21 is_stmt 0              @ ../../../../Source/event_groups.c:260:21
	str	r0, [sp, #8]
.Ltmp49:
	.loc	4 262 9 is_stmt 1               @ ../../../../Source/event_groups.c:262:9
	ldr	r0, [sp, #24]
.Ltmp50:
	.loc	4 262 9 is_stmt 0               @ ../../../../Source/event_groups.c:262:9
	cbz	r0, .LBB2_28
	b	.LBB2_18
.LBB2_18:
.Ltmp51:
	.loc	4 264 13 is_stmt 1              @ ../../../../Source/event_groups.c:264:13
	ldr	r0, [sp, #8]
.Ltmp52:
	.loc	4 264 13 is_stmt 0              @ ../../../../Source/event_groups.c:264:13
	cbnz	r0, .LBB2_20
	b	.LBB2_19
.LBB2_19:
.Ltmp53:
	.loc	4 266 13 is_stmt 1              @ ../../../../Source/event_groups.c:266:13
	bl	vPortYield
	.loc	4 267 9                         @ ../../../../Source/event_groups.c:267:9
	b	.LBB2_21
.Ltmp54:
.LBB2_20:
	.loc	4 0 9 is_stmt 0                 @ ../../../../Source/event_groups.c:0:9
	b	.LBB2_21
.LBB2_21:
	.loc	4 277 20 is_stmt 1              @ ../../../../Source/event_groups.c:277:20
	bl	uxTaskResetEventItemValue
	.loc	4 277 18 is_stmt 0              @ ../../../../Source/event_groups.c:277:18
	str	r0, [sp, #16]
	add	r0, sp, #16
	.loc	4 279 13 is_stmt 1              @ ../../../../Source/event_groups.c:279:13
	ldrb	r0, [r0, #3]
	lsls	r0, r0, #30
	cmp	r0, #0
	bmi	.LBB2_26
	b	.LBB2_22
.LBB2_22:
.Ltmp55:
	.loc	4 282 13                        @ ../../../../Source/event_groups.c:282:13
	bl	vPortEnterCritical
.Ltmp56:
	.loc	4 284 28                        @ ../../../../Source/event_groups.c:284:28
	ldr	r0, [sp, #12]
	.loc	4 284 41 is_stmt 0              @ ../../../../Source/event_groups.c:284:41
	ldr	r0, [r0]
	.loc	4 284 26                        @ ../../../../Source/event_groups.c:284:26
	str	r0, [sp, #16]
.Ltmp57:
	.loc	4 290 23 is_stmt 1              @ ../../../../Source/event_groups.c:290:23
	ldr	r0, [sp, #16]
	.loc	4 290 34 is_stmt 0              @ ../../../../Source/event_groups.c:290:34
	ldr	r1, [sp, #28]
	.loc	4 290 32                        @ ../../../../Source/event_groups.c:290:32
	ands	r0, r1
.Ltmp58:
	.loc	4 290 21                        @ ../../../../Source/event_groups.c:290:21
	cmp	r0, r1
	bne	.LBB2_24
	b	.LBB2_23
.LBB2_23:
.Ltmp59:
	.loc	4 292 50 is_stmt 1              @ ../../../../Source/event_groups.c:292:50
	ldr	r2, [sp, #28]
	.loc	4 292 21 is_stmt 0              @ ../../../../Source/event_groups.c:292:21
	ldr	r1, [sp, #12]
	.loc	4 292 46                        @ ../../../../Source/event_groups.c:292:46
	ldr	r0, [r1]
	bics	r0, r2
	str	r0, [r1]
	.loc	4 293 17 is_stmt 1              @ ../../../../Source/event_groups.c:293:17
	b	.LBB2_25
.Ltmp60:
.LBB2_24:
	.loc	4 0 17 is_stmt 0                @ ../../../../Source/event_groups.c:0:17
	b	.LBB2_25
.LBB2_25:
	.loc	4 299 13 is_stmt 1              @ ../../../../Source/event_groups.c:299:13
	bl	vPortExitCritical
	movs	r0, #1
	.loc	4 301 30                        @ ../../../../Source/event_groups.c:301:30
	str	r0, [sp, #4]
	.loc	4 302 9                         @ ../../../../Source/event_groups.c:302:9
	b	.LBB2_27
.Ltmp61:
.LBB2_26:
	.loc	4 0 9 is_stmt 0                 @ ../../../../Source/event_groups.c:0:9
	b	.LBB2_27
.LBB2_27:
	.loc	4 310 18 is_stmt 1              @ ../../../../Source/event_groups.c:310:18
	ldr	r0, [sp, #16]
	movw	r1, #65535
	movt	r1, #255
	ands	r0, r1
	str	r0, [sp, #16]
	.loc	4 311 5                         @ ../../../../Source/event_groups.c:311:5
	b	.LBB2_28
.Ltmp62:
.LBB2_28:
	.loc	4 318 12                        @ ../../../../Source/event_groups.c:318:12
	ldr	r0, [sp, #16]
	.loc	4 318 5 is_stmt 0               @ ../../../../Source/event_groups.c:318:5
	add	sp, #40
	pop	{r7, pc}
.Ltmp63:
.Lfunc_end2:
	.size	xEventGroupSync, .Lfunc_end2-xEventGroupSync
	.cfi_endproc
	.cantunwind
	.fnend
                                        @ -- End function
	.hidden	xEventGroupSetBits              @ -- Begin function xEventGroupSetBits
	.globl	xEventGroupSetBits
	.p2align	1
	.type	xEventGroupSetBits,%function
	.code	16                              @ @xEventGroupSetBits
	.thumb_func
xEventGroupSetBits:
.Lfunc_begin3:
	.loc	4 540 0 is_stmt 1               @ ../../../../Source/event_groups.c:540:0
	.fnstart
	.cfi_startproc
@ %bb.0:
	.save	{r7, lr}
	push	{r7, lr}
	.cfi_def_cfa_offset 8
	.cfi_offset lr, -4
	.cfi_offset r7, -8
	.pad	#48
	sub	sp, #48
	.cfi_def_cfa_offset 56
	str	r0, [sp, #44]
	str	r1, [sp, #40]
	movs	r0, #0
.Ltmp64:
	.loc	4 545 17 prologue_end           @ ../../../../Source/event_groups.c:545:17
	str	r0, [sp, #20]
	.loc	4 546 34                        @ ../../../../Source/event_groups.c:546:34
	ldr	r1, [sp, #44]
	.loc	4 546 20 is_stmt 0              @ ../../../../Source/event_groups.c:546:20
	str	r1, [sp, #8]
	.loc	4 547 16 is_stmt 1              @ ../../../../Source/event_groups.c:547:16
	str	r0, [sp, #4]
.Ltmp65:
	.loc	4 551 5                         @ ../../../../Source/event_groups.c:551:5
	ldr	r0, [sp, #44]
.Ltmp66:
	.loc	4 551 5 is_stmt 0               @ ../../../../Source/event_groups.c:551:5
	cbnz	r0, .LBB3_3
	b	.LBB3_1
.LBB3_1:
.Ltmp67:
	.loc	4 551 5                         @ ../../../../Source/event_groups.c:551:5
	@APP
	cpsid i
	@NO_APP
	b	.LBB3_2
.LBB3_2:                                @ =>This Inner Loop Header: Depth=1
.Ltmp68:
	.loc	4 551 5                         @ ../../../../Source/event_groups.c:551:5
	b	.LBB3_2
.Ltmp69:
.LBB3_3:
	.loc	4 0 5                           @ ../../../../Source/event_groups.c:0:5
	add	r0, sp, #40
.Ltmp70:
	.loc	4 552 5 is_stmt 1               @ ../../../../Source/event_groups.c:552:5
	ldrb	r0, [r0, #3]
.Ltmp71:
	.loc	4 552 5 is_stmt 0               @ ../../../../Source/event_groups.c:552:5
	cbz	r0, .LBB3_6
	b	.LBB3_4
.LBB3_4:
.Ltmp72:
	.loc	4 552 5                         @ ../../../../Source/event_groups.c:552:5
	@APP
	cpsid i
	@NO_APP
	b	.LBB3_5
.LBB3_5:                                @ =>This Inner Loop Header: Depth=1
.Ltmp73:
	.loc	4 552 5                         @ ../../../../Source/event_groups.c:552:5
	b	.LBB3_5
.Ltmp74:
.LBB3_6:
	.loc	4 554 17 is_stmt 1              @ ../../../../Source/event_groups.c:554:17
	ldr	r0, [sp, #8]
	.loc	4 554 30 is_stmt 0              @ ../../../../Source/event_groups.c:554:30
	adds	r0, r0, #4
	.loc	4 554 12                        @ ../../../../Source/event_groups.c:554:12
	str	r0, [sp, #24]
	.loc	4 555 17 is_stmt 1              @ ../../../../Source/event_groups.c:555:17
	ldr	r0, [sp, #24]
	adds	r0, #8
	.loc	4 555 15 is_stmt 0              @ ../../../../Source/event_groups.c:555:15
	str	r0, [sp, #28]
	.loc	4 556 5 is_stmt 1               @ ../../../../Source/event_groups.c:556:5
	bl	vTaskSuspendAll
.Ltmp75:
	.loc	4 560 22                        @ ../../../../Source/event_groups.c:560:22
	ldr	r0, [sp, #24]
	ldr	r0, [r0, #12]
	.loc	4 560 20 is_stmt 0              @ ../../../../Source/event_groups.c:560:20
	str	r0, [sp, #36]
	.loc	4 563 37 is_stmt 1              @ ../../../../Source/event_groups.c:563:37
	ldr	r2, [sp, #40]
	.loc	4 563 9 is_stmt 0               @ ../../../../Source/event_groups.c:563:9
	ldr	r1, [sp, #8]
	.loc	4 563 34                        @ ../../../../Source/event_groups.c:563:34
	ldr	r0, [r1]
	orrs	r0, r2
	str	r0, [r1]
	.loc	4 566 9 is_stmt 1               @ ../../../../Source/event_groups.c:566:9
	b	.LBB3_7
.LBB3_7:                                @ =>This Inner Loop Header: Depth=1
	.loc	4 566 16 is_stmt 0              @ ../../../../Source/event_groups.c:566:16
	ldr	r0, [sp, #36]
	.loc	4 566 30                        @ ../../../../Source/event_groups.c:566:30
	ldr	r1, [sp, #28]
	.loc	4 566 9                         @ ../../../../Source/event_groups.c:566:9
	cmp	r0, r1
	beq	.LBB3_23
	b	.LBB3_8
.LBB3_8:                                @   in Loop: Header=BB3_7 Depth=1
.Ltmp76:
	.loc	4 568 22 is_stmt 1              @ ../../../../Source/event_groups.c:568:22
	ldr	r0, [sp, #36]
	ldr	r0, [r0, #4]
	.loc	4 568 20 is_stmt 0              @ ../../../../Source/event_groups.c:568:20
	str	r0, [sp, #32]
	.loc	4 569 31 is_stmt 1              @ ../../../../Source/event_groups.c:569:31
	ldr	r0, [sp, #36]
	ldr	r0, [r0]
	.loc	4 569 29 is_stmt 0              @ ../../../../Source/event_groups.c:569:29
	str	r0, [sp, #16]
	movs	r0, #0
	.loc	4 570 25 is_stmt 1              @ ../../../../Source/event_groups.c:570:25
	str	r0, [sp, #4]
	add	r0, sp, #16
	.loc	4 573 29                        @ ../../../../Source/event_groups.c:573:29
	ldrb	r0, [r0, #3]
	lsls	r0, r0, #24
	.loc	4 573 27 is_stmt 0              @ ../../../../Source/event_groups.c:573:27
	str	r0, [sp, #12]
	.loc	4 574 29 is_stmt 1              @ ../../../../Source/event_groups.c:574:29
	ldr	r0, [sp, #16]
	movw	r1, #65535
	movt	r1, #255
	ands	r0, r1
	str	r0, [sp, #16]
	add	r0, sp, #12
	.loc	4 576 17                        @ ../../../../Source/event_groups.c:576:17
	ldrb	r0, [r0, #3]
	lsls	r0, r0, #29
	cmp	r0, #0
	bmi	.LBB3_13
	b	.LBB3_9
.LBB3_9:                                @   in Loop: Header=BB3_7 Depth=1
.Ltmp77:
	.loc	4 579 23                        @ ../../../../Source/event_groups.c:579:23
	ldr	r0, [sp, #16]
	.loc	4 579 41 is_stmt 0              @ ../../../../Source/event_groups.c:579:41
	ldr	r1, [sp, #8]
	.loc	4 579 54                        @ ../../../../Source/event_groups.c:579:54
	ldr	r1, [r1]
.Ltmp78:
	.loc	4 579 21                        @ ../../../../Source/event_groups.c:579:21
	tst	r0, r1
	beq	.LBB3_11
	b	.LBB3_10
.LBB3_10:                               @   in Loop: Header=BB3_7 Depth=1
	.loc	4 0 21                          @ ../../../../Source/event_groups.c:0:21
	movs	r0, #1
.Ltmp79:
	.loc	4 581 33 is_stmt 1              @ ../../../../Source/event_groups.c:581:33
	str	r0, [sp, #4]
	.loc	4 582 17                        @ ../../../../Source/event_groups.c:582:17
	b	.LBB3_12
.Ltmp80:
.LBB3_11:                               @   in Loop: Header=BB3_7 Depth=1
	.loc	4 0 17 is_stmt 0                @ ../../../../Source/event_groups.c:0:17
	b	.LBB3_12
.LBB3_12:                               @   in Loop: Header=BB3_7 Depth=1
	.loc	4 587 13 is_stmt 1              @ ../../../../Source/event_groups.c:587:13
	b	.LBB3_17
.Ltmp81:
.LBB3_13:                               @   in Loop: Header=BB3_7 Depth=1
	.loc	4 588 24                        @ ../../../../Source/event_groups.c:588:24
	ldr	r1, [sp, #16]
	.loc	4 588 42 is_stmt 0              @ ../../../../Source/event_groups.c:588:42
	ldr	r0, [sp, #8]
	.loc	4 588 55                        @ ../../../../Source/event_groups.c:588:55
	ldr	r2, [r0]
	.loc	4 588 40                        @ ../../../../Source/event_groups.c:588:40
	mov	r0, r1
	ands	r0, r2
.Ltmp82:
	.loc	4 588 22                        @ ../../../../Source/event_groups.c:588:22
	cmp	r0, r1
	bne	.LBB3_15
	b	.LBB3_14
.LBB3_14:                               @   in Loop: Header=BB3_7 Depth=1
	.loc	4 0 22                          @ ../../../../Source/event_groups.c:0:22
	movs	r0, #1
.Ltmp83:
	.loc	4 591 29 is_stmt 1              @ ../../../../Source/event_groups.c:591:29
	str	r0, [sp, #4]
	.loc	4 592 13                        @ ../../../../Source/event_groups.c:592:13
	b	.LBB3_16
.Ltmp84:
.LBB3_15:                               @   in Loop: Header=BB3_7 Depth=1
	.loc	4 0 13 is_stmt 0                @ ../../../../Source/event_groups.c:0:13
	b	.LBB3_16
.LBB3_16:                               @   in Loop: Header=BB3_7 Depth=1
	b	.LBB3_17
.LBB3_17:                               @   in Loop: Header=BB3_7 Depth=1
.Ltmp85:
	.loc	4 598 17 is_stmt 1              @ ../../../../Source/event_groups.c:598:17
	ldr	r0, [sp, #4]
.Ltmp86:
	.loc	4 598 17 is_stmt 0              @ ../../../../Source/event_groups.c:598:17
	cbz	r0, .LBB3_22
	b	.LBB3_18
.LBB3_18:                               @   in Loop: Header=BB3_7 Depth=1
	.loc	4 0 17                          @ ../../../../Source/event_groups.c:0:17
	add	r0, sp, #12
.Ltmp87:
	.loc	4 601 21 is_stmt 1              @ ../../../../Source/event_groups.c:601:21
	ldrb	r0, [r0, #3]
	lsls	r0, r0, #31
	cbz	r0, .LBB3_20
	b	.LBB3_19
.LBB3_19:                               @   in Loop: Header=BB3_7 Depth=1
.Ltmp88:
	.loc	4 603 38                        @ ../../../../Source/event_groups.c:603:38
	ldr	r1, [sp, #16]
	.loc	4 603 35 is_stmt 0              @ ../../../../Source/event_groups.c:603:35
	ldr	r0, [sp, #20]
	orrs	r0, r1
	str	r0, [sp, #20]
	.loc	4 604 17 is_stmt 1              @ ../../../../Source/event_groups.c:604:17
	b	.LBB3_21
.Ltmp89:
.LBB3_20:                               @   in Loop: Header=BB3_7 Depth=1
	.loc	4 0 17 is_stmt 0                @ ../../../../Source/event_groups.c:0:17
	b	.LBB3_21
.LBB3_21:                               @   in Loop: Header=BB3_7 Depth=1
	.loc	4 615 52 is_stmt 1              @ ../../../../Source/event_groups.c:615:52
	ldr	r0, [sp, #36]
	.loc	4 615 64 is_stmt 0              @ ../../../../Source/event_groups.c:615:64
	ldr	r1, [sp, #8]
	.loc	4 615 77                        @ ../../../../Source/event_groups.c:615:77
	ldr	r1, [r1]
	movs	r2, #1
	lsls	r2, r2, #25
	.loc	4 615 89                        @ ../../../../Source/event_groups.c:615:89
	orrs	r1, r2
	.loc	4 615 17                        @ ../../../../Source/event_groups.c:615:17
	bl	vTaskRemoveFromUnorderedEventList
	.loc	4 616 13 is_stmt 1              @ ../../../../Source/event_groups.c:616:13
	b	.LBB3_22
.Ltmp90:
.LBB3_22:                               @   in Loop: Header=BB3_7 Depth=1
	.loc	4 621 26                        @ ../../../../Source/event_groups.c:621:26
	ldr	r0, [sp, #32]
	.loc	4 621 24 is_stmt 0              @ ../../../../Source/event_groups.c:621:24
	str	r0, [sp, #36]
.Ltmp91:
	.loc	4 566 9 is_stmt 1               @ ../../../../Source/event_groups.c:566:9
	b	.LBB3_7
.LBB3_23:
	.loc	4 626 38                        @ ../../../../Source/event_groups.c:626:38
	ldr	r2, [sp, #20]
	.loc	4 626 9 is_stmt 0               @ ../../../../Source/event_groups.c:626:9
	ldr	r1, [sp, #8]
	.loc	4 626 34                        @ ../../../../Source/event_groups.c:626:34
	ldr	r0, [r1]
	bics	r0, r2
	str	r0, [r1]
.Ltmp92:
	.loc	4 628 14 is_stmt 1              @ ../../../../Source/event_groups.c:628:14
	bl	xTaskResumeAll
	.loc	4 630 12                        @ ../../../../Source/event_groups.c:630:12
	ldr	r0, [sp, #8]
	.loc	4 630 25 is_stmt 0              @ ../../../../Source/event_groups.c:630:25
	ldr	r0, [r0]
	.loc	4 630 5                         @ ../../../../Source/event_groups.c:630:5
	add	sp, #48
	pop	{r7, pc}
.Ltmp93:
.Lfunc_end3:
	.size	xEventGroupSetBits, .Lfunc_end3-xEventGroupSetBits
	.cfi_endproc
	.cantunwind
	.fnend
                                        @ -- End function
	.hidden	xEventGroupWaitBits             @ -- Begin function xEventGroupWaitBits
	.globl	xEventGroupWaitBits
	.p2align	1
	.type	xEventGroupWaitBits,%function
	.code	16                              @ @xEventGroupWaitBits
	.thumb_func
xEventGroupWaitBits:
.Lfunc_begin4:
	.loc	4 327 0 is_stmt 1               @ ../../../../Source/event_groups.c:327:0
	.fnstart
	.cfi_startproc
@ %bb.0:
	.save	{r4, lr}
	push	{r4, lr}
	.cfi_def_cfa_offset 8
	.cfi_offset lr, -4
	.cfi_offset r4, -8
	.pad	#48
	sub	sp, #48
	.cfi_def_cfa_offset 56
	ldr	r4, [sp, #56]
	str	r0, [sp, #44]
	str	r1, [sp, #40]
	str	r2, [sp, #36]
	str	r3, [sp, #32]
.Ltmp94:
	.loc	4 328 34 prologue_end           @ ../../../../Source/event_groups.c:328:34
	ldr	r0, [sp, #44]
	.loc	4 328 20 is_stmt 0              @ ../../../../Source/event_groups.c:328:20
	str	r0, [sp, #28]
	movs	r0, #0
	.loc	4 329 27 is_stmt 1              @ ../../../../Source/event_groups.c:329:27
	str	r0, [sp, #20]
	.loc	4 331 16                        @ ../../../../Source/event_groups.c:331:16
	str	r0, [sp, #8]
.Ltmp95:
	.loc	4 335 5                         @ ../../../../Source/event_groups.c:335:5
	ldr	r0, [sp, #44]
.Ltmp96:
	.loc	4 335 5 is_stmt 0               @ ../../../../Source/event_groups.c:335:5
	cbnz	r0, .LBB4_3
	b	.LBB4_1
.LBB4_1:
.Ltmp97:
	.loc	4 335 5                         @ ../../../../Source/event_groups.c:335:5
	@APP
	cpsid i
	@NO_APP
	b	.LBB4_2
.LBB4_2:                                @ =>This Inner Loop Header: Depth=1
.Ltmp98:
	.loc	4 335 5                         @ ../../../../Source/event_groups.c:335:5
	b	.LBB4_2
.Ltmp99:
.LBB4_3:
	.loc	4 0 5                           @ ../../../../Source/event_groups.c:0:5
	add	r0, sp, #40
.Ltmp100:
	.loc	4 336 5 is_stmt 1               @ ../../../../Source/event_groups.c:336:5
	ldrb	r0, [r0, #3]
.Ltmp101:
	.loc	4 336 5 is_stmt 0               @ ../../../../Source/event_groups.c:336:5
	cbz	r0, .LBB4_6
	b	.LBB4_4
.LBB4_4:
.Ltmp102:
	.loc	4 336 5                         @ ../../../../Source/event_groups.c:336:5
	@APP
	cpsid i
	@NO_APP
	b	.LBB4_5
.LBB4_5:                                @ =>This Inner Loop Header: Depth=1
.Ltmp103:
	.loc	4 336 5                         @ ../../../../Source/event_groups.c:336:5
	b	.LBB4_5
.Ltmp104:
.LBB4_6:
	.loc	4 337 5 is_stmt 1               @ ../../../../Source/event_groups.c:337:5
	ldr	r0, [sp, #40]
.Ltmp105:
	.loc	4 337 5 is_stmt 0               @ ../../../../Source/event_groups.c:337:5
	cbnz	r0, .LBB4_9
	b	.LBB4_7
.LBB4_7:
.Ltmp106:
	.loc	4 337 5                         @ ../../../../Source/event_groups.c:337:5
	@APP
	cpsid i
	@NO_APP
	b	.LBB4_8
.LBB4_8:                                @ =>This Inner Loop Header: Depth=1
.Ltmp107:
	.loc	4 337 5                         @ ../../../../Source/event_groups.c:337:5
	b	.LBB4_8
.Ltmp108:
.LBB4_9:
	.loc	4 340 9 is_stmt 1               @ ../../../../Source/event_groups.c:340:9
	bl	xTaskGetSchedulerState
	mov	r1, r0
	movs	r0, #0
	str	r0, [sp]                        @ 4-byte Spill
	cbnz	r1, .LBB4_11
	b	.LBB4_10
.LBB4_10:
	ldr	r0, [sp, #56]
	subs	r1, r0, #1
	sbcs	r0, r1
	str	r0, [sp]                        @ 4-byte Spill
	b	.LBB4_11
.LBB4_11:
	.loc	4 0 0 is_stmt 0                 @ ../../../../Source/event_groups.c:0:0
	ldr	r0, [sp]                        @ 4-byte Reload
.Ltmp109:
	.loc	4 340 9                         @ ../../../../Source/event_groups.c:340:9
	lsls	r0, r0, #31
	cbz	r0, .LBB4_14
	b	.LBB4_12
.LBB4_12:
.Ltmp110:
	.loc	4 340 9                         @ ../../../../Source/event_groups.c:340:9
	@APP
	cpsid i
	@NO_APP
	b	.LBB4_13
.LBB4_13:                               @ =>This Inner Loop Header: Depth=1
.Ltmp111:
	.loc	4 340 9                         @ ../../../../Source/event_groups.c:340:9
	b	.LBB4_13
.Ltmp112:
.LBB4_14:
	.loc	4 344 5 is_stmt 1               @ ../../../../Source/event_groups.c:344:5
	bl	vTaskSuspendAll
.Ltmp113:
	.loc	4 346 48                        @ ../../../../Source/event_groups.c:346:48
	ldr	r0, [sp, #28]
	.loc	4 346 61 is_stmt 0              @ ../../../../Source/event_groups.c:346:61
	ldr	r0, [r0]
	.loc	4 346 27                        @ ../../../../Source/event_groups.c:346:27
	str	r0, [sp, #4]
	.loc	4 349 51 is_stmt 1              @ ../../../../Source/event_groups.c:349:51
	ldr	r0, [sp, #4]
	.loc	4 349 71 is_stmt 0              @ ../../../../Source/event_groups.c:349:71
	ldr	r1, [sp, #40]
	.loc	4 349 88                        @ ../../../../Source/event_groups.c:349:88
	ldr	r2, [sp, #32]
	.loc	4 349 29                        @ ../../../../Source/event_groups.c:349:29
	bl	prvTestWaitCondition
	.loc	4 349 27                        @ ../../../../Source/event_groups.c:349:27
	str	r0, [sp, #16]
.Ltmp114:
	.loc	4 351 13 is_stmt 1              @ ../../../../Source/event_groups.c:351:13
	ldr	r0, [sp, #16]
.Ltmp115:
	.loc	4 351 13 is_stmt 0              @ ../../../../Source/event_groups.c:351:13
	cbz	r0, .LBB4_19
	b	.LBB4_15
.LBB4_15:
.Ltmp116:
	.loc	4 355 24 is_stmt 1              @ ../../../../Source/event_groups.c:355:24
	ldr	r0, [sp, #4]
	.loc	4 355 22 is_stmt 0              @ ../../../../Source/event_groups.c:355:22
	str	r0, [sp, #24]
	movs	r0, #0
	.loc	4 356 26 is_stmt 1              @ ../../../../Source/event_groups.c:356:26
	str	r0, [sp, #56]
.Ltmp117:
	.loc	4 359 17                        @ ../../../../Source/event_groups.c:359:17
	ldr	r0, [sp, #36]
.Ltmp118:
	.loc	4 359 17 is_stmt 0              @ ../../../../Source/event_groups.c:359:17
	cbz	r0, .LBB4_17
	b	.LBB4_16
.LBB4_16:
.Ltmp119:
	.loc	4 361 46 is_stmt 1              @ ../../../../Source/event_groups.c:361:46
	ldr	r2, [sp, #40]
	.loc	4 361 17 is_stmt 0              @ ../../../../Source/event_groups.c:361:17
	ldr	r1, [sp, #28]
	.loc	4 361 42                        @ ../../../../Source/event_groups.c:361:42
	ldr	r0, [r1]
	bics	r0, r2
	str	r0, [r1]
	.loc	4 362 13 is_stmt 1              @ ../../../../Source/event_groups.c:362:13
	b	.LBB4_18
.Ltmp120:
.LBB4_17:
	.loc	4 0 13 is_stmt 0                @ ../../../../Source/event_groups.c:0:13
	b	.LBB4_18
.LBB4_18:
	.loc	4 367 9 is_stmt 1               @ ../../../../Source/event_groups.c:367:9
	b	.LBB4_29
.Ltmp121:
.LBB4_19:
	.loc	4 368 18                        @ ../../../../Source/event_groups.c:368:18
	ldr	r0, [sp, #56]
.Ltmp122:
	.loc	4 368 18 is_stmt 0              @ ../../../../Source/event_groups.c:368:18
	cbnz	r0, .LBB4_21
	b	.LBB4_20
.LBB4_20:
.Ltmp123:
	.loc	4 372 24 is_stmt 1              @ ../../../../Source/event_groups.c:372:24
	ldr	r0, [sp, #4]
	.loc	4 372 22 is_stmt 0              @ ../../../../Source/event_groups.c:372:22
	str	r0, [sp, #24]
	movs	r0, #1
	.loc	4 373 30 is_stmt 1              @ ../../../../Source/event_groups.c:373:30
	str	r0, [sp, #8]
	.loc	4 374 9                         @ ../../../../Source/event_groups.c:374:9
	b	.LBB4_28
.Ltmp124:
.LBB4_21:
	.loc	4 381 17                        @ ../../../../Source/event_groups.c:381:17
	ldr	r0, [sp, #36]
.Ltmp125:
	.loc	4 381 17 is_stmt 0              @ ../../../../Source/event_groups.c:381:17
	cbz	r0, .LBB4_23
	b	.LBB4_22
.LBB4_22:
.Ltmp126:
	.loc	4 383 31 is_stmt 1              @ ../../../../Source/event_groups.c:383:31
	ldr	r0, [sp, #20]
	movs	r1, #1
	lsls	r1, r1, #24
	orrs	r0, r1
	str	r0, [sp, #20]
	.loc	4 384 13                        @ ../../../../Source/event_groups.c:384:13
	b	.LBB4_24
.Ltmp127:
.LBB4_23:
	.loc	4 0 13 is_stmt 0                @ ../../../../Source/event_groups.c:0:13
	b	.LBB4_24
.LBB4_24:
.Ltmp128:
	.loc	4 390 17 is_stmt 1              @ ../../../../Source/event_groups.c:390:17
	ldr	r0, [sp, #32]
.Ltmp129:
	.loc	4 390 17 is_stmt 0              @ ../../../../Source/event_groups.c:390:17
	cbz	r0, .LBB4_26
	b	.LBB4_25
.LBB4_25:
.Ltmp130:
	.loc	4 392 31 is_stmt 1              @ ../../../../Source/event_groups.c:392:31
	ldr	r0, [sp, #20]
	movs	r1, #1
	lsls	r1, r1, #26
	orrs	r0, r1
	str	r0, [sp, #20]
	.loc	4 393 13                        @ ../../../../Source/event_groups.c:393:13
	b	.LBB4_27
.Ltmp131:
.LBB4_26:
	.loc	4 0 13 is_stmt 0                @ ../../../../Source/event_groups.c:0:13
	b	.LBB4_27
.LBB4_27:
	.loc	4 402 48 is_stmt 1              @ ../../../../Source/event_groups.c:402:48
	ldr	r0, [sp, #28]
	.loc	4 402 61 is_stmt 0              @ ../../../../Source/event_groups.c:402:61
	adds	r0, r0, #4
	.loc	4 402 87                        @ ../../../../Source/event_groups.c:402:87
	ldr	r1, [sp, #40]
	.loc	4 402 105                       @ ../../../../Source/event_groups.c:402:105
	ldr	r2, [sp, #20]
	.loc	4 402 103                       @ ../../../../Source/event_groups.c:402:103
	orrs	r1, r2
	.loc	4 402 122                       @ ../../../../Source/event_groups.c:402:122
	ldr	r2, [sp, #56]
	.loc	4 402 13                        @ ../../../../Source/event_groups.c:402:13
	bl	vTaskPlaceOnUnorderedEventList
	movs	r0, #0
	.loc	4 407 22 is_stmt 1              @ ../../../../Source/event_groups.c:407:22
	str	r0, [sp, #24]
	b	.LBB4_28
.Ltmp132:
.LBB4_28:
	.loc	4 0 22 is_stmt 0                @ ../../../../Source/event_groups.c:0:22
	b	.LBB4_29
.LBB4_29:
	.loc	4 412 23 is_stmt 1              @ ../../../../Source/event_groups.c:412:23
	bl	xTaskResumeAll
	.loc	4 412 21 is_stmt 0              @ ../../../../Source/event_groups.c:412:21
	str	r0, [sp, #12]
.Ltmp133:
	.loc	4 414 9 is_stmt 1               @ ../../../../Source/event_groups.c:414:9
	ldr	r0, [sp, #56]
.Ltmp134:
	.loc	4 414 9 is_stmt 0               @ ../../../../Source/event_groups.c:414:9
	cbz	r0, .LBB4_43
	b	.LBB4_30
.LBB4_30:
.Ltmp135:
	.loc	4 416 13 is_stmt 1              @ ../../../../Source/event_groups.c:416:13
	ldr	r0, [sp, #12]
.Ltmp136:
	.loc	4 416 13 is_stmt 0              @ ../../../../Source/event_groups.c:416:13
	cbnz	r0, .LBB4_32
	b	.LBB4_31
.LBB4_31:
.Ltmp137:
	.loc	4 418 13 is_stmt 1              @ ../../../../Source/event_groups.c:418:13
	bl	vPortYield
	.loc	4 419 9                         @ ../../../../Source/event_groups.c:419:9
	b	.LBB4_33
.Ltmp138:
.LBB4_32:
	.loc	4 0 9 is_stmt 0                 @ ../../../../Source/event_groups.c:0:9
	b	.LBB4_33
.LBB4_33:
	.loc	4 429 20 is_stmt 1              @ ../../../../Source/event_groups.c:429:20
	bl	uxTaskResetEventItemValue
	.loc	4 429 18 is_stmt 0              @ ../../../../Source/event_groups.c:429:18
	str	r0, [sp, #24]
	add	r0, sp, #24
	.loc	4 431 13 is_stmt 1              @ ../../../../Source/event_groups.c:431:13
	ldrb	r0, [r0, #3]
	lsls	r0, r0, #30
	cmp	r0, #0
	bmi	.LBB4_41
	b	.LBB4_34
.LBB4_34:
.Ltmp139:
	.loc	4 433 13                        @ ../../../../Source/event_groups.c:433:13
	bl	vPortEnterCritical
.Ltmp140:
	.loc	4 436 28                        @ ../../../../Source/event_groups.c:436:28
	ldr	r0, [sp, #28]
	.loc	4 436 41 is_stmt 0              @ ../../../../Source/event_groups.c:436:41
	ldr	r0, [r0]
	.loc	4 436 26                        @ ../../../../Source/event_groups.c:436:26
	str	r0, [sp, #24]
.Ltmp141:
	.loc	4 440 43 is_stmt 1              @ ../../../../Source/event_groups.c:440:43
	ldr	r0, [sp, #24]
	.loc	4 440 53 is_stmt 0              @ ../../../../Source/event_groups.c:440:53
	ldr	r1, [sp, #40]
	.loc	4 440 70                        @ ../../../../Source/event_groups.c:440:70
	ldr	r2, [sp, #32]
	.loc	4 440 21                        @ ../../../../Source/event_groups.c:440:21
	bl	prvTestWaitCondition
.Ltmp142:
	.loc	4 440 21                        @ ../../../../Source/event_groups.c:440:21
	cbz	r0, .LBB4_39
	b	.LBB4_35
.LBB4_35:
.Ltmp143:
	.loc	4 442 25 is_stmt 1              @ ../../../../Source/event_groups.c:442:25
	ldr	r0, [sp, #36]
.Ltmp144:
	.loc	4 442 25 is_stmt 0              @ ../../../../Source/event_groups.c:442:25
	cbz	r0, .LBB4_37
	b	.LBB4_36
.LBB4_36:
.Ltmp145:
	.loc	4 444 54 is_stmt 1              @ ../../../../Source/event_groups.c:444:54
	ldr	r2, [sp, #40]
	.loc	4 444 25 is_stmt 0              @ ../../../../Source/event_groups.c:444:25
	ldr	r1, [sp, #28]
	.loc	4 444 50                        @ ../../../../Source/event_groups.c:444:50
	ldr	r0, [r1]
	bics	r0, r2
	str	r0, [r1]
	.loc	4 445 21 is_stmt 1              @ ../../../../Source/event_groups.c:445:21
	b	.LBB4_38
.Ltmp146:
.LBB4_37:
	.loc	4 0 21 is_stmt 0                @ ../../../../Source/event_groups.c:0:21
	b	.LBB4_38
.LBB4_38:
	.loc	4 450 17 is_stmt 1              @ ../../../../Source/event_groups.c:450:17
	b	.LBB4_40
.Ltmp147:
.LBB4_39:
	.loc	4 0 17 is_stmt 0                @ ../../../../Source/event_groups.c:0:17
	b	.LBB4_40
.LBB4_40:
	movs	r0, #1
	.loc	4 456 34 is_stmt 1              @ ../../../../Source/event_groups.c:456:34
	str	r0, [sp, #8]
.Ltmp148:
	.loc	4 458 13                        @ ../../../../Source/event_groups.c:458:13
	bl	vPortExitCritical
	.loc	4 459 9                         @ ../../../../Source/event_groups.c:459:9
	b	.LBB4_42
.Ltmp149:
.LBB4_41:
	.loc	4 0 9 is_stmt 0                 @ ../../../../Source/event_groups.c:0:9
	b	.LBB4_42
.LBB4_42:
	.loc	4 466 18 is_stmt 1              @ ../../../../Source/event_groups.c:466:18
	ldr	r0, [sp, #24]
	movw	r1, #65535
	movt	r1, #255
	ands	r0, r1
	str	r0, [sp, #24]
	.loc	4 467 5                         @ ../../../../Source/event_groups.c:467:5
	b	.LBB4_43
.Ltmp150:
.LBB4_43:
	.loc	4 474 12                        @ ../../../../Source/event_groups.c:474:12
	ldr	r0, [sp, #24]
	.loc	4 474 5 is_stmt 0               @ ../../../../Source/event_groups.c:474:5
	add	sp, #48
	pop	{r4, pc}
.Ltmp151:
.Lfunc_end4:
	.size	xEventGroupWaitBits, .Lfunc_end4-xEventGroupWaitBits
	.cfi_endproc
	.cantunwind
	.fnend
                                        @ -- End function
	.p2align	1                               @ -- Begin function prvTestWaitCondition
	.type	prvTestWaitCondition,%function
	.code	16                              @ @prvTestWaitCondition
	.thumb_func
prvTestWaitCondition:
.Lfunc_begin5:
	.loc	4 737 0 is_stmt 1               @ ../../../../Source/event_groups.c:737:0
	.fnstart
	.cfi_startproc
@ %bb.0:
	.pad	#16
	sub	sp, #16
	.cfi_def_cfa_offset 16
	str	r0, [sp, #12]
	str	r1, [sp, #8]
	str	r2, [sp, #4]
	movs	r0, #0
.Ltmp152:
	.loc	4 738 16 prologue_end           @ ../../../../Source/event_groups.c:738:16
	str	r0, [sp]
.Ltmp153:
	.loc	4 740 9                         @ ../../../../Source/event_groups.c:740:9
	ldr	r0, [sp, #4]
.Ltmp154:
	.loc	4 740 9 is_stmt 0               @ ../../../../Source/event_groups.c:740:9
	cbnz	r0, .LBB5_5
	b	.LBB5_1
.LBB5_1:
.Ltmp155:
	.loc	4 744 15 is_stmt 1              @ ../../../../Source/event_groups.c:744:15
	ldr	r0, [sp, #12]
	.loc	4 744 36 is_stmt 0              @ ../../../../Source/event_groups.c:744:36
	ldr	r1, [sp, #8]
.Ltmp156:
	.loc	4 744 13                        @ ../../../../Source/event_groups.c:744:13
	tst	r0, r1
	beq	.LBB5_3
	b	.LBB5_2
.LBB5_2:
	.loc	4 0 13                          @ ../../../../Source/event_groups.c:0:13
	movs	r0, #1
.Ltmp157:
	.loc	4 746 31 is_stmt 1              @ ../../../../Source/event_groups.c:746:31
	str	r0, [sp]
	.loc	4 747 9                         @ ../../../../Source/event_groups.c:747:9
	b	.LBB5_4
.Ltmp158:
.LBB5_3:
	.loc	4 0 9 is_stmt 0                 @ ../../../../Source/event_groups.c:0:9
	b	.LBB5_4
.LBB5_4:
	.loc	4 752 5 is_stmt 1               @ ../../../../Source/event_groups.c:752:5
	b	.LBB5_9
.Ltmp159:
.LBB5_5:
	.loc	4 757 15                        @ ../../../../Source/event_groups.c:757:15
	ldr	r0, [sp, #12]
	.loc	4 757 36 is_stmt 0              @ ../../../../Source/event_groups.c:757:36
	ldr	r1, [sp, #8]
	.loc	4 757 34                        @ ../../../../Source/event_groups.c:757:34
	ands	r0, r1
.Ltmp160:
	.loc	4 757 13                        @ ../../../../Source/event_groups.c:757:13
	cmp	r0, r1
	bne	.LBB5_7
	b	.LBB5_6
.LBB5_6:
	.loc	4 0 13                          @ ../../../../Source/event_groups.c:0:13
	movs	r0, #1
.Ltmp161:
	.loc	4 759 31 is_stmt 1              @ ../../../../Source/event_groups.c:759:31
	str	r0, [sp]
	.loc	4 760 9                         @ ../../../../Source/event_groups.c:760:9
	b	.LBB5_8
.Ltmp162:
.LBB5_7:
	.loc	4 0 9 is_stmt 0                 @ ../../../../Source/event_groups.c:0:9
	b	.LBB5_8
.LBB5_8:
	b	.LBB5_9
.LBB5_9:
	.loc	4 767 12 is_stmt 1              @ ../../../../Source/event_groups.c:767:12
	ldr	r0, [sp]
	.loc	4 767 5 is_stmt 0               @ ../../../../Source/event_groups.c:767:5
	add	sp, #16
	bx	lr
.Ltmp163:
.Lfunc_end5:
	.size	prvTestWaitCondition, .Lfunc_end5-prvTestWaitCondition
	.cfi_endproc
	.cantunwind
	.fnend
                                        @ -- End function
	.hidden	xEventGroupClearBits            @ -- Begin function xEventGroupClearBits
	.globl	xEventGroupClearBits
	.p2align	1
	.type	xEventGroupClearBits,%function
	.code	16                              @ @xEventGroupClearBits
	.thumb_func
xEventGroupClearBits:
.Lfunc_begin6:
	.loc	4 480 0 is_stmt 1               @ ../../../../Source/event_groups.c:480:0
	.fnstart
	.cfi_startproc
@ %bb.0:
	.save	{r7, lr}
	push	{r7, lr}
	.cfi_def_cfa_offset 8
	.cfi_offset lr, -4
	.cfi_offset r7, -8
	.pad	#16
	sub	sp, #16
	.cfi_def_cfa_offset 24
	str	r0, [sp, #12]
	str	r1, [sp, #8]
.Ltmp164:
	.loc	4 481 34 prologue_end           @ ../../../../Source/event_groups.c:481:34
	ldr	r0, [sp, #12]
	.loc	4 481 20 is_stmt 0              @ ../../../../Source/event_groups.c:481:20
	str	r0, [sp, #4]
.Ltmp165:
	.loc	4 486 5 is_stmt 1               @ ../../../../Source/event_groups.c:486:5
	ldr	r0, [sp, #12]
.Ltmp166:
	.loc	4 486 5 is_stmt 0               @ ../../../../Source/event_groups.c:486:5
	cbnz	r0, .LBB6_3
	b	.LBB6_1
.LBB6_1:
.Ltmp167:
	.loc	4 486 5                         @ ../../../../Source/event_groups.c:486:5
	@APP
	cpsid i
	@NO_APP
	b	.LBB6_2
.LBB6_2:                                @ =>This Inner Loop Header: Depth=1
.Ltmp168:
	.loc	4 486 5                         @ ../../../../Source/event_groups.c:486:5
	b	.LBB6_2
.Ltmp169:
.LBB6_3:
	.loc	4 0 5                           @ ../../../../Source/event_groups.c:0:5
	add	r0, sp, #8
.Ltmp170:
	.loc	4 487 5 is_stmt 1               @ ../../../../Source/event_groups.c:487:5
	ldrb	r0, [r0, #3]
.Ltmp171:
	.loc	4 487 5 is_stmt 0               @ ../../../../Source/event_groups.c:487:5
	cbz	r0, .LBB6_6
	b	.LBB6_4
.LBB6_4:
.Ltmp172:
	.loc	4 487 5                         @ ../../../../Source/event_groups.c:487:5
	@APP
	cpsid i
	@NO_APP
	b	.LBB6_5
.LBB6_5:                                @ =>This Inner Loop Header: Depth=1
.Ltmp173:
	.loc	4 487 5                         @ ../../../../Source/event_groups.c:487:5
	b	.LBB6_5
.Ltmp174:
.LBB6_6:
	.loc	4 489 5 is_stmt 1               @ ../../../../Source/event_groups.c:489:5
	bl	vPortEnterCritical
.Ltmp175:
	.loc	4 495 20                        @ ../../../../Source/event_groups.c:495:20
	ldr	r0, [sp, #4]
	.loc	4 495 33 is_stmt 0              @ ../../../../Source/event_groups.c:495:33
	ldr	r0, [r0]
	.loc	4 495 18                        @ ../../../../Source/event_groups.c:495:18
	str	r0, [sp]
	.loc	4 498 38 is_stmt 1              @ ../../../../Source/event_groups.c:498:38
	ldr	r2, [sp, #8]
	.loc	4 498 9 is_stmt 0               @ ../../../../Source/event_groups.c:498:9
	ldr	r1, [sp, #4]
	.loc	4 498 34                        @ ../../../../Source/event_groups.c:498:34
	ldr	r0, [r1]
	bics	r0, r2
	str	r0, [r1]
.Ltmp176:
	.loc	4 500 5 is_stmt 1               @ ../../../../Source/event_groups.c:500:5
	bl	vPortExitCritical
	.loc	4 502 12                        @ ../../../../Source/event_groups.c:502:12
	ldr	r0, [sp]
	.loc	4 502 5 is_stmt 0               @ ../../../../Source/event_groups.c:502:5
	add	sp, #16
	pop	{r7, pc}
.Ltmp177:
.Lfunc_end6:
	.size	xEventGroupClearBits, .Lfunc_end6-xEventGroupClearBits
	.cfi_endproc
	.cantunwind
	.fnend
                                        @ -- End function
	.hidden	xEventGroupClearBitsFromISR     @ -- Begin function xEventGroupClearBitsFromISR
	.globl	xEventGroupClearBitsFromISR
	.p2align	1
	.type	xEventGroupClearBitsFromISR,%function
	.code	16                              @ @xEventGroupClearBitsFromISR
	.thumb_func
xEventGroupClearBitsFromISR:
.Lfunc_begin7:
	.loc	4 510 0 is_stmt 1               @ ../../../../Source/event_groups.c:510:0
	.fnstart
	.cfi_startproc
@ %bb.0:
	.save	{r7, lr}
	push	{r7, lr}
	.cfi_def_cfa_offset 8
	.cfi_offset lr, -4
	.cfi_offset r7, -8
	.pad	#16
	sub	sp, #16
	.cfi_def_cfa_offset 24
	str	r0, [sp, #12]
	str	r1, [sp, #8]
.Ltmp178:
	.loc	4 514 91 prologue_end           @ ../../../../Source/event_groups.c:514:91
	ldr	r1, [sp, #12]
	.loc	4 514 117 is_stmt 0             @ ../../../../Source/event_groups.c:514:117
	ldr	r2, [sp, #8]
	.loc	4 514 19                        @ ../../../../Source/event_groups.c:514:19
	movw	r0, :lower16:vEventGroupClearBitsCallback
	movt	r0, :upper16:vEventGroupClearBitsCallback
	movs	r3, #0
	bl	xTimerPendFunctionCallFromISR
	.loc	4 514 17                        @ ../../../../Source/event_groups.c:514:17
	str	r0, [sp, #4]
	.loc	4 516 16 is_stmt 1              @ ../../../../Source/event_groups.c:516:16
	ldr	r0, [sp, #4]
	.loc	4 516 9 is_stmt 0               @ ../../../../Source/event_groups.c:516:9
	add	sp, #16
	pop	{r7, pc}
.Ltmp179:
.Lfunc_end7:
	.size	xEventGroupClearBitsFromISR, .Lfunc_end7-xEventGroupClearBitsFromISR
	.cfi_endproc
	.cantunwind
	.fnend
                                        @ -- End function
	.hidden	vEventGroupClearBitsCallback    @ -- Begin function vEventGroupClearBitsCallback
	.globl	vEventGroupClearBitsCallback
	.p2align	1
	.type	vEventGroupClearBitsCallback,%function
	.code	16                              @ @vEventGroupClearBitsCallback
	.thumb_func
vEventGroupClearBitsCallback:
.Lfunc_begin8:
	.loc	4 729 0 is_stmt 1               @ ../../../../Source/event_groups.c:729:0
	.fnstart
	.cfi_startproc
@ %bb.0:
	.save	{r7, lr}
	push	{r7, lr}
	.cfi_def_cfa_offset 8
	.cfi_offset lr, -4
	.cfi_offset r7, -8
	.pad	#8
	sub	sp, #8
	.cfi_def_cfa_offset 16
	str	r0, [sp, #4]
	str	r1, [sp]
.Ltmp180:
	.loc	4 730 36 prologue_end           @ ../../../../Source/event_groups.c:730:36
	ldr	r0, [sp, #4]
	.loc	4 730 66 is_stmt 0              @ ../../../../Source/event_groups.c:730:66
	ldr	r1, [sp]
	.loc	4 730 14                        @ ../../../../Source/event_groups.c:730:14
	bl	xEventGroupClearBits
	.loc	4 731 1 is_stmt 1               @ ../../../../Source/event_groups.c:731:1
	add	sp, #8
	pop	{r7, pc}
.Ltmp181:
.Lfunc_end8:
	.size	vEventGroupClearBitsCallback, .Lfunc_end8-vEventGroupClearBitsCallback
	.cfi_endproc
	.cantunwind
	.fnend
                                        @ -- End function
	.hidden	xEventGroupGetBitsFromISR       @ -- Begin function xEventGroupGetBitsFromISR
	.globl	xEventGroupGetBitsFromISR
	.p2align	1
	.type	xEventGroupGetBitsFromISR,%function
	.code	16                              @ @xEventGroupGetBitsFromISR
	.thumb_func
xEventGroupGetBitsFromISR:
.Lfunc_begin9:
	.loc	4 523 0                         @ ../../../../Source/event_groups.c:523:0
	.fnstart
	.cfi_startproc
@ %bb.0:
	.save	{r7, lr}
	push	{r7, lr}
	.cfi_def_cfa_offset 8
	.cfi_offset lr, -4
	.cfi_offset r7, -8
	.pad	#16
	sub	sp, #16
	.cfi_def_cfa_offset 24
	str	r0, [sp, #12]
.Ltmp182:
	.loc	4 525 46 prologue_end           @ ../../../../Source/event_groups.c:525:46
	ldr	r0, [sp, #12]
	.loc	4 525 32 is_stmt 0              @ ../../../../Source/event_groups.c:525:32
	str	r0, [sp, #4]
	.loc	4 528 29 is_stmt 1              @ ../../../../Source/event_groups.c:528:29
	bl	ulSetInterruptMask
	.loc	4 528 27 is_stmt 0              @ ../../../../Source/event_groups.c:528:27
	str	r0, [sp, #8]
.Ltmp183:
	.loc	4 530 20 is_stmt 1              @ ../../../../Source/event_groups.c:530:20
	ldr	r0, [sp, #4]
	.loc	4 530 33 is_stmt 0              @ ../../../../Source/event_groups.c:530:33
	ldr	r0, [r0]
	.loc	4 530 18                        @ ../../../../Source/event_groups.c:530:18
	str	r0, [sp]
.Ltmp184:
	.loc	4 532 5 is_stmt 1               @ ../../../../Source/event_groups.c:532:5
	ldr	r0, [sp, #8]
	bl	vClearInterruptMask
	.loc	4 534 12                        @ ../../../../Source/event_groups.c:534:12
	ldr	r0, [sp]
	.loc	4 534 5 is_stmt 0               @ ../../../../Source/event_groups.c:534:5
	add	sp, #16
	pop	{r7, pc}
.Ltmp185:
.Lfunc_end9:
	.size	xEventGroupGetBitsFromISR, .Lfunc_end9-xEventGroupGetBitsFromISR
	.cfi_endproc
	.cantunwind
	.fnend
                                        @ -- End function
	.hidden	vEventGroupDelete               @ -- Begin function vEventGroupDelete
	.globl	vEventGroupDelete
	.p2align	1
	.type	vEventGroupDelete,%function
	.code	16                              @ @vEventGroupDelete
	.thumb_func
vEventGroupDelete:
.Lfunc_begin10:
	.loc	4 635 0 is_stmt 1               @ ../../../../Source/event_groups.c:635:0
	.fnstart
	.cfi_startproc
@ %bb.0:
	.save	{r7, lr}
	push	{r7, lr}
	.cfi_def_cfa_offset 8
	.cfi_offset lr, -4
	.cfi_offset r7, -8
	.pad	#16
	sub	sp, #16
	.cfi_def_cfa_offset 24
	str	r0, [sp, #12]
.Ltmp186:
	.loc	4 636 34 prologue_end           @ ../../../../Source/event_groups.c:636:34
	ldr	r0, [sp, #12]
	.loc	4 636 20 is_stmt 0              @ ../../../../Source/event_groups.c:636:20
	str	r0, [sp, #8]
.Ltmp187:
	.loc	4 639 5 is_stmt 1               @ ../../../../Source/event_groups.c:639:5
	ldr	r0, [sp, #8]
.Ltmp188:
	.loc	4 639 5 is_stmt 0               @ ../../../../Source/event_groups.c:639:5
	cbnz	r0, .LBB10_3
	b	.LBB10_1
.LBB10_1:
.Ltmp189:
	.loc	4 639 5                         @ ../../../../Source/event_groups.c:639:5
	@APP
	cpsid i
	@NO_APP
	b	.LBB10_2
.LBB10_2:                               @ =>This Inner Loop Header: Depth=1
.Ltmp190:
	.loc	4 639 5                         @ ../../../../Source/event_groups.c:639:5
	b	.LBB10_2
.Ltmp191:
.LBB10_3:
	.loc	4 641 32 is_stmt 1              @ ../../../../Source/event_groups.c:641:32
	ldr	r0, [sp, #8]
	.loc	4 641 45 is_stmt 0              @ ../../../../Source/event_groups.c:641:45
	adds	r0, r0, #4
	.loc	4 641 27                        @ ../../../../Source/event_groups.c:641:27
	str	r0, [sp, #4]
	.loc	4 643 5 is_stmt 1               @ ../../../../Source/event_groups.c:643:5
	bl	vTaskSuspendAll
.Ltmp192:
	.loc	4 647 9                         @ ../../../../Source/event_groups.c:647:9
	b	.LBB10_4
.LBB10_4:                               @ =>This Inner Loop Header: Depth=1
	.loc	4 647 16 is_stmt 0              @ ../../../../Source/event_groups.c:647:16
	ldr	r0, [sp, #4]
	ldr	r0, [r0]
	.loc	4 647 9                         @ ../../../../Source/event_groups.c:647:9
	cbz	r0, .LBB10_9
	b	.LBB10_5
.LBB10_5:                               @   in Loop: Header=BB10_4 Depth=1
.Ltmp193:
	.loc	4 651 13 is_stmt 1              @ ../../../../Source/event_groups.c:651:13
	ldr	r0, [sp, #4]
	mov	r1, r0
	adds	r1, #8
	ldr	r0, [r0, #12]
.Ltmp194:
	.loc	4 651 13 is_stmt 0              @ ../../../../Source/event_groups.c:651:13
	cmp	r0, r1
	bne	.LBB10_8
	b	.LBB10_6
.LBB10_6:
.Ltmp195:
	.loc	4 651 13                        @ ../../../../Source/event_groups.c:651:13
	@APP
	cpsid i
	@NO_APP
	b	.LBB10_7
.LBB10_7:                               @ =>This Inner Loop Header: Depth=1
.Ltmp196:
	.loc	4 651 13                        @ ../../../../Source/event_groups.c:651:13
	b	.LBB10_7
.Ltmp197:
.LBB10_8:                               @   in Loop: Header=BB10_4 Depth=1
	.loc	4 652 48 is_stmt 1              @ ../../../../Source/event_groups.c:652:48
	ldr	r0, [sp, #4]
	.loc	4 652 80 is_stmt 0              @ ../../../../Source/event_groups.c:652:80
	ldr	r0, [r0, #12]
	movs	r1, #1
	lsls	r1, r1, #25
	.loc	4 652 13                        @ ../../../../Source/event_groups.c:652:13
	bl	vTaskRemoveFromUnorderedEventList
.Ltmp198:
	.loc	4 647 9 is_stmt 1               @ ../../../../Source/event_groups.c:647:9
	b	.LBB10_4
.Ltmp199:
.LBB10_9:
	.loc	4 655 14                        @ ../../../../Source/event_groups.c:655:14
	bl	xTaskResumeAll
.Ltmp200:
	.loc	4 667 13                        @ ../../../../Source/event_groups.c:667:13
	ldr	r0, [sp, #8]
	.loc	4 667 26 is_stmt 0              @ ../../../../Source/event_groups.c:667:26
	ldrb	r0, [r0, #28]
.Ltmp201:
	.loc	4 667 13                        @ ../../../../Source/event_groups.c:667:13
	cbnz	r0, .LBB10_11
	b	.LBB10_10
.LBB10_10:
.Ltmp202:
	.loc	4 669 24 is_stmt 1              @ ../../../../Source/event_groups.c:669:24
	ldr	r0, [sp, #8]
	.loc	4 669 13 is_stmt 0              @ ../../../../Source/event_groups.c:669:13
	bl	vPortFree
	.loc	4 670 9 is_stmt 1               @ ../../../../Source/event_groups.c:670:9
	b	.LBB10_12
.Ltmp203:
.LBB10_11:
	.loc	4 0 9 is_stmt 0                 @ ../../../../Source/event_groups.c:0:9
	b	.LBB10_12
.LBB10_12:
	.loc	4 677 1 is_stmt 1               @ ../../../../Source/event_groups.c:677:1
	add	sp, #16
	pop	{r7, pc}
.Ltmp204:
.Lfunc_end10:
	.size	vEventGroupDelete, .Lfunc_end10-vEventGroupDelete
	.cfi_endproc
	.cantunwind
	.fnend
                                        @ -- End function
	.hidden	xEventGroupGetStaticBuffer      @ -- Begin function xEventGroupGetStaticBuffer
	.globl	xEventGroupGetStaticBuffer
	.p2align	1
	.type	xEventGroupGetStaticBuffer,%function
	.code	16                              @ @xEventGroupGetStaticBuffer
	.thumb_func
xEventGroupGetStaticBuffer:
.Lfunc_begin11:
	.loc	4 683 0                         @ ../../../../Source/event_groups.c:683:0
	.fnstart
	.cfi_startproc
@ %bb.0:
	.pad	#16
	sub	sp, #16
	.cfi_def_cfa_offset 16
	str	r0, [sp, #12]
	str	r1, [sp, #8]
.Ltmp205:
	.loc	4 685 38 prologue_end           @ ../../../../Source/event_groups.c:685:38
	ldr	r0, [sp, #12]
	.loc	4 685 24 is_stmt 0              @ ../../../../Source/event_groups.c:685:24
	str	r0, [sp]
.Ltmp206:
	.loc	4 687 9 is_stmt 1               @ ../../../../Source/event_groups.c:687:9
	ldr	r0, [sp]
.Ltmp207:
	.loc	4 687 9 is_stmt 0               @ ../../../../Source/event_groups.c:687:9
	cbnz	r0, .LBB11_3
	b	.LBB11_1
.LBB11_1:
.Ltmp208:
	.loc	4 687 9                         @ ../../../../Source/event_groups.c:687:9
	@APP
	cpsid i
	@NO_APP
	b	.LBB11_2
.LBB11_2:                               @ =>This Inner Loop Header: Depth=1
.Ltmp209:
	.loc	4 687 9                         @ ../../../../Source/event_groups.c:687:9
	b	.LBB11_2
.Ltmp210:
.LBB11_3:
	.loc	4 688 9 is_stmt 1               @ ../../../../Source/event_groups.c:688:9
	ldr	r0, [sp, #8]
.Ltmp211:
	.loc	4 688 9 is_stmt 0               @ ../../../../Source/event_groups.c:688:9
	cbnz	r0, .LBB11_6
	b	.LBB11_4
.LBB11_4:
.Ltmp212:
	.loc	4 688 9                         @ ../../../../Source/event_groups.c:688:9
	@APP
	cpsid i
	@NO_APP
	b	.LBB11_5
.LBB11_5:                               @ =>This Inner Loop Header: Depth=1
.Ltmp213:
	.loc	4 688 9                         @ ../../../../Source/event_groups.c:688:9
	b	.LBB11_5
.Ltmp214:
.LBB11_6:
	.loc	4 693 17 is_stmt 1              @ ../../../../Source/event_groups.c:693:17
	ldr	r0, [sp]
	.loc	4 693 30 is_stmt 0              @ ../../../../Source/event_groups.c:693:30
	ldrb	r0, [r0, #28]
.Ltmp215:
	.loc	4 693 17                        @ ../../../../Source/event_groups.c:693:17
	cmp	r0, #1
	bne	.LBB11_8
	b	.LBB11_7
.LBB11_7:
.Ltmp216:
	.loc	4 695 65 is_stmt 1              @ ../../../../Source/event_groups.c:695:65
	ldr	r0, [sp]
	.loc	4 695 18 is_stmt 0              @ ../../../../Source/event_groups.c:695:18
	ldr	r1, [sp, #8]
	.loc	4 695 38                        @ ../../../../Source/event_groups.c:695:38
	str	r0, [r1]
	movs	r0, #1
	.loc	4 696 25 is_stmt 1              @ ../../../../Source/event_groups.c:696:25
	str	r0, [sp, #4]
	.loc	4 697 13                        @ ../../../../Source/event_groups.c:697:13
	b	.LBB11_9
.Ltmp217:
.LBB11_8:
	.loc	4 0 13 is_stmt 0                @ ../../../../Source/event_groups.c:0:13
	movs	r0, #0
.Ltmp218:
	.loc	4 700 25 is_stmt 1              @ ../../../../Source/event_groups.c:700:25
	str	r0, [sp, #4]
	b	.LBB11_9
.Ltmp219:
.LBB11_9:
	.loc	4 711 16                        @ ../../../../Source/event_groups.c:711:16
	ldr	r0, [sp, #4]
	.loc	4 711 9 is_stmt 0               @ ../../../../Source/event_groups.c:711:9
	add	sp, #16
	bx	lr
.Ltmp220:
.Lfunc_end11:
	.size	xEventGroupGetStaticBuffer, .Lfunc_end11-xEventGroupGetStaticBuffer
	.cfi_endproc
	.cantunwind
	.fnend
                                        @ -- End function
	.hidden	vEventGroupSetBitsCallback      @ -- Begin function vEventGroupSetBitsCallback
	.globl	vEventGroupSetBitsCallback
	.p2align	1
	.type	vEventGroupSetBitsCallback,%function
	.code	16                              @ @vEventGroupSetBitsCallback
	.thumb_func
vEventGroupSetBitsCallback:
.Lfunc_begin12:
	.loc	4 720 0 is_stmt 1               @ ../../../../Source/event_groups.c:720:0
	.fnstart
	.cfi_startproc
@ %bb.0:
	.save	{r7, lr}
	push	{r7, lr}
	.cfi_def_cfa_offset 8
	.cfi_offset lr, -4
	.cfi_offset r7, -8
	.pad	#8
	sub	sp, #8
	.cfi_def_cfa_offset 16
	str	r0, [sp, #4]
	str	r1, [sp]
.Ltmp221:
	.loc	4 721 34 prologue_end           @ ../../../../Source/event_groups.c:721:34
	ldr	r0, [sp, #4]
	.loc	4 721 64 is_stmt 0              @ ../../../../Source/event_groups.c:721:64
	ldr	r1, [sp]
	.loc	4 721 14                        @ ../../../../Source/event_groups.c:721:14
	bl	xEventGroupSetBits
	.loc	4 722 1 is_stmt 1               @ ../../../../Source/event_groups.c:722:1
	add	sp, #8
	pop	{r7, pc}
.Ltmp222:
.Lfunc_end12:
	.size	vEventGroupSetBitsCallback, .Lfunc_end12-vEventGroupSetBitsCallback
	.cfi_endproc
	.cantunwind
	.fnend
                                        @ -- End function
	.hidden	xEventGroupSetBitsFromISR       @ -- Begin function xEventGroupSetBitsFromISR
	.globl	xEventGroupSetBitsFromISR
	.p2align	1
	.type	xEventGroupSetBitsFromISR,%function
	.code	16                              @ @xEventGroupSetBitsFromISR
	.thumb_func
xEventGroupSetBitsFromISR:
.Lfunc_begin13:
	.loc	4 776 0                         @ ../../../../Source/event_groups.c:776:0
	.fnstart
	.cfi_startproc
@ %bb.0:
	.save	{r7, lr}
	push	{r7, lr}
	.cfi_def_cfa_offset 8
	.cfi_offset lr, -4
	.cfi_offset r7, -8
	.pad	#16
	sub	sp, #16
	.cfi_def_cfa_offset 24
	str	r0, [sp, #12]
	str	r1, [sp, #8]
	str	r2, [sp, #4]
.Ltmp223:
	.loc	4 780 89 prologue_end           @ ../../../../Source/event_groups.c:780:89
	ldr	r1, [sp, #12]
	.loc	4 780 115 is_stmt 0             @ ../../../../Source/event_groups.c:780:115
	ldr	r2, [sp, #8]
	.loc	4 780 128                       @ ../../../../Source/event_groups.c:780:128
	ldr	r3, [sp, #4]
	.loc	4 780 19                        @ ../../../../Source/event_groups.c:780:19
	movw	r0, :lower16:vEventGroupSetBitsCallback
	movt	r0, :upper16:vEventGroupSetBitsCallback
	bl	xTimerPendFunctionCallFromISR
	.loc	4 780 17                        @ ../../../../Source/event_groups.c:780:17
	str	r0, [sp]
	.loc	4 782 16 is_stmt 1              @ ../../../../Source/event_groups.c:782:16
	ldr	r0, [sp]
	.loc	4 782 9 is_stmt 0               @ ../../../../Source/event_groups.c:782:9
	add	sp, #16
	pop	{r7, pc}
.Ltmp224:
.Lfunc_end13:
	.size	xEventGroupSetBitsFromISR, .Lfunc_end13-xEventGroupSetBitsFromISR
	.cfi_endproc
	.cantunwind
	.fnend
                                        @ -- End function
	.hidden	uxEventGroupGetNumber           @ -- Begin function uxEventGroupGetNumber
	.globl	uxEventGroupGetNumber
	.p2align	1
	.type	uxEventGroupGetNumber,%function
	.code	16                              @ @uxEventGroupGetNumber
	.thumb_func
uxEventGroupGetNumber:
.Lfunc_begin14:
	.loc	4 791 0 is_stmt 1               @ ../../../../Source/event_groups.c:791:0
	.fnstart
	.cfi_startproc
@ %bb.0:
	.pad	#12
	sub	sp, #12
	.cfi_def_cfa_offset 12
	str	r0, [sp, #8]
.Ltmp225:
	.loc	4 793 63 prologue_end           @ ../../../../Source/event_groups.c:793:63
	ldr	r0, [sp, #8]
	.loc	4 793 30 is_stmt 0              @ ../../../../Source/event_groups.c:793:30
	str	r0, [sp]
.Ltmp226:
	.loc	4 795 13 is_stmt 1              @ ../../../../Source/event_groups.c:795:13
	ldr	r0, [sp, #8]
.Ltmp227:
	.loc	4 795 13 is_stmt 0              @ ../../../../Source/event_groups.c:795:13
	cbnz	r0, .LBB14_2
	b	.LBB14_1
.LBB14_1:
	.loc	4 0 13                          @ ../../../../Source/event_groups.c:0:13
	movs	r0, #0
.Ltmp228:
	.loc	4 797 21 is_stmt 1              @ ../../../../Source/event_groups.c:797:21
	str	r0, [sp, #4]
	.loc	4 798 9                         @ ../../../../Source/event_groups.c:798:9
	b	.LBB14_3
.Ltmp229:
.LBB14_2:
	.loc	4 801 23                        @ ../../../../Source/event_groups.c:801:23
	ldr	r0, [sp]
	.loc	4 801 36 is_stmt 0              @ ../../../../Source/event_groups.c:801:36
	ldr	r0, [r0, #24]
	.loc	4 801 21                        @ ../../../../Source/event_groups.c:801:21
	str	r0, [sp, #4]
	b	.LBB14_3
.Ltmp230:
.LBB14_3:
	.loc	4 804 16 is_stmt 1              @ ../../../../Source/event_groups.c:804:16
	ldr	r0, [sp, #4]
	.loc	4 804 9 is_stmt 0               @ ../../../../Source/event_groups.c:804:9
	add	sp, #12
	bx	lr
.Ltmp231:
.Lfunc_end14:
	.size	uxEventGroupGetNumber, .Lfunc_end14-uxEventGroupGetNumber
	.cfi_endproc
	.cantunwind
	.fnend
                                        @ -- End function
	.hidden	vEventGroupSetNumber            @ -- Begin function vEventGroupSetNumber
	.globl	vEventGroupSetNumber
	.p2align	1
	.type	vEventGroupSetNumber,%function
	.code	16                              @ @vEventGroupSetNumber
	.thumb_func
vEventGroupSetNumber:
.Lfunc_begin15:
	.loc	4 814 0 is_stmt 1               @ ../../../../Source/event_groups.c:814:0
	.fnstart
	.cfi_startproc
@ %bb.0:
	.pad	#8
	sub	sp, #8
	.cfi_def_cfa_offset 8
	str	r0, [sp, #4]
	str	r1, [sp]
.Ltmp232:
	.loc	4 815 66 prologue_end           @ ../../../../Source/event_groups.c:815:66
	ldr	r0, [sp]
	.loc	4 815 30 is_stmt 0              @ ../../../../Source/event_groups.c:815:30
	ldr	r1, [sp, #4]
	.loc	4 815 64                        @ ../../../../Source/event_groups.c:815:64
	str	r0, [r1, #24]
	.loc	4 816 5 is_stmt 1               @ ../../../../Source/event_groups.c:816:5
	add	sp, #8
	bx	lr
.Ltmp233:
.Lfunc_end15:
	.size	vEventGroupSetNumber, .Lfunc_end15-vEventGroupSetNumber
	.cfi_endproc
	.cantunwind
	.fnend
                                        @ -- End function
	.file	7 "C:\\Keil_v5\\ARM\\ARMCLANG\\Bin\\..\\include" "stdlib.h"
	.section	".note.GNU-stack","",%progbits
	.eabi_attribute	30, 6	@ Tag_ABI_optimization_goals
	.ARM_attribute	16, 1	@ Tag_AV_eba