	.text
	.syntax unified
	.eabi_attribute	67, "2.09"	@ Tag_conformance
	.eabi_attribute	6, 16	@ Tag_CPU_arch
	.eabi_attribute	7, 77	@ Tag_CPU_arch_profile
	.eabi_attribute	8, 0	@ Tag_ARM_ISA_use
	.eabi_attribute	9, 3	@ Tag_THUMB_ISA_use
	.eabi_attribute	34, 0	@ Tag_CPU_unaligned_access
	.eabi_attribute	17, 1	@ Tag_ABI_PCS_GOT_use
	.eabi_attribute	20, 2	@ Tag_ABI_FP_denormal
	.eabi_attribute	21, 0	@ Tag_ABI_FP_exceptions
	.eabi_attribute	23, 1	@ Tag_ABI_FP_number_model
	.eabi_attribute	24, 1	@ Tag_ABI_align_needed
	.eabi_attribute	25, 1	@ Tag_ABI_align_preserved
	.eabi_attribute	38, 1	@ Tag_ABI_FP_16bit_format
	.eabi_attribute	18, 4	@ Tag_ABI_PCS_wchar_t
	.eabi_attribute	26, 2	@ Tag_ABI_enum_size
	.eabi_attribute	14, 0	@ Tag_ABI_PCS_R9_use
	.file	"EventGroupsDemo.c"
	.file	1 "C:\\Keil_v5\\ARM\\ARMCLANG\\Bin\\..\\include" "stdint.h"
	.file	2 "C:\\Users\\karahulx\\Downloads\\Kernel\\FreeRTOS\\FreeRTOS\\Demo\\CORTEX_MPU_M23_Nuvoton_NuMaker_PFM_M2351_IAR_GCC\\Projects_NTZ\\Keil" "../../../../Source/portable/GCC/ARM_CM23_NTZ/non_secure/portmacrocommon.h"
	.file	3 "C:\\Users\\karahulx\\Downloads\\Kernel\\FreeRTOS\\FreeRTOS\\Demo\\CORTEX_MPU_M23_Nuvoton_NuMaker_PFM_M2351_IAR_GCC\\Projects_NTZ\\Keil" "../../../CORTEX_MPU_M3_NUCLEO_L152RE_GCC/Demo/EventGroupsDemo.c"
	.file	4 "C:\\Users\\karahulx\\Downloads\\Kernel\\FreeRTOS\\FreeRTOS\\Demo\\CORTEX_MPU_M23_Nuvoton_NuMaker_PFM_M2351_IAR_GCC\\Projects_NTZ\\Keil" "../../../../Source/include\\event_groups.h"
	.file	5 "C:\\Users\\karahulx\\Downloads\\Kernel\\FreeRTOS\\FreeRTOS\\Demo\\CORTEX_MPU_M23_Nuvoton_NuMaker_PFM_M2351_IAR_GCC\\Projects_NTZ\\Keil" "../../../../Source/include/task.h"
	.section	.text.vStartEventGroupTasks,"ax",%progbits
	.hidden	vStartEventGroupTasks           @ -- Begin function vStartEventGroupTasks
	.globl	vStartEventGroupTasks
	.p2align	1
	.type	vStartEventGroupTasks,%function
	.code	16                              @ @vStartEventGroupTasks
	.thumb_func
vStartEventGroupTasks:
.Lfunc_begin0:
	.loc	3 183 0                         @ ../../../CORTEX_MPU_M3_NUCLEO_L152RE_GCC/Demo/EventGroupsDemo.c:183:0
	.fnstart
	.cfi_sections .debug_frame
	.cfi_startproc
@ %bb.0:
	.save	{r4, r5, r6, lr}
	push	{r4, r5, r6, lr}
	.cfi_def_cfa_offset 16
	.cfi_offset lr, -4
	.cfi_offset r6, -8
	.cfi_offset r5, -12
	.cfi_offset r4, -16
	.pad	#280
	sub	sp, #280
	.cfi_def_cfa_offset 296
.Ltmp0:
	.loc	3 202 22 prologue_end           @ ../../../CORTEX_MPU_M3_NUCLEO_L152RE_GCC/Demo/EventGroupsDemo.c:202:22
	movw	r2, :lower16:.L__const.vStartEventGroupTasks.xTestSlaveTaskParams
	movt	r2, :upper16:.L__const.vStartEventGroupTasks.xTestSlaveTaskParams
	add	r0, sp, #212
	mov	r1, r0
	ldm	r2!, {r3, r4, r5, r6}
	stm	r1!, {r3, r4, r5, r6}
	ldm	r2!, {r3, r4, r5, r6}
	stm	r1!, {r3, r4, r5, r6}
	ldm	r2!, {r3, r4, r5, r6}
	stm	r1!, {r3, r4, r5, r6}
	ldm	r2!, {r3, r4, r5, r6}
	stm	r1!, {r3, r4, r5, r6}
	.loc	3 220 22                        @ ../../../CORTEX_MPU_M3_NUCLEO_L152RE_GCC/Demo/EventGroupsDemo.c:220:22
	movw	r2, :lower16:.L__const.vStartEventGroupTasks.xTestMasterTaskParams
	movt	r2, :upper16:.L__const.vStartEventGroupTasks.xTestMasterTaskParams
	add	r1, sp, #148
	str	r1, [sp, #4]                    @ 4-byte Spill
	ldm	r2!, {r3, r4, r5, r6}
	stm	r1!, {r3, r4, r5, r6}
	ldm	r2!, {r3, r4, r5, r6}
	stm	r1!, {r3, r4, r5, r6}
	ldm	r2!, {r3, r4, r5, r6}
	stm	r1!, {r3, r4, r5, r6}
	ldm	r2!, {r3, r4, r5, r6}
	stm	r1!, {r3, r4, r5, r6}
	.loc	3 241 22                        @ ../../../CORTEX_MPU_M3_NUCLEO_L152RE_GCC/Demo/EventGroupsDemo.c:241:22
	movw	r2, :lower16:.L__const.vStartEventGroupTasks.xSyncTaskOneParams
	movt	r2, :upper16:.L__const.vStartEventGroupTasks.xSyncTaskOneParams
	add	r1, sp, #84
	str	r1, [sp, #8]                    @ 4-byte Spill
	ldm	r2!, {r3, r4, r5, r6}
	stm	r1!, {r3, r4, r5, r6}
	ldm	r2!, {r3, r4, r5, r6}
	stm	r1!, {r3, r4, r5, r6}
	ldm	r2!, {r3, r4, r5, r6}
	stm	r1!, {r3, r4, r5, r6}
	ldm	r2!, {r3, r4, r5, r6}
	stm	r1!, {r3, r4, r5, r6}
	.loc	3 259 22                        @ ../../../CORTEX_MPU_M3_NUCLEO_L152RE_GCC/Demo/EventGroupsDemo.c:259:22
	movw	r2, :lower16:.L__const.vStartEventGroupTasks.xSyncTaskTwoParams
	movt	r2, :upper16:.L__const.vStartEventGroupTasks.xSyncTaskTwoParams
	add	r1, sp, #20
	str	r1, [sp, #12]                   @ 4-byte Spill
	ldm	r2!, {r3, r4, r5, r6}
	stm	r1!, {r3, r4, r5, r6}
	ldm	r2!, {r3, r4, r5, r6}
	stm	r1!, {r3, r4, r5, r6}
	ldm	r2!, {r3, r4, r5, r6}
	stm	r1!, {r3, r4, r5, r6}
	ldm	r2!, {r3, r4, r5, r6}
	stm	r1!, {r3, r4, r5, r6}
	add	r1, sp, #276
	.loc	3 278 5                         @ ../../../CORTEX_MPU_M3_NUCLEO_L152RE_GCC/Demo/EventGroupsDemo.c:278:5
	bl	xTaskCreateRestricted
                                        @ kill: def $r1 killed $r0
	.loc	3 279 53                        @ ../../../CORTEX_MPU_M3_NUCLEO_L152RE_GCC/Demo/EventGroupsDemo.c:279:53
	ldr	r0, [sp, #4]                    @ 4-byte Reload
	ldr	r1, [sp, #276]
	.loc	3 279 40 is_stmt 0              @ ../../../CORTEX_MPU_M3_NUCLEO_L152RE_GCC/Demo/EventGroupsDemo.c:279:40
	str	r1, [sp, #160]
	movs	r1, #0
	.loc	3 280 5 is_stmt 1               @ ../../../CORTEX_MPU_M3_NUCLEO_L152RE_GCC/Demo/EventGroupsDemo.c:280:5
	bl	xTaskCreateRestricted
                                        @ kill: def $r1 killed $r0
	.loc	3 281 5                         @ ../../../CORTEX_MPU_M3_NUCLEO_L152RE_GCC/Demo/EventGroupsDemo.c:281:5
	ldr	r0, [sp, #8]                    @ 4-byte Reload
	movw	r1, :lower16:xSyncTaskHandle
	movt	r1, :upper16:xSyncTaskHandle
	str	r1, [sp, #16]                   @ 4-byte Spill
	bl	xTaskCreateRestricted
	ldr	r1, [sp, #16]                   @ 4-byte Reload
                                        @ kill: def $r2 killed $r0
	.loc	3 282 5                         @ ../../../CORTEX_MPU_M3_NUCLEO_L152RE_GCC/Demo/EventGroupsDemo.c:282:5
	ldr	r0, [sp, #12]                   @ 4-byte Reload
	adds	r1, r1, #4
	bl	xTaskCreateRestricted
                                        @ kill: def $r1 killed $r0
.Ltmp1:
	.loc	3 285 5                         @ ../../../CORTEX_MPU_M3_NUCLEO_L152RE_GCC/Demo/EventGroupsDemo.c:285:5
	ldr	r0, [sp, #16]                   @ 4-byte Reload
	ldr	r0, [r0, #4]
.Ltmp2:
	.loc	3 285 5 is_stmt 0               @ ../../../CORTEX_MPU_M3_NUCLEO_L152RE_GCC/Demo/EventGroupsDemo.c:285:5
	cbnz	r0, .LBB0_3
	b	.LBB0_1
.LBB0_1:
.Ltmp3:
	.loc	3 285 5                         @ ../../../CORTEX_MPU_M3_NUCLEO_L152RE_GCC/Demo/EventGroupsDemo.c:285:5
	@APP
	cpsid i
	@NO_APP
	b	.LBB0_2
.LBB0_2:                                @ =>This Inner Loop Header: Depth=1
.Ltmp4:
	.loc	3 285 5                         @ ../../../CORTEX_MPU_M3_NUCLEO_L152RE_GCC/Demo/EventGroupsDemo.c:285:5
	b	.LBB0_2
.Ltmp5:
.LBB0_3:
	.loc	3 289 22 is_stmt 1              @ ../../../CORTEX_MPU_M3_NUCLEO_L152RE_GCC/Demo/EventGroupsDemo.c:289:22
	bl	MPU_xEventGroupCreate
	mov	r1, r0
	.loc	3 289 20 is_stmt 0              @ ../../../CORTEX_MPU_M3_NUCLEO_L152RE_GCC/Demo/EventGroupsDemo.c:289:20
	movw	r0, :lower16:xISREventGroup
	movt	r0, :upper16:xISREventGroup
	str	r1, [r0]
.Ltmp6:
	.loc	3 290 5 is_stmt 1               @ ../../../CORTEX_MPU_M3_NUCLEO_L152RE_GCC/Demo/EventGroupsDemo.c:290:5
	ldr	r0, [r0]
.Ltmp7:
	.loc	3 290 5 is_stmt 0               @ ../../../CORTEX_MPU_M3_NUCLEO_L152RE_GCC/Demo/EventGroupsDemo.c:290:5
	cbnz	r0, .LBB0_6
	b	.LBB0_4
.LBB0_4:
.Ltmp8:
	.loc	3 290 5                         @ ../../../CORTEX_MPU_M3_NUCLEO_L152RE_GCC/Demo/EventGroupsDemo.c:290:5
	@APP
	cpsid i
	@NO_APP
	b	.LBB0_5
.LBB0_5:                                @ =>This Inner Loop Header: Depth=1
.Ltmp9:
	.loc	3 290 5                         @ ../../../CORTEX_MPU_M3_NUCLEO_L152RE_GCC/Demo/EventGroupsDemo.c:290:5
	b	.LBB0_5
.Ltmp10:
.LBB0_6:
	.loc	3 291 1 is_stmt 1               @ ../../../CORTEX_MPU_M3_NUCLEO_L152RE_GCC/Demo/EventGroupsDemo.c:291:1
	add	sp, #280
	pop	{r4, r5, r6, pc}
.Ltmp11:
.Lfunc_end0:
	.size	vStartEventGroupTasks, .Lfunc_end0-vStartEventGroupTasks
	.cfi_endproc
	.cantunwind
	.fnend
                                        @ -- End function
	.section	.text.prvTestSlaveTask,"ax",%progbits
	.p2align	1                               @ -- Begin function prvTestSlaveTask
	.type	prvTestSlaveTask,%function
	.code	16                              @ @prvTestSlaveTask
	.thumb_func
prvTestSlaveTask:
.Lfunc_begin1:
	.loc	3 431 0                         @ ../../../CORTEX_MPU_M3_NUCLEO_L152RE_GCC/Demo/EventGroupsDemo.c:431:0
	.fnstart
	.cfi_startproc
@ %bb.0:
	.save	{r7, lr}
	push	{r7, lr}
	.cfi_def_cfa_offset 8
	.cfi_offset lr, -4
	.cfi_offset r7, -8
	.pad	#48
	sub	sp, #48
	.cfi_def_cfa_offset 56
	str	r0, [sp, #44]
	movs	r0, #0
.Ltmp12:
	.loc	3 433 16 prologue_end           @ ../../../CORTEX_MPU_M3_NUCLEO_L152RE_GCC/Demo/EventGroupsDemo.c:433:16
	str	r0, [sp, #36]
	.loc	3 438 5                         @ ../../../CORTEX_MPU_M3_NUCLEO_L152RE_GCC/Demo/EventGroupsDemo.c:438:5
	b	.LBB1_1
.LBB1_1:                                @ =>This Inner Loop Header: Depth=1
	.loc	3 0 5 is_stmt 0                 @ ../../../CORTEX_MPU_M3_NUCLEO_L152RE_GCC/Demo/EventGroupsDemo.c:0:5
	movs	r0, #0
.Ltmp13:
	.loc	3 449 9 is_stmt 1               @ ../../../CORTEX_MPU_M3_NUCLEO_L152RE_GCC/Demo/EventGroupsDemo.c:449:9
	str	r0, [sp, #32]                   @ 4-byte Spill
	bl	MPU_vTaskSuspend
	ldr	r1, [sp, #32]                   @ 4-byte Reload
	.loc	3 453 43                        @ ../../../CORTEX_MPU_M3_NUCLEO_L152RE_GCC/Demo/EventGroupsDemo.c:453:43
	movw	r0, :lower16:xEventGroup
	movt	r0, :upper16:xEventGroup
	ldr	r0, [r0]
	mvns	r1, r1
	.loc	3 453 22 is_stmt 0              @ ../../../CORTEX_MPU_M3_NUCLEO_L152RE_GCC/Demo/EventGroupsDemo.c:453:22
	str	r1, [sp]
	movs	r1, #2
	movs	r3, #1
	mov	r2, r3
	bl	MPU_xEventGroupWaitBits
	.loc	3 453 20                        @ ../../../CORTEX_MPU_M3_NUCLEO_L152RE_GCC/Demo/EventGroupsDemo.c:453:20
	str	r0, [sp, #40]
.Ltmp14:
	.loc	3 464 13 is_stmt 1              @ ../../../CORTEX_MPU_M3_NUCLEO_L152RE_GCC/Demo/EventGroupsDemo.c:464:13
	ldr	r0, [sp, #40]
.Ltmp15:
	.loc	3 464 13 is_stmt 0              @ ../../../CORTEX_MPU_M3_NUCLEO_L152RE_GCC/Demo/EventGroupsDemo.c:464:13
	cmp	r0, #162
	beq	.LBB1_3
	b	.LBB1_2
.LBB1_2:                                @   in Loop: Header=BB1_1 Depth=1
	.loc	3 0 13                          @ ../../../CORTEX_MPU_M3_NUCLEO_L152RE_GCC/Demo/EventGroupsDemo.c:0:13
	movs	r0, #1
.Ltmp16:
	.loc	3 466 20 is_stmt 1              @ ../../../CORTEX_MPU_M3_NUCLEO_L152RE_GCC/Demo/EventGroupsDemo.c:466:20
	str	r0, [sp, #36]
	.loc	3 467 9                         @ ../../../CORTEX_MPU_M3_NUCLEO_L152RE_GCC/Demo/EventGroupsDemo.c:467:9
	b	.LBB1_3
.Ltmp17:
.LBB1_3:                                @   in Loop: Header=BB1_1 Depth=1
	.loc	3 473 43                        @ ../../../CORTEX_MPU_M3_NUCLEO_L152RE_GCC/Demo/EventGroupsDemo.c:473:43
	movw	r0, :lower16:xEventGroup
	movt	r0, :upper16:xEventGroup
	ldr	r0, [r0]
	movs	r2, #0
	mvns	r1, r2
	.loc	3 473 22 is_stmt 0              @ ../../../CORTEX_MPU_M3_NUCLEO_L152RE_GCC/Demo/EventGroupsDemo.c:473:22
	str	r1, [sp]
	movs	r1, #162
	str	r1, [sp, #28]                   @ 4-byte Spill
	movs	r3, #1
	bl	MPU_xEventGroupWaitBits
	ldr	r1, [sp, #28]                   @ 4-byte Reload
	.loc	3 473 20                        @ ../../../CORTEX_MPU_M3_NUCLEO_L152RE_GCC/Demo/EventGroupsDemo.c:473:20
	str	r0, [sp, #40]
.Ltmp18:
	.loc	3 480 15 is_stmt 1              @ ../../../CORTEX_MPU_M3_NUCLEO_L152RE_GCC/Demo/EventGroupsDemo.c:480:15
	ldr	r0, [sp, #40]
	.loc	3 480 26 is_stmt 0              @ ../../../CORTEX_MPU_M3_NUCLEO_L152RE_GCC/Demo/EventGroupsDemo.c:480:26
	ands	r0, r1
.Ltmp19:
	.loc	3 480 13                        @ ../../../CORTEX_MPU_M3_NUCLEO_L152RE_GCC/Demo/EventGroupsDemo.c:480:13
	cmp	r0, #162
	beq	.LBB1_5
	b	.LBB1_4
.LBB1_4:                                @   in Loop: Header=BB1_1 Depth=1
	.loc	3 0 13                          @ ../../../CORTEX_MPU_M3_NUCLEO_L152RE_GCC/Demo/EventGroupsDemo.c:0:13
	movs	r0, #1
.Ltmp20:
	.loc	3 482 20 is_stmt 1              @ ../../../CORTEX_MPU_M3_NUCLEO_L152RE_GCC/Demo/EventGroupsDemo.c:482:20
	str	r0, [sp, #36]
	.loc	3 483 9                         @ ../../../CORTEX_MPU_M3_NUCLEO_L152RE_GCC/Demo/EventGroupsDemo.c:483:9
	b	.LBB1_5
.Ltmp21:
.LBB1_5:                                @   in Loop: Header=BB1_1 Depth=1
	.loc	3 0 9 is_stmt 0                 @ ../../../CORTEX_MPU_M3_NUCLEO_L152RE_GCC/Demo/EventGroupsDemo.c:0:9
	movs	r0, #0
	.loc	3 486 9 is_stmt 1               @ ../../../CORTEX_MPU_M3_NUCLEO_L152RE_GCC/Demo/EventGroupsDemo.c:486:9
	str	r0, [sp, #24]                   @ 4-byte Spill
	bl	MPU_vTaskSuspend
	ldr	r1, [sp, #24]                   @ 4-byte Reload
	.loc	3 491 43                        @ ../../../CORTEX_MPU_M3_NUCLEO_L152RE_GCC/Demo/EventGroupsDemo.c:491:43
	movw	r0, :lower16:xEventGroup
	movt	r0, :upper16:xEventGroup
	ldr	r0, [r0]
	mvns	r1, r1
	.loc	3 491 22 is_stmt 0              @ ../../../CORTEX_MPU_M3_NUCLEO_L152RE_GCC/Demo/EventGroupsDemo.c:491:22
	str	r1, [sp]
	movs	r1, #162
	movs	r3, #1
	mov	r2, r3
	bl	MPU_xEventGroupWaitBits
	.loc	3 491 20                        @ ../../../CORTEX_MPU_M3_NUCLEO_L152RE_GCC/Demo/EventGroupsDemo.c:491:20
	str	r0, [sp, #40]
.Ltmp22:
	.loc	3 501 13 is_stmt 1              @ ../../../CORTEX_MPU_M3_NUCLEO_L152RE_GCC/Demo/EventGroupsDemo.c:501:13
	ldr	r0, [sp, #40]
.Ltmp23:
	.loc	3 501 13 is_stmt 0              @ ../../../CORTEX_MPU_M3_NUCLEO_L152RE_GCC/Demo/EventGroupsDemo.c:501:13
	cmp	r0, #255
	beq	.LBB1_7
	b	.LBB1_6
.LBB1_6:                                @   in Loop: Header=BB1_1 Depth=1
	.loc	3 0 13                          @ ../../../CORTEX_MPU_M3_NUCLEO_L152RE_GCC/Demo/EventGroupsDemo.c:0:13
	movs	r0, #1
.Ltmp24:
	.loc	3 503 20 is_stmt 1              @ ../../../CORTEX_MPU_M3_NUCLEO_L152RE_GCC/Demo/EventGroupsDemo.c:503:20
	str	r0, [sp, #36]
	.loc	3 504 9                         @ ../../../CORTEX_MPU_M3_NUCLEO_L152RE_GCC/Demo/EventGroupsDemo.c:504:9
	b	.LBB1_7
.Ltmp25:
.LBB1_7:                                @   in Loop: Header=BB1_1 Depth=1
	.loc	3 0 9 is_stmt 0                 @ ../../../CORTEX_MPU_M3_NUCLEO_L152RE_GCC/Demo/EventGroupsDemo.c:0:9
	movs	r0, #0
	.loc	3 515 9 is_stmt 1               @ ../../../CORTEX_MPU_M3_NUCLEO_L152RE_GCC/Demo/EventGroupsDemo.c:515:9
	str	r0, [sp, #16]                   @ 4-byte Spill
	bl	MPU_vTaskSuspend
	ldr	r1, [sp, #16]                   @ 4-byte Reload
	.loc	3 520 39                        @ ../../../CORTEX_MPU_M3_NUCLEO_L152RE_GCC/Demo/EventGroupsDemo.c:520:39
	movw	r0, :lower16:xEventGroup
	movt	r0, :upper16:xEventGroup
	ldr	r0, [r0]
	mvns	r3, r1
	movs	r1, #2
	movs	r2, #15
	.loc	3 520 22 is_stmt 0              @ ../../../CORTEX_MPU_M3_NUCLEO_L152RE_GCC/Demo/EventGroupsDemo.c:520:22
	str	r2, [sp, #20]                   @ 4-byte Spill
	bl	MPU_xEventGroupSync
	ldr	r1, [sp, #20]                   @ 4-byte Reload
	.loc	3 520 20                        @ ../../../CORTEX_MPU_M3_NUCLEO_L152RE_GCC/Demo/EventGroupsDemo.c:520:20
	str	r0, [sp, #40]
.Ltmp26:
	.loc	3 527 15 is_stmt 1              @ ../../../CORTEX_MPU_M3_NUCLEO_L152RE_GCC/Demo/EventGroupsDemo.c:527:15
	ldr	r0, [sp, #40]
	.loc	3 527 26 is_stmt 0              @ ../../../CORTEX_MPU_M3_NUCLEO_L152RE_GCC/Demo/EventGroupsDemo.c:527:26
	ands	r0, r1
.Ltmp27:
	.loc	3 527 13                        @ ../../../CORTEX_MPU_M3_NUCLEO_L152RE_GCC/Demo/EventGroupsDemo.c:527:13
	cmp	r0, #15
	beq	.LBB1_9
	b	.LBB1_8
.LBB1_8:                                @   in Loop: Header=BB1_1 Depth=1
	.loc	3 0 13                          @ ../../../CORTEX_MPU_M3_NUCLEO_L152RE_GCC/Demo/EventGroupsDemo.c:0:13
	movs	r0, #1
.Ltmp28:
	.loc	3 529 20 is_stmt 1              @ ../../../CORTEX_MPU_M3_NUCLEO_L152RE_GCC/Demo/EventGroupsDemo.c:529:20
	str	r0, [sp, #36]
	.loc	3 530 9                         @ ../../../CORTEX_MPU_M3_NUCLEO_L152RE_GCC/Demo/EventGroupsDemo.c:530:9
	b	.LBB1_9
.Ltmp29:
.LBB1_9:                                @   in Loop: Header=BB1_1 Depth=1
	.loc	3 536 33                        @ ../../../CORTEX_MPU_M3_NUCLEO_L152RE_GCC/Demo/EventGroupsDemo.c:536:33
	movw	r0, :lower16:xEventGroup
	movt	r0, :upper16:xEventGroup
	ldr	r0, [r0]
	movs	r1, #0
	.loc	3 536 13 is_stmt 0              @ ../../../CORTEX_MPU_M3_NUCLEO_L152RE_GCC/Demo/EventGroupsDemo.c:536:13
	bl	MPU_xEventGroupSetBits
.Ltmp30:
	.loc	3 536 13                        @ ../../../CORTEX_MPU_M3_NUCLEO_L152RE_GCC/Demo/EventGroupsDemo.c:536:13
	cbz	r0, .LBB1_11
	b	.LBB1_10
.LBB1_10:                               @   in Loop: Header=BB1_1 Depth=1
	.loc	3 0 13                          @ ../../../CORTEX_MPU_M3_NUCLEO_L152RE_GCC/Demo/EventGroupsDemo.c:0:13
	movs	r0, #1
.Ltmp31:
	.loc	3 538 20 is_stmt 1              @ ../../../CORTEX_MPU_M3_NUCLEO_L152RE_GCC/Demo/EventGroupsDemo.c:538:20
	str	r0, [sp, #36]
	.loc	3 539 9                         @ ../../../CORTEX_MPU_M3_NUCLEO_L152RE_GCC/Demo/EventGroupsDemo.c:539:9
	b	.LBB1_11
.Ltmp32:
.LBB1_11:                               @   in Loop: Header=BB1_1 Depth=1
	.loc	3 542 13                        @ ../../../CORTEX_MPU_M3_NUCLEO_L152RE_GCC/Demo/EventGroupsDemo.c:542:13
	movw	r0, :lower16:xEventGroup
	movt	r0, :upper16:xEventGroup
	ldr	r0, [r0]
	movs	r1, #0
	bl	MPU_xEventGroupClearBits
.Ltmp33:
	.loc	3 542 13 is_stmt 0              @ ../../../CORTEX_MPU_M3_NUCLEO_L152RE_GCC/Demo/EventGroupsDemo.c:542:13
	cbz	r0, .LBB1_13
	b	.LBB1_12
.LBB1_12:                               @   in Loop: Header=BB1_1 Depth=1
	.loc	3 0 13                          @ ../../../CORTEX_MPU_M3_NUCLEO_L152RE_GCC/Demo/EventGroupsDemo.c:0:13
	movs	r0, #1
.Ltmp34:
	.loc	3 544 20 is_stmt 1              @ ../../../CORTEX_MPU_M3_NUCLEO_L152RE_GCC/Demo/EventGroupsDemo.c:544:20
	str	r0, [sp, #36]
	.loc	3 545 9                         @ ../../../CORTEX_MPU_M3_NUCLEO_L152RE_GCC/Demo/EventGroupsDemo.c:545:9
	b	.LBB1_13
.Ltmp35:
.LBB1_13:                               @   in Loop: Header=BB1_1 Depth=1
	.loc	3 547 13                        @ ../../../CORTEX_MPU_M3_NUCLEO_L152RE_GCC/Demo/EventGroupsDemo.c:547:13
	ldr	r0, [sp, #36]
.Ltmp36:
	.loc	3 547 13 is_stmt 0              @ ../../../CORTEX_MPU_M3_NUCLEO_L152RE_GCC/Demo/EventGroupsDemo.c:547:13
	cbnz	r0, .LBB1_15
	b	.LBB1_14
.LBB1_14:                               @   in Loop: Header=BB1_1 Depth=1
.Ltmp37:
	.loc	3 550 35 is_stmt 1              @ ../../../CORTEX_MPU_M3_NUCLEO_L152RE_GCC/Demo/EventGroupsDemo.c:550:35
	movw	r1, :lower16:ulTestSlaveCycles
	movt	r1, :upper16:ulTestSlaveCycles
	ldr	r0, [r1]
	adds	r0, r0, #1
	str	r0, [r1]
	.loc	3 551 9                         @ ../../../CORTEX_MPU_M3_NUCLEO_L152RE_GCC/Demo/EventGroupsDemo.c:551:9
	b	.LBB1_15
.Ltmp38:
.LBB1_15:                               @   in Loop: Header=BB1_1 Depth=1
	.loc	3 0 9 is_stmt 0                 @ ../../../CORTEX_MPU_M3_NUCLEO_L152RE_GCC/Demo/EventGroupsDemo.c:0:9
	movs	r0, #0
	.loc	3 553 9 is_stmt 1               @ ../../../CORTEX_MPU_M3_NUCLEO_L152RE_GCC/Demo/EventGroupsDemo.c:553:9
	str	r0, [sp, #8]                    @ 4-byte Spill
	bl	MPU_vTaskSuspend
	ldr	r1, [sp, #8]                    @ 4-byte Reload
	.loc	3 558 39                        @ ../../../CORTEX_MPU_M3_NUCLEO_L152RE_GCC/Demo/EventGroupsDemo.c:558:39
	movw	r0, :lower16:xEventGroup
	movt	r0, :upper16:xEventGroup
	ldr	r0, [r0]
	mvns	r3, r1
	movs	r1, #2
	movs	r2, #15
	.loc	3 558 22 is_stmt 0              @ ../../../CORTEX_MPU_M3_NUCLEO_L152RE_GCC/Demo/EventGroupsDemo.c:558:22
	str	r2, [sp, #12]                   @ 4-byte Spill
	bl	MPU_xEventGroupSync
	ldr	r1, [sp, #12]                   @ 4-byte Reload
	.loc	3 558 20                        @ ../../../CORTEX_MPU_M3_NUCLEO_L152RE_GCC/Demo/EventGroupsDemo.c:558:20
	str	r0, [sp, #40]
.Ltmp39:
	.loc	3 562 15 is_stmt 1              @ ../../../CORTEX_MPU_M3_NUCLEO_L152RE_GCC/Demo/EventGroupsDemo.c:562:15
	ldr	r0, [sp, #40]
	.loc	3 562 26 is_stmt 0              @ ../../../CORTEX_MPU_M3_NUCLEO_L152RE_GCC/Demo/EventGroupsDemo.c:562:26
	ands	r0, r1
.Ltmp40:
	.loc	3 562 13                        @ ../../../CORTEX_MPU_M3_NUCLEO_L152RE_GCC/Demo/EventGroupsDemo.c:562:13
	cmp	r0, #15
	beq	.LBB1_17
	b	.LBB1_16
.LBB1_16:                               @   in Loop: Header=BB1_1 Depth=1
	.loc	3 0 13                          @ ../../../CORTEX_MPU_M3_NUCLEO_L152RE_GCC/Demo/EventGroupsDemo.c:0:13
	movs	r0, #1
.Ltmp41:
	.loc	3 564 20 is_stmt 1              @ ../../../CORTEX_MPU_M3_NUCLEO_L152RE_GCC/Demo/EventGroupsDemo.c:564:20
	str	r0, [sp, #36]
	.loc	3 565 9                         @ ../../../CORTEX_MPU_M3_NUCLEO_L152RE_GCC/Demo/EventGroupsDemo.c:565:9
	b	.LBB1_17
.Ltmp42:
.LBB1_17:                               @   in Loop: Header=BB1_1 Depth=1
	.loc	3 568 33                        @ ../../../CORTEX_MPU_M3_NUCLEO_L152RE_GCC/Demo/EventGroupsDemo.c:568:33
	movw	r0, :lower16:xEventGroup
	movt	r0, :upper16:xEventGroup
	ldr	r0, [r0]
	movs	r1, #0
	.loc	3 568 13 is_stmt 0              @ ../../../CORTEX_MPU_M3_NUCLEO_L152RE_GCC/Demo/EventGroupsDemo.c:568:13
	bl	MPU_xEventGroupSetBits
.Ltmp43:
	.loc	3 568 13                        @ ../../../CORTEX_MPU_M3_NUCLEO_L152RE_GCC/Demo/EventGroupsDemo.c:568:13
	cbz	r0, .LBB1_19
	b	.LBB1_18
.LBB1_18:                               @   in Loop: Header=BB1_1 Depth=1
	.loc	3 0 13                          @ ../../../CORTEX_MPU_M3_NUCLEO_L152RE_GCC/Demo/EventGroupsDemo.c:0:13
	movs	r0, #1
.Ltmp44:
	.loc	3 570 20 is_stmt 1              @ ../../../CORTEX_MPU_M3_NUCLEO_L152RE_GCC/Demo/EventGroupsDemo.c:570:20
	str	r0, [sp, #36]
	.loc	3 571 9                         @ ../../../CORTEX_MPU_M3_NUCLEO_L152RE_GCC/Demo/EventGroupsDemo.c:571:9
	b	.LBB1_19
.Ltmp45:
.LBB1_19:                               @   in Loop: Header=BB1_1 Depth=1
	.loc	3 576 43                        @ ../../../CORTEX_MPU_M3_NUCLEO_L152RE_GCC/Demo/EventGroupsDemo.c:576:43
	movw	r0, :lower16:xEventGroup
	movt	r0, :upper16:xEventGroup
	ldr	r0, [r0]
	movs	r2, #0
	mvns	r1, r2
	.loc	3 576 22 is_stmt 0              @ ../../../CORTEX_MPU_M3_NUCLEO_L152RE_GCC/Demo/EventGroupsDemo.c:576:22
	str	r1, [sp]
	movs	r1, #15
	movs	r3, #1
	bl	MPU_xEventGroupWaitBits
	.loc	3 576 20                        @ ../../../CORTEX_MPU_M3_NUCLEO_L152RE_GCC/Demo/EventGroupsDemo.c:576:20
	str	r0, [sp, #40]
.Ltmp46:
	.loc	3 578 13 is_stmt 1              @ ../../../CORTEX_MPU_M3_NUCLEO_L152RE_GCC/Demo/EventGroupsDemo.c:578:13
	ldr	r0, [sp, #40]
.Ltmp47:
	.loc	3 578 13 is_stmt 0              @ ../../../CORTEX_MPU_M3_NUCLEO_L152RE_GCC/Demo/EventGroupsDemo.c:578:13
	cbz	r0, .LBB1_21
	b	.LBB1_20
.LBB1_20:                               @   in Loop: Header=BB1_1 Depth=1
	.loc	3 0 13                          @ ../../../CORTEX_MPU_M3_NUCLEO_L152RE_GCC/Demo/EventGroupsDemo.c:0:13
	movs	r0, #1
.Ltmp48:
	.loc	3 580 20 is_stmt 1              @ ../../../CORTEX_MPU_M3_NUCLEO_L152RE_GCC/Demo/EventGroupsDemo.c:580:20
	str	r0, [sp, #36]
	.loc	3 581 9                         @ ../../../CORTEX_MPU_M3_NUCLEO_L152RE_GCC/Demo/EventGroupsDemo.c:581:9
	b	.LBB1_21
.Ltmp49:
.LBB1_21:                               @   in Loop: Header=BB1_1 Depth=1
	.loc	3 583 13                        @ ../../../CORTEX_MPU_M3_NUCLEO_L152RE_GCC/Demo/EventGroupsDemo.c:583:13
	ldr	r0, [sp, #36]
.Ltmp50:
	.loc	3 583 13 is_stmt 0              @ ../../../CORTEX_MPU_M3_NUCLEO_L152RE_GCC/Demo/EventGroupsDemo.c:583:13
	cbnz	r0, .LBB1_23
	b	.LBB1_22
.LBB1_22:                               @   in Loop: Header=BB1_1 Depth=1
.Ltmp51:
	.loc	3 586 35 is_stmt 1              @ ../../../CORTEX_MPU_M3_NUCLEO_L152RE_GCC/Demo/EventGroupsDemo.c:586:35
	movw	r1, :lower16:ulTestSlaveCycles
	movt	r1, :upper16:ulTestSlaveCycles
	ldr	r0, [r1]
	adds	r0, r0, #1
	str	r0, [r1]
	.loc	3 587 9                         @ ../../../CORTEX_MPU_M3_NUCLEO_L152RE_GCC/Demo/EventGroupsDemo.c:587:9
	b	.LBB1_23
.Ltmp52:
.LBB1_23:                               @   in Loop: Header=BB1_1 Depth=1
	.loc	3 589 9                         @ ../../../CORTEX_MPU_M3_NUCLEO_L152RE_GCC/Demo/EventGroupsDemo.c:589:9
	ldr	r0, [sp, #36]
.Ltmp53:
	.loc	3 589 9 is_stmt 0               @ ../../../CORTEX_MPU_M3_NUCLEO_L152RE_GCC/Demo/EventGroupsDemo.c:589:9
	cbz	r0, .LBB1_26
	b	.LBB1_24
.LBB1_24:
.Ltmp54:
	.loc	3 589 9                         @ ../../../CORTEX_MPU_M3_NUCLEO_L152RE_GCC/Demo/EventGroupsDemo.c:589:9
	@APP
	cpsid i
	@NO_APP
	b	.LBB1_25
.LBB1_25:                               @ =>This Inner Loop Header: Depth=1
.Ltmp55:
	.loc	3 589 9                         @ ../../../CORTEX_MPU_M3_NUCLEO_L152RE_GCC/Demo/EventGroupsDemo.c:589:9
	b	.LBB1_25
.Ltmp56:
.LBB1_26:                               @   in Loop: Header=BB1_1 Depth=1
	.loc	3 438 5 is_stmt 1               @ ../../../CORTEX_MPU_M3_NUCLEO_L152RE_GCC/Demo/EventGroupsDemo.c:438:5
	b	.LBB1_1
.Ltmp57:
.Lfunc_end1:
	.size	prvTestSlaveTask, .Lfunc_end1-prvTestSlaveTask
	.cfi_endproc
	.cantunwind
	.fnend
                                        @ -- End function
	.section	.text.prvTestMasterTask,"ax",%progbits
	.p2align	1                               @ -- Begin function prvTestMasterTask
	.type	prvTestMasterTask,%function
	.code	16                              @ @prvTestMasterTask
	.thumb_func
prvTestMasterTask:
.Lfunc_begin2:
	.loc	3 295 0                         @ ../../../CORTEX_MPU_M3_NUCLEO_L152RE_GCC/Demo/EventGroupsDemo.c:295:0
	.fnstart
	.cfi_startproc
@ %bb.0:
	.save	{r7, lr}
	push	{r7, lr}
	.cfi_def_cfa_offset 8
	.cfi_offset lr, -4
	.cfi_offset r7, -8
	.pad	#16
	sub	sp, #16
	.cfi_def_cfa_offset 24
	str	r0, [sp, #12]
.Ltmp58:
	.loc	3 299 58 prologue_end           @ ../../../CORTEX_MPU_M3_NUCLEO_L152RE_GCC/Demo/EventGroupsDemo.c:299:58
	ldr	r0, [sp, #12]
	.loc	3 299 18 is_stmt 0              @ ../../../CORTEX_MPU_M3_NUCLEO_L152RE_GCC/Demo/EventGroupsDemo.c:299:18
	str	r0, [sp, #4]
	.loc	3 305 24 is_stmt 1              @ ../../../CORTEX_MPU_M3_NUCLEO_L152RE_GCC/Demo/EventGroupsDemo.c:305:24
	bl	MPU_xEventGroupCreate
	mov	r1, r0
	.loc	3 305 22 is_stmt 0              @ ../../../CORTEX_MPU_M3_NUCLEO_L152RE_GCC/Demo/EventGroupsDemo.c:305:22
	movw	r0, :lower16:xEventGroup
	movt	r0, :upper16:xEventGroup
	str	r1, [r0]
.Ltmp59:
	.loc	3 306 5 is_stmt 1               @ ../../../CORTEX_MPU_M3_NUCLEO_L152RE_GCC/Demo/EventGroupsDemo.c:306:5
	ldr	r0, [r0]
.Ltmp60:
	.loc	3 306 5 is_stmt 0               @ ../../../CORTEX_MPU_M3_NUCLEO_L152RE_GCC/Demo/EventGroupsDemo.c:306:5
	cbnz	r0, .LBB2_3
	b	.LBB2_1
.LBB2_1:
.Ltmp61:
	.loc	3 306 5                         @ ../../../CORTEX_MPU_M3_NUCLEO_L152RE_GCC/Demo/EventGroupsDemo.c:306:5
	@APP
	cpsid i
	@NO_APP
	b	.LBB2_2
.LBB2_2:                                @ =>This Inner Loop Header: Depth=1
.Ltmp62:
	.loc	3 306 5                         @ ../../../CORTEX_MPU_M3_NUCLEO_L152RE_GCC/Demo/EventGroupsDemo.c:306:5
	b	.LBB2_2
.Ltmp63:
.LBB2_3:
	.loc	3 311 14 is_stmt 1              @ ../../../CORTEX_MPU_M3_NUCLEO_L152RE_GCC/Demo/EventGroupsDemo.c:311:14
	bl	prvSelectiveBitsTestMasterFunction
	.loc	3 311 12 is_stmt 0              @ ../../../CORTEX_MPU_M3_NUCLEO_L152RE_GCC/Demo/EventGroupsDemo.c:311:12
	str	r0, [sp, #8]
	.loc	3 313 5 is_stmt 1               @ ../../../CORTEX_MPU_M3_NUCLEO_L152RE_GCC/Demo/EventGroupsDemo.c:313:5
	b	.LBB2_4
.LBB2_4:                                @ =>This Inner Loop Header: Depth=1
.Ltmp64:
	.loc	3 316 28                        @ ../../../CORTEX_MPU_M3_NUCLEO_L152RE_GCC/Demo/EventGroupsDemo.c:316:28
	bl	MPU_xEventGroupCreate
	mov	r1, r0
	.loc	3 316 26 is_stmt 0              @ ../../../CORTEX_MPU_M3_NUCLEO_L152RE_GCC/Demo/EventGroupsDemo.c:316:26
	movw	r0, :lower16:xEventGroup
	movt	r0, :upper16:xEventGroup
	str	r1, [r0]
.Ltmp65:
	.loc	3 317 9 is_stmt 1               @ ../../../CORTEX_MPU_M3_NUCLEO_L152RE_GCC/Demo/EventGroupsDemo.c:317:9
	ldr	r0, [r0]
.Ltmp66:
	.loc	3 317 9 is_stmt 0               @ ../../../CORTEX_MPU_M3_NUCLEO_L152RE_GCC/Demo/EventGroupsDemo.c:317:9
	cbnz	r0, .LBB2_7
	b	.LBB2_5
.LBB2_5:
.Ltmp67:
	.loc	3 317 9                         @ ../../../CORTEX_MPU_M3_NUCLEO_L152RE_GCC/Demo/EventGroupsDemo.c:317:9
	@APP
	cpsid i
	@NO_APP
	b	.LBB2_6
.LBB2_6:                                @ =>This Inner Loop Header: Depth=1
.Ltmp68:
	.loc	3 317 9                         @ ../../../CORTEX_MPU_M3_NUCLEO_L152RE_GCC/Demo/EventGroupsDemo.c:317:9
	b	.LBB2_6
.Ltmp69:
.LBB2_7:                                @   in Loop: Header=BB2_4 Depth=1
	.loc	3 321 55 is_stmt 1              @ ../../../CORTEX_MPU_M3_NUCLEO_L152RE_GCC/Demo/EventGroupsDemo.c:321:55
	ldr	r0, [sp, #8]
	.loc	3 321 63 is_stmt 0              @ ../../../CORTEX_MPU_M3_NUCLEO_L152RE_GCC/Demo/EventGroupsDemo.c:321:63
	ldr	r1, [sp, #4]
	.loc	3 321 18                        @ ../../../CORTEX_MPU_M3_NUCLEO_L152RE_GCC/Demo/EventGroupsDemo.c:321:18
	bl	prvBitCombinationTestMasterFunction
	.loc	3 321 16                        @ ../../../CORTEX_MPU_M3_NUCLEO_L152RE_GCC/Demo/EventGroupsDemo.c:321:16
	str	r0, [sp, #8]
	.loc	3 324 43 is_stmt 1              @ ../../../CORTEX_MPU_M3_NUCLEO_L152RE_GCC/Demo/EventGroupsDemo.c:324:43
	ldr	r0, [sp, #8]
	.loc	3 324 51 is_stmt 0              @ ../../../CORTEX_MPU_M3_NUCLEO_L152RE_GCC/Demo/EventGroupsDemo.c:324:51
	ldr	r1, [sp, #4]
	.loc	3 324 18                        @ ../../../CORTEX_MPU_M3_NUCLEO_L152RE_GCC/Demo/EventGroupsDemo.c:324:18
	bl	prvPerformTaskSyncTests
	.loc	3 324 16                        @ ../../../CORTEX_MPU_M3_NUCLEO_L152RE_GCC/Demo/EventGroupsDemo.c:324:16
	str	r0, [sp, #8]
	.loc	3 327 28 is_stmt 1              @ ../../../CORTEX_MPU_M3_NUCLEO_L152RE_GCC/Demo/EventGroupsDemo.c:327:28
	movw	r0, :lower16:xEventGroup
	movt	r0, :upper16:xEventGroup
	ldr	r0, [r0]
	.loc	3 327 9 is_stmt 0               @ ../../../CORTEX_MPU_M3_NUCLEO_L152RE_GCC/Demo/EventGroupsDemo.c:327:9
	bl	MPU_vEventGroupDelete
.Ltmp70:
	.loc	3 331 28 is_stmt 1              @ ../../../CORTEX_MPU_M3_NUCLEO_L152RE_GCC/Demo/EventGroupsDemo.c:331:28
	ldr	r0, [sp, #4]
	.loc	3 331 13 is_stmt 0              @ ../../../CORTEX_MPU_M3_NUCLEO_L152RE_GCC/Demo/EventGroupsDemo.c:331:13
	bl	MPU_eTaskGetState
.Ltmp71:
	.loc	3 331 13                        @ ../../../CORTEX_MPU_M3_NUCLEO_L152RE_GCC/Demo/EventGroupsDemo.c:331:13
	cmp	r0, #3
	beq	.LBB2_9
	b	.LBB2_8
.LBB2_8:                                @   in Loop: Header=BB2_4 Depth=1
	.loc	3 0 13                          @ ../../../CORTEX_MPU_M3_NUCLEO_L152RE_GCC/Demo/EventGroupsDemo.c:0:13
	movs	r0, #1
.Ltmp72:
	.loc	3 333 20 is_stmt 1              @ ../../../CORTEX_MPU_M3_NUCLEO_L152RE_GCC/Demo/EventGroupsDemo.c:333:20
	str	r0, [sp, #8]
	.loc	3 334 9                         @ ../../../CORTEX_MPU_M3_NUCLEO_L152RE_GCC/Demo/EventGroupsDemo.c:334:9
	b	.LBB2_9
.Ltmp73:
.LBB2_9:                                @   in Loop: Header=BB2_4 Depth=1
	.loc	3 336 28                        @ ../../../CORTEX_MPU_M3_NUCLEO_L152RE_GCC/Demo/EventGroupsDemo.c:336:28
	movw	r0, :lower16:xSyncTaskHandle
	movt	r0, :upper16:xSyncTaskHandle
	ldr	r0, [r0]
	.loc	3 336 13 is_stmt 0              @ ../../../CORTEX_MPU_M3_NUCLEO_L152RE_GCC/Demo/EventGroupsDemo.c:336:13
	bl	MPU_eTaskGetState
.Ltmp74:
	.loc	3 336 13                        @ ../../../CORTEX_MPU_M3_NUCLEO_L152RE_GCC/Demo/EventGroupsDemo.c:336:13
	cmp	r0, #3
	beq	.LBB2_11
	b	.LBB2_10
.LBB2_10:                               @   in Loop: Header=BB2_4 Depth=1
	.loc	3 0 13                          @ ../../../CORTEX_MPU_M3_NUCLEO_L152RE_GCC/Demo/EventGroupsDemo.c:0:13
	movs	r0, #1
.Ltmp75:
	.loc	3 338 20 is_stmt 1              @ ../../../CORTEX_MPU_M3_NUCLEO_L152RE_GCC/Demo/EventGroupsDemo.c:338:20
	str	r0, [sp, #8]
	.loc	3 339 9                         @ ../../../CORTEX_MPU_M3_NUCLEO_L152RE_GCC/Demo/EventGroupsDemo.c:339:9
	b	.LBB2_11
.Ltmp76:
.LBB2_11:                               @   in Loop: Header=BB2_4 Depth=1
	.loc	3 341 28                        @ ../../../CORTEX_MPU_M3_NUCLEO_L152RE_GCC/Demo/EventGroupsDemo.c:341:28
	movw	r0, :lower16:xSyncTaskHandle
	movt	r0, :upper16:xSyncTaskHandle
	ldr	r0, [r0, #4]
	.loc	3 341 13 is_stmt 0              @ ../../../CORTEX_MPU_M3_NUCLEO_L152RE_GCC/Demo/EventGroupsDemo.c:341:13
	bl	MPU_eTaskGetState
.Ltmp77:
	.loc	3 341 13                        @ ../../../CORTEX_MPU_M3_NUCLEO_L152RE_GCC/Demo/EventGroupsDemo.c:341:13
	cmp	r0, #3
	beq	.LBB2_13
	b	.LBB2_12
.LBB2_12:                               @   in Loop: Header=BB2_4 Depth=1
	.loc	3 0 13                          @ ../../../CORTEX_MPU_M3_NUCLEO_L152RE_GCC/Demo/EventGroupsDemo.c:0:13
	movs	r0, #1
.Ltmp78:
	.loc	3 343 20 is_stmt 1              @ ../../../CORTEX_MPU_M3_NUCLEO_L152RE_GCC/Demo/EventGroupsDemo.c:343:20
	str	r0, [sp, #8]
	.loc	3 344 9                         @ ../../../CORTEX_MPU_M3_NUCLEO_L152RE_GCC/Demo/EventGroupsDemo.c:344:9
	b	.LBB2_13
.Ltmp79:
.LBB2_13:                               @   in Loop: Header=BB2_4 Depth=1
	.loc	3 347 13                        @ ../../../CORTEX_MPU_M3_NUCLEO_L152RE_GCC/Demo/EventGroupsDemo.c:347:13
	ldr	r0, [sp, #8]
.Ltmp80:
	.loc	3 347 13 is_stmt 0              @ ../../../CORTEX_MPU_M3_NUCLEO_L152RE_GCC/Demo/EventGroupsDemo.c:347:13
	cbnz	r0, .LBB2_15
	b	.LBB2_14
.LBB2_14:                               @   in Loop: Header=BB2_4 Depth=1
.Ltmp81:
	.loc	3 349 36 is_stmt 1              @ ../../../CORTEX_MPU_M3_NUCLEO_L152RE_GCC/Demo/EventGroupsDemo.c:349:36
	movw	r1, :lower16:ulTestMasterCycles
	movt	r1, :upper16:ulTestMasterCycles
	ldr	r0, [r1]
	adds	r0, r0, #1
	str	r0, [r1]
	.loc	3 350 9                         @ ../../../CORTEX_MPU_M3_NUCLEO_L152RE_GCC/Demo/EventGroupsDemo.c:350:9
	b	.LBB2_15
.Ltmp82:
.LBB2_15:                               @   in Loop: Header=BB2_4 Depth=1
	.loc	3 352 9                         @ ../../../CORTEX_MPU_M3_NUCLEO_L152RE_GCC/Demo/EventGroupsDemo.c:352:9
	ldr	r0, [sp, #8]
.Ltmp83:
	.loc	3 352 9 is_stmt 0               @ ../../../CORTEX_MPU_M3_NUCLEO_L152RE_GCC/Demo/EventGroupsDemo.c:352:9
	cbz	r0, .LBB2_18
	b	.LBB2_16
.LBB2_16:
.Ltmp84:
	.loc	3 352 9                         @ ../../../CORTEX_MPU_M3_NUCLEO_L152RE_GCC/Demo/EventGroupsDemo.c:352:9
	@APP
	cpsid i
	@NO_APP
	b	.LBB2_17
.LBB2_17:                               @ =>This Inner Loop Header: Depth=1
.Ltmp85:
	.loc	3 352 9                         @ ../../../CORTEX_MPU_M3_NUCLEO_L152RE_GCC/Demo/EventGroupsDemo.c:352:9
	b	.LBB2_17
.Ltmp86:
.LBB2_18:                               @   in Loop: Header=BB2_4 Depth=1
	.loc	3 313 5 is_stmt 1               @ ../../../CORTEX_MPU_M3_NUCLEO_L152RE_GCC/Demo/EventGroupsDemo.c:313:5
	b	.LBB2_4
.Ltmp87:
.Lfunc_end2:
	.size	prvTestMasterTask, .Lfunc_end2-prvTestMasterTask
	.cfi_endproc
	.cantunwind
	.fnend
                                        @ -- End function
	.section	.text.prvSyncTask,"ax",%progbits
	.p2align	1                               @ -- Begin function prvSyncTask
	.type	prvSyncTask,%function
	.code	16                              @ @prvSyncTask
	.thumb_func
prvSyncTask:
.Lfunc_begin3:
	.loc	3 358 0                         @ ../../../CORTEX_MPU_M3_NUCLEO_L152RE_GCC/Demo/EventGroupsDemo.c:358:0
	.fnstart
	.cfi_startproc
@ %bb.0:
	.save	{r7, lr}
	push	{r7, lr}
	.cfi_def_cfa_offset 8
	.cfi_offset lr, -4
	.cfi_offset r7, -8
	.pad	#40
	sub	sp, #40
	.cfi_def_cfa_offset 48
	str	r0, [sp, #36]
.Ltmp88:
	.loc	3 364 5 prologue_end            @ ../../../CORTEX_MPU_M3_NUCLEO_L152RE_GCC/Demo/EventGroupsDemo.c:364:5
	bl	prvSelectiveBitsTestSlaveFunction
	.loc	3 368 44                        @ ../../../CORTEX_MPU_M3_NUCLEO_L152RE_GCC/Demo/EventGroupsDemo.c:368:44
	ldr	r0, [sp, #36]
	.loc	3 368 26 is_stmt 0              @ ../../../CORTEX_MPU_M3_NUCLEO_L152RE_GCC/Demo/EventGroupsDemo.c:368:26
	str	r0, [sp, #32]
	.loc	3 370 5 is_stmt 1               @ ../../../CORTEX_MPU_M3_NUCLEO_L152RE_GCC/Demo/EventGroupsDemo.c:370:5
	b	.LBB3_1
.LBB3_1:                                @ =>This Inner Loop Header: Depth=1
	.loc	3 0 5 is_stmt 0                 @ ../../../CORTEX_MPU_M3_NUCLEO_L152RE_GCC/Demo/EventGroupsDemo.c:0:5
	movs	r0, #0
.Ltmp89:
	.loc	3 377 9 is_stmt 1               @ ../../../CORTEX_MPU_M3_NUCLEO_L152RE_GCC/Demo/EventGroupsDemo.c:377:9
	str	r0, [sp, #20]                   @ 4-byte Spill
	bl	MPU_vTaskSuspend
	ldr	r3, [sp, #20]                   @ 4-byte Reload
	.loc	3 386 39                        @ ../../../CORTEX_MPU_M3_NUCLEO_L152RE_GCC/Demo/EventGroupsDemo.c:386:39
	movw	r0, :lower16:xEventGroup
	movt	r0, :upper16:xEventGroup
	ldr	r0, [r0]
	.loc	3 387 39                        @ ../../../CORTEX_MPU_M3_NUCLEO_L152RE_GCC/Demo/EventGroupsDemo.c:387:39
	ldr	r1, [sp, #32]
	movs	r2, #15
	.loc	3 386 22                        @ ../../../CORTEX_MPU_M3_NUCLEO_L152RE_GCC/Demo/EventGroupsDemo.c:386:22
	str	r2, [sp, #24]                   @ 4-byte Spill
	bl	MPU_xEventGroupSync
	ldr	r1, [sp, #24]                   @ 4-byte Reload
	.loc	3 386 20 is_stmt 0              @ ../../../CORTEX_MPU_M3_NUCLEO_L152RE_GCC/Demo/EventGroupsDemo.c:386:20
	str	r0, [sp, #28]
.Ltmp90:
	.loc	3 393 9 is_stmt 1               @ ../../../CORTEX_MPU_M3_NUCLEO_L152RE_GCC/Demo/EventGroupsDemo.c:393:9
	ldr	r0, [sp, #28]
	ands	r0, r1
.Ltmp91:
	.loc	3 393 9 is_stmt 0               @ ../../../CORTEX_MPU_M3_NUCLEO_L152RE_GCC/Demo/EventGroupsDemo.c:393:9
	cmp	r0, #15
	bne	.LBB3_4
	b	.LBB3_2
.LBB3_2:
.Ltmp92:
	.loc	3 393 9                         @ ../../../CORTEX_MPU_M3_NUCLEO_L152RE_GCC/Demo/EventGroupsDemo.c:393:9
	@APP
	cpsid i
	@NO_APP
	b	.LBB3_3
.LBB3_3:                                @ =>This Inner Loop Header: Depth=1
.Ltmp93:
	.loc	3 393 9                         @ ../../../CORTEX_MPU_M3_NUCLEO_L152RE_GCC/Demo/EventGroupsDemo.c:393:9
	b	.LBB3_3
.Ltmp94:
.LBB3_4:                                @   in Loop: Header=BB3_1 Depth=1
	.loc	3 395 39 is_stmt 1              @ ../../../CORTEX_MPU_M3_NUCLEO_L152RE_GCC/Demo/EventGroupsDemo.c:395:39
	movw	r0, :lower16:xEventGroup
	movt	r0, :upper16:xEventGroup
	ldr	r0, [r0]
	.loc	3 396 39                        @ ../../../CORTEX_MPU_M3_NUCLEO_L152RE_GCC/Demo/EventGroupsDemo.c:396:39
	ldr	r1, [sp, #32]
	movs	r2, #0
	mvns	r3, r2
	movs	r2, #15
	.loc	3 395 22                        @ ../../../CORTEX_MPU_M3_NUCLEO_L152RE_GCC/Demo/EventGroupsDemo.c:395:22
	str	r2, [sp, #16]                   @ 4-byte Spill
	bl	MPU_xEventGroupSync
	ldr	r1, [sp, #16]                   @ 4-byte Reload
	.loc	3 395 20 is_stmt 0              @ ../../../CORTEX_MPU_M3_NUCLEO_L152RE_GCC/Demo/EventGroupsDemo.c:395:20
	str	r0, [sp, #28]
.Ltmp95:
	.loc	3 403 9 is_stmt 1               @ ../../../CORTEX_MPU_M3_NUCLEO_L152RE_GCC/Demo/EventGroupsDemo.c:403:9
	ldr	r0, [sp, #28]
	ands	r0, r1
.Ltmp96:
	.loc	3 403 9 is_stmt 0               @ ../../../CORTEX_MPU_M3_NUCLEO_L152RE_GCC/Demo/EventGroupsDemo.c:403:9
	cmp	r0, #15
	beq	.LBB3_7
	b	.LBB3_5
.LBB3_5:
.Ltmp97:
	.loc	3 403 9                         @ ../../../CORTEX_MPU_M3_NUCLEO_L152RE_GCC/Demo/EventGroupsDemo.c:403:9
	@APP
	cpsid i
	@NO_APP
	b	.LBB3_6
.LBB3_6:                                @ =>This Inner Loop Header: Depth=1
.Ltmp98:
	.loc	3 403 9                         @ ../../../CORTEX_MPU_M3_NUCLEO_L152RE_GCC/Demo/EventGroupsDemo.c:403:9
	b	.LBB3_6
.Ltmp99:
.LBB3_7:                                @   in Loop: Header=BB3_1 Depth=1
	.loc	3 0 9                           @ ../../../CORTEX_MPU_M3_NUCLEO_L152RE_GCC/Demo/EventGroupsDemo.c:0:9
	movs	r0, #0
	.loc	3 409 9 is_stmt 1               @ ../../../CORTEX_MPU_M3_NUCLEO_L152RE_GCC/Demo/EventGroupsDemo.c:409:9
	str	r0, [sp, #8]                    @ 4-byte Spill
	bl	MPU_vTaskSuspend
	ldr	r2, [sp, #8]                    @ 4-byte Reload
	.loc	3 414 39                        @ ../../../CORTEX_MPU_M3_NUCLEO_L152RE_GCC/Demo/EventGroupsDemo.c:414:39
	movw	r0, :lower16:xEventGroup
	movt	r0, :upper16:xEventGroup
	ldr	r0, [r0]
	.loc	3 414 57 is_stmt 0              @ ../../../CORTEX_MPU_M3_NUCLEO_L152RE_GCC/Demo/EventGroupsDemo.c:414:57
	ldr	r1, [sp, #32]
	mvns	r3, r2
	movs	r2, #15
	.loc	3 414 22                        @ ../../../CORTEX_MPU_M3_NUCLEO_L152RE_GCC/Demo/EventGroupsDemo.c:414:22
	str	r2, [sp, #12]                   @ 4-byte Spill
	bl	MPU_xEventGroupSync
	ldr	r1, [sp, #12]                   @ 4-byte Reload
	.loc	3 414 20                        @ ../../../CORTEX_MPU_M3_NUCLEO_L152RE_GCC/Demo/EventGroupsDemo.c:414:20
	str	r0, [sp, #28]
.Ltmp100:
	.loc	3 419 9 is_stmt 1               @ ../../../CORTEX_MPU_M3_NUCLEO_L152RE_GCC/Demo/EventGroupsDemo.c:419:9
	ldr	r0, [sp, #28]
	ands	r0, r1
.Ltmp101:
	.loc	3 419 9 is_stmt 0               @ ../../../CORTEX_MPU_M3_NUCLEO_L152RE_GCC/Demo/EventGroupsDemo.c:419:9
	cmp	r0, #15
	beq	.LBB3_10
	b	.LBB3_8
.LBB3_8:
.Ltmp102:
	.loc	3 419 9                         @ ../../../CORTEX_MPU_M3_NUCLEO_L152RE_GCC/Demo/EventGroupsDemo.c:419:9
	@APP
	cpsid i
	@NO_APP
	b	.LBB3_9
.LBB3_9:                                @ =>This Inner Loop Header: Depth=1
.Ltmp103:
	.loc	3 419 9                         @ ../../../CORTEX_MPU_M3_NUCLEO_L152RE_GCC/Demo/EventGroupsDemo.c:419:9
	b	.LBB3_9
.Ltmp104:
.LBB3_10:                               @   in Loop: Header=BB3_1 Depth=1
	.loc	3 424 43 is_stmt 1              @ ../../../CORTEX_MPU_M3_NUCLEO_L152RE_GCC/Demo/EventGroupsDemo.c:424:43
	movw	r0, :lower16:xEventGroup
	movt	r0, :upper16:xEventGroup
	ldr	r0, [r0]
	movs	r2, #0
	mvns	r1, r2
	.loc	3 424 22 is_stmt 0              @ ../../../CORTEX_MPU_M3_NUCLEO_L152RE_GCC/Demo/EventGroupsDemo.c:424:22
	str	r1, [sp]
	movs	r1, #15
	movs	r3, #1
	bl	MPU_xEventGroupWaitBits
	.loc	3 424 20                        @ ../../../CORTEX_MPU_M3_NUCLEO_L152RE_GCC/Demo/EventGroupsDemo.c:424:20
	str	r0, [sp, #28]
.Ltmp105:
	.loc	3 425 9 is_stmt 1               @ ../../../CORTEX_MPU_M3_NUCLEO_L152RE_GCC/Demo/EventGroupsDemo.c:425:9
	ldr	r0, [sp, #28]
.Ltmp106:
	.loc	3 425 9 is_stmt 0               @ ../../../CORTEX_MPU_M3_NUCLEO_L152RE_GCC/Demo/EventGroupsDemo.c:425:9
	cbz	r0, .LBB3_13
	b	.LBB3_11
.LBB3_11:
.Ltmp107:
	.loc	3 425 9                         @ ../../../CORTEX_MPU_M3_NUCLEO_L152RE_GCC/Demo/EventGroupsDemo.c:425:9
	@APP
	cpsid i
	@NO_APP
	b	.LBB3_12
.LBB3_12:                               @ =>This Inner Loop Header: Depth=1
.Ltmp108:
	.loc	3 425 9                         @ ../../../CORTEX_MPU_M3_NUCLEO_L152RE_GCC/Demo/EventGroupsDemo.c:425:9
	b	.LBB3_12
.Ltmp109:
.LBB3_13:                               @   in Loop: Header=BB3_1 Depth=1
	.loc	3 370 5 is_stmt 1               @ ../../../CORTEX_MPU_M3_NUCLEO_L152RE_GCC/Demo/EventGroupsDemo.c:370:5
	b	.LBB3_1
.Ltmp110:
.Lfunc_end3:
	.size	prvSyncTask, .Lfunc_end3-prvSyncTask
	.cfi_endproc
	.cantunwind
	.fnend
                                        @ -- End function
	.section	.text.vPeriodicEventGroupsProcessing,"ax",%progbits
	.hidden	vPeriodicEventGroupsProcessing  @ -- Begin function vPeriodicEventGroupsProcessing
	.globl	vPeriodicEventGroupsProcessing
	.p2align	1
	.type	vPeriodicEventGroupsProcessing,%function
	.code	16                              @ @vPeriodicEventGroupsProcessing
	.thumb_func
vPeriodicEventGroupsProcessing:
.Lfunc_begin4:
	.loc	3 1043 0                        @ ../../../CORTEX_MPU_M3_NUCLEO_L152RE_GCC/Demo/EventGroupsDemo.c:1043:0
	.fnstart
	.cfi_startproc
@ %bb.0:
	.save	{r7, lr}
	push	{r7, lr}
	.cfi_def_cfa_offset 8
	.cfi_offset lr, -4
	.cfi_offset r7, -8
	.pad	#24
	sub	sp, #24
	.cfi_def_cfa_offset 32
	movs	r0, #100
.Ltmp111:
	.loc	3 1045 22 prologue_end          @ ../../../CORTEX_MPU_M3_NUCLEO_L152RE_GCC/Demo/EventGroupsDemo.c:1045:22
	str	r0, [sp, #20]
	movs	r0, #200
	.loc	3 1045 42 is_stmt 0             @ ../../../CORTEX_MPU_M3_NUCLEO_L152RE_GCC/Demo/EventGroupsDemo.c:1045:42
	str	r0, [sp, #16]
	movw	r0, #300
	.loc	3 1045 63                       @ ../../../CORTEX_MPU_M3_NUCLEO_L152RE_GCC/Demo/EventGroupsDemo.c:1045:63
	str	r0, [sp, #12]
	movs	r0, #18
	.loc	3 1046 23 is_stmt 1             @ ../../../CORTEX_MPU_M3_NUCLEO_L152RE_GCC/Demo/EventGroupsDemo.c:1046:23
	str	r0, [sp, #8]
.Ltmp112:
	.loc	3 1054 5                        @ ../../../CORTEX_MPU_M3_NUCLEO_L152RE_GCC/Demo/EventGroupsDemo.c:1054:5
	movw	r0, :lower16:xISREventGroup
	movt	r0, :upper16:xISREventGroup
	ldr	r0, [r0]
.Ltmp113:
	.loc	3 1054 5 is_stmt 0              @ ../../../CORTEX_MPU_M3_NUCLEO_L152RE_GCC/Demo/EventGroupsDemo.c:1054:5
	cbnz	r0, .LBB4_3
	b	.LBB4_1
.LBB4_1:
.Ltmp114:
	.loc	3 1054 5                        @ ../../../CORTEX_MPU_M3_NUCLEO_L152RE_GCC/Demo/EventGroupsDemo.c:1054:5
	@APP
	cpsid i
	@NO_APP
	b	.LBB4_2
.LBB4_2:                                @ =>This Inner Loop Header: Depth=1
.Ltmp115:
	.loc	3 1054 5                        @ ../../../CORTEX_MPU_M3_NUCLEO_L152RE_GCC/Demo/EventGroupsDemo.c:1054:5
	b	.LBB4_2
.Ltmp116:
.LBB4_3:
	.loc	3 1056 15 is_stmt 1             @ ../../../CORTEX_MPU_M3_NUCLEO_L152RE_GCC/Demo/EventGroupsDemo.c:1056:15
	movw	r0, :lower16:vPeriodicEventGroupsProcessing.xCallCount
	movt	r0, :upper16:vPeriodicEventGroupsProcessing.xCallCount
	ldr	r1, [r0]
	adds	r1, r1, #1
	str	r1, [r0]
.Ltmp117:
	.loc	3 1058 9                        @ ../../../CORTEX_MPU_M3_NUCLEO_L152RE_GCC/Demo/EventGroupsDemo.c:1058:9
	ldr	r0, [r0]
.Ltmp118:
	.loc	3 1058 9 is_stmt 0              @ ../../../CORTEX_MPU_M3_NUCLEO_L152RE_GCC/Demo/EventGroupsDemo.c:1058:9
	cmp	r0, #100
	bne	.LBB4_10
	b	.LBB4_4
.LBB4_4:
.Ltmp119:
	.loc	3 1061 49 is_stmt 1             @ ../../../CORTEX_MPU_M3_NUCLEO_L152RE_GCC/Demo/EventGroupsDemo.c:1061:49
	movw	r0, :lower16:xISREventGroup
	movt	r0, :upper16:xISREventGroup
	ldr	r0, [r0]
	.loc	3 1061 22 is_stmt 0             @ ../../../CORTEX_MPU_M3_NUCLEO_L152RE_GCC/Demo/EventGroupsDemo.c:1061:22
	bl	xEventGroupGetBitsFromISR
	.loc	3 1061 20                       @ ../../../CORTEX_MPU_M3_NUCLEO_L152RE_GCC/Demo/EventGroupsDemo.c:1061:20
	str	r0, [sp, #4]
.Ltmp120:
	.loc	3 1063 13 is_stmt 1             @ ../../../CORTEX_MPU_M3_NUCLEO_L152RE_GCC/Demo/EventGroupsDemo.c:1063:13
	ldr	r0, [sp, #4]
.Ltmp121:
	.loc	3 1063 13 is_stmt 0             @ ../../../CORTEX_MPU_M3_NUCLEO_L152RE_GCC/Demo/EventGroupsDemo.c:1063:13
	cbz	r0, .LBB4_6
	b	.LBB4_5
.LBB4_5:
.Ltmp122:
	.loc	3 1065 27 is_stmt 1             @ ../../../CORTEX_MPU_M3_NUCLEO_L152RE_GCC/Demo/EventGroupsDemo.c:1065:27
	movw	r1, :lower16:vPeriodicEventGroupsProcessing.xISRTestError
	movt	r1, :upper16:vPeriodicEventGroupsProcessing.xISRTestError
	movs	r0, #1
	str	r0, [r1]
	.loc	3 1066 9                        @ ../../../CORTEX_MPU_M3_NUCLEO_L152RE_GCC/Demo/EventGroupsDemo.c:1066:9
	b	.LBB4_9
.Ltmp123:
.LBB4_6:
	.loc	3 1072 57                       @ ../../../CORTEX_MPU_M3_NUCLEO_L152RE_GCC/Demo/EventGroupsDemo.c:1072:57
	movw	r0, :lower16:xISREventGroup
	movt	r0, :upper16:xISREventGroup
	ldr	r0, [r0]
	movs	r1, #18
	movs	r2, #0
	.loc	3 1072 30 is_stmt 0             @ ../../../CORTEX_MPU_M3_NUCLEO_L152RE_GCC/Demo/EventGroupsDemo.c:1072:30
	bl	xEventGroupSetBitsFromISR
	.loc	3 1072 28                       @ ../../../CORTEX_MPU_M3_NUCLEO_L152RE_GCC/Demo/EventGroupsDemo.c:1072:28
	str	r0, [sp]
.Ltmp124:
	.loc	3 1074 17 is_stmt 1             @ ../../../CORTEX_MPU_M3_NUCLEO_L152RE_GCC/Demo/EventGroupsDemo.c:1074:17
	ldr	r0, [sp]
.Ltmp125:
	.loc	3 1074 17 is_stmt 0             @ ../../../CORTEX_MPU_M3_NUCLEO_L152RE_GCC/Demo/EventGroupsDemo.c:1074:17
	cmp	r0, #1
	beq	.LBB4_8
	b	.LBB4_7
.LBB4_7:
.Ltmp126:
	.loc	3 1076 31 is_stmt 1             @ ../../../CORTEX_MPU_M3_NUCLEO_L152RE_GCC/Demo/EventGroupsDemo.c:1076:31
	movw	r1, :lower16:vPeriodicEventGroupsProcessing.xISRTestError
	movt	r1, :upper16:vPeriodicEventGroupsProcessing.xISRTestError
	movs	r0, #1
	str	r0, [r1]
	.loc	3 1077 13                       @ ../../../CORTEX_MPU_M3_NUCLEO_L152RE_GCC/Demo/EventGroupsDemo.c:1077:13
	b	.LBB4_8
.Ltmp127:
.LBB4_8:
	.loc	3 0 13 is_stmt 0                @ ../../../CORTEX_MPU_M3_NUCLEO_L152RE_GCC/Demo/EventGroupsDemo.c:0:13
	b	.LBB4_9
.LBB4_9:
	.loc	3 1079 5 is_stmt 1              @ ../../../CORTEX_MPU_M3_NUCLEO_L152RE_GCC/Demo/EventGroupsDemo.c:1079:5
	b	.LBB4_23
.Ltmp128:
.LBB4_10:
	.loc	3 1080 14                       @ ../../../CORTEX_MPU_M3_NUCLEO_L152RE_GCC/Demo/EventGroupsDemo.c:1080:14
	movw	r0, :lower16:vPeriodicEventGroupsProcessing.xCallCount
	movt	r0, :upper16:vPeriodicEventGroupsProcessing.xCallCount
	ldr	r0, [r0]
.Ltmp129:
	.loc	3 1080 14 is_stmt 0             @ ../../../CORTEX_MPU_M3_NUCLEO_L152RE_GCC/Demo/EventGroupsDemo.c:1080:14
	cmp	r0, #200
	bne	.LBB4_14
	b	.LBB4_11
.LBB4_11:
.Ltmp130:
	.loc	3 1083 49 is_stmt 1             @ ../../../CORTEX_MPU_M3_NUCLEO_L152RE_GCC/Demo/EventGroupsDemo.c:1083:49
	movw	r0, :lower16:xISREventGroup
	movt	r0, :upper16:xISREventGroup
	ldr	r0, [r0]
	.loc	3 1083 22 is_stmt 0             @ ../../../CORTEX_MPU_M3_NUCLEO_L152RE_GCC/Demo/EventGroupsDemo.c:1083:22
	bl	xEventGroupGetBitsFromISR
	.loc	3 1083 20                       @ ../../../CORTEX_MPU_M3_NUCLEO_L152RE_GCC/Demo/EventGroupsDemo.c:1083:20
	str	r0, [sp, #4]
.Ltmp131:
	.loc	3 1085 13 is_stmt 1             @ ../../../CORTEX_MPU_M3_NUCLEO_L152RE_GCC/Demo/EventGroupsDemo.c:1085:13
	ldr	r0, [sp, #4]
.Ltmp132:
	.loc	3 1085 13 is_stmt 0             @ ../../../CORTEX_MPU_M3_NUCLEO_L152RE_GCC/Demo/EventGroupsDemo.c:1085:13
	cmp	r0, #18
	beq	.LBB4_13
	b	.LBB4_12
.LBB4_12:
.Ltmp133:
	.loc	3 1087 27 is_stmt 1             @ ../../../CORTEX_MPU_M3_NUCLEO_L152RE_GCC/Demo/EventGroupsDemo.c:1087:27
	movw	r1, :lower16:vPeriodicEventGroupsProcessing.xISRTestError
	movt	r1, :upper16:vPeriodicEventGroupsProcessing.xISRTestError
	movs	r0, #1
	str	r0, [r1]
	.loc	3 1088 9                        @ ../../../CORTEX_MPU_M3_NUCLEO_L152RE_GCC/Demo/EventGroupsDemo.c:1088:9
	b	.LBB4_13
.Ltmp134:
.LBB4_13:
	.loc	3 1089 5                        @ ../../../CORTEX_MPU_M3_NUCLEO_L152RE_GCC/Demo/EventGroupsDemo.c:1089:5
	b	.LBB4_22
.Ltmp135:
.LBB4_14:
	.loc	3 1090 14                       @ ../../../CORTEX_MPU_M3_NUCLEO_L152RE_GCC/Demo/EventGroupsDemo.c:1090:14
	movw	r0, :lower16:vPeriodicEventGroupsProcessing.xCallCount
	movt	r0, :upper16:vPeriodicEventGroupsProcessing.xCallCount
	ldr	r0, [r0]
	movw	r1, #300
.Ltmp136:
	.loc	3 1090 14 is_stmt 0             @ ../../../CORTEX_MPU_M3_NUCLEO_L152RE_GCC/Demo/EventGroupsDemo.c:1090:14
	cmp	r0, r1
	bne	.LBB4_20
	b	.LBB4_15
.LBB4_15:
.Ltmp137:
	.loc	3 1093 67 is_stmt 1             @ ../../../CORTEX_MPU_M3_NUCLEO_L152RE_GCC/Demo/EventGroupsDemo.c:1093:67
	movw	r0, :lower16:xISREventGroup
	movt	r0, :upper16:xISREventGroup
	ldr	r0, [r0]
	movs	r1, #18
	.loc	3 1093 38 is_stmt 0             @ ../../../CORTEX_MPU_M3_NUCLEO_L152RE_GCC/Demo/EventGroupsDemo.c:1093:38
	bl	xEventGroupClearBitsFromISR
	.loc	3 1093 20                       @ ../../../CORTEX_MPU_M3_NUCLEO_L152RE_GCC/Demo/EventGroupsDemo.c:1093:20
	str	r0, [sp, #4]
.Ltmp138:
	.loc	3 1096 13 is_stmt 1             @ ../../../CORTEX_MPU_M3_NUCLEO_L152RE_GCC/Demo/EventGroupsDemo.c:1096:13
	ldr	r0, [sp, #4]
.Ltmp139:
	.loc	3 1096 13 is_stmt 0             @ ../../../CORTEX_MPU_M3_NUCLEO_L152RE_GCC/Demo/EventGroupsDemo.c:1096:13
	cmp	r0, #1
	beq	.LBB4_17
	b	.LBB4_16
.LBB4_16:
.Ltmp140:
	.loc	3 1098 27 is_stmt 1             @ ../../../CORTEX_MPU_M3_NUCLEO_L152RE_GCC/Demo/EventGroupsDemo.c:1098:27
	movw	r1, :lower16:vPeriodicEventGroupsProcessing.xISRTestError
	movt	r1, :upper16:vPeriodicEventGroupsProcessing.xISRTestError
	movs	r0, #1
	str	r0, [r1]
	.loc	3 1099 9                        @ ../../../CORTEX_MPU_M3_NUCLEO_L152RE_GCC/Demo/EventGroupsDemo.c:1099:9
	b	.LBB4_17
.Ltmp141:
.LBB4_17:
	.loc	3 1102 20                       @ ../../../CORTEX_MPU_M3_NUCLEO_L152RE_GCC/Demo/EventGroupsDemo.c:1102:20
	movw	r1, :lower16:vPeriodicEventGroupsProcessing.xCallCount
	movt	r1, :upper16:vPeriodicEventGroupsProcessing.xCallCount
	movs	r0, #0
	str	r0, [r1]
.Ltmp142:
	.loc	3 1106 13                       @ ../../../CORTEX_MPU_M3_NUCLEO_L152RE_GCC/Demo/EventGroupsDemo.c:1106:13
	movw	r0, :lower16:vPeriodicEventGroupsProcessing.xISRTestError
	movt	r0, :upper16:vPeriodicEventGroupsProcessing.xISRTestError
	ldr	r0, [r0]
.Ltmp143:
	.loc	3 1106 13 is_stmt 0             @ ../../../CORTEX_MPU_M3_NUCLEO_L152RE_GCC/Demo/EventGroupsDemo.c:1106:13
	cbnz	r0, .LBB4_19
	b	.LBB4_18
.LBB4_18:
.Ltmp144:
	.loc	3 1108 24 is_stmt 1             @ ../../../CORTEX_MPU_M3_NUCLEO_L152RE_GCC/Demo/EventGroupsDemo.c:1108:24
	movw	r1, :lower16:ulISRCycles
	movt	r1, :upper16:ulISRCycles
	ldr	r0, [r1]
	adds	r0, r0, #1
	str	r0, [r1]
	.loc	3 1109 9                        @ ../../../CORTEX_MPU_M3_NUCLEO_L152RE_GCC/Demo/EventGroupsDemo.c:1109:9
	b	.LBB4_19
.Ltmp145:
.LBB4_19:
	.loc	3 1110 5                        @ ../../../CORTEX_MPU_M3_NUCLEO_L152RE_GCC/Demo/EventGroupsDemo.c:1110:5
	b	.LBB4_21
.Ltmp146:
.LBB4_20:
	.loc	3 0 5 is_stmt 0                 @ ../../../CORTEX_MPU_M3_NUCLEO_L152RE_GCC/Demo/EventGroupsDemo.c:0:5
	b	.LBB4_21
.LBB4_21:
	b	.LBB4_22
.LBB4_22:
	b	.LBB4_23
.LBB4_23:
	.loc	3 1115 1 is_stmt 1              @ ../../../CORTEX_MPU_M3_NUCLEO_L152RE_GCC/Demo/EventGroupsDemo.c:1115:1
	add	sp, #24
	pop	{r7, pc}
.Ltmp147:
.Lfunc_end4:
	.size	vPeriodicEventGroupsProcessing, .Lfunc_end4-vPeriodicEventGroupsProcessing
	.cfi_endproc
	.cantunwind
	.fnend
                                        @ -- End function
	.section	.text.xAreEventGroupTasksStillRunning,"ax",%progbits
	.hidden	xAreEventGroupTasksStillRunning @ -- Begin function xAreEventGroupTasksStillRunning
	.globl	xAreEventGroupTasksStillRunning
	.p2align	1
	.type	xAreEventGroupTasksStillRunning,%function
	.code	16                              @ @xAreEventGroupTasksStillRunning
	.thumb_func
xAreEventGroupTasksStillRunning:
.Lfunc_begin5:
	.loc	3 1121 0                        @ ../../../CORTEX_MPU_M3_NUCLEO_L152RE_GCC/Demo/EventGroupsDemo.c:1121:0
	.fnstart
	.cfi_startproc
@ %bb.0:
	.pad	#4
	sub	sp, #4
	.cfi_def_cfa_offset 4
	movs	r0, #1
.Ltmp148:
	.loc	3 1123 16 prologue_end          @ ../../../CORTEX_MPU_M3_NUCLEO_L152RE_GCC/Demo/EventGroupsDemo.c:1123:16
	str	r0, [sp]
.Ltmp149:
	.loc	3 1126 9                        @ ../../../CORTEX_MPU_M3_NUCLEO_L152RE_GCC/Demo/EventGroupsDemo.c:1126:9
	movw	r0, :lower16:xAreEventGroupTasksStillRunning.ulPreviousSetBitCycles
	movt	r0, :upper16:xAreEventGroupTasksStillRunning.ulPreviousSetBitCycles
	ldr	r0, [r0]
	.loc	3 1126 35 is_stmt 0             @ ../../../CORTEX_MPU_M3_NUCLEO_L152RE_GCC/Demo/EventGroupsDemo.c:1126:35
	movw	r1, :lower16:ulTestMasterCycles
	movt	r1, :upper16:ulTestMasterCycles
	ldr	r1, [r1]
.Ltmp150:
	.loc	3 1126 9                        @ ../../../CORTEX_MPU_M3_NUCLEO_L152RE_GCC/Demo/EventGroupsDemo.c:1126:9
	cmp	r0, r1
	bne	.LBB5_2
	b	.LBB5_1
.LBB5_1:
	.loc	3 0 9                           @ ../../../CORTEX_MPU_M3_NUCLEO_L152RE_GCC/Demo/EventGroupsDemo.c:0:9
	movs	r0, #0
.Ltmp151:
	.loc	3 1128 17 is_stmt 1             @ ../../../CORTEX_MPU_M3_NUCLEO_L152RE_GCC/Demo/EventGroupsDemo.c:1128:17
	str	r0, [sp]
	.loc	3 1129 5                        @ ../../../CORTEX_MPU_M3_NUCLEO_L152RE_GCC/Demo/EventGroupsDemo.c:1129:5
	b	.LBB5_2
.Ltmp152:
.LBB5_2:
	.loc	3 1131 30                       @ ../../../CORTEX_MPU_M3_NUCLEO_L152RE_GCC/Demo/EventGroupsDemo.c:1131:30
	movw	r0, :lower16:ulTestMasterCycles
	movt	r0, :upper16:ulTestMasterCycles
	ldr	r0, [r0]
	.loc	3 1131 28 is_stmt 0             @ ../../../CORTEX_MPU_M3_NUCLEO_L152RE_GCC/Demo/EventGroupsDemo.c:1131:28
	movw	r1, :lower16:xAreEventGroupTasksStillRunning.ulPreviousSetBitCycles
	movt	r1, :upper16:xAreEventGroupTasksStillRunning.ulPreviousSetBitCycles
	str	r0, [r1]
.Ltmp153:
	.loc	3 1133 9 is_stmt 1              @ ../../../CORTEX_MPU_M3_NUCLEO_L152RE_GCC/Demo/EventGroupsDemo.c:1133:9
	movw	r0, :lower16:xAreEventGroupTasksStillRunning.ulPreviousWaitBitCycles
	movt	r0, :upper16:xAreEventGroupTasksStillRunning.ulPreviousWaitBitCycles
	ldr	r0, [r0]
	.loc	3 1133 36 is_stmt 0             @ ../../../CORTEX_MPU_M3_NUCLEO_L152RE_GCC/Demo/EventGroupsDemo.c:1133:36
	movw	r1, :lower16:ulTestSlaveCycles
	movt	r1, :upper16:ulTestSlaveCycles
	ldr	r1, [r1]
.Ltmp154:
	.loc	3 1133 9                        @ ../../../CORTEX_MPU_M3_NUCLEO_L152RE_GCC/Demo/EventGroupsDemo.c:1133:9
	cmp	r0, r1
	bne	.LBB5_4
	b	.LBB5_3
.LBB5_3:
	.loc	3 0 9                           @ ../../../CORTEX_MPU_M3_NUCLEO_L152RE_GCC/Demo/EventGroupsDemo.c:0:9
	movs	r0, #0
.Ltmp155:
	.loc	3 1135 17 is_stmt 1             @ ../../../CORTEX_MPU_M3_NUCLEO_L152RE_GCC/Demo/EventGroupsDemo.c:1135:17
	str	r0, [sp]
	.loc	3 1136 5                        @ ../../../CORTEX_MPU_M3_NUCLEO_L152RE_GCC/Demo/EventGroupsDemo.c:1136:5
	b	.LBB5_4
.Ltmp156:
.LBB5_4:
	.loc	3 1138 31                       @ ../../../CORTEX_MPU_M3_NUCLEO_L152RE_GCC/Demo/EventGroupsDemo.c:1138:31
	movw	r0, :lower16:ulTestSlaveCycles
	movt	r0, :upper16:ulTestSlaveCycles
	ldr	r0, [r0]
	.loc	3 1138 29 is_stmt 0             @ ../../../CORTEX_MPU_M3_NUCLEO_L152RE_GCC/Demo/EventGroupsDemo.c:1138:29
	movw	r1, :lower16:xAreEventGroupTasksStillRunning.ulPreviousWaitBitCycles
	movt	r1, :upper16:xAreEventGroupTasksStillRunning.ulPreviousWaitBitCycles
	str	r0, [r1]
.Ltmp157:
	.loc	3 1140 9 is_stmt 1              @ ../../../CORTEX_MPU_M3_NUCLEO_L152RE_GCC/Demo/EventGroupsDemo.c:1140:9
	movw	r0, :lower16:xAreEventGroupTasksStillRunning.ulPreviousISRCycles
	movt	r0, :upper16:xAreEventGroupTasksStillRunning.ulPreviousISRCycles
	ldr	r0, [r0]
	.loc	3 1140 32 is_stmt 0             @ ../../../CORTEX_MPU_M3_NUCLEO_L152RE_GCC/Demo/EventGroupsDemo.c:1140:32
	movw	r1, :lower16:ulISRCycles
	movt	r1, :upper16:ulISRCycles
	ldr	r1, [r1]
.Ltmp158:
	.loc	3 1140 9                        @ ../../../CORTEX_MPU_M3_NUCLEO_L152RE_GCC/Demo/EventGroupsDemo.c:1140:9
	cmp	r0, r1
	bne	.LBB5_6
	b	.LBB5_5
.LBB5_5:
	.loc	3 0 9                           @ ../../../CORTEX_MPU_M3_NUCLEO_L152RE_GCC/Demo/EventGroupsDemo.c:0:9
	movs	r0, #0
.Ltmp159:
	.loc	3 1142 17 is_stmt 1             @ ../../../CORTEX_MPU_M3_NUCLEO_L152RE_GCC/Demo/EventGroupsDemo.c:1142:17
	str	r0, [sp]
	.loc	3 1143 5                        @ ../../../CORTEX_MPU_M3_NUCLEO_L152RE_GCC/Demo/EventGroupsDemo.c:1143:5
	b	.LBB5_6
.Ltmp160:
.LBB5_6:
	.loc	3 1145 27                       @ ../../../CORTEX_MPU_M3_NUCLEO_L152RE_GCC/Demo/EventGroupsDemo.c:1145:27
	movw	r0, :lower16:ulISRCycles
	movt	r0, :upper16:ulISRCycles
	ldr	r0, [r0]
	.loc	3 1145 25 is_stmt 0             @ ../../../CORTEX_MPU_M3_NUCLEO_L152RE_GCC/Demo/EventGroupsDemo.c:1145:25
	movw	r1, :lower16:xAreEventGroupTasksStillRunning.ulPreviousISRCycles
	movt	r1, :upper16:xAreEventGroupTasksStillRunning.ulPreviousISRCycles
	str	r0, [r1]
	.loc	3 1147 12 is_stmt 1             @ ../../../CORTEX_MPU_M3_NUCLEO_L152RE_GCC/Demo/EventGroupsDemo.c:1147:12
	ldr	r0, [sp]
	.loc	3 1147 5 is_stmt 0              @ ../../../CORTEX_MPU_M3_NUCLEO_L152RE_GCC/Demo/EventGroupsDemo.c:1147:5
	add	sp, #4
	bx	lr
.Ltmp161:
.Lfunc_end5:
	.size	xAreEventGroupTasksStillRunning, .Lfunc_end5-xAreEventGroupTasksStillRunning
	.cfi_endproc
	.cantunwind
	.fnend
                                        @ -- End function
	.section	.text.prvSelectiveBitsTestMasterFunction,"ax",%progbits
	.p2align	1                               @ -- Begin function prvSelectiveBitsTestMasterFunction
	.type	prvSelectiveBitsTestMasterFunction,%function
	.code	16                              @ @prvSelectiveBitsTestMasterFunction
	.thumb_func
prvSelectiveBitsTestMasterFunction:
.Lfunc_begin6:
	.loc	3 948 0 is_stmt 1               @ ../../../CORTEX_MPU_M3_NUCLEO_L152RE_GCC/Demo/EventGroupsDemo.c:948:0
	.fnstart
	.cfi_startproc
@ %bb.0:
	.save	{r7, lr}
	push	{r7, lr}
	.cfi_def_cfa_offset 8
	.cfi_offset lr, -4
	.cfi_offset r7, -8
	.pad	#16
	sub	sp, #16
	.cfi_def_cfa_offset 24
	movs	r0, #0
.Ltmp162:
	.loc	3 949 16 prologue_end           @ ../../../CORTEX_MPU_M3_NUCLEO_L152RE_GCC/Demo/EventGroupsDemo.c:949:16
	str	r0, [sp, #12]
.Ltmp163:
	.loc	3 959 24                        @ ../../../CORTEX_MPU_M3_NUCLEO_L152RE_GCC/Demo/EventGroupsDemo.c:959:24
	movw	r0, :lower16:xSyncTaskHandle
	movt	r0, :upper16:xSyncTaskHandle
	ldr	r0, [r0]
	.loc	3 959 9 is_stmt 0               @ ../../../CORTEX_MPU_M3_NUCLEO_L152RE_GCC/Demo/EventGroupsDemo.c:959:9
	bl	MPU_eTaskGetState
.Ltmp164:
	.loc	3 959 9                         @ ../../../CORTEX_MPU_M3_NUCLEO_L152RE_GCC/Demo/EventGroupsDemo.c:959:9
	cmp	r0, #3
	beq	.LBB6_2
	b	.LBB6_1
.LBB6_1:
	.loc	3 0 9                           @ ../../../CORTEX_MPU_M3_NUCLEO_L152RE_GCC/Demo/EventGroupsDemo.c:0:9
	movs	r0, #1
.Ltmp165:
	.loc	3 961 16 is_stmt 1              @ ../../../CORTEX_MPU_M3_NUCLEO_L152RE_GCC/Demo/EventGroupsDemo.c:961:16
	str	r0, [sp, #12]
	.loc	3 962 5                         @ ../../../CORTEX_MPU_M3_NUCLEO_L152RE_GCC/Demo/EventGroupsDemo.c:962:5
	b	.LBB6_2
.Ltmp166:
.LBB6_2:
	.loc	3 964 24                        @ ../../../CORTEX_MPU_M3_NUCLEO_L152RE_GCC/Demo/EventGroupsDemo.c:964:24
	movw	r0, :lower16:xSyncTaskHandle
	movt	r0, :upper16:xSyncTaskHandle
	ldr	r0, [r0, #4]
	.loc	3 964 9 is_stmt 0               @ ../../../CORTEX_MPU_M3_NUCLEO_L152RE_GCC/Demo/EventGroupsDemo.c:964:9
	bl	MPU_eTaskGetState
.Ltmp167:
	.loc	3 964 9                         @ ../../../CORTEX_MPU_M3_NUCLEO_L152RE_GCC/Demo/EventGroupsDemo.c:964:9
	cmp	r0, #3
	beq	.LBB6_4
	b	.LBB6_3
.LBB6_3:
	.loc	3 0 9                           @ ../../../CORTEX_MPU_M3_NUCLEO_L152RE_GCC/Demo/EventGroupsDemo.c:0:9
	movs	r0, #1
.Ltmp168:
	.loc	3 966 16 is_stmt 1              @ ../../../CORTEX_MPU_M3_NUCLEO_L152RE_GCC/Demo/EventGroupsDemo.c:966:16
	str	r0, [sp, #12]
	.loc	3 967 5                         @ ../../../CORTEX_MPU_M3_NUCLEO_L152RE_GCC/Demo/EventGroupsDemo.c:967:5
	b	.LBB6_4
.Ltmp169:
.LBB6_4:
	.loc	3 0 5 is_stmt 0                 @ ../../../CORTEX_MPU_M3_NUCLEO_L152RE_GCC/Demo/EventGroupsDemo.c:0:5
	movs	r0, #1
.Ltmp170:
	.loc	3 970 16 is_stmt 1              @ ../../../CORTEX_MPU_M3_NUCLEO_L152RE_GCC/Demo/EventGroupsDemo.c:970:16
	str	r0, [sp, #8]
	.loc	3 970 10 is_stmt 0              @ ../../../CORTEX_MPU_M3_NUCLEO_L152RE_GCC/Demo/EventGroupsDemo.c:970:10
	b	.LBB6_5
.LBB6_5:                                @ =>This Inner Loop Header: Depth=1
.Ltmp171:
	.loc	3 970 24                        @ ../../../CORTEX_MPU_M3_NUCLEO_L152RE_GCC/Demo/EventGroupsDemo.c:970:24
	ldr	r0, [sp, #8]
.Ltmp172:
	.loc	3 970 5                         @ ../../../CORTEX_MPU_M3_NUCLEO_L152RE_GCC/Demo/EventGroupsDemo.c:970:5
	cmp	r0, #255
	bhi	.LBB6_26
	b	.LBB6_6
.LBB6_6:                                @   in Loop: Header=BB6_5 Depth=1
.Ltmp173:
	.loc	3 973 22 is_stmt 1              @ ../../../CORTEX_MPU_M3_NUCLEO_L152RE_GCC/Demo/EventGroupsDemo.c:973:22
	movw	r0, :lower16:xSyncTaskHandle
	movt	r0, :upper16:xSyncTaskHandle
	str	r0, [sp, #4]                    @ 4-byte Spill
	ldr	r0, [r0]
	.loc	3 973 9 is_stmt 0               @ ../../../CORTEX_MPU_M3_NUCLEO_L152RE_GCC/Demo/EventGroupsDemo.c:973:9
	bl	MPU_vTaskResume
	ldr	r0, [sp, #4]                    @ 4-byte Reload
	.loc	3 974 22 is_stmt 1              @ ../../../CORTEX_MPU_M3_NUCLEO_L152RE_GCC/Demo/EventGroupsDemo.c:974:22
	ldr	r0, [r0, #4]
	.loc	3 974 9 is_stmt 0               @ ../../../CORTEX_MPU_M3_NUCLEO_L152RE_GCC/Demo/EventGroupsDemo.c:974:9
	bl	MPU_vTaskResume
	ldr	r0, [sp, #4]                    @ 4-byte Reload
.Ltmp174:
	.loc	3 977 28 is_stmt 1              @ ../../../CORTEX_MPU_M3_NUCLEO_L152RE_GCC/Demo/EventGroupsDemo.c:977:28
	ldr	r0, [r0]
	.loc	3 977 13 is_stmt 0              @ ../../../CORTEX_MPU_M3_NUCLEO_L152RE_GCC/Demo/EventGroupsDemo.c:977:13
	bl	MPU_eTaskGetState
.Ltmp175:
	.loc	3 977 13                        @ ../../../CORTEX_MPU_M3_NUCLEO_L152RE_GCC/Demo/EventGroupsDemo.c:977:13
	cmp	r0, #2
	beq	.LBB6_8
	b	.LBB6_7
.LBB6_7:                                @   in Loop: Header=BB6_5 Depth=1
	.loc	3 0 13                          @ ../../../CORTEX_MPU_M3_NUCLEO_L152RE_GCC/Demo/EventGroupsDemo.c:0:13
	movs	r0, #1
.Ltmp176:
	.loc	3 979 20 is_stmt 1              @ ../../../CORTEX_MPU_M3_NUCLEO_L152RE_GCC/Demo/EventGroupsDemo.c:979:20
	str	r0, [sp, #12]
	.loc	3 980 9                         @ ../../../CORTEX_MPU_M3_NUCLEO_L152RE_GCC/Demo/EventGroupsDemo.c:980:9
	b	.LBB6_8
.Ltmp177:
.LBB6_8:                                @   in Loop: Header=BB6_5 Depth=1
	.loc	3 982 28                        @ ../../../CORTEX_MPU_M3_NUCLEO_L152RE_GCC/Demo/EventGroupsDemo.c:982:28
	movw	r0, :lower16:xSyncTaskHandle
	movt	r0, :upper16:xSyncTaskHandle
	ldr	r0, [r0, #4]
	.loc	3 982 13 is_stmt 0              @ ../../../CORTEX_MPU_M3_NUCLEO_L152RE_GCC/Demo/EventGroupsDemo.c:982:13
	bl	MPU_eTaskGetState
.Ltmp178:
	.loc	3 982 13                        @ ../../../CORTEX_MPU_M3_NUCLEO_L152RE_GCC/Demo/EventGroupsDemo.c:982:13
	cmp	r0, #2
	beq	.LBB6_10
	b	.LBB6_9
.LBB6_9:                                @   in Loop: Header=BB6_5 Depth=1
	.loc	3 0 13                          @ ../../../CORTEX_MPU_M3_NUCLEO_L152RE_GCC/Demo/EventGroupsDemo.c:0:13
	movs	r0, #1
.Ltmp179:
	.loc	3 984 20 is_stmt 1              @ ../../../CORTEX_MPU_M3_NUCLEO_L152RE_GCC/Demo/EventGroupsDemo.c:984:20
	str	r0, [sp, #12]
	.loc	3 985 9                         @ ../../../CORTEX_MPU_M3_NUCLEO_L152RE_GCC/Demo/EventGroupsDemo.c:985:9
	b	.LBB6_10
.Ltmp180:
.LBB6_10:                               @   in Loop: Header=BB6_5 Depth=1
	.loc	3 988 29                        @ ../../../CORTEX_MPU_M3_NUCLEO_L152RE_GCC/Demo/EventGroupsDemo.c:988:29
	movw	r0, :lower16:xEventGroup
	movt	r0, :upper16:xEventGroup
	ldr	r0, [r0]
	.loc	3 988 47 is_stmt 0              @ ../../../CORTEX_MPU_M3_NUCLEO_L152RE_GCC/Demo/EventGroupsDemo.c:988:47
	ldr	r1, [sp, #8]
	.loc	3 988 9                         @ ../../../CORTEX_MPU_M3_NUCLEO_L152RE_GCC/Demo/EventGroupsDemo.c:988:9
	bl	MPU_xEventGroupSetBits
	add	r0, sp, #8
	.loc	3 992 13 is_stmt 1              @ ../../../CORTEX_MPU_M3_NUCLEO_L152RE_GCC/Demo/EventGroupsDemo.c:992:13
	ldrb	r0, [r0]
	lsls	r0, r0, #30
	cbnz	r0, .LBB6_14
	b	.LBB6_11
.LBB6_11:                               @   in Loop: Header=BB6_5 Depth=1
.Ltmp181:
	.loc	3 995 32                        @ ../../../CORTEX_MPU_M3_NUCLEO_L152RE_GCC/Demo/EventGroupsDemo.c:995:32
	movw	r0, :lower16:xSyncTaskHandle
	movt	r0, :upper16:xSyncTaskHandle
	ldr	r0, [r0]
	.loc	3 995 17 is_stmt 0              @ ../../../CORTEX_MPU_M3_NUCLEO_L152RE_GCC/Demo/EventGroupsDemo.c:995:17
	bl	MPU_eTaskGetState
.Ltmp182:
	.loc	3 995 17                        @ ../../../CORTEX_MPU_M3_NUCLEO_L152RE_GCC/Demo/EventGroupsDemo.c:995:17
	cmp	r0, #2
	beq	.LBB6_13
	b	.LBB6_12
.LBB6_12:                               @   in Loop: Header=BB6_5 Depth=1
	.loc	3 0 17                          @ ../../../CORTEX_MPU_M3_NUCLEO_L152RE_GCC/Demo/EventGroupsDemo.c:0:17
	movs	r0, #1
.Ltmp183:
	.loc	3 997 24 is_stmt 1              @ ../../../CORTEX_MPU_M3_NUCLEO_L152RE_GCC/Demo/EventGroupsDemo.c:997:24
	str	r0, [sp, #12]
	.loc	3 998 13                        @ ../../../CORTEX_MPU_M3_NUCLEO_L152RE_GCC/Demo/EventGroupsDemo.c:998:13
	b	.LBB6_13
.Ltmp184:
.LBB6_13:                               @   in Loop: Header=BB6_5 Depth=1
	.loc	3 999 9                         @ ../../../CORTEX_MPU_M3_NUCLEO_L152RE_GCC/Demo/EventGroupsDemo.c:999:9
	b	.LBB6_17
.Ltmp185:
.LBB6_14:                               @   in Loop: Header=BB6_5 Depth=1
	.loc	3 1003 32                       @ ../../../CORTEX_MPU_M3_NUCLEO_L152RE_GCC/Demo/EventGroupsDemo.c:1003:32
	movw	r0, :lower16:xSyncTaskHandle
	movt	r0, :upper16:xSyncTaskHandle
	ldr	r0, [r0]
	.loc	3 1003 17 is_stmt 0             @ ../../../CORTEX_MPU_M3_NUCLEO_L152RE_GCC/Demo/EventGroupsDemo.c:1003:17
	bl	MPU_eTaskGetState
.Ltmp186:
	.loc	3 1003 17                       @ ../../../CORTEX_MPU_M3_NUCLEO_L152RE_GCC/Demo/EventGroupsDemo.c:1003:17
	cmp	r0, #3
	beq	.LBB6_16
	b	.LBB6_15
.LBB6_15:                               @   in Loop: Header=BB6_5 Depth=1
	.loc	3 0 17                          @ ../../../CORTEX_MPU_M3_NUCLEO_L152RE_GCC/Demo/EventGroupsDemo.c:0:17
	movs	r0, #1
.Ltmp187:
	.loc	3 1005 24 is_stmt 1             @ ../../../CORTEX_MPU_M3_NUCLEO_L152RE_GCC/Demo/EventGroupsDemo.c:1005:24
	str	r0, [sp, #12]
	.loc	3 1006 13                       @ ../../../CORTEX_MPU_M3_NUCLEO_L152RE_GCC/Demo/EventGroupsDemo.c:1006:13
	b	.LBB6_16
.Ltmp188:
.LBB6_16:                               @   in Loop: Header=BB6_5 Depth=1
	.loc	3 0 13 is_stmt 0                @ ../../../CORTEX_MPU_M3_NUCLEO_L152RE_GCC/Demo/EventGroupsDemo.c:0:13
	b	.LBB6_17
.LBB6_17:                               @   in Loop: Header=BB6_5 Depth=1
	add	r0, sp, #8
	.loc	3 1010 13 is_stmt 1             @ ../../../CORTEX_MPU_M3_NUCLEO_L152RE_GCC/Demo/EventGroupsDemo.c:1010:13
	ldrb	r0, [r0]
	movs	r1, #5
	tst	r0, r1
	bne	.LBB6_21
	b	.LBB6_18
.LBB6_18:                               @   in Loop: Header=BB6_5 Depth=1
.Ltmp189:
	.loc	3 1013 32                       @ ../../../CORTEX_MPU_M3_NUCLEO_L152RE_GCC/Demo/EventGroupsDemo.c:1013:32
	movw	r0, :lower16:xSyncTaskHandle
	movt	r0, :upper16:xSyncTaskHandle
	ldr	r0, [r0, #4]
	.loc	3 1013 17 is_stmt 0             @ ../../../CORTEX_MPU_M3_NUCLEO_L152RE_GCC/Demo/EventGroupsDemo.c:1013:17
	bl	MPU_eTaskGetState
.Ltmp190:
	.loc	3 1013 17                       @ ../../../CORTEX_MPU_M3_NUCLEO_L152RE_GCC/Demo/EventGroupsDemo.c:1013:17
	cmp	r0, #2
	beq	.LBB6_20
	b	.LBB6_19
.LBB6_19:                               @   in Loop: Header=BB6_5 Depth=1
	.loc	3 0 17                          @ ../../../CORTEX_MPU_M3_NUCLEO_L152RE_GCC/Demo/EventGroupsDemo.c:0:17
	movs	r0, #1
.Ltmp191:
	.loc	3 1015 24 is_stmt 1             @ ../../../CORTEX_MPU_M3_NUCLEO_L152RE_GCC/Demo/EventGroupsDemo.c:1015:24
	str	r0, [sp, #12]
	.loc	3 1016 13                       @ ../../../CORTEX_MPU_M3_NUCLEO_L152RE_GCC/Demo/EventGroupsDemo.c:1016:13
	b	.LBB6_20
.Ltmp192:
.LBB6_20:                               @   in Loop: Header=BB6_5 Depth=1
	.loc	3 1017 9                        @ ../../../CORTEX_MPU_M3_NUCLEO_L152RE_GCC/Demo/EventGroupsDemo.c:1017:9
	b	.LBB6_24
.Ltmp193:
.LBB6_21:                               @   in Loop: Header=BB6_5 Depth=1
	.loc	3 1021 32                       @ ../../../CORTEX_MPU_M3_NUCLEO_L152RE_GCC/Demo/EventGroupsDemo.c:1021:32
	movw	r0, :lower16:xSyncTaskHandle
	movt	r0, :upper16:xSyncTaskHandle
	ldr	r0, [r0, #4]
	.loc	3 1021 17 is_stmt 0             @ ../../../CORTEX_MPU_M3_NUCLEO_L152RE_GCC/Demo/EventGroupsDemo.c:1021:17
	bl	MPU_eTaskGetState
.Ltmp194:
	.loc	3 1021 17                       @ ../../../CORTEX_MPU_M3_NUCLEO_L152RE_GCC/Demo/EventGroupsDemo.c:1021:17
	cmp	r0, #3
	beq	.LBB6_23
	b	.LBB6_22
.LBB6_22:                               @   in Loop: Header=BB6_5 Depth=1
	.loc	3 0 17                          @ ../../../CORTEX_MPU_M3_NUCLEO_L152RE_GCC/Demo/EventGroupsDemo.c:0:17
	movs	r0, #1
.Ltmp195:
	.loc	3 1023 24 is_stmt 1             @ ../../../CORTEX_MPU_M3_NUCLEO_L152RE_GCC/Demo/EventGroupsDemo.c:1023:24
	str	r0, [sp, #12]
	.loc	3 1024 13                       @ ../../../CORTEX_MPU_M3_NUCLEO_L152RE_GCC/Demo/EventGroupsDemo.c:1024:13
	b	.LBB6_23
.Ltmp196:
.LBB6_23:                               @   in Loop: Header=BB6_5 Depth=1
	.loc	3 0 13 is_stmt 0                @ ../../../CORTEX_MPU_M3_NUCLEO_L152RE_GCC/Demo/EventGroupsDemo.c:0:13
	b	.LBB6_24
.LBB6_24:                               @   in Loop: Header=BB6_5 Depth=1
	.loc	3 1026 5 is_stmt 1              @ ../../../CORTEX_MPU_M3_NUCLEO_L152RE_GCC/Demo/EventGroupsDemo.c:1026:5
	b	.LBB6_25
.Ltmp197:
.LBB6_25:                               @   in Loop: Header=BB6_5 Depth=1
	.loc	3 970 45                        @ ../../../CORTEX_MPU_M3_NUCLEO_L152RE_GCC/Demo/EventGroupsDemo.c:970:45
	ldr	r0, [sp, #8]
	lsls	r0, r0, #1
	str	r0, [sp, #8]
	.loc	3 970 5 is_stmt 0               @ ../../../CORTEX_MPU_M3_NUCLEO_L152RE_GCC/Demo/EventGroupsDemo.c:970:5
	b	.LBB6_5
.Ltmp198:
.LBB6_26:
	.loc	3 1030 18 is_stmt 1             @ ../../../CORTEX_MPU_M3_NUCLEO_L152RE_GCC/Demo/EventGroupsDemo.c:1030:18
	movw	r0, :lower16:xSyncTaskHandle
	movt	r0, :upper16:xSyncTaskHandle
	str	r0, [sp]                        @ 4-byte Spill
	ldr	r0, [r0]
	.loc	3 1030 5 is_stmt 0              @ ../../../CORTEX_MPU_M3_NUCLEO_L152RE_GCC/Demo/EventGroupsDemo.c:1030:5
	bl	MPU_vTaskResume
	ldr	r0, [sp]                        @ 4-byte Reload
	.loc	3 1031 18 is_stmt 1             @ ../../../CORTEX_MPU_M3_NUCLEO_L152RE_GCC/Demo/EventGroupsDemo.c:1031:18
	ldr	r0, [r0, #4]
	.loc	3 1031 5 is_stmt 0              @ ../../../CORTEX_MPU_M3_NUCLEO_L152RE_GCC/Demo/EventGroupsDemo.c:1031:5
	bl	MPU_vTaskResume
	.loc	3 1036 24 is_stmt 1             @ ../../../CORTEX_MPU_M3_NUCLEO_L152RE_GCC/Demo/EventGroupsDemo.c:1036:24
	movw	r0, :lower16:xEventGroup
	movt	r0, :upper16:xEventGroup
	ldr	r0, [r0]
	.loc	3 1036 5 is_stmt 0              @ ../../../CORTEX_MPU_M3_NUCLEO_L152RE_GCC/Demo/EventGroupsDemo.c:1036:5
	bl	MPU_vEventGroupDelete
	.loc	3 1038 12 is_stmt 1             @ ../../../CORTEX_MPU_M3_NUCLEO_L152RE_GCC/Demo/EventGroupsDemo.c:1038:12
	ldr	r0, [sp, #12]
	.loc	3 1038 5 is_stmt 0              @ ../../../CORTEX_MPU_M3_NUCLEO_L152RE_GCC/Demo/EventGroupsDemo.c:1038:5
	add	sp, #16
	pop	{r7, pc}
.Ltmp199:
.Lfunc_end6:
	.size	prvSelectiveBitsTestMasterFunction, .Lfunc_end6-prvSelectiveBitsTestMasterFunction
	.cfi_endproc
	.cantunwind
	.fnend
                                        @ -- End function
	.section	.text.prvBitCombinationTestMasterFunction,"ax",%progbits
	.p2align	1                               @ -- Begin function prvBitCombinationTestMasterFunction
	.type	prvBitCombinationTestMasterFunction,%function
	.code	16                              @ @prvBitCombinationTestMasterFunction
	.thumb_func
prvBitCombinationTestMasterFunction:
.Lfunc_begin7:
	.loc	3 791 0 is_stmt 1               @ ../../../CORTEX_MPU_M3_NUCLEO_L152RE_GCC/Demo/EventGroupsDemo.c:791:0
	.fnstart
	.cfi_startproc
@ %bb.0:
	.save	{r7, lr}
	push	{r7, lr}
	.cfi_def_cfa_offset 8
	.cfi_offset lr, -4
	.cfi_offset r7, -8
	.pad	#24
	sub	sp, #24
	.cfi_def_cfa_offset 32
	str	r0, [sp, #20]
	str	r1, [sp, #16]
.Ltmp200:
	.loc	3 796 18 prologue_end           @ ../../../CORTEX_MPU_M3_NUCLEO_L152RE_GCC/Demo/EventGroupsDemo.c:796:18
	ldr	r0, [sp, #16]
	.loc	3 796 5 is_stmt 0               @ ../../../CORTEX_MPU_M3_NUCLEO_L152RE_GCC/Demo/EventGroupsDemo.c:796:5
	bl	MPU_vTaskResume
.Ltmp201:
	.loc	3 799 24 is_stmt 1              @ ../../../CORTEX_MPU_M3_NUCLEO_L152RE_GCC/Demo/EventGroupsDemo.c:799:24
	ldr	r0, [sp, #16]
	.loc	3 799 9 is_stmt 0               @ ../../../CORTEX_MPU_M3_NUCLEO_L152RE_GCC/Demo/EventGroupsDemo.c:799:9
	bl	MPU_eTaskGetState
.Ltmp202:
	.loc	3 799 9                         @ ../../../CORTEX_MPU_M3_NUCLEO_L152RE_GCC/Demo/EventGroupsDemo.c:799:9
	cmp	r0, #2
	beq	.LBB7_2
	b	.LBB7_1
.LBB7_1:
	.loc	3 0 9                           @ ../../../CORTEX_MPU_M3_NUCLEO_L152RE_GCC/Demo/EventGroupsDemo.c:0:9
	movs	r0, #1
.Ltmp203:
	.loc	3 801 16 is_stmt 1              @ ../../../CORTEX_MPU_M3_NUCLEO_L152RE_GCC/Demo/EventGroupsDemo.c:801:16
	str	r0, [sp, #20]
	.loc	3 802 5                         @ ../../../CORTEX_MPU_M3_NUCLEO_L152RE_GCC/Demo/EventGroupsDemo.c:802:5
	b	.LBB7_2
.Ltmp204:
.LBB7_2:
	.loc	3 806 25                        @ ../../../CORTEX_MPU_M3_NUCLEO_L152RE_GCC/Demo/EventGroupsDemo.c:806:25
	movw	r0, :lower16:xEventGroup
	movt	r0, :upper16:xEventGroup
	str	r0, [sp, #8]                    @ 4-byte Spill
	ldr	r0, [r0]
	movs	r1, #162
	.loc	3 806 5 is_stmt 0               @ ../../../CORTEX_MPU_M3_NUCLEO_L152RE_GCC/Demo/EventGroupsDemo.c:806:5
	bl	MPU_xEventGroupSetBits
                                        @ kill: def $r1 killed $r0
	.loc	3 812 35 is_stmt 1              @ ../../../CORTEX_MPU_M3_NUCLEO_L152RE_GCC/Demo/EventGroupsDemo.c:812:35
	ldr	r0, [sp, #8]                    @ 4-byte Reload
	ldr	r0, [r0]
	movs	r3, #0
	.loc	3 812 14 is_stmt 0              @ ../../../CORTEX_MPU_M3_NUCLEO_L152RE_GCC/Demo/EventGroupsDemo.c:812:14
	str	r3, [sp]
	movs	r1, #255
	mov	r2, r3
	bl	MPU_xEventGroupWaitBits
	.loc	3 812 12                        @ ../../../CORTEX_MPU_M3_NUCLEO_L152RE_GCC/Demo/EventGroupsDemo.c:812:12
	str	r0, [sp, #12]
.Ltmp205:
	.loc	3 814 9 is_stmt 1               @ ../../../CORTEX_MPU_M3_NUCLEO_L152RE_GCC/Demo/EventGroupsDemo.c:814:9
	ldr	r0, [sp, #12]
.Ltmp206:
	.loc	3 814 9 is_stmt 0               @ ../../../CORTEX_MPU_M3_NUCLEO_L152RE_GCC/Demo/EventGroupsDemo.c:814:9
	cmp	r0, #160
	beq	.LBB7_4
	b	.LBB7_3
.LBB7_3:
	.loc	3 0 9                           @ ../../../CORTEX_MPU_M3_NUCLEO_L152RE_GCC/Demo/EventGroupsDemo.c:0:9
	movs	r0, #1
.Ltmp207:
	.loc	3 816 16 is_stmt 1              @ ../../../CORTEX_MPU_M3_NUCLEO_L152RE_GCC/Demo/EventGroupsDemo.c:816:16
	str	r0, [sp, #20]
	.loc	3 817 5                         @ ../../../CORTEX_MPU_M3_NUCLEO_L152RE_GCC/Demo/EventGroupsDemo.c:817:5
	b	.LBB7_4
.Ltmp208:
.LBB7_4:
	.loc	3 820 24                        @ ../../../CORTEX_MPU_M3_NUCLEO_L152RE_GCC/Demo/EventGroupsDemo.c:820:24
	ldr	r0, [sp, #16]
	.loc	3 820 9 is_stmt 0               @ ../../../CORTEX_MPU_M3_NUCLEO_L152RE_GCC/Demo/EventGroupsDemo.c:820:9
	bl	MPU_eTaskGetState
.Ltmp209:
	.loc	3 820 9                         @ ../../../CORTEX_MPU_M3_NUCLEO_L152RE_GCC/Demo/EventGroupsDemo.c:820:9
	cmp	r0, #2
	beq	.LBB7_6
	b	.LBB7_5
.LBB7_5:
	.loc	3 0 9                           @ ../../../CORTEX_MPU_M3_NUCLEO_L152RE_GCC/Demo/EventGroupsDemo.c:0:9
	movs	r0, #1
.Ltmp210:
	.loc	3 822 16 is_stmt 1              @ ../../../CORTEX_MPU_M3_NUCLEO_L152RE_GCC/Demo/EventGroupsDemo.c:822:16
	str	r0, [sp, #20]
	.loc	3 823 5                         @ ../../../CORTEX_MPU_M3_NUCLEO_L152RE_GCC/Demo/EventGroupsDemo.c:823:5
	b	.LBB7_6
.Ltmp211:
.LBB7_6:
	.loc	3 827 25                        @ ../../../CORTEX_MPU_M3_NUCLEO_L152RE_GCC/Demo/EventGroupsDemo.c:827:25
	movw	r0, :lower16:xEventGroup
	movt	r0, :upper16:xEventGroup
	str	r0, [sp, #4]                    @ 4-byte Spill
	ldr	r0, [r0]
	movs	r1, #253
	.loc	3 827 5 is_stmt 0               @ ../../../CORTEX_MPU_M3_NUCLEO_L152RE_GCC/Demo/EventGroupsDemo.c:827:5
	bl	MPU_xEventGroupSetBits
                                        @ kill: def $r1 killed $r0
	.loc	3 830 35 is_stmt 1              @ ../../../CORTEX_MPU_M3_NUCLEO_L152RE_GCC/Demo/EventGroupsDemo.c:830:35
	ldr	r0, [sp, #4]                    @ 4-byte Reload
	ldr	r0, [r0]
	movs	r3, #0
	.loc	3 830 14 is_stmt 0              @ ../../../CORTEX_MPU_M3_NUCLEO_L152RE_GCC/Demo/EventGroupsDemo.c:830:14
	str	r3, [sp]
	movs	r1, #255
	mov	r2, r3
	bl	MPU_xEventGroupWaitBits
	.loc	3 830 12                        @ ../../../CORTEX_MPU_M3_NUCLEO_L152RE_GCC/Demo/EventGroupsDemo.c:830:12
	str	r0, [sp, #12]
.Ltmp212:
	.loc	3 832 9 is_stmt 1               @ ../../../CORTEX_MPU_M3_NUCLEO_L152RE_GCC/Demo/EventGroupsDemo.c:832:9
	ldr	r0, [sp, #12]
.Ltmp213:
	.loc	3 832 9 is_stmt 0               @ ../../../CORTEX_MPU_M3_NUCLEO_L152RE_GCC/Demo/EventGroupsDemo.c:832:9
	cmp	r0, #253
	beq	.LBB7_8
	b	.LBB7_7
.LBB7_7:
	.loc	3 0 9                           @ ../../../CORTEX_MPU_M3_NUCLEO_L152RE_GCC/Demo/EventGroupsDemo.c:0:9
	movs	r0, #1
.Ltmp214:
	.loc	3 834 16 is_stmt 1              @ ../../../CORTEX_MPU_M3_NUCLEO_L152RE_GCC/Demo/EventGroupsDemo.c:834:16
	str	r0, [sp, #20]
	.loc	3 835 5                         @ ../../../CORTEX_MPU_M3_NUCLEO_L152RE_GCC/Demo/EventGroupsDemo.c:835:5
	b	.LBB7_8
.Ltmp215:
.LBB7_8:
	.loc	3 838 24                        @ ../../../CORTEX_MPU_M3_NUCLEO_L152RE_GCC/Demo/EventGroupsDemo.c:838:24
	ldr	r0, [sp, #16]
	.loc	3 838 9 is_stmt 0               @ ../../../CORTEX_MPU_M3_NUCLEO_L152RE_GCC/Demo/EventGroupsDemo.c:838:9
	bl	MPU_eTaskGetState
.Ltmp216:
	.loc	3 838 9                         @ ../../../CORTEX_MPU_M3_NUCLEO_L152RE_GCC/Demo/EventGroupsDemo.c:838:9
	cmp	r0, #2
	beq	.LBB7_10
	b	.LBB7_9
.LBB7_9:
	.loc	3 0 9                           @ ../../../CORTEX_MPU_M3_NUCLEO_L152RE_GCC/Demo/EventGroupsDemo.c:0:9
	movs	r0, #1
.Ltmp217:
	.loc	3 840 16 is_stmt 1              @ ../../../CORTEX_MPU_M3_NUCLEO_L152RE_GCC/Demo/EventGroupsDemo.c:840:16
	str	r0, [sp, #20]
	.loc	3 841 5                         @ ../../../CORTEX_MPU_M3_NUCLEO_L152RE_GCC/Demo/EventGroupsDemo.c:841:5
	b	.LBB7_10
.Ltmp218:
.LBB7_10:
	.loc	3 845 25                        @ ../../../CORTEX_MPU_M3_NUCLEO_L152RE_GCC/Demo/EventGroupsDemo.c:845:25
	movw	r0, :lower16:xEventGroup
	movt	r0, :upper16:xEventGroup
	ldr	r0, [r0]
	movs	r1, #2
	.loc	3 845 5 is_stmt 0               @ ../../../CORTEX_MPU_M3_NUCLEO_L152RE_GCC/Demo/EventGroupsDemo.c:845:5
	bl	MPU_xEventGroupSetBits
.Ltmp219:
	.loc	3 848 24 is_stmt 1              @ ../../../CORTEX_MPU_M3_NUCLEO_L152RE_GCC/Demo/EventGroupsDemo.c:848:24
	ldr	r0, [sp, #16]
	.loc	3 848 9 is_stmt 0               @ ../../../CORTEX_MPU_M3_NUCLEO_L152RE_GCC/Demo/EventGroupsDemo.c:848:9
	bl	MPU_eTaskGetState
.Ltmp220:
	.loc	3 848 9                         @ ../../../CORTEX_MPU_M3_NUCLEO_L152RE_GCC/Demo/EventGroupsDemo.c:848:9
	cmp	r0, #3
	beq	.LBB7_12
	b	.LBB7_11
.LBB7_11:
	.loc	3 0 9                           @ ../../../CORTEX_MPU_M3_NUCLEO_L152RE_GCC/Demo/EventGroupsDemo.c:0:9
	movs	r0, #1
.Ltmp221:
	.loc	3 850 16 is_stmt 1              @ ../../../CORTEX_MPU_M3_NUCLEO_L152RE_GCC/Demo/EventGroupsDemo.c:850:16
	str	r0, [sp, #20]
	.loc	3 851 5                         @ ../../../CORTEX_MPU_M3_NUCLEO_L152RE_GCC/Demo/EventGroupsDemo.c:851:5
	b	.LBB7_12
.Ltmp222:
.LBB7_12:
	.loc	3 855 29                        @ ../../../CORTEX_MPU_M3_NUCLEO_L152RE_GCC/Demo/EventGroupsDemo.c:855:29
	movw	r0, :lower16:xEventGroup
	movt	r0, :upper16:xEventGroup
	ldr	r0, [r0]
	movs	r1, #0
	.loc	3 855 9 is_stmt 0               @ ../../../CORTEX_MPU_M3_NUCLEO_L152RE_GCC/Demo/EventGroupsDemo.c:855:9
	bl	MPU_xEventGroupSetBits
.Ltmp223:
	.loc	3 855 9                         @ ../../../CORTEX_MPU_M3_NUCLEO_L152RE_GCC/Demo/EventGroupsDemo.c:855:9
	cmp	r0, #255
	beq	.LBB7_14
	b	.LBB7_13
.LBB7_13:
	.loc	3 0 9                           @ ../../../CORTEX_MPU_M3_NUCLEO_L152RE_GCC/Demo/EventGroupsDemo.c:0:9
	movs	r0, #1
.Ltmp224:
	.loc	3 857 16 is_stmt 1              @ ../../../CORTEX_MPU_M3_NUCLEO_L152RE_GCC/Demo/EventGroupsDemo.c:857:16
	str	r0, [sp, #20]
	.loc	3 858 5                         @ ../../../CORTEX_MPU_M3_NUCLEO_L152RE_GCC/Demo/EventGroupsDemo.c:858:5
	b	.LBB7_14
.Ltmp225:
.LBB7_14:
	.loc	3 861 31                        @ ../../../CORTEX_MPU_M3_NUCLEO_L152RE_GCC/Demo/EventGroupsDemo.c:861:31
	movw	r0, :lower16:xEventGroup
	movt	r0, :upper16:xEventGroup
	ldr	r0, [r0]
	movs	r1, #2
	.loc	3 861 9 is_stmt 0               @ ../../../CORTEX_MPU_M3_NUCLEO_L152RE_GCC/Demo/EventGroupsDemo.c:861:9
	bl	MPU_xEventGroupClearBits
.Ltmp226:
	.loc	3 861 9                         @ ../../../CORTEX_MPU_M3_NUCLEO_L152RE_GCC/Demo/EventGroupsDemo.c:861:9
	cmp	r0, #255
	beq	.LBB7_16
	b	.LBB7_15
.LBB7_15:
	.loc	3 0 9                           @ ../../../CORTEX_MPU_M3_NUCLEO_L152RE_GCC/Demo/EventGroupsDemo.c:0:9
	movs	r0, #1
.Ltmp227:
	.loc	3 863 16 is_stmt 1              @ ../../../CORTEX_MPU_M3_NUCLEO_L152RE_GCC/Demo/EventGroupsDemo.c:863:16
	str	r0, [sp, #20]
	.loc	3 864 5                         @ ../../../CORTEX_MPU_M3_NUCLEO_L152RE_GCC/Demo/EventGroupsDemo.c:864:5
	b	.LBB7_16
.Ltmp228:
.LBB7_16:
	.loc	3 868 18                        @ ../../../CORTEX_MPU_M3_NUCLEO_L152RE_GCC/Demo/EventGroupsDemo.c:868:18
	ldr	r0, [sp, #16]
	.loc	3 868 5 is_stmt 0               @ ../../../CORTEX_MPU_M3_NUCLEO_L152RE_GCC/Demo/EventGroupsDemo.c:868:5
	bl	MPU_vTaskResume
.Ltmp229:
	.loc	3 871 24 is_stmt 1              @ ../../../CORTEX_MPU_M3_NUCLEO_L152RE_GCC/Demo/EventGroupsDemo.c:871:24
	ldr	r0, [sp, #16]
	.loc	3 871 9 is_stmt 0               @ ../../../CORTEX_MPU_M3_NUCLEO_L152RE_GCC/Demo/EventGroupsDemo.c:871:9
	bl	MPU_eTaskGetState
.Ltmp230:
	.loc	3 871 9                         @ ../../../CORTEX_MPU_M3_NUCLEO_L152RE_GCC/Demo/EventGroupsDemo.c:871:9
	cmp	r0, #2
	beq	.LBB7_18
	b	.LBB7_17
.LBB7_17:
	.loc	3 0 9                           @ ../../../CORTEX_MPU_M3_NUCLEO_L152RE_GCC/Demo/EventGroupsDemo.c:0:9
	movs	r0, #1
.Ltmp231:
	.loc	3 873 16 is_stmt 1              @ ../../../CORTEX_MPU_M3_NUCLEO_L152RE_GCC/Demo/EventGroupsDemo.c:873:16
	str	r0, [sp, #20]
	.loc	3 874 5                         @ ../../../CORTEX_MPU_M3_NUCLEO_L152RE_GCC/Demo/EventGroupsDemo.c:874:5
	b	.LBB7_18
.Ltmp232:
.LBB7_18:
	.loc	3 877 25                        @ ../../../CORTEX_MPU_M3_NUCLEO_L152RE_GCC/Demo/EventGroupsDemo.c:877:25
	movw	r0, :lower16:xEventGroup
	movt	r0, :upper16:xEventGroup
	ldr	r0, [r0]
	movs	r1, #2
	.loc	3 877 5 is_stmt 0               @ ../../../CORTEX_MPU_M3_NUCLEO_L152RE_GCC/Demo/EventGroupsDemo.c:877:5
	bl	MPU_xEventGroupSetBits
.Ltmp233:
	.loc	3 880 24 is_stmt 1              @ ../../../CORTEX_MPU_M3_NUCLEO_L152RE_GCC/Demo/EventGroupsDemo.c:880:24
	ldr	r0, [sp, #16]
	.loc	3 880 9 is_stmt 0               @ ../../../CORTEX_MPU_M3_NUCLEO_L152RE_GCC/Demo/EventGroupsDemo.c:880:9
	bl	MPU_eTaskGetState
.Ltmp234:
	.loc	3 880 9                         @ ../../../CORTEX_MPU_M3_NUCLEO_L152RE_GCC/Demo/EventGroupsDemo.c:880:9
	cmp	r0, #3
	beq	.LBB7_20
	b	.LBB7_19
.LBB7_19:
	.loc	3 0 9                           @ ../../../CORTEX_MPU_M3_NUCLEO_L152RE_GCC/Demo/EventGroupsDemo.c:0:9
	movs	r0, #1
.Ltmp235:
	.loc	3 882 16 is_stmt 1              @ ../../../CORTEX_MPU_M3_NUCLEO_L152RE_GCC/Demo/EventGroupsDemo.c:882:16
	str	r0, [sp, #20]
	.loc	3 883 5                         @ ../../../CORTEX_MPU_M3_NUCLEO_L152RE_GCC/Demo/EventGroupsDemo.c:883:5
	b	.LBB7_20
.Ltmp236:
.LBB7_20:
	.loc	3 887 35                        @ ../../../CORTEX_MPU_M3_NUCLEO_L152RE_GCC/Demo/EventGroupsDemo.c:887:35
	movw	r0, :lower16:xEventGroup
	movt	r0, :upper16:xEventGroup
	ldr	r0, [r0]
	movs	r3, #0
	.loc	3 887 14 is_stmt 0              @ ../../../CORTEX_MPU_M3_NUCLEO_L152RE_GCC/Demo/EventGroupsDemo.c:887:14
	str	r3, [sp]
	movs	r1, #255
	mov	r2, r3
	bl	MPU_xEventGroupWaitBits
	.loc	3 887 12                        @ ../../../CORTEX_MPU_M3_NUCLEO_L152RE_GCC/Demo/EventGroupsDemo.c:887:12
	str	r0, [sp, #12]
.Ltmp237:
	.loc	3 889 9 is_stmt 1               @ ../../../CORTEX_MPU_M3_NUCLEO_L152RE_GCC/Demo/EventGroupsDemo.c:889:9
	ldr	r0, [sp, #12]
.Ltmp238:
	.loc	3 889 9 is_stmt 0               @ ../../../CORTEX_MPU_M3_NUCLEO_L152RE_GCC/Demo/EventGroupsDemo.c:889:9
	cmp	r0, #93
	beq	.LBB7_22
	b	.LBB7_21
.LBB7_21:
	.loc	3 0 9                           @ ../../../CORTEX_MPU_M3_NUCLEO_L152RE_GCC/Demo/EventGroupsDemo.c:0:9
	movs	r0, #1
.Ltmp239:
	.loc	3 891 16 is_stmt 1              @ ../../../CORTEX_MPU_M3_NUCLEO_L152RE_GCC/Demo/EventGroupsDemo.c:891:16
	str	r0, [sp, #20]
	.loc	3 892 5                         @ ../../../CORTEX_MPU_M3_NUCLEO_L152RE_GCC/Demo/EventGroupsDemo.c:892:5
	b	.LBB7_22
.Ltmp240:
.LBB7_22:
	.loc	3 896 31                        @ ../../../CORTEX_MPU_M3_NUCLEO_L152RE_GCC/Demo/EventGroupsDemo.c:896:31
	movw	r0, :lower16:xEventGroup
	movt	r0, :upper16:xEventGroup
	ldr	r0, [r0]
	movs	r1, #255
	.loc	3 896 9 is_stmt 0               @ ../../../CORTEX_MPU_M3_NUCLEO_L152RE_GCC/Demo/EventGroupsDemo.c:896:9
	bl	MPU_xEventGroupClearBits
.Ltmp241:
	.loc	3 896 9                         @ ../../../CORTEX_MPU_M3_NUCLEO_L152RE_GCC/Demo/EventGroupsDemo.c:896:9
	cmp	r0, #93
	beq	.LBB7_24
	b	.LBB7_23
.LBB7_23:
	.loc	3 0 9                           @ ../../../CORTEX_MPU_M3_NUCLEO_L152RE_GCC/Demo/EventGroupsDemo.c:0:9
	movs	r0, #1
.Ltmp242:
	.loc	3 898 16 is_stmt 1              @ ../../../CORTEX_MPU_M3_NUCLEO_L152RE_GCC/Demo/EventGroupsDemo.c:898:16
	str	r0, [sp, #20]
	.loc	3 899 5                         @ ../../../CORTEX_MPU_M3_NUCLEO_L152RE_GCC/Demo/EventGroupsDemo.c:899:5
	b	.LBB7_24
.Ltmp243:
.LBB7_24:
	.loc	3 902 9                         @ ../../../CORTEX_MPU_M3_NUCLEO_L152RE_GCC/Demo/EventGroupsDemo.c:902:9
	movw	r0, :lower16:xEventGroup
	movt	r0, :upper16:xEventGroup
	ldr	r0, [r0]
	movs	r1, #0
	bl	MPU_xEventGroupClearBits
.Ltmp244:
	.loc	3 902 9 is_stmt 0               @ ../../../CORTEX_MPU_M3_NUCLEO_L152RE_GCC/Demo/EventGroupsDemo.c:902:9
	cbz	r0, .LBB7_26
	b	.LBB7_25
.LBB7_25:
	.loc	3 0 9                           @ ../../../CORTEX_MPU_M3_NUCLEO_L152RE_GCC/Demo/EventGroupsDemo.c:0:9
	movs	r0, #1
.Ltmp245:
	.loc	3 904 16 is_stmt 1              @ ../../../CORTEX_MPU_M3_NUCLEO_L152RE_GCC/Demo/EventGroupsDemo.c:904:16
	str	r0, [sp, #20]
	.loc	3 905 5                         @ ../../../CORTEX_MPU_M3_NUCLEO_L152RE_GCC/Demo/EventGroupsDemo.c:905:5
	b	.LBB7_26
.Ltmp246:
.LBB7_26:
	.loc	3 907 12                        @ ../../../CORTEX_MPU_M3_NUCLEO_L152RE_GCC/Demo/EventGroupsDemo.c:907:12
	ldr	r0, [sp, #20]
	.loc	3 907 5 is_stmt 0               @ ../../../CORTEX_MPU_M3_NUCLEO_L152RE_GCC/Demo/EventGroupsDemo.c:907:5
	add	sp, #24
	pop	{r7, pc}
.Ltmp247:
.Lfunc_end7:
	.size	prvBitCombinationTestMasterFunction, .Lfunc_end7-prvBitCombinationTestMasterFunction
	.cfi_endproc
	.cantunwind
	.fnend
                                        @ -- End function
	.section	.text.prvPerformTaskSyncTests,"ax",%progbits
	.p2align	1                               @ -- Begin function prvPerformTaskSyncTests
	.type	prvPerformTaskSyncTests,%function
	.code	16                              @ @prvPerformTaskSyncTests
	.thumb_func
prvPerformTaskSyncTests:
.Lfunc_begin8:
	.loc	3 596 0 is_stmt 1               @ ../../../CORTEX_MPU_M3_NUCLEO_L152RE_GCC/Demo/EventGroupsDemo.c:596:0
	.fnstart
	.cfi_startproc
@ %bb.0:
	.save	{r7, lr}
	push	{r7, lr}
	.cfi_def_cfa_offset 8
	.cfi_offset lr, -4
	.cfi_offset r7, -8
	.pad	#40
	sub	sp, #40
	.cfi_def_cfa_offset 48
	str	r0, [sp, #36]
	str	r1, [sp, #32]
.Ltmp248:
	.loc	3 601 24 prologue_end           @ ../../../CORTEX_MPU_M3_NUCLEO_L152RE_GCC/Demo/EventGroupsDemo.c:601:24
	ldr	r0, [sp, #32]
	.loc	3 601 9 is_stmt 0               @ ../../../CORTEX_MPU_M3_NUCLEO_L152RE_GCC/Demo/EventGroupsDemo.c:601:9
	bl	MPU_eTaskGetState
.Ltmp249:
	.loc	3 601 9                         @ ../../../CORTEX_MPU_M3_NUCLEO_L152RE_GCC/Demo/EventGroupsDemo.c:601:9
	cmp	r0, #3
	beq	.LBB8_2
	b	.LBB8_1
.LBB8_1:
	.loc	3 0 9                           @ ../../../CORTEX_MPU_M3_NUCLEO_L152RE_GCC/Demo/EventGroupsDemo.c:0:9
	movs	r0, #1
.Ltmp250:
	.loc	3 603 16 is_stmt 1              @ ../../../CORTEX_MPU_M3_NUCLEO_L152RE_GCC/Demo/EventGroupsDemo.c:603:16
	str	r0, [sp, #36]
	.loc	3 604 5                         @ ../../../CORTEX_MPU_M3_NUCLEO_L152RE_GCC/Demo/EventGroupsDemo.c:604:5
	b	.LBB8_2
.Ltmp251:
.LBB8_2:
	.loc	3 606 24                        @ ../../../CORTEX_MPU_M3_NUCLEO_L152RE_GCC/Demo/EventGroupsDemo.c:606:24
	movw	r0, :lower16:xSyncTaskHandle
	movt	r0, :upper16:xSyncTaskHandle
	ldr	r0, [r0]
	.loc	3 606 9 is_stmt 0               @ ../../../CORTEX_MPU_M3_NUCLEO_L152RE_GCC/Demo/EventGroupsDemo.c:606:9
	bl	MPU_eTaskGetState
.Ltmp252:
	.loc	3 606 9                         @ ../../../CORTEX_MPU_M3_NUCLEO_L152RE_GCC/Demo/EventGroupsDemo.c:606:9
	cmp	r0, #3
	beq	.LBB8_4
	b	.LBB8_3
.LBB8_3:
	.loc	3 0 9                           @ ../../../CORTEX_MPU_M3_NUCLEO_L152RE_GCC/Demo/EventGroupsDemo.c:0:9
	movs	r0, #1
.Ltmp253:
	.loc	3 608 16 is_stmt 1              @ ../../../CORTEX_MPU_M3_NUCLEO_L152RE_GCC/Demo/EventGroupsDemo.c:608:16
	str	r0, [sp, #36]
	.loc	3 609 5                         @ ../../../CORTEX_MPU_M3_NUCLEO_L152RE_GCC/Demo/EventGroupsDemo.c:609:5
	b	.LBB8_4
.Ltmp254:
.LBB8_4:
	.loc	3 611 24                        @ ../../../CORTEX_MPU_M3_NUCLEO_L152RE_GCC/Demo/EventGroupsDemo.c:611:24
	movw	r0, :lower16:xSyncTaskHandle
	movt	r0, :upper16:xSyncTaskHandle
	ldr	r0, [r0, #4]
	.loc	3 611 9 is_stmt 0               @ ../../../CORTEX_MPU_M3_NUCLEO_L152RE_GCC/Demo/EventGroupsDemo.c:611:9
	bl	MPU_eTaskGetState
.Ltmp255:
	.loc	3 611 9                         @ ../../../CORTEX_MPU_M3_NUCLEO_L152RE_GCC/Demo/EventGroupsDemo.c:611:9
	cmp	r0, #3
	beq	.LBB8_6
	b	.LBB8_5
.LBB8_5:
	.loc	3 0 9                           @ ../../../CORTEX_MPU_M3_NUCLEO_L152RE_GCC/Demo/EventGroupsDemo.c:0:9
	movs	r0, #1
.Ltmp256:
	.loc	3 613 16 is_stmt 1              @ ../../../CORTEX_MPU_M3_NUCLEO_L152RE_GCC/Demo/EventGroupsDemo.c:613:16
	str	r0, [sp, #36]
	.loc	3 614 5                         @ ../../../CORTEX_MPU_M3_NUCLEO_L152RE_GCC/Demo/EventGroupsDemo.c:614:5
	b	.LBB8_6
.Ltmp257:
.LBB8_6:
	.loc	3 618 25                        @ ../../../CORTEX_MPU_M3_NUCLEO_L152RE_GCC/Demo/EventGroupsDemo.c:618:25
	movw	r0, :lower16:xEventGroup
	movt	r0, :upper16:xEventGroup
	str	r0, [sp, #24]                   @ 4-byte Spill
	ldr	r0, [r0]
	movs	r1, #14
	.loc	3 618 5 is_stmt 0               @ ../../../CORTEX_MPU_M3_NUCLEO_L152RE_GCC/Demo/EventGroupsDemo.c:618:5
	bl	MPU_xEventGroupSetBits
                                        @ kill: def $r1 killed $r0
	.loc	3 621 31 is_stmt 1              @ ../../../CORTEX_MPU_M3_NUCLEO_L152RE_GCC/Demo/EventGroupsDemo.c:621:31
	ldr	r0, [sp, #24]                   @ 4-byte Reload
	ldr	r0, [r0]
	movs	r1, #0
	mvns	r3, r1
	movs	r2, #1
	.loc	3 621 14 is_stmt 0              @ ../../../CORTEX_MPU_M3_NUCLEO_L152RE_GCC/Demo/EventGroupsDemo.c:621:14
	mov	r1, r2
	bl	MPU_xEventGroupSync
	.loc	3 621 12                        @ ../../../CORTEX_MPU_M3_NUCLEO_L152RE_GCC/Demo/EventGroupsDemo.c:621:12
	str	r0, [sp, #28]
	add	r0, sp, #28
	.loc	3 629 9 is_stmt 1               @ ../../../CORTEX_MPU_M3_NUCLEO_L152RE_GCC/Demo/EventGroupsDemo.c:629:9
	ldrb	r0, [r0]
	lsls	r0, r0, #31
	cbnz	r0, .LBB8_8
	b	.LBB8_7
.LBB8_7:
	.loc	3 0 9 is_stmt 0                 @ ../../../CORTEX_MPU_M3_NUCLEO_L152RE_GCC/Demo/EventGroupsDemo.c:0:9
	movs	r0, #1
.Ltmp258:
	.loc	3 631 16 is_stmt 1              @ ../../../CORTEX_MPU_M3_NUCLEO_L152RE_GCC/Demo/EventGroupsDemo.c:631:16
	str	r0, [sp, #36]
	.loc	3 632 5                         @ ../../../CORTEX_MPU_M3_NUCLEO_L152RE_GCC/Demo/EventGroupsDemo.c:632:5
	b	.LBB8_8
.Ltmp259:
.LBB8_8:
	.loc	3 636 9                         @ ../../../CORTEX_MPU_M3_NUCLEO_L152RE_GCC/Demo/EventGroupsDemo.c:636:9
	movw	r0, :lower16:xEventGroup
	movt	r0, :upper16:xEventGroup
	ldr	r0, [r0]
	movs	r1, #0
	bl	MPU_xEventGroupClearBits
.Ltmp260:
	.loc	3 636 9 is_stmt 0               @ ../../../CORTEX_MPU_M3_NUCLEO_L152RE_GCC/Demo/EventGroupsDemo.c:636:9
	cmp	r0, #14
	beq	.LBB8_10
	b	.LBB8_9
.LBB8_9:
	.loc	3 0 9                           @ ../../../CORTEX_MPU_M3_NUCLEO_L152RE_GCC/Demo/EventGroupsDemo.c:0:9
	movs	r0, #1
.Ltmp261:
	.loc	3 638 16 is_stmt 1              @ ../../../CORTEX_MPU_M3_NUCLEO_L152RE_GCC/Demo/EventGroupsDemo.c:638:16
	str	r0, [sp, #36]
	.loc	3 639 5                         @ ../../../CORTEX_MPU_M3_NUCLEO_L152RE_GCC/Demo/EventGroupsDemo.c:639:5
	b	.LBB8_10
.Ltmp262:
.LBB8_10:
	.loc	3 642 27                        @ ../../../CORTEX_MPU_M3_NUCLEO_L152RE_GCC/Demo/EventGroupsDemo.c:642:27
	movw	r0, :lower16:xEventGroup
	movt	r0, :upper16:xEventGroup
	str	r0, [sp, #20]                   @ 4-byte Spill
	ldr	r0, [r0]
	movs	r1, #14
	.loc	3 642 5 is_stmt 0               @ ../../../CORTEX_MPU_M3_NUCLEO_L152RE_GCC/Demo/EventGroupsDemo.c:642:5
	bl	MPU_xEventGroupClearBits
                                        @ kill: def $r1 killed $r0
.Ltmp263:
	.loc	3 644 9 is_stmt 1               @ ../../../CORTEX_MPU_M3_NUCLEO_L152RE_GCC/Demo/EventGroupsDemo.c:644:9
	ldr	r0, [sp, #20]                   @ 4-byte Reload
	ldr	r0, [r0]
	movs	r1, #0
	bl	MPU_xEventGroupClearBits
.Ltmp264:
	.loc	3 644 9 is_stmt 0               @ ../../../CORTEX_MPU_M3_NUCLEO_L152RE_GCC/Demo/EventGroupsDemo.c:644:9
	cbz	r0, .LBB8_12
	b	.LBB8_11
.LBB8_11:
	.loc	3 0 9                           @ ../../../CORTEX_MPU_M3_NUCLEO_L152RE_GCC/Demo/EventGroupsDemo.c:0:9
	movs	r0, #1
.Ltmp265:
	.loc	3 646 16 is_stmt 1              @ ../../../CORTEX_MPU_M3_NUCLEO_L152RE_GCC/Demo/EventGroupsDemo.c:646:16
	str	r0, [sp, #36]
	.loc	3 647 5                         @ ../../../CORTEX_MPU_M3_NUCLEO_L152RE_GCC/Demo/EventGroupsDemo.c:647:5
	b	.LBB8_12
.Ltmp266:
.LBB8_12:
	.loc	3 651 18                        @ ../../../CORTEX_MPU_M3_NUCLEO_L152RE_GCC/Demo/EventGroupsDemo.c:651:18
	ldr	r0, [sp, #32]
	.loc	3 651 5 is_stmt 0               @ ../../../CORTEX_MPU_M3_NUCLEO_L152RE_GCC/Demo/EventGroupsDemo.c:651:5
	bl	MPU_vTaskResume
	.loc	3 652 18 is_stmt 1              @ ../../../CORTEX_MPU_M3_NUCLEO_L152RE_GCC/Demo/EventGroupsDemo.c:652:18
	movw	r0, :lower16:xSyncTaskHandle
	movt	r0, :upper16:xSyncTaskHandle
	str	r0, [sp, #16]                   @ 4-byte Spill
	ldr	r0, [r0]
	.loc	3 652 5 is_stmt 0               @ ../../../CORTEX_MPU_M3_NUCLEO_L152RE_GCC/Demo/EventGroupsDemo.c:652:5
	bl	MPU_vTaskResume
	ldr	r0, [sp, #16]                   @ 4-byte Reload
	.loc	3 653 18 is_stmt 1              @ ../../../CORTEX_MPU_M3_NUCLEO_L152RE_GCC/Demo/EventGroupsDemo.c:653:18
	ldr	r0, [r0, #4]
	.loc	3 653 5 is_stmt 0               @ ../../../CORTEX_MPU_M3_NUCLEO_L152RE_GCC/Demo/EventGroupsDemo.c:653:5
	bl	MPU_vTaskResume
.Ltmp267:
	.loc	3 655 24 is_stmt 1              @ ../../../CORTEX_MPU_M3_NUCLEO_L152RE_GCC/Demo/EventGroupsDemo.c:655:24
	ldr	r0, [sp, #32]
	.loc	3 655 9 is_stmt 0               @ ../../../CORTEX_MPU_M3_NUCLEO_L152RE_GCC/Demo/EventGroupsDemo.c:655:9
	bl	MPU_eTaskGetState
.Ltmp268:
	.loc	3 655 9                         @ ../../../CORTEX_MPU_M3_NUCLEO_L152RE_GCC/Demo/EventGroupsDemo.c:655:9
	cmp	r0, #2
	beq	.LBB8_14
	b	.LBB8_13
.LBB8_13:
	.loc	3 0 9                           @ ../../../CORTEX_MPU_M3_NUCLEO_L152RE_GCC/Demo/EventGroupsDemo.c:0:9
	movs	r0, #1
.Ltmp269:
	.loc	3 657 16 is_stmt 1              @ ../../../CORTEX_MPU_M3_NUCLEO_L152RE_GCC/Demo/EventGroupsDemo.c:657:16
	str	r0, [sp, #36]
	.loc	3 658 5                         @ ../../../CORTEX_MPU_M3_NUCLEO_L152RE_GCC/Demo/EventGroupsDemo.c:658:5
	b	.LBB8_14
.Ltmp270:
.LBB8_14:
	.loc	3 660 24                        @ ../../../CORTEX_MPU_M3_NUCLEO_L152RE_GCC/Demo/EventGroupsDemo.c:660:24
	movw	r0, :lower16:xSyncTaskHandle
	movt	r0, :upper16:xSyncTaskHandle
	ldr	r0, [r0]
	.loc	3 660 9 is_stmt 0               @ ../../../CORTEX_MPU_M3_NUCLEO_L152RE_GCC/Demo/EventGroupsDemo.c:660:9
	bl	MPU_eTaskGetState
.Ltmp271:
	.loc	3 660 9                         @ ../../../CORTEX_MPU_M3_NUCLEO_L152RE_GCC/Demo/EventGroupsDemo.c:660:9
	cmp	r0, #2
	beq	.LBB8_16
	b	.LBB8_15
.LBB8_15:
	.loc	3 0 9                           @ ../../../CORTEX_MPU_M3_NUCLEO_L152RE_GCC/Demo/EventGroupsDemo.c:0:9
	movs	r0, #1
.Ltmp272:
	.loc	3 662 16 is_stmt 1              @ ../../../CORTEX_MPU_M3_NUCLEO_L152RE_GCC/Demo/EventGroupsDemo.c:662:16
	str	r0, [sp, #36]
	.loc	3 663 5                         @ ../../../CORTEX_MPU_M3_NUCLEO_L152RE_GCC/Demo/EventGroupsDemo.c:663:5
	b	.LBB8_16
.Ltmp273:
.LBB8_16:
	.loc	3 665 24                        @ ../../../CORTEX_MPU_M3_NUCLEO_L152RE_GCC/Demo/EventGroupsDemo.c:665:24
	movw	r0, :lower16:xSyncTaskHandle
	movt	r0, :upper16:xSyncTaskHandle
	ldr	r0, [r0, #4]
	.loc	3 665 9 is_stmt 0               @ ../../../CORTEX_MPU_M3_NUCLEO_L152RE_GCC/Demo/EventGroupsDemo.c:665:9
	bl	MPU_eTaskGetState
.Ltmp274:
	.loc	3 665 9                         @ ../../../CORTEX_MPU_M3_NUCLEO_L152RE_GCC/Demo/EventGroupsDemo.c:665:9
	cmp	r0, #2
	beq	.LBB8_18
	b	.LBB8_17
.LBB8_17:
	.loc	3 0 9                           @ ../../../CORTEX_MPU_M3_NUCLEO_L152RE_GCC/Demo/EventGroupsDemo.c:0:9
	movs	r0, #1
.Ltmp275:
	.loc	3 667 16 is_stmt 1              @ ../../../CORTEX_MPU_M3_NUCLEO_L152RE_GCC/Demo/EventGroupsDemo.c:667:16
	str	r0, [sp, #36]
	.loc	3 668 5                         @ ../../../CORTEX_MPU_M3_NUCLEO_L152RE_GCC/Demo/EventGroupsDemo.c:668:5
	b	.LBB8_18
.Ltmp276:
.LBB8_18:
	.loc	3 671 31                        @ ../../../CORTEX_MPU_M3_NUCLEO_L152RE_GCC/Demo/EventGroupsDemo.c:671:31
	movw	r0, :lower16:xEventGroup
	movt	r0, :upper16:xEventGroup
	ldr	r0, [r0]
	movs	r1, #0
	mvns	r3, r1
	movs	r1, #1
	movs	r2, #15
	.loc	3 671 14 is_stmt 0              @ ../../../CORTEX_MPU_M3_NUCLEO_L152RE_GCC/Demo/EventGroupsDemo.c:671:14
	str	r2, [sp, #12]                   @ 4-byte Spill
	bl	MPU_xEventGroupSync
	ldr	r1, [sp, #12]                   @ 4-byte Reload
	.loc	3 671 12                        @ ../../../CORTEX_MPU_M3_NUCLEO_L152RE_GCC/Demo/EventGroupsDemo.c:671:12
	str	r0, [sp, #28]
.Ltmp277:
	.loc	3 678 11 is_stmt 1              @ ../../../CORTEX_MPU_M3_NUCLEO_L152RE_GCC/Demo/EventGroupsDemo.c:678:11
	ldr	r0, [sp, #28]
	.loc	3 678 18 is_stmt 0              @ ../../../CORTEX_MPU_M3_NUCLEO_L152RE_GCC/Demo/EventGroupsDemo.c:678:18
	ands	r0, r1
.Ltmp278:
	.loc	3 678 9                         @ ../../../CORTEX_MPU_M3_NUCLEO_L152RE_GCC/Demo/EventGroupsDemo.c:678:9
	cmp	r0, #15
	beq	.LBB8_20
	b	.LBB8_19
.LBB8_19:
	.loc	3 0 9                           @ ../../../CORTEX_MPU_M3_NUCLEO_L152RE_GCC/Demo/EventGroupsDemo.c:0:9
	movs	r0, #1
.Ltmp279:
	.loc	3 680 16 is_stmt 1              @ ../../../CORTEX_MPU_M3_NUCLEO_L152RE_GCC/Demo/EventGroupsDemo.c:680:16
	str	r0, [sp, #36]
	.loc	3 681 5                         @ ../../../CORTEX_MPU_M3_NUCLEO_L152RE_GCC/Demo/EventGroupsDemo.c:681:5
	b	.LBB8_20
.Ltmp280:
.LBB8_20:
	.loc	3 684 9                         @ ../../../CORTEX_MPU_M3_NUCLEO_L152RE_GCC/Demo/EventGroupsDemo.c:684:9
	movw	r0, :lower16:xEventGroup
	movt	r0, :upper16:xEventGroup
	ldr	r0, [r0]
	movs	r1, #0
	bl	MPU_xEventGroupClearBits
.Ltmp281:
	.loc	3 684 9 is_stmt 0               @ ../../../CORTEX_MPU_M3_NUCLEO_L152RE_GCC/Demo/EventGroupsDemo.c:684:9
	cbz	r0, .LBB8_22
	b	.LBB8_21
.LBB8_21:
	.loc	3 0 9                           @ ../../../CORTEX_MPU_M3_NUCLEO_L152RE_GCC/Demo/EventGroupsDemo.c:0:9
	movs	r0, #1
.Ltmp282:
	.loc	3 686 16 is_stmt 1              @ ../../../CORTEX_MPU_M3_NUCLEO_L152RE_GCC/Demo/EventGroupsDemo.c:686:16
	str	r0, [sp, #36]
	.loc	3 687 5                         @ ../../../CORTEX_MPU_M3_NUCLEO_L152RE_GCC/Demo/EventGroupsDemo.c:687:5
	b	.LBB8_22
.Ltmp283:
.LBB8_22:
	.loc	3 691 24                        @ ../../../CORTEX_MPU_M3_NUCLEO_L152RE_GCC/Demo/EventGroupsDemo.c:691:24
	ldr	r0, [sp, #32]
	.loc	3 691 9 is_stmt 0               @ ../../../CORTEX_MPU_M3_NUCLEO_L152RE_GCC/Demo/EventGroupsDemo.c:691:9
	bl	MPU_eTaskGetState
.Ltmp284:
	.loc	3 691 9                         @ ../../../CORTEX_MPU_M3_NUCLEO_L152RE_GCC/Demo/EventGroupsDemo.c:691:9
	cmp	r0, #3
	beq	.LBB8_24
	b	.LBB8_23
.LBB8_23:
	.loc	3 0 9                           @ ../../../CORTEX_MPU_M3_NUCLEO_L152RE_GCC/Demo/EventGroupsDemo.c:0:9
	movs	r0, #1
.Ltmp285:
	.loc	3 693 16 is_stmt 1              @ ../../../CORTEX_MPU_M3_NUCLEO_L152RE_GCC/Demo/EventGroupsDemo.c:693:16
	str	r0, [sp, #36]
	.loc	3 694 5                         @ ../../../CORTEX_MPU_M3_NUCLEO_L152RE_GCC/Demo/EventGroupsDemo.c:694:5
	b	.LBB8_24
.Ltmp286:
.LBB8_24:
	.loc	3 696 24                        @ ../../../CORTEX_MPU_M3_NUCLEO_L152RE_GCC/Demo/EventGroupsDemo.c:696:24
	movw	r0, :lower16:xSyncTaskHandle
	movt	r0, :upper16:xSyncTaskHandle
	ldr	r0, [r0]
	.loc	3 696 9 is_stmt 0               @ ../../../CORTEX_MPU_M3_NUCLEO_L152RE_GCC/Demo/EventGroupsDemo.c:696:9
	bl	MPU_eTaskGetState
.Ltmp287:
	.loc	3 696 9                         @ ../../../CORTEX_MPU_M3_NUCLEO_L152RE_GCC/Demo/EventGroupsDemo.c:696:9
	cmp	r0, #3
	beq	.LBB8_26
	b	.LBB8_25
.LBB8_25:
	.loc	3 0 9                           @ ../../../CORTEX_MPU_M3_NUCLEO_L152RE_GCC/Demo/EventGroupsDemo.c:0:9
	movs	r0, #1
.Ltmp288:
	.loc	3 698 16 is_stmt 1              @ ../../../CORTEX_MPU_M3_NUCLEO_L152RE_GCC/Demo/EventGroupsDemo.c:698:16
	str	r0, [sp, #36]
	.loc	3 699 5                         @ ../../../CORTEX_MPU_M3_NUCLEO_L152RE_GCC/Demo/EventGroupsDemo.c:699:5
	b	.LBB8_26
.Ltmp289:
.LBB8_26:
	.loc	3 701 24                        @ ../../../CORTEX_MPU_M3_NUCLEO_L152RE_GCC/Demo/EventGroupsDemo.c:701:24
	movw	r0, :lower16:xSyncTaskHandle
	movt	r0, :upper16:xSyncTaskHandle
	ldr	r0, [r0, #4]
	.loc	3 701 9 is_stmt 0               @ ../../../CORTEX_MPU_M3_NUCLEO_L152RE_GCC/Demo/EventGroupsDemo.c:701:9
	bl	MPU_eTaskGetState
.Ltmp290:
	.loc	3 701 9                         @ ../../../CORTEX_MPU_M3_NUCLEO_L152RE_GCC/Demo/EventGroupsDemo.c:701:9
	cmp	r0, #3
	beq	.LBB8_28
	b	.LBB8_27
.LBB8_27:
	.loc	3 0 9                           @ ../../../CORTEX_MPU_M3_NUCLEO_L152RE_GCC/Demo/EventGroupsDemo.c:0:9
	movs	r0, #1
.Ltmp291:
	.loc	3 703 16 is_stmt 1              @ ../../../CORTEX_MPU_M3_NUCLEO_L152RE_GCC/Demo/EventGroupsDemo.c:703:16
	str	r0, [sp, #36]
	.loc	3 704 5                         @ ../../../CORTEX_MPU_M3_NUCLEO_L152RE_GCC/Demo/EventGroupsDemo.c:704:5
	b	.LBB8_28
.Ltmp292:
.LBB8_28:
	.loc	3 710 18                        @ ../../../CORTEX_MPU_M3_NUCLEO_L152RE_GCC/Demo/EventGroupsDemo.c:710:18
	ldr	r0, [sp, #32]
	.loc	3 710 5 is_stmt 0               @ ../../../CORTEX_MPU_M3_NUCLEO_L152RE_GCC/Demo/EventGroupsDemo.c:710:5
	bl	MPU_vTaskResume
	.loc	3 711 18 is_stmt 1              @ ../../../CORTEX_MPU_M3_NUCLEO_L152RE_GCC/Demo/EventGroupsDemo.c:711:18
	movw	r0, :lower16:xSyncTaskHandle
	movt	r0, :upper16:xSyncTaskHandle
	str	r0, [sp, #8]                    @ 4-byte Spill
	ldr	r0, [r0]
	.loc	3 711 5 is_stmt 0               @ ../../../CORTEX_MPU_M3_NUCLEO_L152RE_GCC/Demo/EventGroupsDemo.c:711:5
	bl	MPU_vTaskResume
	ldr	r0, [sp, #8]                    @ 4-byte Reload
	.loc	3 712 18 is_stmt 1              @ ../../../CORTEX_MPU_M3_NUCLEO_L152RE_GCC/Demo/EventGroupsDemo.c:712:18
	ldr	r0, [r0, #4]
	.loc	3 712 5 is_stmt 0               @ ../../../CORTEX_MPU_M3_NUCLEO_L152RE_GCC/Demo/EventGroupsDemo.c:712:5
	bl	MPU_vTaskResume
.Ltmp293:
	.loc	3 714 24 is_stmt 1              @ ../../../CORTEX_MPU_M3_NUCLEO_L152RE_GCC/Demo/EventGroupsDemo.c:714:24
	ldr	r0, [sp, #32]
	.loc	3 714 9 is_stmt 0               @ ../../../CORTEX_MPU_M3_NUCLEO_L152RE_GCC/Demo/EventGroupsDemo.c:714:9
	bl	MPU_eTaskGetState
.Ltmp294:
	.loc	3 714 9                         @ ../../../CORTEX_MPU_M3_NUCLEO_L152RE_GCC/Demo/EventGroupsDemo.c:714:9
	cmp	r0, #2
	beq	.LBB8_30
	b	.LBB8_29
.LBB8_29:
	.loc	3 0 9                           @ ../../../CORTEX_MPU_M3_NUCLEO_L152RE_GCC/Demo/EventGroupsDemo.c:0:9
	movs	r0, #1
.Ltmp295:
	.loc	3 716 16 is_stmt 1              @ ../../../CORTEX_MPU_M3_NUCLEO_L152RE_GCC/Demo/EventGroupsDemo.c:716:16
	str	r0, [sp, #36]
	.loc	3 717 5                         @ ../../../CORTEX_MPU_M3_NUCLEO_L152RE_GCC/Demo/EventGroupsDemo.c:717:5
	b	.LBB8_30
.Ltmp296:
.LBB8_30:
	.loc	3 719 24                        @ ../../../CORTEX_MPU_M3_NUCLEO_L152RE_GCC/Demo/EventGroupsDemo.c:719:24
	movw	r0, :lower16:xSyncTaskHandle
	movt	r0, :upper16:xSyncTaskHandle
	ldr	r0, [r0]
	.loc	3 719 9 is_stmt 0               @ ../../../CORTEX_MPU_M3_NUCLEO_L152RE_GCC/Demo/EventGroupsDemo.c:719:9
	bl	MPU_eTaskGetState
.Ltmp297:
	.loc	3 719 9                         @ ../../../CORTEX_MPU_M3_NUCLEO_L152RE_GCC/Demo/EventGroupsDemo.c:719:9
	cmp	r0, #2
	beq	.LBB8_32
	b	.LBB8_31
.LBB8_31:
	.loc	3 0 9                           @ ../../../CORTEX_MPU_M3_NUCLEO_L152RE_GCC/Demo/EventGroupsDemo.c:0:9
	movs	r0, #1
.Ltmp298:
	.loc	3 721 16 is_stmt 1              @ ../../../CORTEX_MPU_M3_NUCLEO_L152RE_GCC/Demo/EventGroupsDemo.c:721:16
	str	r0, [sp, #36]
	.loc	3 722 5                         @ ../../../CORTEX_MPU_M3_NUCLEO_L152RE_GCC/Demo/EventGroupsDemo.c:722:5
	b	.LBB8_32
.Ltmp299:
.LBB8_32:
	.loc	3 724 24                        @ ../../../CORTEX_MPU_M3_NUCLEO_L152RE_GCC/Demo/EventGroupsDemo.c:724:24
	movw	r0, :lower16:xSyncTaskHandle
	movt	r0, :upper16:xSyncTaskHandle
	ldr	r0, [r0, #4]
	.loc	3 724 9 is_stmt 0               @ ../../../CORTEX_MPU_M3_NUCLEO_L152RE_GCC/Demo/EventGroupsDemo.c:724:9
	bl	MPU_eTaskGetState
.Ltmp300:
	.loc	3 724 9                         @ ../../../CORTEX_MPU_M3_NUCLEO_L152RE_GCC/Demo/EventGroupsDemo.c:724:9
	cmp	r0, #2
	beq	.LBB8_34
	b	.LBB8_33
.LBB8_33:
	.loc	3 0 9                           @ ../../../CORTEX_MPU_M3_NUCLEO_L152RE_GCC/Demo/EventGroupsDemo.c:0:9
	movs	r0, #1
.Ltmp301:
	.loc	3 726 16 is_stmt 1              @ ../../../CORTEX_MPU_M3_NUCLEO_L152RE_GCC/Demo/EventGroupsDemo.c:726:16
	str	r0, [sp, #36]
	.loc	3 727 5                         @ ../../../CORTEX_MPU_M3_NUCLEO_L152RE_GCC/Demo/EventGroupsDemo.c:727:5
	b	.LBB8_34
.Ltmp302:
.LBB8_34:
	.loc	3 0 5 is_stmt 0                 @ ../../../CORTEX_MPU_M3_NUCLEO_L152RE_GCC/Demo/EventGroupsDemo.c:0:5
	movs	r0, #0
	str	r0, [sp]                        @ 4-byte Spill
	movs	r1, #2
	.loc	3 730 5 is_stmt 1               @ ../../../CORTEX_MPU_M3_NUCLEO_L152RE_GCC/Demo/EventGroupsDemo.c:730:5
	bl	MPU_vTaskPrioritySet
	ldr	r1, [sp]                        @ 4-byte Reload
	.loc	3 733 31                        @ ../../../CORTEX_MPU_M3_NUCLEO_L152RE_GCC/Demo/EventGroupsDemo.c:733:31
	movw	r0, :lower16:xEventGroup
	movt	r0, :upper16:xEventGroup
	ldr	r0, [r0]
	mvns	r3, r1
	movs	r1, #1
	movs	r2, #15
	.loc	3 733 14 is_stmt 0              @ ../../../CORTEX_MPU_M3_NUCLEO_L152RE_GCC/Demo/EventGroupsDemo.c:733:14
	str	r2, [sp, #4]                    @ 4-byte Spill
	bl	MPU_xEventGroupSync
	ldr	r1, [sp, #4]                    @ 4-byte Reload
	.loc	3 733 12                        @ ../../../CORTEX_MPU_M3_NUCLEO_L152RE_GCC/Demo/EventGroupsDemo.c:733:12
	str	r0, [sp, #28]
.Ltmp303:
	.loc	3 737 11 is_stmt 1              @ ../../../CORTEX_MPU_M3_NUCLEO_L152RE_GCC/Demo/EventGroupsDemo.c:737:11
	ldr	r0, [sp, #28]
	.loc	3 737 18 is_stmt 0              @ ../../../CORTEX_MPU_M3_NUCLEO_L152RE_GCC/Demo/EventGroupsDemo.c:737:18
	ands	r0, r1
.Ltmp304:
	.loc	3 737 9                         @ ../../../CORTEX_MPU_M3_NUCLEO_L152RE_GCC/Demo/EventGroupsDemo.c:737:9
	cmp	r0, #15
	beq	.LBB8_36
	b	.LBB8_35
.LBB8_35:
	.loc	3 0 9                           @ ../../../CORTEX_MPU_M3_NUCLEO_L152RE_GCC/Demo/EventGroupsDemo.c:0:9
	movs	r0, #1
.Ltmp305:
	.loc	3 739 16 is_stmt 1              @ ../../../CORTEX_MPU_M3_NUCLEO_L152RE_GCC/Demo/EventGroupsDemo.c:739:16
	str	r0, [sp, #36]
	.loc	3 740 5                         @ ../../../CORTEX_MPU_M3_NUCLEO_L152RE_GCC/Demo/EventGroupsDemo.c:740:5
	b	.LBB8_36
.Ltmp306:
.LBB8_36:
	.loc	3 743 9                         @ ../../../CORTEX_MPU_M3_NUCLEO_L152RE_GCC/Demo/EventGroupsDemo.c:743:9
	movw	r0, :lower16:xEventGroup
	movt	r0, :upper16:xEventGroup
	ldr	r0, [r0]
	movs	r1, #0
	bl	MPU_xEventGroupClearBits
.Ltmp307:
	.loc	3 743 9 is_stmt 0               @ ../../../CORTEX_MPU_M3_NUCLEO_L152RE_GCC/Demo/EventGroupsDemo.c:743:9
	cbz	r0, .LBB8_38
	b	.LBB8_37
.LBB8_37:
	.loc	3 0 9                           @ ../../../CORTEX_MPU_M3_NUCLEO_L152RE_GCC/Demo/EventGroupsDemo.c:0:9
	movs	r0, #1
.Ltmp308:
	.loc	3 745 16 is_stmt 1              @ ../../../CORTEX_MPU_M3_NUCLEO_L152RE_GCC/Demo/EventGroupsDemo.c:745:16
	str	r0, [sp, #36]
	.loc	3 746 5                         @ ../../../CORTEX_MPU_M3_NUCLEO_L152RE_GCC/Demo/EventGroupsDemo.c:746:5
	b	.LBB8_38
.Ltmp309:
.LBB8_38:
	.loc	3 750 24                        @ ../../../CORTEX_MPU_M3_NUCLEO_L152RE_GCC/Demo/EventGroupsDemo.c:750:24
	ldr	r0, [sp, #32]
	.loc	3 750 9 is_stmt 0               @ ../../../CORTEX_MPU_M3_NUCLEO_L152RE_GCC/Demo/EventGroupsDemo.c:750:9
	bl	MPU_eTaskGetState
.Ltmp310:
	.loc	3 750 9                         @ ../../../CORTEX_MPU_M3_NUCLEO_L152RE_GCC/Demo/EventGroupsDemo.c:750:9
	cmp	r0, #1
	beq	.LBB8_40
	b	.LBB8_39
.LBB8_39:
	.loc	3 0 9                           @ ../../../CORTEX_MPU_M3_NUCLEO_L152RE_GCC/Demo/EventGroupsDemo.c:0:9
	movs	r0, #1
.Ltmp311:
	.loc	3 752 16 is_stmt 1              @ ../../../CORTEX_MPU_M3_NUCLEO_L152RE_GCC/Demo/EventGroupsDemo.c:752:16
	str	r0, [sp, #36]
	.loc	3 753 5                         @ ../../../CORTEX_MPU_M3_NUCLEO_L152RE_GCC/Demo/EventGroupsDemo.c:753:5
	b	.LBB8_40
.Ltmp312:
.LBB8_40:
	.loc	3 755 24                        @ ../../../CORTEX_MPU_M3_NUCLEO_L152RE_GCC/Demo/EventGroupsDemo.c:755:24
	movw	r0, :lower16:xSyncTaskHandle
	movt	r0, :upper16:xSyncTaskHandle
	ldr	r0, [r0]
	.loc	3 755 9 is_stmt 0               @ ../../../CORTEX_MPU_M3_NUCLEO_L152RE_GCC/Demo/EventGroupsDemo.c:755:9
	bl	MPU_eTaskGetState
.Ltmp313:
	.loc	3 755 9                         @ ../../../CORTEX_MPU_M3_NUCLEO_L152RE_GCC/Demo/EventGroupsDemo.c:755:9
	cmp	r0, #1
	beq	.LBB8_42
	b	.LBB8_41
.LBB8_41:
	.loc	3 0 9                           @ ../../../CORTEX_MPU_M3_NUCLEO_L152RE_GCC/Demo/EventGroupsDemo.c:0:9
	movs	r0, #1
.Ltmp314:
	.loc	3 757 16 is_stmt 1              @ ../../../CORTEX_MPU_M3_NUCLEO_L152RE_GCC/Demo/EventGroupsDemo.c:757:16
	str	r0, [sp, #36]
	.loc	3 758 5                         @ ../../../CORTEX_MPU_M3_NUCLEO_L152RE_GCC/Demo/EventGroupsDemo.c:758:5
	b	.LBB8_42
.Ltmp315:
.LBB8_42:
	.loc	3 760 24                        @ ../../../CORTEX_MPU_M3_NUCLEO_L152RE_GCC/Demo/EventGroupsDemo.c:760:24
	movw	r0, :lower16:xSyncTaskHandle
	movt	r0, :upper16:xSyncTaskHandle
	ldr	r0, [r0, #4]
	.loc	3 760 9 is_stmt 0               @ ../../../CORTEX_MPU_M3_NUCLEO_L152RE_GCC/Demo/EventGroupsDemo.c:760:9
	bl	MPU_eTaskGetState
.Ltmp316:
	.loc	3 760 9                         @ ../../../CORTEX_MPU_M3_NUCLEO_L152RE_GCC/Demo/EventGroupsDemo.c:760:9
	cmp	r0, #1
	beq	.LBB8_44
	b	.LBB8_43
.LBB8_43:
	.loc	3 0 9                           @ ../../../CORTEX_MPU_M3_NUCLEO_L152RE_GCC/Demo/EventGroupsDemo.c:0:9
	movs	r0, #1
.Ltmp317:
	.loc	3 762 16 is_stmt 1              @ ../../../CORTEX_MPU_M3_NUCLEO_L152RE_GCC/Demo/EventGroupsDemo.c:762:16
	str	r0, [sp, #36]
	.loc	3 763 5                         @ ../../../CORTEX_MPU_M3_NUCLEO_L152RE_GCC/Demo/EventGroupsDemo.c:763:5
	b	.LBB8_44
.Ltmp318:
.LBB8_44:
	.loc	3 0 5 is_stmt 0                 @ ../../../CORTEX_MPU_M3_NUCLEO_L152RE_GCC/Demo/EventGroupsDemo.c:0:5
	movs	r1, #0
	.loc	3 766 5 is_stmt 1               @ ../../../CORTEX_MPU_M3_NUCLEO_L152RE_GCC/Demo/EventGroupsDemo.c:766:5
	mov	r0, r1
	bl	MPU_vTaskPrioritySet
.Ltmp319:
	.loc	3 770 24                        @ ../../../CORTEX_MPU_M3_NUCLEO_L152RE_GCC/Demo/EventGroupsDemo.c:770:24
	ldr	r0, [sp, #32]
	.loc	3 770 9 is_stmt 0               @ ../../../CORTEX_MPU_M3_NUCLEO_L152RE_GCC/Demo/EventGroupsDemo.c:770:9
	bl	MPU_eTaskGetState
.Ltmp320:
	.loc	3 770 9                         @ ../../../CORTEX_MPU_M3_NUCLEO_L152RE_GCC/Demo/EventGroupsDemo.c:770:9
	cmp	r0, #2
	beq	.LBB8_46
	b	.LBB8_45
.LBB8_45:
	.loc	3 0 9                           @ ../../../CORTEX_MPU_M3_NUCLEO_L152RE_GCC/Demo/EventGroupsDemo.c:0:9
	movs	r0, #1
.Ltmp321:
	.loc	3 772 16 is_stmt 1              @ ../../../CORTEX_MPU_M3_NUCLEO_L152RE_GCC/Demo/EventGroupsDemo.c:772:16
	str	r0, [sp, #36]
	.loc	3 773 5                         @ ../../../CORTEX_MPU_M3_NUCLEO_L152RE_GCC/Demo/EventGroupsDemo.c:773:5
	b	.LBB8_46
.Ltmp322:
.LBB8_46:
	.loc	3 775 24                        @ ../../../CORTEX_MPU_M3_NUCLEO_L152RE_GCC/Demo/EventGroupsDemo.c:775:24
	movw	r0, :lower16:xSyncTaskHandle
	movt	r0, :upper16:xSyncTaskHandle
	ldr	r0, [r0]
	.loc	3 775 9 is_stmt 0               @ ../../../CORTEX_MPU_M3_NUCLEO_L152RE_GCC/Demo/EventGroupsDemo.c:775:9
	bl	MPU_eTaskGetState
.Ltmp323:
	.loc	3 775 9                         @ ../../../CORTEX_MPU_M3_NUCLEO_L152RE_GCC/Demo/EventGroupsDemo.c:775:9
	cmp	r0, #2
	beq	.LBB8_48
	b	.LBB8_47
.LBB8_47:
	.loc	3 0 9                           @ ../../../CORTEX_MPU_M3_NUCLEO_L152RE_GCC/Demo/EventGroupsDemo.c:0:9
	movs	r0, #1
.Ltmp324:
	.loc	3 777 16 is_stmt 1              @ ../../../CORTEX_MPU_M3_NUCLEO_L152RE_GCC/Demo/EventGroupsDemo.c:777:16
	str	r0, [sp, #36]
	.loc	3 778 5                         @ ../../../CORTEX_MPU_M3_NUCLEO_L152RE_GCC/Demo/EventGroupsDemo.c:778:5
	b	.LBB8_48
.Ltmp325:
.LBB8_48:
	.loc	3 780 24                        @ ../../../CORTEX_MPU_M3_NUCLEO_L152RE_GCC/Demo/EventGroupsDemo.c:780:24
	movw	r0, :lower16:xSyncTaskHandle
	movt	r0, :upper16:xSyncTaskHandle
	ldr	r0, [r0, #4]
	.loc	3 780 9 is_stmt 0               @ ../../../CORTEX_MPU_M3_NUCLEO_L152RE_GCC/Demo/EventGroupsDemo.c:780:9
	bl	MPU_eTaskGetState
.Ltmp326:
	.loc	3 780 9                         @ ../../../CORTEX_MPU_M3_NUCLEO_L152RE_GCC/Demo/EventGroupsDemo.c:780:9
	cmp	r0, #2
	beq	.LBB8_50
	b	.LBB8_49
.LBB8_49:
	.loc	3 0 9                           @ ../../../CORTEX_MPU_M3_NUCLEO_L152RE_GCC/Demo/EventGroupsDemo.c:0:9
	movs	r0, #1
.Ltmp327:
	.loc	3 782 16 is_stmt 1              @ ../../../CORTEX_MPU_M3_NUCLEO_L152RE_GCC/Demo/EventGroupsDemo.c:782:16
	str	r0, [sp, #36]
	.loc	3 783 5                         @ ../../../CORTEX_MPU_M3_NUCLEO_L152RE_GCC/Demo/EventGroupsDemo.c:783:5
	b	.LBB8_50
.Ltmp328:
.LBB8_50:
	.loc	3 785 12                        @ ../../../CORTEX_MPU_M3_NUCLEO_L152RE_GCC/Demo/EventGroupsDemo.c:785:12
	ldr	r0, [sp, #36]
	.loc	3 785 5 is_stmt 0               @ ../../../CORTEX_MPU_M3_NUCLEO_L152RE_GCC/Demo/EventGroupsDemo.c:785:5
	add	sp, #40
	pop	{r7, pc}
.Ltmp329:
.Lfunc_end8:
	.size	prvPerformTaskSyncTests, .Lfunc_end8-prvPerformTaskSyncTests
	.cfi_endproc
	.cantunwind
	.fnend
                                        @ -- End function
	.section	.text.prvSelectiveBitsTestSlaveFunction,"ax",%progbits
	.p2align	1                               @ -- Begin function prvSelectiveBitsTestSlaveFunction
	.type	prvSelectiveBitsTestSlaveFunction,%function
	.code	16                              @ @prvSelectiveBitsTestSlaveFunction
	.thumb_func
prvSelectiveBitsTestSlaveFunction:
.Lfunc_begin9:
	.loc	3 912 0 is_stmt 1               @ ../../../CORTEX_MPU_M3_NUCLEO_L152RE_GCC/Demo/EventGroupsDemo.c:912:0
	.fnstart
	.cfi_startproc
@ %bb.0:
	.save	{r7, lr}
	push	{r7, lr}
	.cfi_def_cfa_offset 8
	.cfi_offset lr, -4
	.cfi_offset r7, -8
	.pad	#16
	sub	sp, #16
	.cfi_def_cfa_offset 24
.Ltmp330:
	.loc	3 922 9 prologue_end            @ ../../../CORTEX_MPU_M3_NUCLEO_L152RE_GCC/Demo/EventGroupsDemo.c:922:9
	bl	MPU_xTaskGetCurrentTaskHandle
	.loc	3 922 40 is_stmt 0              @ ../../../CORTEX_MPU_M3_NUCLEO_L152RE_GCC/Demo/EventGroupsDemo.c:922:40
	movw	r1, :lower16:xSyncTaskHandle
	movt	r1, :upper16:xSyncTaskHandle
	ldr	r1, [r1]
.Ltmp331:
	.loc	3 922 9                         @ ../../../CORTEX_MPU_M3_NUCLEO_L152RE_GCC/Demo/EventGroupsDemo.c:922:9
	cmp	r0, r1
	bne	.LBB9_2
	b	.LBB9_1
.LBB9_1:
	.loc	3 0 9                           @ ../../../CORTEX_MPU_M3_NUCLEO_L152RE_GCC/Demo/EventGroupsDemo.c:0:9
	movs	r0, #3
.Ltmp332:
	.loc	3 924 20 is_stmt 1              @ ../../../CORTEX_MPU_M3_NUCLEO_L152RE_GCC/Demo/EventGroupsDemo.c:924:20
	str	r0, [sp, #12]
	.loc	3 925 5                         @ ../../../CORTEX_MPU_M3_NUCLEO_L152RE_GCC/Demo/EventGroupsDemo.c:925:5
	b	.LBB9_3
.Ltmp333:
.LBB9_2:
	.loc	3 0 5 is_stmt 0                 @ ../../../CORTEX_MPU_M3_NUCLEO_L152RE_GCC/Demo/EventGroupsDemo.c:0:5
	movs	r0, #5
.Ltmp334:
	.loc	3 928 20 is_stmt 1              @ ../../../CORTEX_MPU_M3_NUCLEO_L152RE_GCC/Demo/EventGroupsDemo.c:928:20
	str	r0, [sp, #12]
	b	.LBB9_3
.Ltmp335:
.LBB9_3:
	.loc	3 931 5                         @ ../../../CORTEX_MPU_M3_NUCLEO_L152RE_GCC/Demo/EventGroupsDemo.c:931:5
	b	.LBB9_4
.LBB9_4:                                @ =>This Inner Loop Header: Depth=1
	.loc	3 0 5 is_stmt 0                 @ ../../../CORTEX_MPU_M3_NUCLEO_L152RE_GCC/Demo/EventGroupsDemo.c:0:5
	movs	r0, #0
.Ltmp336:
	.loc	3 936 9 is_stmt 1               @ ../../../CORTEX_MPU_M3_NUCLEO_L152RE_GCC/Demo/EventGroupsDemo.c:936:9
	str	r0, [sp, #4]                    @ 4-byte Spill
	bl	MPU_vTaskSuspend
	ldr	r3, [sp, #4]                    @ 4-byte Reload
	.loc	3 937 43                        @ ../../../CORTEX_MPU_M3_NUCLEO_L152RE_GCC/Demo/EventGroupsDemo.c:937:43
	movw	r0, :lower16:xEventGroup
	movt	r0, :upper16:xEventGroup
	ldr	r0, [r0]
	.loc	3 937 61 is_stmt 0              @ ../../../CORTEX_MPU_M3_NUCLEO_L152RE_GCC/Demo/EventGroupsDemo.c:937:61
	ldr	r1, [sp, #12]
	mvns	r2, r3
	.loc	3 937 22                        @ ../../../CORTEX_MPU_M3_NUCLEO_L152RE_GCC/Demo/EventGroupsDemo.c:937:22
	str	r2, [sp]
	movs	r2, #1
	bl	MPU_xEventGroupWaitBits
	.loc	3 937 20                        @ ../../../CORTEX_MPU_M3_NUCLEO_L152RE_GCC/Demo/EventGroupsDemo.c:937:20
	str	r0, [sp, #8]
.Ltmp337:
	.loc	3 939 13 is_stmt 1              @ ../../../CORTEX_MPU_M3_NUCLEO_L152RE_GCC/Demo/EventGroupsDemo.c:939:13
	ldr	r0, [sp, #8]
.Ltmp338:
	.loc	3 939 13 is_stmt 0              @ ../../../CORTEX_MPU_M3_NUCLEO_L152RE_GCC/Demo/EventGroupsDemo.c:939:13
	cbnz	r0, .LBB9_6
	b	.LBB9_5
.LBB9_5:
.Ltmp339:
	.loc	3 941 13 is_stmt 1              @ ../../../CORTEX_MPU_M3_NUCLEO_L152RE_GCC/Demo/EventGroupsDemo.c:941:13
	b	.LBB9_7
.Ltmp340:
.LBB9_6:                                @   in Loop: Header=BB9_4 Depth=1
	.loc	3 931 5                         @ ../../../CORTEX_MPU_M3_NUCLEO_L152RE_GCC/Demo/EventGroupsDemo.c:931:5
	b	.LBB9_4
.Ltmp341:
.LBB9_7:
	.loc	3 944 1                         @ ../../../CORTEX_MPU_M3_NUCLEO_L152RE_GCC/Demo/EventGroupsDemo.c:944:1
	add	sp, #16
	pop	{r7, pc}
.Ltmp342:
.Lfunc_end9:
	.size	prvSelectiveBitsTestSlaveFunction, .Lfunc_end9-prvSelectiveBitsTestSlaveFunction
	.cfi_endproc
	.cantunwind
	.fnend
                                        @ -- End function
	.type	vStartEventGroupTasks.xTestSlaveTaskStack,%object @ @vStartEventGroupTasks.xTestSlaveTaskStack
	.section	.bss.vStartEventGroupTasks.xTestSlaveTaskStack,"aw",%nobits
	.p2align	9, 0x0
vStartEventGroupTasks.xTestSlaveTaskStack:
	.zero	512
	.size	vStartEventGroupTasks.xTestSlaveTaskStack, 512

	.type	vStartEventGroupTasks.xTestMasterTaskStack,%object @ @vStartEventGroupTasks.xTestMasterTaskStack
	.section	.bss.vStartEventGroupTasks.xTestMasterTaskStack,"aw",%nobits
	.p2align	9, 0x0
vStartEventGroupTasks.xTestMasterTaskStack:
	.zero	512
	.size	vStartEventGroupTasks.xTestMasterTaskStack, 512

	.type	vStartEventGroupTasks.xSyncTaskOneStack,%object @ @vStartEventGroupTasks.xSyncTaskOneStack
	.section	.bss.vStartEventGroupTasks.xSyncTaskOneStack,"aw",%nobits
	.p2align	9, 0x0
vStartEventGroupTasks.xSyncTaskOneStack:
	.zero	512
	.size	vStartEventGroupTasks.xSyncTaskOneStack, 512

	.type	vStartEventGroupTasks.xSyncTaskTwoStack,%object @ @vStartEventGroupTasks.xSyncTaskTwoStack
	.section	.bss.vStartEventGroupTasks.xSyncTaskTwoStack,"aw",%nobits
	.p2align	9, 0x0
vStartEventGroupTasks.xSyncTaskTwoStack:
	.zero	512
	.size	vStartEventGroupTasks.xSyncTaskTwoStack, 512

	.type	.L.str,%object                  @ @.str
	.section	.rodata.str1.1,"aMS",%progbits,1
.L.str:
	.asciz	"WaitO"
	.size	.L.str, 6

	.type	xEventGroup,%object             @ @xEventGroup
	.section	.bss.xEventGroup,"aw",%nobits
	.p2align	5, 0x0
xEventGroup:
	.zero	32
	.size	xEventGroup, 32

	.type	ulTestSlaveCycles,%object       @ @ulTestSlaveCycles
	.section	.bss.ulTestSlaveCycles,"aw",%nobits
	.p2align	5, 0x0
ulTestSlaveCycles:
	.zero	32
	.size	ulTestSlaveCycles, 32

	.type	.L__const.vStartEventGroupTasks.xTestSlaveTaskParams,%object @ @__const.vStartEventGroupTasks.xTestSlaveTaskParams
	.section	.rodata..L__const.vStartEventGroupTasks.xTestSlaveTaskParams,"a",%progbits
	.p2align	2, 0x0
.L__const.vStartEventGroupTasks.xTestSlaveTaskParams:
	.long	prvTestSlaveTask
	.long	.L.str
	.short	128                             @ 0x80
	.zero	2
	.long	0
	.long	1                               @ 0x1
	.long	vStartEventGroupTasks.xTestSlaveTaskStack
	.long	xEventGroup
	.long	32                              @ 0x20
	.long	3                               @ 0x3
	.long	ulTestSlaveCycles
	.long	32                              @ 0x20
	.long	3                               @ 0x3
	.zero	12
	.long	0
	.size	.L__const.vStartEventGroupTasks.xTestSlaveTaskParams, 64

	.type	.L.str.1,%object                @ @.str.1
	.section	.rodata.str1.1,"aMS",%progbits,1
.L.str.1:
	.asciz	"SetB"
	.size	.L.str.1, 5

	.type	xSyncTaskHandle,%object         @ @xSyncTaskHandle
	.section	.bss.xSyncTaskHandle,"aw",%nobits
	.p2align	5, 0x0
xSyncTaskHandle:
	.zero	32
	.size	xSyncTaskHandle, 32

	.type	ulTestMasterCycles,%object      @ @ulTestMasterCycles
	.section	.bss.ulTestMasterCycles,"aw",%nobits
	.p2align	5, 0x0
ulTestMasterCycles:
	.zero	32
	.size	ulTestMasterCycles, 32

	.type	.L__const.vStartEventGroupTasks.xTestMasterTaskParams,%object @ @__const.vStartEventGroupTasks.xTestMasterTaskParams
	.section	.rodata..L__const.vStartEventGroupTasks.xTestMasterTaskParams,"a",%progbits
	.p2align	2, 0x0
.L__const.vStartEventGroupTasks.xTestMasterTaskParams:
	.long	prvTestMasterTask
	.long	.L.str.1
	.short	128                             @ 0x80
	.zero	2
	.long	0
	.long	2147483648                      @ 0x80000000
	.long	vStartEventGroupTasks.xTestMasterTaskStack
	.long	xEventGroup
	.long	32                              @ 0x20
	.long	3                               @ 0x3
	.long	xSyncTaskHandle
	.long	32                              @ 0x20
	.long	3                               @ 0x3
	.long	ulTestMasterCycles
	.long	32                              @ 0x20
	.long	3                               @ 0x3
	.long	0
	.size	.L__const.vStartEventGroupTasks.xTestMasterTaskParams, 64

	.type	.L.str.2,%object                @ @.str.2
	.section	.rodata.str1.1,"aMS",%progbits,1
.L.str.2:
	.asciz	"Rndv"
	.size	.L.str.2, 5

	.type	.L__const.vStartEventGroupTasks.xSyncTaskOneParams,%object @ @__const.vStartEventGroupTasks.xSyncTaskOneParams
	.section	.rodata..L__const.vStartEventGroupTasks.xSyncTaskOneParams,"a",%progbits
	.p2align	2, 0x0
.L__const.vStartEventGroupTasks.xSyncTaskOneParams:
	.long	prvSyncTask
	.long	.L.str.2
	.short	128                             @ 0x80
	.zero	2
	.long	4
	.long	1                               @ 0x1
	.long	vStartEventGroupTasks.xSyncTaskOneStack
	.long	xEventGroup
	.long	32                              @ 0x20
	.long	3                               @ 0x3
	.long	xSyncTaskHandle
	.long	32                              @ 0x20
	.long	3                               @ 0x3
	.zero	12
	.long	0
	.size	.L__const.vStartEventGroupTasks.xSyncTaskOneParams, 64

	.type	.L__const.vStartEventGroupTasks.xSyncTaskTwoParams,%object @ @__const.vStartEventGroupTasks.xSyncTaskTwoParams
	.section	.rodata..L__const.vStartEventGroupTasks.xSyncTaskTwoParams,"a",%progbits
	.p2align	2, 0x0
.L__const.vStartEventGroupTasks.xSyncTaskTwoParams:
	.long	prvSyncTask
	.long	.L.str.2
	.short	128                             @ 0x80
	.zero	2
	.long	8
	.long	1                               @ 0x1
	.long	vStartEventGroupTasks.xSyncTaskTwoStack
	.long	xEventGroup
	.long	32                              @ 0x20
	.long	3                               @ 0x3
	.long	xSyncTaskHandle
	.long	32                              @ 0x20
	.long	3                               @ 0x3
	.zero	12
	.long	0
	.size	.L__const.vStartEventGroupTasks.xSyncTaskTwoParams, 64

	.type	xISREventGroup,%object          @ @xISREventGroup
	.section	.bss.xISREventGroup,"aw",%nobits
	.p2align	2, 0x0
xISREventGroup:
	.long	0
	.size	xISREventGroup, 4

	.type	vPeriodicEventGroupsProcessing.xCallCount,%object @ @vPeriodicEventGroupsProcessing.xCallCount
	.section	.bss.vPeriodicEventGroupsProcessing.xCallCount,"aw",%nobits
	.p2align	2, 0x0
vPeriodicEventGroupsProcessing.xCallCount:
	.long	0                               @ 0x0
	.size	vPeriodicEventGroupsProcessing.xCallCount, 4

	.type	vPeriodicEventGroupsProcessing.xISRTestError,%object @ @vPeriodicEventGroupsProcessing.xISRTestError
	.section	.bss.vPeriodicEventGroupsProcessing.xISRTestError,"aw",%nobits
	.p2align	2, 0x0
vPeriodicEventGroupsProcessing.xISRTestError:
	.long	0                               @ 0x0
	.size	vPeriodicEventGroupsProcessing.xISRTestError, 4

	.type	ulISRCycles,%object             @ @ulISRCycles
	.section	.bss.ulISRCycles,"aw",%nobits
	.p2align	2, 0x0
ulISRCycles:
	.long	0                               @ 0x0
	.size	ulISRCycles, 4

	.type	xAreEventGroupTasksStillRunning.ulPreviousWaitBitCycles,%object @ @xAreEventGroupTasksStillRunning.ulPreviousWaitBitCycles
	.section	.bss.xAreEventGroupTasksStillRunning.ulPreviousWaitBitCycles,"aw",%nobits
	.p2align	2, 0x0
xAreEventGroupTasksStillRunning.ulPreviousWaitBitCycles:
	.long	0                               @ 0x0
	.size	xAreEventGroupTasksStillRunning.ulPreviousWaitBitCycles, 4

	.type	xAreEventGroupTasksStillRunning.ulPreviousSetBitCycles,%object @ @xAreEventGroupTasksStillRunning.ulPreviousSetBitCycles
	.section	.bss.xAreEventGroupTasksStillRunning.ulPreviousSetBitCycles,"aw",%nobits
	.p2align	2, 0x0
xAreEventGroupTasksStillRunning.ulPreviousSetBitCycles:
	.long	0                               @ 0x0
	.size	xAreEventGroupTasksStillRunning.ulPreviousSetBitCycles, 4

	.type	xAreEventGroupTasksStillRunning.ulPreviousISRCycles,%object @ @xAreEventGroupTasksStillRunning.ulPreviousISRCycles
	.section	.bss.xAreEventGroupTasksStillRunning.ulPreviousISRCycles,"aw",%nobits
	.p2align	2, 0x0
xAreEventGroupTasksStillRunning.ulPreviousISRCycles:
	.long	0                               @ 0x0
	.size	xAreEventGroupTasksStillRunning.ulPreviousISRCycles, 4

	.file	6 "C:\\Users\\karahulx\\Downloads\\Kernel\\FreeRTOS\\FreeRTOS\\Demo\\CORTEX_MPU_M23_Nuvoton_NuMaker_PFM_M2351_IAR_GCC\\Projects_NTZ\\Keil" "../../../../Source/include/projdefs.h"
	.file	7 "C:\\Users\\karahulx\\Downloads\\Kernel\\FreeRTOS\\FreeRTOS\\Demo\\CORTEX_MPU_M23_Nuvoton_NuMaker_PFM_M2351_IAR_GCC\\Projects_NTZ\\Keil" "../../../../Source/include\\FreeRTOS.h"
	.section	".note.GNU-stack","",%progbits
	.eabi_attribute	30, 6	@ Tag_ABI_optimization_goals
	.ARM_attribute	16, 1	@ Tag_AV_eba