	.text
	.syntax unified
	.eabi_attribute	67, "2.09"	@ Tag_conformance
	.eabi_attribute	6, 16	@ Tag_CPU_arch
	.eabi_attribute	7, 77	@ Tag_CPU_arch_profile
	.eabi_attribute	8, 0	@ Tag_ARM_ISA_use
	.eabi_attribute	9, 3	@ Tag_THUMB_ISA_use
	.eabi_attribute	34, 0	@ Tag_CPU_unaligned_access
	.eabi_attribute	17, 1	@ Tag_ABI_PCS_GOT_use
	.eabi_attribute	20, 2	@ Tag_ABI_FP_denormal
	.eabi_attribute	21, 0	@ Tag_ABI_FP_exceptions
	.eabi_attribute	23, 1	@ Tag_ABI_FP_number_model
	.eabi_attribute	24, 1	@ Tag_ABI_align_needed
	.eabi_attribute	25, 1	@ Tag_ABI_align_preserved
	.eabi_attribute	38, 1	@ Tag_ABI_FP_16bit_format
	.eabi_attribute	18, 4	@ Tag_ABI_PCS_wchar_t
	.eabi_attribute	26, 2	@ Tag_ABI_enum_size
	.eabi_attribute	14, 0	@ Tag_ABI_PCS_R9_use
	.file	"flop.c"
	.file	1 "C:\\Keil_v5\\ARM\\ARMCLANG\\Bin\\..\\include" "stdint.h"
	.file	2 "C:\\Users\\karahulx\\Downloads\\Kernel\\FreeRTOS\\FreeRTOS\\Demo\\CORTEX_MPU_M23_Nuvoton_NuMaker_PFM_M2351_IAR_GCC\\Projects_NTZ\\Keil" "../../../../Source/portable/GCC/ARM_CM23_NTZ/non_secure/portmacrocommon.h"
	.file	3 "C:\\Users\\karahulx\\Downloads\\Kernel\\FreeRTOS\\FreeRTOS\\Demo\\CORTEX_MPU_M23_Nuvoton_NuMaker_PFM_M2351_IAR_GCC\\Projects_NTZ\\Keil" "../../../CORTEX_MPU_M3_NUCLEO_L152RE_GCC/Demo/flop.c"
	.section	.text.vStartMathTasks,"ax",%progbits
	.hidden	vStartMathTasks                 @ -- Begin function vStartMathTasks
	.globl	vStartMathTasks
	.p2align	1
	.type	vStartMathTasks,%function
	.code	16                              @ @vStartMathTasks
	.thumb_func
vStartMathTasks:
.Lfunc_begin0:
	.loc	3 78 0                          @ ../../../CORTEX_MPU_M3_NUCLEO_L152RE_GCC/Demo/flop.c:78:0
	.fnstart
	.cfi_sections .debug_frame
	.cfi_startproc
@ %bb.0:
	.save	{r4, r5, r6, r7, lr}
	push	{r4, r5, r6, r7, lr}
	.cfi_def_cfa_offset 20
	.cfi_offset lr, -4
	.cfi_offset r7, -8
	.cfi_offset r6, -12
	.cfi_offset r5, -16
	.cfi_offset r4, -20
	.pad	#276
	sub	sp, #276
	.cfi_def_cfa_offset 296
	str	r0, [sp, #272]
.Ltmp0:
	.loc	3 85 5 prologue_end             @ ../../../CORTEX_MPU_M3_NUCLEO_L152RE_GCC/Demo/flop.c:85:5
	movw	r0, :lower16:vCompetingMathTask1
	movt	r0, :upper16:vCompetingMathTask1
	str	r0, [sp, #208]
	movw	r0, :lower16:.L.str
	movt	r0, :upper16:.L.str
	str	r0, [sp, #212]
	add	r0, sp, #208
	movs	r4, #128
	strh	r4, [r0, #8]
	movw	r3, :lower16:usTaskCheck
	movt	r3, :upper16:usTaskCheck
	str	r3, [sp, #220]
	.loc	3 90 32                         @ ../../../CORTEX_MPU_M3_NUCLEO_L152RE_GCC/Demo/flop.c:90:32
	ldr	r1, [sp, #272]
	.loc	3 85 5                          @ ../../../CORTEX_MPU_M3_NUCLEO_L152RE_GCC/Demo/flop.c:85:5
	str	r1, [sp, #224]
	movw	r1, :lower16:vStartMathTasks.xCompletingMathTask1Stack
	movt	r1, :upper16:vStartMathTasks.xCompletingMathTask1Stack
	str	r1, [sp, #228]
	mov	r1, r0
	adds	r1, #24
	.loc	3 92 33                         @ ../../../CORTEX_MPU_M3_NUCLEO_L152RE_GCC/Demo/flop.c:92:33
	movw	r2, :lower16:.Lconstinit
	movt	r2, :upper16:.Lconstinit
	ldm	r2!, {r5, r6, r7}
	stm	r1!, {r5, r6, r7}
	ldm	r2!, {r5, r6, r7}
	stm	r1!, {r5, r6, r7}
	ldm	r2!, {r5, r6, r7}
	stm	r1!, {r5, r6, r7}
	movs	r1, #0
	.loc	3 85 5                          @ ../../../CORTEX_MPU_M3_NUCLEO_L152RE_GCC/Demo/flop.c:85:5
	str	r1, [sp, #8]                    @ 4-byte Spill
	str	r1, [sp, #268]
	.loc	3 101 5                         @ ../../../CORTEX_MPU_M3_NUCLEO_L152RE_GCC/Demo/flop.c:101:5
	movw	r1, :lower16:vCompetingMathTask2
	movt	r1, :upper16:vCompetingMathTask2
	str	r1, [sp, #144]
	movw	r1, :lower16:.L.str.1
	movt	r1, :upper16:.L.str.1
	str	r1, [sp, #148]
	add	r2, sp, #144
	str	r2, [sp]                        @ 4-byte Spill
	strh	r4, [r2, #8]
	adds	r1, r3, #2
	str	r1, [sp, #156]
	.loc	3 106 32                        @ ../../../CORTEX_MPU_M3_NUCLEO_L152RE_GCC/Demo/flop.c:106:32
	ldr	r1, [sp, #272]
	.loc	3 101 5                         @ ../../../CORTEX_MPU_M3_NUCLEO_L152RE_GCC/Demo/flop.c:101:5
	str	r1, [sp, #160]
	movw	r1, :lower16:vStartMathTasks.xCompletingMathTask2Stack
	movt	r1, :upper16:vStartMathTasks.xCompletingMathTask2Stack
	str	r1, [sp, #164]
	adds	r2, #24
	.loc	3 108 33                        @ ../../../CORTEX_MPU_M3_NUCLEO_L152RE_GCC/Demo/flop.c:108:33
	movw	r5, :lower16:.Lconstinit.2
	movt	r5, :upper16:.Lconstinit.2
	ldm	r5!, {r1, r6, r7}
	stm	r2!, {r1, r6, r7}
	ldm	r5!, {r1, r6, r7}
	stm	r2!, {r1, r6, r7}
	ldm	r5!, {r1, r6, r7}
	stm	r2!, {r1, r6, r7}
	.loc	3 101 5                         @ ../../../CORTEX_MPU_M3_NUCLEO_L152RE_GCC/Demo/flop.c:101:5
	ldr	r1, [sp, #8]                    @ 4-byte Reload
	str	r1, [sp, #204]
	.loc	3 117 5                         @ ../../../CORTEX_MPU_M3_NUCLEO_L152RE_GCC/Demo/flop.c:117:5
	movw	r1, :lower16:vCompetingMathTask3
	movt	r1, :upper16:vCompetingMathTask3
	str	r1, [sp, #80]
	movw	r1, :lower16:.L.str.3
	movt	r1, :upper16:.L.str.3
	str	r1, [sp, #84]
	add	r2, sp, #80
	str	r2, [sp, #4]                    @ 4-byte Spill
	strh	r4, [r2, #8]
	adds	r1, r3, #4
	str	r1, [sp, #92]
	.loc	3 122 32                        @ ../../../CORTEX_MPU_M3_NUCLEO_L152RE_GCC/Demo/flop.c:122:32
	ldr	r1, [sp, #272]
	.loc	3 117 5                         @ ../../../CORTEX_MPU_M3_NUCLEO_L152RE_GCC/Demo/flop.c:117:5
	str	r1, [sp, #96]
	movw	r1, :lower16:vStartMathTasks.xCompletingMathTask3Stack
	movt	r1, :upper16:vStartMathTasks.xCompletingMathTask3Stack
	str	r1, [sp, #100]
	adds	r2, #24
	.loc	3 124 33                        @ ../../../CORTEX_MPU_M3_NUCLEO_L152RE_GCC/Demo/flop.c:124:33
	movw	r5, :lower16:.Lconstinit.4
	movt	r5, :upper16:.Lconstinit.4
	ldm	r5!, {r1, r6, r7}
	stm	r2!, {r1, r6, r7}
	ldm	r5!, {r1, r6, r7}
	stm	r2!, {r1, r6, r7}
	ldm	r5!, {r1, r6, r7}
	stm	r2!, {r1, r6, r7}
	.loc	3 117 5                         @ ../../../CORTEX_MPU_M3_NUCLEO_L152RE_GCC/Demo/flop.c:117:5
	ldr	r1, [sp, #8]                    @ 4-byte Reload
	str	r1, [sp, #140]
	.loc	3 135 5                         @ ../../../CORTEX_MPU_M3_NUCLEO_L152RE_GCC/Demo/flop.c:135:5
	movw	r2, :lower16:vCompetingMathTask4
	movt	r2, :upper16:vCompetingMathTask4
	str	r2, [sp, #16]
	movw	r2, :lower16:.L.str.5
	movt	r2, :upper16:.L.str.5
	str	r2, [sp, #20]
	add	r2, sp, #16
	str	r2, [sp, #12]                   @ 4-byte Spill
	strh	r4, [r2, #8]
	adds	r3, r3, #6
	str	r3, [sp, #28]
	.loc	3 140 32                        @ ../../../CORTEX_MPU_M3_NUCLEO_L152RE_GCC/Demo/flop.c:140:32
	ldr	r3, [sp, #272]
	.loc	3 135 5                         @ ../../../CORTEX_MPU_M3_NUCLEO_L152RE_GCC/Demo/flop.c:135:5
	str	r3, [sp, #32]
	movw	r3, :lower16:vStartMathTasks.xCompletingMathTask4Stack
	movt	r3, :upper16:vStartMathTasks.xCompletingMathTask4Stack
	str	r3, [sp, #36]
	adds	r2, #24
	.loc	3 142 33                        @ ../../../CORTEX_MPU_M3_NUCLEO_L152RE_GCC/Demo/flop.c:142:33
	movw	r3, :lower16:.Lconstinit.6
	movt	r3, :upper16:.Lconstinit.6
	ldm	r3!, {r4, r5, r6}
	stm	r2!, {r4, r5, r6}
	ldm	r3!, {r4, r5, r6}
	stm	r2!, {r4, r5, r6}
	ldm	r3!, {r4, r5, r6}
	stm	r2!, {r4, r5, r6}
	.loc	3 135 5                         @ ../../../CORTEX_MPU_M3_NUCLEO_L152RE_GCC/Demo/flop.c:135:5
	str	r1, [sp, #76]
	.loc	3 153 5                         @ ../../../CORTEX_MPU_M3_NUCLEO_L152RE_GCC/Demo/flop.c:153:5
	bl	xTaskCreateRestricted
	ldr	r1, [sp, #8]                    @ 4-byte Reload
                                        @ kill: def $r2 killed $r0
	.loc	3 154 5                         @ ../../../CORTEX_MPU_M3_NUCLEO_L152RE_GCC/Demo/flop.c:154:5
	ldr	r0, [sp]                        @ 4-byte Reload
	bl	xTaskCreateRestricted
	ldr	r1, [sp, #8]                    @ 4-byte Reload
                                        @ kill: def $r2 killed $r0
	.loc	3 155 5                         @ ../../../CORTEX_MPU_M3_NUCLEO_L152RE_GCC/Demo/flop.c:155:5
	ldr	r0, [sp, #4]                    @ 4-byte Reload
	bl	xTaskCreateRestricted
	ldr	r1, [sp, #8]                    @ 4-byte Reload
                                        @ kill: def $r2 killed $r0
	.loc	3 156 5                         @ ../../../CORTEX_MPU_M3_NUCLEO_L152RE_GCC/Demo/flop.c:156:5
	ldr	r0, [sp, #12]                   @ 4-byte Reload
	bl	xTaskCreateRestricted
	.loc	3 157 1                         @ ../../../CORTEX_MPU_M3_NUCLEO_L152RE_GCC/Demo/flop.c:157:1
	add	sp, #276
	pop	{r4, r5, r6, r7, pc}
.Ltmp1:
.Lfunc_end0:
	.size	vStartMathTasks, .Lfunc_end0-vStartMathTasks
	.cfi_endproc
	.cantunwind
	.fnend
                                        @ -- End function
	.section	.text.vCompetingMathTask1,"ax",%progbits
	.p2align	1                               @ -- Begin function vCompetingMathTask1
	.type	vCompetingMathTask1,%function
	.code	16                              @ @vCompetingMathTask1
	.thumb_func
vCompetingMathTask1:
.Lfunc_begin1:
	.loc	3 161 0                         @ ../../../CORTEX_MPU_M3_NUCLEO_L152RE_GCC/Demo/flop.c:161:0
	.fnstart
	.cfi_startproc
@ %bb.0:
	.save	{r7, lr}
	push	{r7, lr}
	.cfi_def_cfa_offset 8
	.cfi_offset lr, -4
	.cfi_offset r7, -8
	.pad	#64
	sub	sp, #64
	.cfi_def_cfa_offset 72
	str	r0, [sp, #60]
	add	r1, sp, #4
	movs	r0, #0
.Ltmp2:
	.loc	3 165 11 prologue_end           @ ../../../CORTEX_MPU_M3_NUCLEO_L152RE_GCC/Demo/flop.c:165:11
	strh	r0, [r1]
	movw	r0, #56634
	movt	r0, #16478
	.loc	3 172 8                         @ ../../../CORTEX_MPU_M3_NUCLEO_L152RE_GCC/Demo/flop.c:172:8
	str	r0, [sp, #52]
	movw	r0, #1363
	movt	r0, #37539
	str	r0, [sp, #48]
	movw	r0, #21339
	movt	r0, #16546
	.loc	3 173 8                         @ ../../../CORTEX_MPU_M3_NUCLEO_L152RE_GCC/Demo/flop.c:173:8
	str	r0, [sp, #44]
	movw	r0, #57986
	movt	r0, #39111
	str	r0, [sp, #40]
	movw	r0, #45510
	movt	r0, #49292
	.loc	3 174 8                         @ ../../../CORTEX_MPU_M3_NUCLEO_L152RE_GCC/Demo/flop.c:174:8
	str	r0, [sp, #36]
	movw	r0, #40370
	movt	r0, #42991
	str	r0, [sp, #32]
	.loc	3 176 17                        @ ../../../CORTEX_MPU_M3_NUCLEO_L152RE_GCC/Demo/flop.c:176:17
	ldr	r1, [sp, #52]
	ldr	r0, [sp, #48]
	.loc	3 176 22 is_stmt 0              @ ../../../CORTEX_MPU_M3_NUCLEO_L152RE_GCC/Demo/flop.c:176:22
	ldr	r2, [sp, #40]
	ldr	r3, [sp, #44]
	.loc	3 176 20                        @ ../../../CORTEX_MPU_M3_NUCLEO_L152RE_GCC/Demo/flop.c:176:20
	bl	__aeabi_dadd
	.loc	3 176 29                        @ ../../../CORTEX_MPU_M3_NUCLEO_L152RE_GCC/Demo/flop.c:176:29
	ldr	r2, [sp, #32]
	ldr	r3, [sp, #36]
	.loc	3 176 27                        @ ../../../CORTEX_MPU_M3_NUCLEO_L152RE_GCC/Demo/flop.c:176:27
	bl	__aeabi_dmul
	.loc	3 176 13                        @ ../../../CORTEX_MPU_M3_NUCLEO_L152RE_GCC/Demo/flop.c:176:13
	str	r1, [sp, #12]
	str	r0, [sp, #8]
	.loc	3 180 52 is_stmt 1              @ ../../../CORTEX_MPU_M3_NUCLEO_L152RE_GCC/Demo/flop.c:180:52
	ldr	r0, [sp, #60]
	.loc	3 180 26 is_stmt 0              @ ../../../CORTEX_MPU_M3_NUCLEO_L152RE_GCC/Demo/flop.c:180:26
	str	r0, [sp, #20]
	.loc	3 183 5 is_stmt 1               @ ../../../CORTEX_MPU_M3_NUCLEO_L152RE_GCC/Demo/flop.c:183:5
	b	.LBB1_1
.LBB1_1:                                @ =>This Inner Loop Header: Depth=1
	.loc	3 0 5 is_stmt 0                 @ ../../../CORTEX_MPU_M3_NUCLEO_L152RE_GCC/Demo/flop.c:0:5
	movw	r0, #56634
	movt	r0, #16478
.Ltmp3:
	.loc	3 185 12 is_stmt 1              @ ../../../CORTEX_MPU_M3_NUCLEO_L152RE_GCC/Demo/flop.c:185:12
	str	r0, [sp, #52]
	movw	r0, #1363
	movt	r0, #37539
	str	r0, [sp, #48]
	movw	r0, #21339
	movt	r0, #16546
	.loc	3 186 12                        @ ../../../CORTEX_MPU_M3_NUCLEO_L152RE_GCC/Demo/flop.c:186:12
	str	r0, [sp, #44]
	movw	r0, #57986
	movt	r0, #39111
	str	r0, [sp, #40]
	movw	r0, #45510
	movt	r0, #49292
	.loc	3 187 12                        @ ../../../CORTEX_MPU_M3_NUCLEO_L152RE_GCC/Demo/flop.c:187:12
	str	r0, [sp, #36]
	movw	r0, #40370
	movt	r0, #42991
	str	r0, [sp, #32]
	.loc	3 189 16                        @ ../../../CORTEX_MPU_M3_NUCLEO_L152RE_GCC/Demo/flop.c:189:16
	ldr	r1, [sp, #52]
	ldr	r0, [sp, #48]
	.loc	3 189 21 is_stmt 0              @ ../../../CORTEX_MPU_M3_NUCLEO_L152RE_GCC/Demo/flop.c:189:21
	ldr	r2, [sp, #40]
	ldr	r3, [sp, #44]
	.loc	3 189 19                        @ ../../../CORTEX_MPU_M3_NUCLEO_L152RE_GCC/Demo/flop.c:189:19
	bl	__aeabi_dadd
	.loc	3 189 28                        @ ../../../CORTEX_MPU_M3_NUCLEO_L152RE_GCC/Demo/flop.c:189:28
	ldr	r2, [sp, #32]
	ldr	r3, [sp, #36]
	.loc	3 189 26                        @ ../../../CORTEX_MPU_M3_NUCLEO_L152RE_GCC/Demo/flop.c:189:26
	bl	__aeabi_dmul
	.loc	3 189 12                        @ ../../../CORTEX_MPU_M3_NUCLEO_L152RE_GCC/Demo/flop.c:189:12
	str	r1, [sp, #28]
	str	r0, [sp, #24]
.Ltmp4:
	.loc	3 197 19 is_stmt 1              @ ../../../CORTEX_MPU_M3_NUCLEO_L152RE_GCC/Demo/flop.c:197:19
	ldr	r1, [sp, #28]
	ldr	r0, [sp, #24]
	.loc	3 197 24 is_stmt 0              @ ../../../CORTEX_MPU_M3_NUCLEO_L152RE_GCC/Demo/flop.c:197:24
	ldr	r2, [sp, #8]
	ldr	r3, [sp, #12]
	.loc	3 197 22                        @ ../../../CORTEX_MPU_M3_NUCLEO_L152RE_GCC/Demo/flop.c:197:22
	bl	__aeabi_dsub
	movw	r2, #65535
	movt	r2, #32767
	.loc	3 197 13                        @ ../../../CORTEX_MPU_M3_NUCLEO_L152RE_GCC/Demo/flop.c:197:13
	ands	r1, r2
	movw	r2, #43516
	movt	r2, #54001
	movw	r3, #25165
	movt	r3, #16208
	.loc	3 197 34                        @ ../../../CORTEX_MPU_M3_NUCLEO_L152RE_GCC/Demo/flop.c:197:34
	bl	__aeabi_dcmple
.Ltmp5:
	.loc	3 197 13                        @ ../../../CORTEX_MPU_M3_NUCLEO_L152RE_GCC/Demo/flop.c:197:13
	cbnz	r0, .LBB1_3
	b	.LBB1_2
.LBB1_2:                                @   in Loop: Header=BB1_1 Depth=1
	.loc	3 0 13                          @ ../../../CORTEX_MPU_M3_NUCLEO_L152RE_GCC/Demo/flop.c:0:13
	add	r1, sp, #4
	movs	r0, #1
.Ltmp6:
	.loc	3 199 20 is_stmt 1              @ ../../../CORTEX_MPU_M3_NUCLEO_L152RE_GCC/Demo/flop.c:199:20
	strh	r0, [r1]
	.loc	3 200 9                         @ ../../../CORTEX_MPU_M3_NUCLEO_L152RE_GCC/Demo/flop.c:200:9
	b	.LBB1_3
.Ltmp7:
.LBB1_3:                                @   in Loop: Header=BB1_1 Depth=1
	.loc	3 202 13                        @ ../../../CORTEX_MPU_M3_NUCLEO_L152RE_GCC/Demo/flop.c:202:13
	movs	r1, #0
	add	r0, sp, #4
	ldrsh	r0, [r0, r1]
.Ltmp8:
	.loc	3 202 13 is_stmt 0              @ ../../../CORTEX_MPU_M3_NUCLEO_L152RE_GCC/Demo/flop.c:202:13
	cbnz	r0, .LBB1_5
	b	.LBB1_4
.LBB1_4:                                @   in Loop: Header=BB1_1 Depth=1
.Ltmp9:
	.loc	3 207 16 is_stmt 1              @ ../../../CORTEX_MPU_M3_NUCLEO_L152RE_GCC/Demo/flop.c:207:16
	ldr	r1, [sp, #20]
	movs	r0, #1
	.loc	3 207 39 is_stmt 0              @ ../../../CORTEX_MPU_M3_NUCLEO_L152RE_GCC/Demo/flop.c:207:39
	strh	r0, [r1]
	.loc	3 208 9 is_stmt 1               @ ../../../CORTEX_MPU_M3_NUCLEO_L152RE_GCC/Demo/flop.c:208:9
	b	.LBB1_5
.Ltmp10:
.LBB1_5:                                @   in Loop: Header=BB1_1 Depth=1
	.loc	3 183 5                         @ ../../../CORTEX_MPU_M3_NUCLEO_L152RE_GCC/Demo/flop.c:183:5
	b	.LBB1_1
.Ltmp11:
.Lfunc_end1:
	.size	vCompetingMathTask1, .Lfunc_end1-vCompetingMathTask1
	.cfi_endproc
	.cantunwind
	.fnend
                                        @ -- End function
	.section	.text.vCompetingMathTask2,"ax",%progbits
	.p2align	1                               @ -- Begin function vCompetingMathTask2
	.type	vCompetingMathTask2,%function
	.code	16                              @ @vCompetingMathTask2
	.thumb_func
vCompetingMathTask2:
.Lfunc_begin2:
	.loc	3 218 0                         @ ../../../CORTEX_MPU_M3_NUCLEO_L152RE_GCC/Demo/flop.c:218:0
	.fnstart
	.cfi_startproc
@ %bb.0:
	.save	{r7, lr}
	push	{r7, lr}
	.cfi_def_cfa_offset 8
	.cfi_offset lr, -4
	.cfi_offset r7, -8
	.pad	#64
	sub	sp, #64
	.cfi_def_cfa_offset 72
	str	r0, [sp, #60]
	add	r1, sp, #4
	movs	r0, #0
.Ltmp12:
	.loc	3 222 11 prologue_end           @ ../../../CORTEX_MPU_M3_NUCLEO_L152RE_GCC/Demo/flop.c:222:11
	strh	r0, [r1]
	movw	r0, #22036
	movt	r0, #49272
	.loc	3 229 8                         @ ../../../CORTEX_MPU_M3_NUCLEO_L152RE_GCC/Demo/flop.c:229:8
	str	r0, [sp, #52]
	movw	r0, #18350
	movt	r0, #31457
	str	r0, [sp, #48]
	movw	r0, #48268
	movt	r0, #16607
	.loc	3 230 8                         @ ../../../CORTEX_MPU_M3_NUCLEO_L152RE_GCC/Demo/flop.c:230:8
	str	r0, [sp, #44]
	movw	r0, #52429
	movt	r0, #52428
	str	r0, [sp, #40]
	movw	r0, #52
	movt	r0, #49152
	.loc	3 231 8                         @ ../../../CORTEX_MPU_M3_NUCLEO_L152RE_GCC/Demo/flop.c:231:8
	str	r0, [sp, #36]
	movw	r0, #54841
	movt	r0, #28101
	str	r0, [sp, #32]
	.loc	3 233 17                        @ ../../../CORTEX_MPU_M3_NUCLEO_L152RE_GCC/Demo/flop.c:233:17
	ldr	r1, [sp, #52]
	ldr	r0, [sp, #48]
	.loc	3 233 22 is_stmt 0              @ ../../../CORTEX_MPU_M3_NUCLEO_L152RE_GCC/Demo/flop.c:233:22
	ldr	r2, [sp, #40]
	ldr	r3, [sp, #44]
	.loc	3 233 20                        @ ../../../CORTEX_MPU_M3_NUCLEO_L152RE_GCC/Demo/flop.c:233:20
	bl	__aeabi_ddiv
	.loc	3 233 29                        @ ../../../CORTEX_MPU_M3_NUCLEO_L152RE_GCC/Demo/flop.c:233:29
	ldr	r2, [sp, #32]
	ldr	r3, [sp, #36]
	.loc	3 233 27                        @ ../../../CORTEX_MPU_M3_NUCLEO_L152RE_GCC/Demo/flop.c:233:27
	bl	__aeabi_dmul
	.loc	3 233 13                        @ ../../../CORTEX_MPU_M3_NUCLEO_L152RE_GCC/Demo/flop.c:233:13
	str	r1, [sp, #12]
	str	r0, [sp, #8]
	.loc	3 238 52 is_stmt 1              @ ../../../CORTEX_MPU_M3_NUCLEO_L152RE_GCC/Demo/flop.c:238:52
	ldr	r0, [sp, #60]
	.loc	3 238 26 is_stmt 0              @ ../../../CORTEX_MPU_M3_NUCLEO_L152RE_GCC/Demo/flop.c:238:26
	str	r0, [sp, #20]
	.loc	3 241 5 is_stmt 1               @ ../../../CORTEX_MPU_M3_NUCLEO_L152RE_GCC/Demo/flop.c:241:5
	b	.LBB2_1
.LBB2_1:                                @ =>This Inner Loop Header: Depth=1
	.loc	3 0 5 is_stmt 0                 @ ../../../CORTEX_MPU_M3_NUCLEO_L152RE_GCC/Demo/flop.c:0:5
	movw	r0, #22036
	movt	r0, #49272
.Ltmp13:
	.loc	3 243 12 is_stmt 1              @ ../../../CORTEX_MPU_M3_NUCLEO_L152RE_GCC/Demo/flop.c:243:12
	str	r0, [sp, #52]
	movw	r0, #18350
	movt	r0, #31457
	str	r0, [sp, #48]
	movw	r0, #48268
	movt	r0, #16607
	.loc	3 244 12                        @ ../../../CORTEX_MPU_M3_NUCLEO_L152RE_GCC/Demo/flop.c:244:12
	str	r0, [sp, #44]
	movw	r0, #52429
	movt	r0, #52428
	str	r0, [sp, #40]
	movw	r0, #52
	movt	r0, #49152
	.loc	3 245 12                        @ ../../../CORTEX_MPU_M3_NUCLEO_L152RE_GCC/Demo/flop.c:245:12
	str	r0, [sp, #36]
	movw	r0, #54841
	movt	r0, #28101
	str	r0, [sp, #32]
	.loc	3 247 16                        @ ../../../CORTEX_MPU_M3_NUCLEO_L152RE_GCC/Demo/flop.c:247:16
	ldr	r1, [sp, #52]
	ldr	r0, [sp, #48]
	.loc	3 247 21 is_stmt 0              @ ../../../CORTEX_MPU_M3_NUCLEO_L152RE_GCC/Demo/flop.c:247:21
	ldr	r2, [sp, #40]
	ldr	r3, [sp, #44]
	.loc	3 247 19                        @ ../../../CORTEX_MPU_M3_NUCLEO_L152RE_GCC/Demo/flop.c:247:19
	bl	__aeabi_ddiv
	.loc	3 247 28                        @ ../../../CORTEX_MPU_M3_NUCLEO_L152RE_GCC/Demo/flop.c:247:28
	ldr	r2, [sp, #32]
	ldr	r3, [sp, #36]
	.loc	3 247 26                        @ ../../../CORTEX_MPU_M3_NUCLEO_L152RE_GCC/Demo/flop.c:247:26
	bl	__aeabi_dmul
	.loc	3 247 12                        @ ../../../CORTEX_MPU_M3_NUCLEO_L152RE_GCC/Demo/flop.c:247:12
	str	r1, [sp, #28]
	str	r0, [sp, #24]
.Ltmp14:
	.loc	3 255 19 is_stmt 1              @ ../../../CORTEX_MPU_M3_NUCLEO_L152RE_GCC/Demo/flop.c:255:19
	ldr	r1, [sp, #28]
	ldr	r0, [sp, #24]
	.loc	3 255 24 is_stmt 0              @ ../../../CORTEX_MPU_M3_NUCLEO_L152RE_GCC/Demo/flop.c:255:24
	ldr	r2, [sp, #8]
	ldr	r3, [sp, #12]
	.loc	3 255 22                        @ ../../../CORTEX_MPU_M3_NUCLEO_L152RE_GCC/Demo/flop.c:255:22
	bl	__aeabi_dsub
	movw	r2, #65535
	movt	r2, #32767
	.loc	3 255 13                        @ ../../../CORTEX_MPU_M3_NUCLEO_L152RE_GCC/Demo/flop.c:255:13
	ands	r1, r2
	movw	r2, #43516
	movt	r2, #54001
	movw	r3, #25165
	movt	r3, #16208
	.loc	3 255 34                        @ ../../../CORTEX_MPU_M3_NUCLEO_L152RE_GCC/Demo/flop.c:255:34
	bl	__aeabi_dcmple
.Ltmp15:
	.loc	3 255 13                        @ ../../../CORTEX_MPU_M3_NUCLEO_L152RE_GCC/Demo/flop.c:255:13
	cbnz	r0, .LBB2_3
	b	.LBB2_2
.LBB2_2:                                @   in Loop: Header=BB2_1 Depth=1
	.loc	3 0 13                          @ ../../../CORTEX_MPU_M3_NUCLEO_L152RE_GCC/Demo/flop.c:0:13
	add	r1, sp, #4
	movs	r0, #1
.Ltmp16:
	.loc	3 257 20 is_stmt 1              @ ../../../CORTEX_MPU_M3_NUCLEO_L152RE_GCC/Demo/flop.c:257:20
	strh	r0, [r1]
	.loc	3 258 9                         @ ../../../CORTEX_MPU_M3_NUCLEO_L152RE_GCC/Demo/flop.c:258:9
	b	.LBB2_3
.Ltmp17:
.LBB2_3:                                @   in Loop: Header=BB2_1 Depth=1
	.loc	3 260 13                        @ ../../../CORTEX_MPU_M3_NUCLEO_L152RE_GCC/Demo/flop.c:260:13
	movs	r1, #0
	add	r0, sp, #4
	ldrsh	r0, [r0, r1]
.Ltmp18:
	.loc	3 260 13 is_stmt 0              @ ../../../CORTEX_MPU_M3_NUCLEO_L152RE_GCC/Demo/flop.c:260:13
	cbnz	r0, .LBB2_5
	b	.LBB2_4
.LBB2_4:                                @   in Loop: Header=BB2_1 Depth=1
.Ltmp19:
	.loc	3 265 16 is_stmt 1              @ ../../../CORTEX_MPU_M3_NUCLEO_L152RE_GCC/Demo/flop.c:265:16
	ldr	r1, [sp, #20]
	movs	r0, #1
	.loc	3 265 39 is_stmt 0              @ ../../../CORTEX_MPU_M3_NUCLEO_L152RE_GCC/Demo/flop.c:265:39
	strh	r0, [r1]
	.loc	3 266 9 is_stmt 1               @ ../../../CORTEX_MPU_M3_NUCLEO_L152RE_GCC/Demo/flop.c:266:9
	b	.LBB2_5
.Ltmp20:
.LBB2_5:                                @   in Loop: Header=BB2_1 Depth=1
	.loc	3 241 5                         @ ../../../CORTEX_MPU_M3_NUCLEO_L152RE_GCC/Demo/flop.c:241:5
	b	.LBB2_1
.Ltmp21:
.Lfunc_end2:
	.size	vCompetingMathTask2, .Lfunc_end2-vCompetingMathTask2
	.cfi_endproc
	.cantunwind
	.fnend
                                        @ -- End function
	.section	.text.vCompetingMathTask3,"ax",%progbits
	.p2align	1                               @ -- Begin function vCompetingMathTask3
	.type	vCompetingMathTask3,%function
	.code	16                              @ @vCompetingMathTask3
	.thumb_func
vCompetingMathTask3:
.Lfunc_begin3:
	.loc	3 276 0                         @ ../../../CORTEX_MPU_M3_NUCLEO_L152RE_GCC/Demo/flop.c:276:0
	.fnstart
	.cfi_startproc
@ %bb.0:
	.save	{r4, lr}
	push	{r4, lr}
	.cfi_def_cfa_offset 8
	.cfi_offset lr, -4
	.cfi_offset r4, -8
	.pad	#64
	sub	sp, #64
	.cfi_def_cfa_offset 72
	str	r0, [sp, #60]
	movs	r0, #10
.Ltmp22:
	.loc	3 279 18 prologue_end           @ ../../../CORTEX_MPU_M3_NUCLEO_L152RE_GCC/Demo/flop.c:279:18
	str	r0, [sp, #24]
	add	r1, sp, #16
	movs	r0, #0
	.loc	3 281 11                        @ ../../../CORTEX_MPU_M3_NUCLEO_L152RE_GCC/Demo/flop.c:281:11
	strh	r0, [r1]
	.loc	3 290 52                        @ ../../../CORTEX_MPU_M3_NUCLEO_L152RE_GCC/Demo/flop.c:290:52
	ldr	r0, [sp, #60]
	.loc	3 290 26 is_stmt 0              @ ../../../CORTEX_MPU_M3_NUCLEO_L152RE_GCC/Demo/flop.c:290:26
	str	r0, [sp, #28]
	.loc	3 295 5 is_stmt 1               @ ../../../CORTEX_MPU_M3_NUCLEO_L152RE_GCC/Demo/flop.c:295:5
	b	.LBB3_1
.LBB3_1:                                @ =>This Loop Header: Depth=1
                                        @     Child Loop BB3_2 Depth 2
                                        @     Child Loop BB3_6 Depth 2
	.loc	3 0 5 is_stmt 0                 @ ../../../CORTEX_MPU_M3_NUCLEO_L152RE_GCC/Demo/flop.c:0:5
	movs	r0, #0
.Ltmp23:
	.loc	3 297 17 is_stmt 1              @ ../../../CORTEX_MPU_M3_NUCLEO_L152RE_GCC/Demo/flop.c:297:17
	str	r0, [sp, #52]
	str	r0, [sp, #48]
	.loc	3 298 17                        @ ../../../CORTEX_MPU_M3_NUCLEO_L152RE_GCC/Demo/flop.c:298:17
	str	r0, [sp, #44]
	str	r0, [sp, #40]
.Ltmp24:
	.loc	3 300 24                        @ ../../../CORTEX_MPU_M3_NUCLEO_L152RE_GCC/Demo/flop.c:300:24
	str	r0, [sp, #20]
	.loc	3 300 14 is_stmt 0              @ ../../../CORTEX_MPU_M3_NUCLEO_L152RE_GCC/Demo/flop.c:300:14
	b	.LBB3_2
.LBB3_2:                                @   Parent Loop BB3_1 Depth=1
                                        @ =>  This Inner Loop Header: Depth=2
.Ltmp25:
	.loc	3 300 29                        @ ../../../CORTEX_MPU_M3_NUCLEO_L152RE_GCC/Demo/flop.c:300:29
	ldr	r0, [sp, #20]
.Ltmp26:
	.loc	3 300 9                         @ ../../../CORTEX_MPU_M3_NUCLEO_L152RE_GCC/Demo/flop.c:300:9
	cmp	r0, #9
	bhi	.LBB3_5
	b	.LBB3_3
.LBB3_3:                                @   in Loop: Header=BB3_2 Depth=2
.Ltmp27:
	.loc	3 302 51 is_stmt 1              @ ../../../CORTEX_MPU_M3_NUCLEO_L152RE_GCC/Demo/flop.c:302:51
	ldr	r0, [sp, #20]
	.loc	3 302 36 is_stmt 0              @ ../../../CORTEX_MPU_M3_NUCLEO_L152RE_GCC/Demo/flop.c:302:36
	str	r0, [sp, #4]                    @ 4-byte Spill
	bl	__aeabi_ui2d
	movs	r2, #0
	str	r2, [sp, #8]                    @ 4-byte Spill
	movw	r3, #0
	movt	r3, #16406
	.loc	3 302 61                        @ ../../../CORTEX_MPU_M3_NUCLEO_L152RE_GCC/Demo/flop.c:302:61
	str	r3, [sp, #12]                   @ 4-byte Spill
	bl	__aeabi_dadd
	mov	r2, r0
	ldr	r0, [sp, #4]                    @ 4-byte Reload
	.loc	3 302 13                        @ ../../../CORTEX_MPU_M3_NUCLEO_L152RE_GCC/Demo/flop.c:302:13
	lsls	r4, r0, #3
	movw	r3, :lower16:xArray1
	movt	r3, :upper16:xArray1
	adds	r0, r3, r4
	.loc	3 302 34                        @ ../../../CORTEX_MPU_M3_NUCLEO_L152RE_GCC/Demo/flop.c:302:34
	str	r2, [r3, r4]
	str	r1, [r0, #4]
	.loc	3 303 39 is_stmt 1              @ ../../../CORTEX_MPU_M3_NUCLEO_L152RE_GCC/Demo/flop.c:303:39
	ldr	r0, [sp, #20]
	.loc	3 303 24 is_stmt 0              @ ../../../CORTEX_MPU_M3_NUCLEO_L152RE_GCC/Demo/flop.c:303:24
	bl	__aeabi_ui2d
	ldr	r2, [sp, #8]                    @ 4-byte Reload
	ldr	r3, [sp, #12]                   @ 4-byte Reload
	.loc	3 303 49                        @ ../../../CORTEX_MPU_M3_NUCLEO_L152RE_GCC/Demo/flop.c:303:49
	bl	__aeabi_dadd
	mov	r2, r0
	mov	r3, r1
	.loc	3 303 21                        @ ../../../CORTEX_MPU_M3_NUCLEO_L152RE_GCC/Demo/flop.c:303:21
	ldr	r0, [sp, #48]
	ldr	r1, [sp, #52]
	bl	__aeabi_dadd
	str	r1, [sp, #52]
	str	r0, [sp, #48]
	.loc	3 304 9 is_stmt 1               @ ../../../CORTEX_MPU_M3_NUCLEO_L152RE_GCC/Demo/flop.c:304:9
	b	.LBB3_4
.Ltmp28:
.LBB3_4:                                @   in Loop: Header=BB3_2 Depth=2
	.loc	3 300 62                        @ ../../../CORTEX_MPU_M3_NUCLEO_L152RE_GCC/Demo/flop.c:300:62
	ldr	r0, [sp, #20]
	adds	r0, r0, #1
	str	r0, [sp, #20]
	.loc	3 300 9 is_stmt 0               @ ../../../CORTEX_MPU_M3_NUCLEO_L152RE_GCC/Demo/flop.c:300:9
	b	.LBB3_2
.Ltmp29:
.LBB3_5:                                @   in Loop: Header=BB3_1 Depth=1
	.loc	3 0 9                           @ ../../../CORTEX_MPU_M3_NUCLEO_L152RE_GCC/Demo/flop.c:0:9
	movs	r0, #0
.Ltmp30:
	.loc	3 310 24 is_stmt 1              @ ../../../CORTEX_MPU_M3_NUCLEO_L152RE_GCC/Demo/flop.c:310:24
	str	r0, [sp, #20]
	.loc	3 310 14 is_stmt 0              @ ../../../CORTEX_MPU_M3_NUCLEO_L152RE_GCC/Demo/flop.c:310:14
	b	.LBB3_6
.LBB3_6:                                @   Parent Loop BB3_1 Depth=1
                                        @ =>  This Inner Loop Header: Depth=2
.Ltmp31:
	.loc	3 310 29                        @ ../../../CORTEX_MPU_M3_NUCLEO_L152RE_GCC/Demo/flop.c:310:29
	ldr	r0, [sp, #20]
.Ltmp32:
	.loc	3 310 9                         @ ../../../CORTEX_MPU_M3_NUCLEO_L152RE_GCC/Demo/flop.c:310:9
	cmp	r0, #9
	bhi	.LBB3_9
	b	.LBB3_7
.LBB3_7:                                @   in Loop: Header=BB3_6 Depth=2
.Ltmp33:
	.loc	3 312 33 is_stmt 1              @ ../../../CORTEX_MPU_M3_NUCLEO_L152RE_GCC/Demo/flop.c:312:33
	ldr	r0, [sp, #20]
	.loc	3 312 24 is_stmt 0              @ ../../../CORTEX_MPU_M3_NUCLEO_L152RE_GCC/Demo/flop.c:312:24
	lsls	r2, r0, #3
	movw	r1, :lower16:xArray1
	movt	r1, :upper16:xArray1
	adds	r0, r1, r2
	ldr	r2, [r1, r2]
	ldr	r3, [r0, #4]
	.loc	3 312 21                        @ ../../../CORTEX_MPU_M3_NUCLEO_L152RE_GCC/Demo/flop.c:312:21
	ldr	r0, [sp, #40]
	ldr	r1, [sp, #44]
	bl	__aeabi_dadd
	str	r1, [sp, #44]
	str	r0, [sp, #40]
	.loc	3 313 9 is_stmt 1               @ ../../../CORTEX_MPU_M3_NUCLEO_L152RE_GCC/Demo/flop.c:313:9
	b	.LBB3_8
.Ltmp34:
.LBB3_8:                                @   in Loop: Header=BB3_6 Depth=2
	.loc	3 310 62                        @ ../../../CORTEX_MPU_M3_NUCLEO_L152RE_GCC/Demo/flop.c:310:62
	ldr	r0, [sp, #20]
	adds	r0, r0, #1
	str	r0, [sp, #20]
	.loc	3 310 9 is_stmt 0               @ ../../../CORTEX_MPU_M3_NUCLEO_L152RE_GCC/Demo/flop.c:310:9
	b	.LBB3_6
.Ltmp35:
.LBB3_9:                                @   in Loop: Header=BB3_1 Depth=1
	.loc	3 315 23 is_stmt 1              @ ../../../CORTEX_MPU_M3_NUCLEO_L152RE_GCC/Demo/flop.c:315:23
	ldr	r1, [sp, #52]
	ldr	r0, [sp, #48]
	.loc	3 315 33 is_stmt 0              @ ../../../CORTEX_MPU_M3_NUCLEO_L152RE_GCC/Demo/flop.c:315:33
	ldr	r2, [sp, #40]
	ldr	r3, [sp, #44]
	.loc	3 315 31                        @ ../../../CORTEX_MPU_M3_NUCLEO_L152RE_GCC/Demo/flop.c:315:31
	bl	__aeabi_dsub
	.loc	3 315 21                        @ ../../../CORTEX_MPU_M3_NUCLEO_L152RE_GCC/Demo/flop.c:315:21
	str	r1, [sp, #36]
	str	r0, [sp, #32]
.Ltmp36:
	.loc	3 317 19 is_stmt 1              @ ../../../CORTEX_MPU_M3_NUCLEO_L152RE_GCC/Demo/flop.c:317:19
	ldr	r0, [sp, #32]
	ldr	r1, [sp, #36]
	movw	r2, #65535
	movt	r2, #32767
	.loc	3 317 13 is_stmt 0              @ ../../../CORTEX_MPU_M3_NUCLEO_L152RE_GCC/Demo/flop.c:317:13
	ands	r1, r2
	movw	r2, #43516
	movt	r2, #54001
	movw	r3, #25165
	movt	r3, #16208
	.loc	3 317 33                        @ ../../../CORTEX_MPU_M3_NUCLEO_L152RE_GCC/Demo/flop.c:317:33
	bl	__aeabi_dcmple
.Ltmp37:
	.loc	3 317 13                        @ ../../../CORTEX_MPU_M3_NUCLEO_L152RE_GCC/Demo/flop.c:317:13
	cbnz	r0, .LBB3_11
	b	.LBB3_10
.LBB3_10:                               @   in Loop: Header=BB3_1 Depth=1
	.loc	3 0 13                          @ ../../../CORTEX_MPU_M3_NUCLEO_L152RE_GCC/Demo/flop.c:0:13
	add	r1, sp, #16
	movs	r0, #1
.Ltmp38:
	.loc	3 319 20 is_stmt 1              @ ../../../CORTEX_MPU_M3_NUCLEO_L152RE_GCC/Demo/flop.c:319:20
	strh	r0, [r1]
	.loc	3 320 9                         @ ../../../CORTEX_MPU_M3_NUCLEO_L152RE_GCC/Demo/flop.c:320:9
	b	.LBB3_11
.Ltmp39:
.LBB3_11:                               @   in Loop: Header=BB3_1 Depth=1
	.loc	3 326 13                        @ ../../../CORTEX_MPU_M3_NUCLEO_L152RE_GCC/Demo/flop.c:326:13
	movs	r1, #0
	add	r0, sp, #16
	ldrsh	r0, [r0, r1]
.Ltmp40:
	.loc	3 326 13 is_stmt 0              @ ../../../CORTEX_MPU_M3_NUCLEO_L152RE_GCC/Demo/flop.c:326:13
	cbnz	r0, .LBB3_13
	b	.LBB3_12
.LBB3_12:                               @   in Loop: Header=BB3_1 Depth=1
.Ltmp41:
	.loc	3 331 16 is_stmt 1              @ ../../../CORTEX_MPU_M3_NUCLEO_L152RE_GCC/Demo/flop.c:331:16
	ldr	r1, [sp, #28]
	movs	r0, #1
	.loc	3 331 39 is_stmt 0              @ ../../../CORTEX_MPU_M3_NUCLEO_L152RE_GCC/Demo/flop.c:331:39
	strh	r0, [r1]
	.loc	3 332 9 is_stmt 1               @ ../../../CORTEX_MPU_M3_NUCLEO_L152RE_GCC/Demo/flop.c:332:9
	b	.LBB3_13
.Ltmp42:
.LBB3_13:                               @   in Loop: Header=BB3_1 Depth=1
	.loc	3 295 5                         @ ../../../CORTEX_MPU_M3_NUCLEO_L152RE_GCC/Demo/flop.c:295:5
	b	.LBB3_1
.Ltmp43:
.Lfunc_end3:
	.size	vCompetingMathTask3, .Lfunc_end3-vCompetingMathTask3
	.cfi_endproc
	.cantunwind
	.fnend
                                        @ -- End function
	.section	.text.vCompetingMathTask4,"ax",%progbits
	.p2align	1                               @ -- Begin function vCompetingMathTask4
	.type	vCompetingMathTask4,%function
	.code	16                              @ @vCompetingMathTask4
	.thumb_func
vCompetingMathTask4:
.Lfunc_begin4:
	.loc	3 338 0                         @ ../../../CORTEX_MPU_M3_NUCLEO_L152RE_GCC/Demo/flop.c:338:0
	.fnstart
	.cfi_startproc
@ %bb.0:
	.save	{r4, lr}
	push	{r4, lr}
	.cfi_def_cfa_offset 8
	.cfi_offset lr, -4
	.cfi_offset r4, -8
	.pad	#72
	sub	sp, #72
	.cfi_def_cfa_offset 80
	str	r0, [sp, #68]
	movs	r0, #10
.Ltmp44:
	.loc	3 341 18 prologue_end           @ ../../../CORTEX_MPU_M3_NUCLEO_L152RE_GCC/Demo/flop.c:341:18
	str	r0, [sp, #32]
	add	r1, sp, #24
	movs	r0, #0
	.loc	3 343 11                        @ ../../../CORTEX_MPU_M3_NUCLEO_L152RE_GCC/Demo/flop.c:343:11
	strh	r0, [r1]
	.loc	3 352 52                        @ ../../../CORTEX_MPU_M3_NUCLEO_L152RE_GCC/Demo/flop.c:352:52
	ldr	r0, [sp, #68]
	.loc	3 352 26 is_stmt 0              @ ../../../CORTEX_MPU_M3_NUCLEO_L152RE_GCC/Demo/flop.c:352:26
	str	r0, [sp, #36]
	.loc	3 357 5 is_stmt 1               @ ../../../CORTEX_MPU_M3_NUCLEO_L152RE_GCC/Demo/flop.c:357:5
	b	.LBB4_1
.LBB4_1:                                @ =>This Loop Header: Depth=1
                                        @     Child Loop BB4_2 Depth 2
                                        @     Child Loop BB4_6 Depth 2
	.loc	3 0 5 is_stmt 0                 @ ../../../CORTEX_MPU_M3_NUCLEO_L152RE_GCC/Demo/flop.c:0:5
	movs	r0, #0
.Ltmp45:
	.loc	3 359 17 is_stmt 1              @ ../../../CORTEX_MPU_M3_NUCLEO_L152RE_GCC/Demo/flop.c:359:17
	str	r0, [sp, #60]
	str	r0, [sp, #56]
	.loc	3 360 17                        @ ../../../CORTEX_MPU_M3_NUCLEO_L152RE_GCC/Demo/flop.c:360:17
	str	r0, [sp, #52]
	str	r0, [sp, #48]
.Ltmp46:
	.loc	3 362 24                        @ ../../../CORTEX_MPU_M3_NUCLEO_L152RE_GCC/Demo/flop.c:362:24
	str	r0, [sp, #28]
	.loc	3 362 14 is_stmt 0              @ ../../../CORTEX_MPU_M3_NUCLEO_L152RE_GCC/Demo/flop.c:362:14
	b	.LBB4_2
.LBB4_2:                                @   Parent Loop BB4_1 Depth=1
                                        @ =>  This Inner Loop Header: Depth=2
.Ltmp47:
	.loc	3 362 29                        @ ../../../CORTEX_MPU_M3_NUCLEO_L152RE_GCC/Demo/flop.c:362:29
	ldr	r0, [sp, #28]
.Ltmp48:
	.loc	3 362 9                         @ ../../../CORTEX_MPU_M3_NUCLEO_L152RE_GCC/Demo/flop.c:362:9
	cmp	r0, #9
	bhi	.LBB4_5
	b	.LBB4_3
.LBB4_3:                                @   in Loop: Header=BB4_2 Depth=2
.Ltmp49:
	.loc	3 364 51 is_stmt 1              @ ../../../CORTEX_MPU_M3_NUCLEO_L152RE_GCC/Demo/flop.c:364:51
	ldr	r0, [sp, #28]
	.loc	3 364 36 is_stmt 0              @ ../../../CORTEX_MPU_M3_NUCLEO_L152RE_GCC/Demo/flop.c:364:36
	str	r0, [sp, #4]                    @ 4-byte Spill
	bl	__aeabi_ui2d
	movw	r2, #53477
	movt	r2, #56098
	str	r2, [sp, #8]                    @ 4-byte Spill
	movw	r3, #16121
	movt	r3, #16424
	.loc	3 364 61                        @ ../../../CORTEX_MPU_M3_NUCLEO_L152RE_GCC/Demo/flop.c:364:61
	str	r3, [sp, #12]                   @ 4-byte Spill
	bl	__aeabi_dmul
	mov	r2, r0
	ldr	r0, [sp, #4]                    @ 4-byte Reload
	.loc	3 364 13                        @ ../../../CORTEX_MPU_M3_NUCLEO_L152RE_GCC/Demo/flop.c:364:13
	lsls	r4, r0, #3
	movw	r3, :lower16:xArray2
	movt	r3, :upper16:xArray2
	adds	r0, r3, r4
	.loc	3 364 34                        @ ../../../CORTEX_MPU_M3_NUCLEO_L152RE_GCC/Demo/flop.c:364:34
	str	r2, [r3, r4]
	str	r1, [r0, #4]
	.loc	3 365 39 is_stmt 1              @ ../../../CORTEX_MPU_M3_NUCLEO_L152RE_GCC/Demo/flop.c:365:39
	ldr	r0, [sp, #28]
	.loc	3 365 24 is_stmt 0              @ ../../../CORTEX_MPU_M3_NUCLEO_L152RE_GCC/Demo/flop.c:365:24
	bl	__aeabi_ui2d
	ldr	r2, [sp, #8]                    @ 4-byte Reload
	ldr	r3, [sp, #12]                   @ 4-byte Reload
	.loc	3 365 21                        @ ../../../CORTEX_MPU_M3_NUCLEO_L152RE_GCC/Demo/flop.c:365:21
	ldr	r4, [sp, #56]
	str	r4, [sp, #16]                   @ 4-byte Spill
	ldr	r4, [sp, #60]
	str	r4, [sp, #20]                   @ 4-byte Spill
	bl	__aeabi_dmul
	ldr	r2, [sp, #16]                   @ 4-byte Reload
	ldr	r3, [sp, #20]                   @ 4-byte Reload
	bl	__aeabi_dadd
	str	r1, [sp, #60]
	str	r0, [sp, #56]
	.loc	3 366 9 is_stmt 1               @ ../../../CORTEX_MPU_M3_NUCLEO_L152RE_GCC/Demo/flop.c:366:9
	b	.LBB4_4
.Ltmp50:
.LBB4_4:                                @   in Loop: Header=BB4_2 Depth=2
	.loc	3 362 62                        @ ../../../CORTEX_MPU_M3_NUCLEO_L152RE_GCC/Demo/flop.c:362:62
	ldr	r0, [sp, #28]
	adds	r0, r0, #1
	str	r0, [sp, #28]
	.loc	3 362 9 is_stmt 0               @ ../../../CORTEX_MPU_M3_NUCLEO_L152RE_GCC/Demo/flop.c:362:9
	b	.LBB4_2
.Ltmp51:
.LBB4_5:                                @   in Loop: Header=BB4_1 Depth=1
	.loc	3 0 9                           @ ../../../CORTEX_MPU_M3_NUCLEO_L152RE_GCC/Demo/flop.c:0:9
	movs	r0, #0
.Ltmp52:
	.loc	3 372 24 is_stmt 1              @ ../../../CORTEX_MPU_M3_NUCLEO_L152RE_GCC/Demo/flop.c:372:24
	str	r0, [sp, #28]
	.loc	3 372 14 is_stmt 0              @ ../../../CORTEX_MPU_M3_NUCLEO_L152RE_GCC/Demo/flop.c:372:14
	b	.LBB4_6
.LBB4_6:                                @   Parent Loop BB4_1 Depth=1
                                        @ =>  This Inner Loop Header: Depth=2
.Ltmp53:
	.loc	3 372 29                        @ ../../../CORTEX_MPU_M3_NUCLEO_L152RE_GCC/Demo/flop.c:372:29
	ldr	r0, [sp, #28]
.Ltmp54:
	.loc	3 372 9                         @ ../../../CORTEX_MPU_M3_NUCLEO_L152RE_GCC/Demo/flop.c:372:9
	cmp	r0, #9
	bhi	.LBB4_9
	b	.LBB4_7
.LBB4_7:                                @   in Loop: Header=BB4_6 Depth=2
.Ltmp55:
	.loc	3 374 33 is_stmt 1              @ ../../../CORTEX_MPU_M3_NUCLEO_L152RE_GCC/Demo/flop.c:374:33
	ldr	r0, [sp, #28]
	.loc	3 374 24 is_stmt 0              @ ../../../CORTEX_MPU_M3_NUCLEO_L152RE_GCC/Demo/flop.c:374:24
	lsls	r2, r0, #3
	movw	r1, :lower16:xArray2
	movt	r1, :upper16:xArray2
	adds	r0, r1, r2
	ldr	r2, [r1, r2]
	ldr	r3, [r0, #4]
	.loc	3 374 21                        @ ../../../CORTEX_MPU_M3_NUCLEO_L152RE_GCC/Demo/flop.c:374:21
	ldr	r0, [sp, #48]
	ldr	r1, [sp, #52]
	bl	__aeabi_dadd
	str	r1, [sp, #52]
	str	r0, [sp, #48]
	.loc	3 375 9 is_stmt 1               @ ../../../CORTEX_MPU_M3_NUCLEO_L152RE_GCC/Demo/flop.c:375:9
	b	.LBB4_8
.Ltmp56:
.LBB4_8:                                @   in Loop: Header=BB4_6 Depth=2
	.loc	3 372 62                        @ ../../../CORTEX_MPU_M3_NUCLEO_L152RE_GCC/Demo/flop.c:372:62
	ldr	r0, [sp, #28]
	adds	r0, r0, #1
	str	r0, [sp, #28]
	.loc	3 372 9 is_stmt 0               @ ../../../CORTEX_MPU_M3_NUCLEO_L152RE_GCC/Demo/flop.c:372:9
	b	.LBB4_6
.Ltmp57:
.LBB4_9:                                @   in Loop: Header=BB4_1 Depth=1
	.loc	3 377 23 is_stmt 1              @ ../../../CORTEX_MPU_M3_NUCLEO_L152RE_GCC/Demo/flop.c:377:23
	ldr	r1, [sp, #60]
	ldr	r0, [sp, #56]
	.loc	3 377 33 is_stmt 0              @ ../../../CORTEX_MPU_M3_NUCLEO_L152RE_GCC/Demo/flop.c:377:33
	ldr	r2, [sp, #48]
	ldr	r3, [sp, #52]
	.loc	3 377 31                        @ ../../../CORTEX_MPU_M3_NUCLEO_L152RE_GCC/Demo/flop.c:377:31
	bl	__aeabi_dsub
	.loc	3 377 21                        @ ../../../CORTEX_MPU_M3_NUCLEO_L152RE_GCC/Demo/flop.c:377:21
	str	r1, [sp, #44]
	str	r0, [sp, #40]
.Ltmp58:
	.loc	3 379 19 is_stmt 1              @ ../../../CORTEX_MPU_M3_NUCLEO_L152RE_GCC/Demo/flop.c:379:19
	ldr	r0, [sp, #40]
	ldr	r1, [sp, #44]
	movw	r2, #65535
	movt	r2, #32767
	.loc	3 379 13 is_stmt 0              @ ../../../CORTEX_MPU_M3_NUCLEO_L152RE_GCC/Demo/flop.c:379:13
	ands	r1, r2
	movw	r2, #43516
	movt	r2, #54001
	movw	r3, #25165
	movt	r3, #16208
	.loc	3 379 33                        @ ../../../CORTEX_MPU_M3_NUCLEO_L152RE_GCC/Demo/flop.c:379:33
	bl	__aeabi_dcmple
.Ltmp59:
	.loc	3 379 13                        @ ../../../CORTEX_MPU_M3_NUCLEO_L152RE_GCC/Demo/flop.c:379:13
	cbnz	r0, .LBB4_11
	b	.LBB4_10
.LBB4_10:                               @   in Loop: Header=BB4_1 Depth=1
	.loc	3 0 13                          @ ../../../CORTEX_MPU_M3_NUCLEO_L152RE_GCC/Demo/flop.c:0:13
	add	r1, sp, #24
	movs	r0, #1
.Ltmp60:
	.loc	3 381 20 is_stmt 1              @ ../../../CORTEX_MPU_M3_NUCLEO_L152RE_GCC/Demo/flop.c:381:20
	strh	r0, [r1]
	.loc	3 382 9                         @ ../../../CORTEX_MPU_M3_NUCLEO_L152RE_GCC/Demo/flop.c:382:9
	b	.LBB4_11
.Ltmp61:
.LBB4_11:                               @   in Loop: Header=BB4_1 Depth=1
	.loc	3 388 13                        @ ../../../CORTEX_MPU_M3_NUCLEO_L152RE_GCC/Demo/flop.c:388:13
	movs	r1, #0
	add	r0, sp, #24
	ldrsh	r0, [r0, r1]
.Ltmp62:
	.loc	3 388 13 is_stmt 0              @ ../../../CORTEX_MPU_M3_NUCLEO_L152RE_GCC/Demo/flop.c:388:13
	cbnz	r0, .LBB4_13
	b	.LBB4_12
.LBB4_12:                               @   in Loop: Header=BB4_1 Depth=1
.Ltmp63:
	.loc	3 393 16 is_stmt 1              @ ../../../CORTEX_MPU_M3_NUCLEO_L152RE_GCC/Demo/flop.c:393:16
	ldr	r1, [sp, #36]
	movs	r0, #1
	.loc	3 393 39 is_stmt 0              @ ../../../CORTEX_MPU_M3_NUCLEO_L152RE_GCC/Demo/flop.c:393:39
	strh	r0, [r1]
	.loc	3 394 9 is_stmt 1               @ ../../../CORTEX_MPU_M3_NUCLEO_L152RE_GCC/Demo/flop.c:394:9
	b	.LBB4_13
.Ltmp64:
.LBB4_13:                               @   in Loop: Header=BB4_1 Depth=1
	.loc	3 357 5                         @ ../../../CORTEX_MPU_M3_NUCLEO_L152RE_GCC/Demo/flop.c:357:5
	b	.LBB4_1
.Ltmp65:
.Lfunc_end4:
	.size	vCompetingMathTask4, .Lfunc_end4-vCompetingMathTask4
	.cfi_endproc
	.cantunwind
	.fnend
                                        @ -- End function
	.section	.text.xAreMathsTaskStillRunning,"ax",%progbits
	.hidden	xAreMathsTaskStillRunning       @ -- Begin function xAreMathsTaskStillRunning
	.globl	xAreMathsTaskStillRunning
	.p2align	1
	.type	xAreMathsTaskStillRunning,%function
	.code	16                              @ @xAreMathsTaskStillRunning
	.thumb_func
xAreMathsTaskStillRunning:
.Lfunc_begin5:
	.loc	3 401 0                         @ ../../../CORTEX_MPU_M3_NUCLEO_L152RE_GCC/Demo/flop.c:401:0
	.fnstart
	.cfi_startproc
@ %bb.0:
	.pad	#8
	sub	sp, #8
	.cfi_def_cfa_offset 8
	movs	r0, #1
.Ltmp66:
	.loc	3 402 16 prologue_end           @ ../../../CORTEX_MPU_M3_NUCLEO_L152RE_GCC/Demo/flop.c:402:16
	str	r0, [sp, #4]
	movs	r0, #0
.Ltmp67:
	.loc	3 406 16                        @ ../../../CORTEX_MPU_M3_NUCLEO_L152RE_GCC/Demo/flop.c:406:16
	str	r0, [sp]
	.loc	3 406 10 is_stmt 0              @ ../../../CORTEX_MPU_M3_NUCLEO_L152RE_GCC/Demo/flop.c:406:10
	b	.LBB5_1
.LBB5_1:                                @ =>This Inner Loop Header: Depth=1
.Ltmp68:
	.loc	3 406 21                        @ ../../../CORTEX_MPU_M3_NUCLEO_L152RE_GCC/Demo/flop.c:406:21
	ldr	r0, [sp]
.Ltmp69:
	.loc	3 406 5                         @ ../../../CORTEX_MPU_M3_NUCLEO_L152RE_GCC/Demo/flop.c:406:5
	cmp	r0, #3
	bgt	.LBB5_7
	b	.LBB5_2
.LBB5_2:                                @   in Loop: Header=BB5_1 Depth=1
.Ltmp70:
	.loc	3 408 26 is_stmt 1              @ ../../../CORTEX_MPU_M3_NUCLEO_L152RE_GCC/Demo/flop.c:408:26
	ldr	r0, [sp]
	.loc	3 408 13 is_stmt 0              @ ../../../CORTEX_MPU_M3_NUCLEO_L152RE_GCC/Demo/flop.c:408:13
	lsls	r1, r0, #1
	movw	r0, :lower16:usTaskCheck
	movt	r0, :upper16:usTaskCheck
	ldrh	r0, [r0, r1]
.Ltmp71:
	.loc	3 408 13                        @ ../../../CORTEX_MPU_M3_NUCLEO_L152RE_GCC/Demo/flop.c:408:13
	cmp	r0, #1
	beq	.LBB5_4
	b	.LBB5_3
.LBB5_3:                                @   in Loop: Header=BB5_1 Depth=1
	.loc	3 0 13                          @ ../../../CORTEX_MPU_M3_NUCLEO_L152RE_GCC/Demo/flop.c:0:13
	movs	r0, #0
.Ltmp72:
	.loc	3 412 21 is_stmt 1              @ ../../../CORTEX_MPU_M3_NUCLEO_L152RE_GCC/Demo/flop.c:412:21
	str	r0, [sp, #4]
	.loc	3 413 9                         @ ../../../CORTEX_MPU_M3_NUCLEO_L152RE_GCC/Demo/flop.c:413:9
	b	.LBB5_5
.Ltmp73:
.LBB5_4:                                @   in Loop: Header=BB5_1 Depth=1
	.loc	3 418 26                        @ ../../../CORTEX_MPU_M3_NUCLEO_L152RE_GCC/Demo/flop.c:418:26
	ldr	r0, [sp]
	.loc	3 418 13 is_stmt 0              @ ../../../CORTEX_MPU_M3_NUCLEO_L152RE_GCC/Demo/flop.c:418:13
	lsls	r2, r0, #1
	movw	r1, :lower16:usTaskCheck
	movt	r1, :upper16:usTaskCheck
	movs	r0, #0
	.loc	3 418 34                        @ ../../../CORTEX_MPU_M3_NUCLEO_L152RE_GCC/Demo/flop.c:418:34
	strh	r0, [r1, r2]
	b	.LBB5_5
.Ltmp74:
.LBB5_5:                                @   in Loop: Header=BB5_1 Depth=1
	.loc	3 420 5 is_stmt 1               @ ../../../CORTEX_MPU_M3_NUCLEO_L152RE_GCC/Demo/flop.c:420:5
	b	.LBB5_6
.Ltmp75:
.LBB5_6:                                @   in Loop: Header=BB5_1 Depth=1
	.loc	3 406 55                        @ ../../../CORTEX_MPU_M3_NUCLEO_L152RE_GCC/Demo/flop.c:406:55
	ldr	r0, [sp]
	adds	r0, r0, #1
	str	r0, [sp]
	.loc	3 406 5 is_stmt 0               @ ../../../CORTEX_MPU_M3_NUCLEO_L152RE_GCC/Demo/flop.c:406:5
	b	.LBB5_1
.Ltmp76:
.LBB5_7:
	.loc	3 422 12 is_stmt 1              @ ../../../CORTEX_MPU_M3_NUCLEO_L152RE_GCC/Demo/flop.c:422:12
	ldr	r0, [sp, #4]
	.loc	3 422 5 is_stmt 0               @ ../../../CORTEX_MPU_M3_NUCLEO_L152RE_GCC/Demo/flop.c:422:5
	add	sp, #8
	bx	lr
.Ltmp77:
.Lfunc_end5:
	.size	xAreMathsTaskStillRunning, .Lfunc_end5-xAreMathsTaskStillRunning
	.cfi_endproc
	.cantunwind
	.fnend
                                        @ -- End function
	.type	vStartMathTasks.xCompletingMathTask1Stack,%object @ @vStartMathTasks.xCompletingMathTask1Stack
	.section	.bss.vStartMathTasks.xCompletingMathTask1Stack,"aw",%nobits
	.p2align	9, 0x0
vStartMathTasks.xCompletingMathTask1Stack:
	.zero	512
	.size	vStartMathTasks.xCompletingMathTask1Stack, 512

	.type	vStartMathTasks.xCompletingMathTask2Stack,%object @ @vStartMathTasks.xCompletingMathTask2Stack
	.section	.bss.vStartMathTasks.xCompletingMathTask2Stack,"aw",%nobits
	.p2align	9, 0x0
vStartMathTasks.xCompletingMathTask2Stack:
	.zero	512
	.size	vStartMathTasks.xCompletingMathTask2Stack, 512

	.type	vStartMathTasks.xCompletingMathTask3Stack,%object @ @vStartMathTasks.xCompletingMathTask3Stack
	.section	.bss.vStartMathTasks.xCompletingMathTask3Stack,"aw",%nobits
	.p2align	9, 0x0
vStartMathTasks.xCompletingMathTask3Stack:
	.zero	512
	.size	vStartMathTasks.xCompletingMathTask3Stack, 512

	.type	vStartMathTasks.xCompletingMathTask4Stack,%object @ @vStartMathTasks.xCompletingMathTask4Stack
	.section	.bss.vStartMathTasks.xCompletingMathTask4Stack,"aw",%nobits
	.p2align	9, 0x0
vStartMathTasks.xCompletingMathTask4Stack:
	.zero	512
	.size	vStartMathTasks.xCompletingMathTask4Stack, 512

	.type	.L.str,%object                  @ @.str
	.section	.rodata.str1.1,"aMS",%progbits,1
.L.str:
	.asciz	"Math1"
	.size	.L.str, 6

	.type	usTaskCheck,%object             @ @usTaskCheck
	.section	.bss.usTaskCheck,"aw",%nobits
	.p2align	5, 0x0
usTaskCheck:
	.zero	32
	.size	usTaskCheck, 32

	.type	.Lconstinit,%object             @ @constinit
	.section	.data..Lconstinit,"aw",%progbits
	.p2align	2, 0x0
.Lconstinit:
	.long	usTaskCheck
	.long	32                              @ 0x20
	.long	3                               @ 0x3
	.zero	12
	.zero	12
	.size	.Lconstinit, 36

	.type	.L.str.1,%object                @ @.str.1
	.section	.rodata.str1.1,"aMS",%progbits,1
.L.str.1:
	.asciz	"Math2"
	.size	.L.str.1, 6

	.type	.Lconstinit.2,%object           @ @constinit.2
	.section	.data..Lconstinit.2,"aw",%progbits
	.p2align	2, 0x0
.Lconstinit.2:
	.long	usTaskCheck
	.long	32                              @ 0x20
	.long	3                               @ 0x3
	.zero	12
	.zero	12
	.size	.Lconstinit.2, 36

	.type	.L.str.3,%object                @ @.str.3
	.section	.rodata.str1.1,"aMS",%progbits,1
.L.str.3:
	.asciz	"Math3"
	.size	.L.str.3, 6

	.type	xArray1,%object                 @ @xArray1
	.section	.bss.xArray1,"aw",%nobits
	.p2align	7, 0x0
xArray1:
	.zero	128
	.size	xArray1, 128

	.type	.Lconstinit.4,%object           @ @constinit.4
	.section	.data..Lconstinit.4,"aw",%progbits
	.p2align	2, 0x0
.Lconstinit.4:
	.long	usTaskCheck
	.long	32                              @ 0x20
	.long	3                               @ 0x3
	.long	xArray1
	.long	128                             @ 0x80
	.long	3                               @ 0x3
	.zero	12
	.size	.Lconstinit.4, 36

	.type	.L.str.5,%object                @ @.str.5
	.section	.rodata.str1.1,"aMS",%progbits,1
.L.str.5:
	.asciz	"Math4"
	.size	.L.str.5, 6

	.type	xArray2,%object                 @ @xArray2
	.section	.bss.xArray2,"aw",%nobits
	.p2align	7, 0x0
xArray2:
	.zero	128
	.size	xArray2, 128

	.type	.Lconstinit.6,%object           @ @constinit.6
	.section	.data..Lconstinit.6,"aw",%progbits
	.p2align	2, 0x0
.Lconstinit.6:
	.long	usTaskCheck
	.long	32                              @ 0x20
	.long	3                               @ 0x3
	.long	xArray2
	.long	128                             @ 0x80
	.long	3                               @ 0x3
	.zero	12
	.size	.Lconstinit.6, 36

	.file	4 "C:\\Users\\karahulx\\Downloads\\Kernel\\FreeRTOS\\FreeRTOS\\Demo\\CORTEX_MPU_M23_Nuvoton_NuMaker_PFM_M2351_IAR_GCC\\Projects_NTZ\\Keil" "../../../../Source/include/projdefs.h"
	.file	5 "C:\\Users\\karahulx\\Downloads\\Kernel\\FreeRTOS\\FreeRTOS\\Demo\\CORTEX_MPU_M23_Nuvoton_NuMaker_PFM_M2351_IAR_GCC\\Projects_NTZ\\Keil" "../../../../Source/include\\task.h"
	.file	6 "C:\\Users\\karahulx\\Downloads\\Kernel\\FreeRTOS\\FreeRTOS\\Demo\\CORTEX_MPU_M23_Nuvoton_NuMaker_PFM_M2351_IAR_GCC\\Projects_NTZ\\Keil" "../../../../Source/include\\FreeRTOS.h"
	.file	7 "C:\\Keil_v5\\ARM\\ARMCLANG\\Bin\\..\\include" "stdlib.h"
	.section	".note.GNU-stack","",%progbits
	.eabi_attribute	30, 6	@ Tag_ABI_optimization_goals
	.ARM_attribute	16, 1	@ Tag_AV_eba