	.text
	.syntax unified
	.eabi_attribute	67, "2.09"	@ Tag_conformance
	.eabi_attribute	6, 16	@ Tag_CPU_arch
	.eabi_attribute	7, 77	@ Tag_CPU_arch_profile
	.eabi_attribute	8, 0	@ Tag_ARM_ISA_use
	.eabi_attribute	9, 3	@ Tag_THUMB_ISA_use
	.eabi_attribute	34, 0	@ Tag_CPU_unaligned_access
	.eabi_attribute	17, 1	@ Tag_ABI_PCS_GOT_use
	.eabi_attribute	20, 2	@ Tag_ABI_FP_denormal
	.eabi_attribute	21, 0	@ Tag_ABI_FP_exceptions
	.eabi_attribute	23, 1	@ Tag_ABI_FP_number_model
	.eabi_attribute	24, 1	@ Tag_ABI_align_needed
	.eabi_attribute	25, 1	@ Tag_ABI_align_preserved
	.eabi_attribute	38, 1	@ Tag_ABI_FP_16bit_format
	.eabi_attribute	18, 4	@ Tag_ABI_PCS_wchar_t
	.eabi_attribute	26, 2	@ Tag_ABI_enum_size
	.eabi_attribute	14, 0	@ Tag_ABI_PCS_R9_use
	.file	"GenQTest.c"
	.file	1 "C:\\Keil_v5\\ARM\\ARMCLANG\\Bin\\..\\include" "stdint.h"
	.file	2 "C:\\Users\\karahulx\\Downloads\\Kernel\\FreeRTOS\\FreeRTOS\\Demo\\CORTEX_MPU_M23_Nuvoton_NuMaker_PFM_M2351_IAR_GCC\\Projects_NTZ\\Keil" "../../../../Source/portable/GCC/ARM_CM23_NTZ/non_secure/portmacrocommon.h"
	.file	3 "C:\\Users\\karahulx\\Downloads\\Kernel\\FreeRTOS\\FreeRTOS\\Demo\\CORTEX_MPU_M23_Nuvoton_NuMaker_PFM_M2351_IAR_GCC\\Projects_NTZ\\Keil" "../../../CORTEX_MPU_M3_NUCLEO_L152RE_GCC/Demo/GenQTest.c"
	.file	4 "C:\\Users\\karahulx\\Downloads\\Kernel\\FreeRTOS\\FreeRTOS\\Demo\\CORTEX_MPU_M23_Nuvoton_NuMaker_PFM_M2351_IAR_GCC\\Projects_NTZ\\Keil" "../../../../Source/include/task.h"
	.file	5 "C:\\Users\\karahulx\\Downloads\\Kernel\\FreeRTOS\\FreeRTOS\\Demo\\CORTEX_MPU_M23_Nuvoton_NuMaker_PFM_M2351_IAR_GCC\\Projects_NTZ\\Keil" "../../../../Source/include/queue.h"
	.file	6 "C:\\Users\\karahulx\\Downloads\\Kernel\\FreeRTOS\\FreeRTOS\\Demo\\CORTEX_MPU_M23_Nuvoton_NuMaker_PFM_M2351_IAR_GCC\\Projects_NTZ\\Keil" "../../../../Source/include\\semphr.h"
	.section	.text.vStartGenericQueueTasks,"ax",%progbits
	.hidden	vStartGenericQueueTasks         @ -- Begin function vStartGenericQueueTasks
	.globl	vStartGenericQueueTasks
	.p2align	1
	.type	vStartGenericQueueTasks,%function
	.code	16                              @ @vStartGenericQueueTasks
	.thumb_func
vStartGenericQueueTasks:
.Lfunc_begin0:
	.loc	3 159 0                         @ ../../../CORTEX_MPU_M3_NUCLEO_L152RE_GCC/Demo/GenQTest.c:159:0
	.fnstart
	.cfi_sections .debug_frame
	.cfi_startproc
@ %bb.0:
	.save	{r4, r5, r6, r7, lr}
	push	{r4, r5, r6, r7, lr}
	.cfi_def_cfa_offset 20
	.cfi_offset lr, -4
	.cfi_offset r7, -8
	.cfi_offset r6, -12
	.cfi_offset r5, -16
	.cfi_offset r4, -20
	.pad	#356
	sub	sp, #356
	.cfi_def_cfa_offset 376
	str	r0, [sp, #352]
	movs	r0, #5
	movs	r1, #4
	movs	r2, #0
.Ltmp0:
	.loc	3 171 14 prologue_end           @ ../../../CORTEX_MPU_M3_NUCLEO_L152RE_GCC/Demo/GenQTest.c:171:14
	bl	MPU_xQueueGenericCreate
	.loc	3 171 12 is_stmt 0              @ ../../../CORTEX_MPU_M3_NUCLEO_L152RE_GCC/Demo/GenQTest.c:171:12
	str	r0, [sp, #348]
.Ltmp1:
	.loc	3 173 9 is_stmt 1               @ ../../../CORTEX_MPU_M3_NUCLEO_L152RE_GCC/Demo/GenQTest.c:173:9
	ldr	r0, [sp, #348]
.Ltmp2:
	.loc	3 173 9 is_stmt 0               @ ../../../CORTEX_MPU_M3_NUCLEO_L152RE_GCC/Demo/GenQTest.c:173:9
	cbz	r0, .LBB0_2
	b	.LBB0_1
.LBB0_1:
.Ltmp3:
	.loc	3 184 9 is_stmt 1               @ ../../../CORTEX_MPU_M3_NUCLEO_L152RE_GCC/Demo/GenQTest.c:184:9
	movw	r0, :lower16:prvSendFrontAndBackTest
	movt	r0, :upper16:prvSendFrontAndBackTest
	str	r0, [sp, #280]
	movw	r0, :lower16:.L.str
	movt	r0, :upper16:.L.str
	str	r0, [sp, #284]
	add	r0, sp, #280
	movs	r1, #128
	strh	r1, [r0, #8]
	.loc	3 188 42                        @ ../../../CORTEX_MPU_M3_NUCLEO_L152RE_GCC/Demo/GenQTest.c:188:42
	ldr	r1, [sp, #348]
	.loc	3 184 9                         @ ../../../CORTEX_MPU_M3_NUCLEO_L152RE_GCC/Demo/GenQTest.c:184:9
	str	r1, [sp, #292]
	.loc	3 189 31                        @ ../../../CORTEX_MPU_M3_NUCLEO_L152RE_GCC/Demo/GenQTest.c:189:31
	ldr	r1, [sp, #352]
	.loc	3 184 9                         @ ../../../CORTEX_MPU_M3_NUCLEO_L152RE_GCC/Demo/GenQTest.c:184:9
	str	r1, [sp, #296]
	movw	r1, :lower16:vStartGenericQueueTasks.xSendFrontAndBackTestStack
	movt	r1, :upper16:vStartGenericQueueTasks.xSendFrontAndBackTestStack
	str	r1, [sp, #300]
	mov	r1, r0
	adds	r1, #24
	.loc	3 192 13                        @ ../../../CORTEX_MPU_M3_NUCLEO_L152RE_GCC/Demo/GenQTest.c:192:13
	movw	r2, :lower16:.Lconstinit
	movt	r2, :upper16:.Lconstinit
	ldm	r2!, {r3, r4, r5}
	stm	r1!, {r3, r4, r5}
	ldm	r2!, {r3, r4, r5}
	stm	r1!, {r3, r4, r5}
	ldm	r2!, {r3, r4, r5}
	stm	r1!, {r3, r4, r5}
	movs	r1, #0
	.loc	3 184 9                         @ ../../../CORTEX_MPU_M3_NUCLEO_L152RE_GCC/Demo/GenQTest.c:184:9
	str	r1, [sp, #340]
	.loc	3 204 9                         @ ../../../CORTEX_MPU_M3_NUCLEO_L152RE_GCC/Demo/GenQTest.c:204:9
	bl	xTaskCreateRestricted
	.loc	3 205 5                         @ ../../../CORTEX_MPU_M3_NUCLEO_L152RE_GCC/Demo/GenQTest.c:205:5
	b	.LBB0_2
.Ltmp4:
.LBB0_2:
	.loc	3 0 5 is_stmt 0                 @ ../../../CORTEX_MPU_M3_NUCLEO_L152RE_GCC/Demo/GenQTest.c:0:5
	movs	r0, #1
	.loc	3 208 14 is_stmt 1              @ ../../../CORTEX_MPU_M3_NUCLEO_L152RE_GCC/Demo/GenQTest.c:208:14
	bl	MPU_xQueueCreateMutex
	.loc	3 208 12 is_stmt 0              @ ../../../CORTEX_MPU_M3_NUCLEO_L152RE_GCC/Demo/GenQTest.c:208:12
	str	r0, [sp, #344]
.Ltmp5:
	.loc	3 210 9 is_stmt 1               @ ../../../CORTEX_MPU_M3_NUCLEO_L152RE_GCC/Demo/GenQTest.c:210:9
	ldr	r0, [sp, #344]
.Ltmp6:
	.loc	3 210 9 is_stmt 0               @ ../../../CORTEX_MPU_M3_NUCLEO_L152RE_GCC/Demo/GenQTest.c:210:9
	cbnz	r0, .LBB0_3
	b	.LBB0_4
.LBB0_3:
.Ltmp7:
	.loc	3 221 9 is_stmt 1               @ ../../../CORTEX_MPU_M3_NUCLEO_L152RE_GCC/Demo/GenQTest.c:221:9
	movw	r0, :lower16:prvLowPriorityMutexTask
	movt	r0, :upper16:prvLowPriorityMutexTask
	str	r0, [sp, #216]
	movw	r0, :lower16:.L.str.1
	movt	r0, :upper16:.L.str.1
	str	r0, [sp, #220]
	add	r0, sp, #216
	str	r0, [sp, #4]                    @ 4-byte Spill
	movs	r3, #128
	strh	r3, [r0, #8]
	.loc	3 225 42                        @ ../../../CORTEX_MPU_M3_NUCLEO_L152RE_GCC/Demo/GenQTest.c:225:42
	ldr	r1, [sp, #344]
	.loc	3 221 9                         @ ../../../CORTEX_MPU_M3_NUCLEO_L152RE_GCC/Demo/GenQTest.c:221:9
	str	r1, [sp, #228]
	movs	r1, #1
	lsls	r1, r1, #31
	str	r1, [sp, #232]
	movw	r1, :lower16:vStartGenericQueueTasks.xLowPriorityMutexTaskStack
	movt	r1, :upper16:vStartGenericQueueTasks.xLowPriorityMutexTaskStack
	str	r1, [sp, #236]
	adds	r0, #24
	.loc	3 229 13                        @ ../../../CORTEX_MPU_M3_NUCLEO_L152RE_GCC/Demo/GenQTest.c:229:13
	movw	r1, :lower16:.Lconstinit.2
	movt	r1, :upper16:.Lconstinit.2
	ldm	r1!, {r2, r4, r5}
	stm	r0!, {r2, r4, r5}
	ldm	r1!, {r2, r4, r5}
	stm	r0!, {r2, r4, r5}
	ldm	r1!, {r2, r4, r5}
	stm	r0!, {r2, r4, r5}
	movs	r1, #0
	.loc	3 221 9                         @ ../../../CORTEX_MPU_M3_NUCLEO_L152RE_GCC/Demo/GenQTest.c:221:9
	str	r1, [sp, #276]
	.loc	3 237 26                        @ ../../../CORTEX_MPU_M3_NUCLEO_L152RE_GCC/Demo/GenQTest.c:237:26
	movw	r2, :lower16:.L__const.vStartGenericQueueTasks.xMediumPriorityMutexTaskParameters
	movt	r2, :upper16:.L__const.vStartGenericQueueTasks.xMediumPriorityMutexTaskParameters
	add	r0, sp, #152
	str	r0, [sp, #8]                    @ 4-byte Spill
	ldm	r2!, {r4, r5, r6, r7}
	stm	r0!, {r4, r5, r6, r7}
	ldm	r2!, {r4, r5, r6, r7}
	stm	r0!, {r4, r5, r6, r7}
	ldm	r2!, {r4, r5, r6, r7}
	stm	r0!, {r4, r5, r6, r7}
	ldm	r2!, {r4, r5, r6, r7}
	stm	r0!, {r4, r5, r6, r7}
	.loc	3 254 9                         @ ../../../CORTEX_MPU_M3_NUCLEO_L152RE_GCC/Demo/GenQTest.c:254:9
	movw	r2, :lower16:prvHighPriorityMutexTask
	movt	r2, :upper16:prvHighPriorityMutexTask
	str	r2, [sp, #88]
	movw	r0, :lower16:.L.str.4
	movt	r0, :upper16:.L.str.4
	str	r0, [sp, #92]
	add	r4, sp, #88
	str	r4, [sp, #12]                   @ 4-byte Spill
	strh	r3, [r4, #8]
	.loc	3 258 42                        @ ../../../CORTEX_MPU_M3_NUCLEO_L152RE_GCC/Demo/GenQTest.c:258:42
	ldr	r0, [sp, #344]
	.loc	3 254 9                         @ ../../../CORTEX_MPU_M3_NUCLEO_L152RE_GCC/Demo/GenQTest.c:254:9
	str	r0, [sp, #100]
	movs	r0, #3
	str	r0, [sp, #104]
	movw	r0, :lower16:vStartGenericQueueTasks.xHighPriorityMutexTaskStack
	movt	r0, :upper16:vStartGenericQueueTasks.xHighPriorityMutexTaskStack
	str	r0, [sp, #108]
	adds	r4, #24
	.loc	3 262 13                        @ ../../../CORTEX_MPU_M3_NUCLEO_L152RE_GCC/Demo/GenQTest.c:262:13
	movw	r5, :lower16:.Lconstinit.5
	movt	r5, :upper16:.Lconstinit.5
	ldm	r5!, {r0, r6, r7}
	stm	r4!, {r0, r6, r7}
	ldm	r5!, {r0, r6, r7}
	stm	r4!, {r0, r6, r7}
	ldm	r5!, {r0, r6, r7}
	stm	r4!, {r0, r6, r7}
	.loc	3 254 9                         @ ../../../CORTEX_MPU_M3_NUCLEO_L152RE_GCC/Demo/GenQTest.c:254:9
	ldr	r0, [sp, #4]                    @ 4-byte Reload
	str	r1, [sp, #148]
	.loc	3 270 9                         @ ../../../CORTEX_MPU_M3_NUCLEO_L152RE_GCC/Demo/GenQTest.c:270:9
	str	r2, [sp, #24]
	movw	r2, :lower16:.L.str.6
	movt	r2, :upper16:.L.str.6
	str	r2, [sp, #28]
	add	r2, sp, #24
	str	r2, [sp, #20]                   @ 4-byte Spill
	strh	r3, [r2, #8]
	.loc	3 274 42                        @ ../../../CORTEX_MPU_M3_NUCLEO_L152RE_GCC/Demo/GenQTest.c:274:42
	ldr	r3, [sp, #344]
	.loc	3 270 9                         @ ../../../CORTEX_MPU_M3_NUCLEO_L152RE_GCC/Demo/GenQTest.c:270:9
	str	r3, [sp, #36]
	movs	r3, #2
	str	r3, [sp, #40]
	movw	r3, :lower16:vStartGenericQueueTasks.xHighPriorityMutexTask2Stack
	movt	r3, :upper16:vStartGenericQueueTasks.xHighPriorityMutexTask2Stack
	str	r3, [sp, #44]
	adds	r2, #24
	.loc	3 278 13                        @ ../../../CORTEX_MPU_M3_NUCLEO_L152RE_GCC/Demo/GenQTest.c:278:13
	movw	r3, :lower16:.Lconstinit.7
	movt	r3, :upper16:.Lconstinit.7
	ldm	r3!, {r4, r5, r6}
	stm	r2!, {r4, r5, r6}
	ldm	r3!, {r4, r5, r6}
	stm	r2!, {r4, r5, r6}
	ldm	r3!, {r4, r5, r6}
	stm	r2!, {r4, r5, r6}
	.loc	3 270 9                         @ ../../../CORTEX_MPU_M3_NUCLEO_L152RE_GCC/Demo/GenQTest.c:270:9
	str	r1, [sp, #84]
	.loc	3 289 9                         @ ../../../CORTEX_MPU_M3_NUCLEO_L152RE_GCC/Demo/GenQTest.c:289:9
	bl	xTaskCreateRestricted
                                        @ kill: def $r1 killed $r0
	.loc	3 290 9                         @ ../../../CORTEX_MPU_M3_NUCLEO_L152RE_GCC/Demo/GenQTest.c:290:9
	ldr	r0, [sp, #8]                    @ 4-byte Reload
	movw	r1, :lower16:xLocalTaskHandles
	movt	r1, :upper16:xLocalTaskHandles
	str	r1, [sp, #16]                   @ 4-byte Spill
	adds	r1, r1, #4
	bl	xTaskCreateRestricted
	ldr	r1, [sp, #16]                   @ 4-byte Reload
                                        @ kill: def $r2 killed $r0
	.loc	3 291 9                         @ ../../../CORTEX_MPU_M3_NUCLEO_L152RE_GCC/Demo/GenQTest.c:291:9
	ldr	r0, [sp, #12]                   @ 4-byte Reload
	bl	xTaskCreateRestricted
	ldr	r1, [sp, #16]                   @ 4-byte Reload
                                        @ kill: def $r2 killed $r0
.Ltmp8:
	.loc	3 297 13                        @ ../../../CORTEX_MPU_M3_NUCLEO_L152RE_GCC/Demo/GenQTest.c:297:13
	ldr	r0, [sp, #20]                   @ 4-byte Reload
	adds	r1, #8
	bl	xTaskCreateRestricted
.Ltmp9:
	.loc	3 300 5                         @ ../../../CORTEX_MPU_M3_NUCLEO_L152RE_GCC/Demo/GenQTest.c:300:5
	b	.LBB0_4
.Ltmp10:
.LBB0_4:
	.loc	3 301 1                         @ ../../../CORTEX_MPU_M3_NUCLEO_L152RE_GCC/Demo/GenQTest.c:301:1
	add	sp, #356
	pop	{r4, r5, r6, r7, pc}
.Ltmp11:
.Lfunc_end0:
	.size	vStartGenericQueueTasks, .Lfunc_end0-vStartGenericQueueTasks
	.cfi_endproc
	.cantunwind
	.fnend
                                        @ -- End function
	.section	.text.prvSendFrontAndBackTest,"ax",%progbits
	.p2align	1                               @ -- Begin function prvSendFrontAndBackTest
	.type	prvSendFrontAndBackTest,%function
	.code	16                              @ @prvSendFrontAndBackTest
	.thumb_func
prvSendFrontAndBackTest:
.Lfunc_begin1:
	.loc	3 305 0                         @ ../../../CORTEX_MPU_M3_NUCLEO_L152RE_GCC/Demo/GenQTest.c:305:0
	.fnstart
	.cfi_startproc
@ %bb.0:
	.save	{r7, lr}
	push	{r7, lr}
	.cfi_def_cfa_offset 8
	.cfi_offset lr, -4
	.cfi_offset r7, -8
	.pad	#32
	sub	sp, #32
	.cfi_def_cfa_offset 40
	str	r0, [sp, #28]
.Ltmp12:
	.loc	3 318 32 prologue_end           @ ../../../CORTEX_MPU_M3_NUCLEO_L152RE_GCC/Demo/GenQTest.c:318:32
	ldr	r0, [sp, #28]
	.loc	3 318 12 is_stmt 0              @ ../../../CORTEX_MPU_M3_NUCLEO_L152RE_GCC/Demo/GenQTest.c:318:12
	str	r0, [sp, #12]
	.loc	3 320 5 is_stmt 1               @ ../../../CORTEX_MPU_M3_NUCLEO_L152RE_GCC/Demo/GenQTest.c:320:5
	b	.LBB1_1
.LBB1_1:                                @ =>This Loop Header: Depth=1
                                        @     Child Loop BB1_18 Depth 2
                                        @     Child Loop BB1_30 Depth 2
                                        @     Child Loop BB1_50 Depth 2
                                        @     Child Loop BB1_62 Depth 2
.Ltmp13:
	.loc	3 326 33                        @ ../../../CORTEX_MPU_M3_NUCLEO_L152RE_GCC/Demo/GenQTest.c:326:33
	movw	r0, :lower16:xSharedArray
	movt	r0, :upper16:xSharedArray
	ldr	r0, [r0, #4]
	.loc	3 326 31 is_stmt 0              @ ../../../CORTEX_MPU_M3_NUCLEO_L152RE_GCC/Demo/GenQTest.c:326:31
	str	r0, [sp, #16]
	.loc	3 327 9 is_stmt 1               @ ../../../CORTEX_MPU_M3_NUCLEO_L152RE_GCC/Demo/GenQTest.c:327:9
	ldr	r0, [sp, #12]
	add	r1, sp, #16
	movs	r2, #0
	movs	r3, #1
	bl	MPU_xQueueGenericSend
.Ltmp14:
	.loc	3 329 37                        @ ../../../CORTEX_MPU_M3_NUCLEO_L152RE_GCC/Demo/GenQTest.c:329:37
	ldr	r0, [sp, #12]
	.loc	3 329 13 is_stmt 0              @ ../../../CORTEX_MPU_M3_NUCLEO_L152RE_GCC/Demo/GenQTest.c:329:13
	bl	MPU_uxQueueMessagesWaiting
.Ltmp15:
	.loc	3 329 13                        @ ../../../CORTEX_MPU_M3_NUCLEO_L152RE_GCC/Demo/GenQTest.c:329:13
	cmp	r0, #1
	beq	.LBB1_3
	b	.LBB1_2
.LBB1_2:                                @   in Loop: Header=BB1_1 Depth=1
.Ltmp16:
	.loc	3 331 48 is_stmt 1              @ ../../../CORTEX_MPU_M3_NUCLEO_L152RE_GCC/Demo/GenQTest.c:331:48
	movw	r1, :lower16:xSharedArray
	movt	r1, :upper16:xSharedArray
	movs	r0, #1
	str	r0, [r1]
	.loc	3 332 9                         @ ../../../CORTEX_MPU_M3_NUCLEO_L152RE_GCC/Demo/GenQTest.c:332:9
	b	.LBB1_3
.Ltmp17:
.LBB1_3:                                @   in Loop: Header=BB1_1 Depth=1
	.loc	3 334 28                        @ ../../../CORTEX_MPU_M3_NUCLEO_L152RE_GCC/Demo/GenQTest.c:334:28
	ldr	r0, [sp, #12]
	add	r1, sp, #24
	movs	r2, #0
	.loc	3 334 13 is_stmt 0              @ ../../../CORTEX_MPU_M3_NUCLEO_L152RE_GCC/Demo/GenQTest.c:334:13
	bl	MPU_xQueueReceive
.Ltmp18:
	.loc	3 334 13                        @ ../../../CORTEX_MPU_M3_NUCLEO_L152RE_GCC/Demo/GenQTest.c:334:13
	cmp	r0, #1
	beq	.LBB1_5
	b	.LBB1_4
.LBB1_4:                                @   in Loop: Header=BB1_1 Depth=1
.Ltmp19:
	.loc	3 336 48 is_stmt 1              @ ../../../CORTEX_MPU_M3_NUCLEO_L152RE_GCC/Demo/GenQTest.c:336:48
	movw	r1, :lower16:xSharedArray
	movt	r1, :upper16:xSharedArray
	movs	r0, #1
	str	r0, [r1]
	.loc	3 337 9                         @ ../../../CORTEX_MPU_M3_NUCLEO_L152RE_GCC/Demo/GenQTest.c:337:9
	b	.LBB1_5
.Ltmp20:
.LBB1_5:                                @   in Loop: Header=BB1_1 Depth=1
	.loc	3 341 13                        @ ../../../CORTEX_MPU_M3_NUCLEO_L152RE_GCC/Demo/GenQTest.c:341:13
	movw	r0, :lower16:xSharedArray
	movt	r0, :upper16:xSharedArray
	ldr	r0, [r0, #4]
	.loc	3 341 51 is_stmt 0              @ ../../../CORTEX_MPU_M3_NUCLEO_L152RE_GCC/Demo/GenQTest.c:341:51
	ldr	r1, [sp, #24]
.Ltmp21:
	.loc	3 341 13                        @ ../../../CORTEX_MPU_M3_NUCLEO_L152RE_GCC/Demo/GenQTest.c:341:13
	cmp	r0, r1
	beq	.LBB1_7
	b	.LBB1_6
.LBB1_6:                                @   in Loop: Header=BB1_1 Depth=1
.Ltmp22:
	.loc	3 343 48 is_stmt 1              @ ../../../CORTEX_MPU_M3_NUCLEO_L152RE_GCC/Demo/GenQTest.c:343:48
	movw	r1, :lower16:xSharedArray
	movt	r1, :upper16:xSharedArray
	movs	r0, #1
	str	r0, [r1]
	.loc	3 344 9                         @ ../../../CORTEX_MPU_M3_NUCLEO_L152RE_GCC/Demo/GenQTest.c:344:9
	b	.LBB1_7
.Ltmp23:
.LBB1_7:                                @   in Loop: Header=BB1_1 Depth=1
	.loc	3 348 37                        @ ../../../CORTEX_MPU_M3_NUCLEO_L152RE_GCC/Demo/GenQTest.c:348:37
	ldr	r0, [sp, #12]
	.loc	3 348 13 is_stmt 0              @ ../../../CORTEX_MPU_M3_NUCLEO_L152RE_GCC/Demo/GenQTest.c:348:13
	bl	MPU_uxQueueMessagesWaiting
.Ltmp24:
	.loc	3 348 13                        @ ../../../CORTEX_MPU_M3_NUCLEO_L152RE_GCC/Demo/GenQTest.c:348:13
	cbz	r0, .LBB1_9
	b	.LBB1_8
.LBB1_8:                                @   in Loop: Header=BB1_1 Depth=1
.Ltmp25:
	.loc	3 350 48 is_stmt 1              @ ../../../CORTEX_MPU_M3_NUCLEO_L152RE_GCC/Demo/GenQTest.c:350:48
	movw	r1, :lower16:xSharedArray
	movt	r1, :upper16:xSharedArray
	movs	r0, #1
	str	r0, [r1]
	.loc	3 351 9                         @ ../../../CORTEX_MPU_M3_NUCLEO_L152RE_GCC/Demo/GenQTest.c:351:9
	b	.LBB1_9
.Ltmp26:
.LBB1_9:                                @   in Loop: Header=BB1_1 Depth=1
	.loc	3 353 33                        @ ../../../CORTEX_MPU_M3_NUCLEO_L152RE_GCC/Demo/GenQTest.c:353:33
	movw	r0, :lower16:xSharedArray
	movt	r0, :upper16:xSharedArray
	ldr	r0, [r0, #4]
	.loc	3 353 31 is_stmt 0              @ ../../../CORTEX_MPU_M3_NUCLEO_L152RE_GCC/Demo/GenQTest.c:353:31
	str	r0, [sp, #16]
	.loc	3 354 9 is_stmt 1               @ ../../../CORTEX_MPU_M3_NUCLEO_L152RE_GCC/Demo/GenQTest.c:354:9
	ldr	r0, [sp, #12]
	add	r1, sp, #16
	movs	r3, #0
	mov	r2, r3
	bl	MPU_xQueueGenericSend
.Ltmp27:
	.loc	3 356 37                        @ ../../../CORTEX_MPU_M3_NUCLEO_L152RE_GCC/Demo/GenQTest.c:356:37
	ldr	r0, [sp, #12]
	.loc	3 356 13 is_stmt 0              @ ../../../CORTEX_MPU_M3_NUCLEO_L152RE_GCC/Demo/GenQTest.c:356:13
	bl	MPU_uxQueueMessagesWaiting
.Ltmp28:
	.loc	3 356 13                        @ ../../../CORTEX_MPU_M3_NUCLEO_L152RE_GCC/Demo/GenQTest.c:356:13
	cmp	r0, #1
	beq	.LBB1_11
	b	.LBB1_10
.LBB1_10:                               @   in Loop: Header=BB1_1 Depth=1
.Ltmp29:
	.loc	3 358 48 is_stmt 1              @ ../../../CORTEX_MPU_M3_NUCLEO_L152RE_GCC/Demo/GenQTest.c:358:48
	movw	r1, :lower16:xSharedArray
	movt	r1, :upper16:xSharedArray
	movs	r0, #1
	str	r0, [r1]
	.loc	3 359 9                         @ ../../../CORTEX_MPU_M3_NUCLEO_L152RE_GCC/Demo/GenQTest.c:359:9
	b	.LBB1_11
.Ltmp30:
.LBB1_11:                               @   in Loop: Header=BB1_1 Depth=1
	.loc	3 361 28                        @ ../../../CORTEX_MPU_M3_NUCLEO_L152RE_GCC/Demo/GenQTest.c:361:28
	ldr	r0, [sp, #12]
	add	r1, sp, #24
	movs	r2, #0
	.loc	3 361 13 is_stmt 0              @ ../../../CORTEX_MPU_M3_NUCLEO_L152RE_GCC/Demo/GenQTest.c:361:13
	bl	MPU_xQueueReceive
.Ltmp31:
	.loc	3 361 13                        @ ../../../CORTEX_MPU_M3_NUCLEO_L152RE_GCC/Demo/GenQTest.c:361:13
	cmp	r0, #1
	beq	.LBB1_13
	b	.LBB1_12
.LBB1_12:                               @   in Loop: Header=BB1_1 Depth=1
.Ltmp32:
	.loc	3 363 48 is_stmt 1              @ ../../../CORTEX_MPU_M3_NUCLEO_L152RE_GCC/Demo/GenQTest.c:363:48
	movw	r1, :lower16:xSharedArray
	movt	r1, :upper16:xSharedArray
	movs	r0, #1
	str	r0, [r1]
	.loc	3 364 9                         @ ../../../CORTEX_MPU_M3_NUCLEO_L152RE_GCC/Demo/GenQTest.c:364:9
	b	.LBB1_13
.Ltmp33:
.LBB1_13:                               @   in Loop: Header=BB1_1 Depth=1
	.loc	3 366 37                        @ ../../../CORTEX_MPU_M3_NUCLEO_L152RE_GCC/Demo/GenQTest.c:366:37
	ldr	r0, [sp, #12]
	.loc	3 366 13 is_stmt 0              @ ../../../CORTEX_MPU_M3_NUCLEO_L152RE_GCC/Demo/GenQTest.c:366:13
	bl	MPU_uxQueueMessagesWaiting
.Ltmp34:
	.loc	3 366 13                        @ ../../../CORTEX_MPU_M3_NUCLEO_L152RE_GCC/Demo/GenQTest.c:366:13
	cbz	r0, .LBB1_15
	b	.LBB1_14
.LBB1_14:                               @   in Loop: Header=BB1_1 Depth=1
.Ltmp35:
	.loc	3 368 48 is_stmt 1              @ ../../../CORTEX_MPU_M3_NUCLEO_L152RE_GCC/Demo/GenQTest.c:368:48
	movw	r1, :lower16:xSharedArray
	movt	r1, :upper16:xSharedArray
	movs	r0, #1
	str	r0, [r1]
	.loc	3 369 9                         @ ../../../CORTEX_MPU_M3_NUCLEO_L152RE_GCC/Demo/GenQTest.c:369:9
	b	.LBB1_15
.Ltmp36:
.LBB1_15:                               @   in Loop: Header=BB1_1 Depth=1
	.loc	3 373 13                        @ ../../../CORTEX_MPU_M3_NUCLEO_L152RE_GCC/Demo/GenQTest.c:373:13
	movw	r0, :lower16:xSharedArray
	movt	r0, :upper16:xSharedArray
	ldr	r0, [r0, #4]
	.loc	3 373 51 is_stmt 0              @ ../../../CORTEX_MPU_M3_NUCLEO_L152RE_GCC/Demo/GenQTest.c:373:51
	ldr	r1, [sp, #24]
.Ltmp37:
	.loc	3 373 13                        @ ../../../CORTEX_MPU_M3_NUCLEO_L152RE_GCC/Demo/GenQTest.c:373:13
	cmp	r0, r1
	beq	.LBB1_17
	b	.LBB1_16
.LBB1_16:                               @   in Loop: Header=BB1_1 Depth=1
.Ltmp38:
	.loc	3 375 48 is_stmt 1              @ ../../../CORTEX_MPU_M3_NUCLEO_L152RE_GCC/Demo/GenQTest.c:375:48
	movw	r1, :lower16:xSharedArray
	movt	r1, :upper16:xSharedArray
	movs	r0, #1
	str	r0, [r1]
	.loc	3 376 9                         @ ../../../CORTEX_MPU_M3_NUCLEO_L152RE_GCC/Demo/GenQTest.c:376:9
	b	.LBB1_17
.Ltmp39:
.LBB1_17:                               @   in Loop: Header=BB1_1 Depth=1
	.loc	3 0 9 is_stmt 0                 @ ../../../CORTEX_MPU_M3_NUCLEO_L152RE_GCC/Demo/GenQTest.c:0:9
	movs	r0, #2
.Ltmp40:
	.loc	3 383 21 is_stmt 1              @ ../../../CORTEX_MPU_M3_NUCLEO_L152RE_GCC/Demo/GenQTest.c:383:21
	str	r0, [sp, #24]
	.loc	3 383 14 is_stmt 0              @ ../../../CORTEX_MPU_M3_NUCLEO_L152RE_GCC/Demo/GenQTest.c:383:14
	b	.LBB1_18
.LBB1_18:                               @   Parent Loop BB1_1 Depth=1
                                        @ =>  This Inner Loop Header: Depth=2
.Ltmp41:
	.loc	3 383 26                        @ ../../../CORTEX_MPU_M3_NUCLEO_L152RE_GCC/Demo/GenQTest.c:383:26
	ldr	r0, [sp, #24]
.Ltmp42:
	.loc	3 383 9                         @ ../../../CORTEX_MPU_M3_NUCLEO_L152RE_GCC/Demo/GenQTest.c:383:9
	cmp	r0, #4
	bhi	.LBB1_21
	b	.LBB1_19
.LBB1_19:                               @   in Loop: Header=BB1_18 Depth=2
.Ltmp43:
	.loc	3 385 13 is_stmt 1              @ ../../../CORTEX_MPU_M3_NUCLEO_L152RE_GCC/Demo/GenQTest.c:385:13
	ldr	r0, [sp, #12]
	add	r1, sp, #24
	movs	r3, #0
	mov	r2, r3
	bl	MPU_xQueueGenericSend
	.loc	3 386 9                         @ ../../../CORTEX_MPU_M3_NUCLEO_L152RE_GCC/Demo/GenQTest.c:386:9
	b	.LBB1_20
.Ltmp44:
.LBB1_20:                               @   in Loop: Header=BB1_18 Depth=2
	.loc	3 383 44                        @ ../../../CORTEX_MPU_M3_NUCLEO_L152RE_GCC/Demo/GenQTest.c:383:44
	ldr	r0, [sp, #24]
	adds	r0, r0, #1
	str	r0, [sp, #24]
	.loc	3 383 9 is_stmt 0               @ ../../../CORTEX_MPU_M3_NUCLEO_L152RE_GCC/Demo/GenQTest.c:383:9
	b	.LBB1_18
.Ltmp45:
.LBB1_21:                               @   in Loop: Header=BB1_1 Depth=1
	.loc	3 390 37 is_stmt 1              @ ../../../CORTEX_MPU_M3_NUCLEO_L152RE_GCC/Demo/GenQTest.c:390:37
	ldr	r0, [sp, #12]
	.loc	3 390 13 is_stmt 0              @ ../../../CORTEX_MPU_M3_NUCLEO_L152RE_GCC/Demo/GenQTest.c:390:13
	bl	MPU_uxQueueMessagesWaiting
.Ltmp46:
	.loc	3 390 13                        @ ../../../CORTEX_MPU_M3_NUCLEO_L152RE_GCC/Demo/GenQTest.c:390:13
	cmp	r0, #3
	beq	.LBB1_23
	b	.LBB1_22
.LBB1_22:                               @   in Loop: Header=BB1_1 Depth=1
.Ltmp47:
	.loc	3 392 48 is_stmt 1              @ ../../../CORTEX_MPU_M3_NUCLEO_L152RE_GCC/Demo/GenQTest.c:392:48
	movw	r1, :lower16:xSharedArray
	movt	r1, :upper16:xSharedArray
	movs	r0, #1
	str	r0, [r1]
	.loc	3 393 9                         @ ../../../CORTEX_MPU_M3_NUCLEO_L152RE_GCC/Demo/GenQTest.c:393:9
	b	.LBB1_23
.Ltmp48:
.LBB1_23:                               @   in Loop: Header=BB1_1 Depth=1
	.loc	3 0 9 is_stmt 0                 @ ../../../CORTEX_MPU_M3_NUCLEO_L152RE_GCC/Demo/GenQTest.c:0:9
	movs	r3, #1
	.loc	3 395 16 is_stmt 1              @ ../../../CORTEX_MPU_M3_NUCLEO_L152RE_GCC/Demo/GenQTest.c:395:16
	str	r3, [sp, #8]                    @ 4-byte Spill
	str	r3, [sp, #24]
	.loc	3 396 9                         @ ../../../CORTEX_MPU_M3_NUCLEO_L152RE_GCC/Demo/GenQTest.c:396:9
	ldr	r0, [sp, #12]
	add	r1, sp, #24
	str	r1, [sp]                        @ 4-byte Spill
	movs	r2, #0
	str	r2, [sp, #4]                    @ 4-byte Spill
	bl	MPU_xQueueGenericSend
	ldr	r1, [sp]                        @ 4-byte Reload
	ldr	r2, [sp, #4]                    @ 4-byte Reload
	ldr	r3, [sp, #8]                    @ 4-byte Reload
	.loc	3 397 16                        @ ../../../CORTEX_MPU_M3_NUCLEO_L152RE_GCC/Demo/GenQTest.c:397:16
	str	r2, [sp, #24]
	.loc	3 398 9                         @ ../../../CORTEX_MPU_M3_NUCLEO_L152RE_GCC/Demo/GenQTest.c:398:9
	ldr	r0, [sp, #12]
	bl	MPU_xQueueGenericSend
.Ltmp49:
	.loc	3 402 37                        @ ../../../CORTEX_MPU_M3_NUCLEO_L152RE_GCC/Demo/GenQTest.c:402:37
	ldr	r0, [sp, #12]
	.loc	3 402 13 is_stmt 0              @ ../../../CORTEX_MPU_M3_NUCLEO_L152RE_GCC/Demo/GenQTest.c:402:13
	bl	MPU_uxQueueMessagesWaiting
.Ltmp50:
	.loc	3 402 13                        @ ../../../CORTEX_MPU_M3_NUCLEO_L152RE_GCC/Demo/GenQTest.c:402:13
	cmp	r0, #5
	beq	.LBB1_25
	b	.LBB1_24
.LBB1_24:                               @   in Loop: Header=BB1_1 Depth=1
.Ltmp51:
	.loc	3 404 48 is_stmt 1              @ ../../../CORTEX_MPU_M3_NUCLEO_L152RE_GCC/Demo/GenQTest.c:404:48
	movw	r1, :lower16:xSharedArray
	movt	r1, :upper16:xSharedArray
	movs	r0, #1
	str	r0, [r1]
	.loc	3 405 9                         @ ../../../CORTEX_MPU_M3_NUCLEO_L152RE_GCC/Demo/GenQTest.c:405:9
	b	.LBB1_25
.Ltmp52:
.LBB1_25:                               @   in Loop: Header=BB1_1 Depth=1
	.loc	3 407 13                        @ ../../../CORTEX_MPU_M3_NUCLEO_L152RE_GCC/Demo/GenQTest.c:407:13
	ldr	r0, [sp, #12]
	add	r1, sp, #24
	movs	r2, #0
	movs	r3, #1
	bl	MPU_xQueueGenericSend
.Ltmp53:
	.loc	3 407 13 is_stmt 0              @ ../../../CORTEX_MPU_M3_NUCLEO_L152RE_GCC/Demo/GenQTest.c:407:13
	cbz	r0, .LBB1_27
	b	.LBB1_26
.LBB1_26:                               @   in Loop: Header=BB1_1 Depth=1
.Ltmp54:
	.loc	3 409 48 is_stmt 1              @ ../../../CORTEX_MPU_M3_NUCLEO_L152RE_GCC/Demo/GenQTest.c:409:48
	movw	r1, :lower16:xSharedArray
	movt	r1, :upper16:xSharedArray
	movs	r0, #1
	str	r0, [r1]
	.loc	3 410 9                         @ ../../../CORTEX_MPU_M3_NUCLEO_L152RE_GCC/Demo/GenQTest.c:410:9
	b	.LBB1_27
.Ltmp55:
.LBB1_27:                               @   in Loop: Header=BB1_1 Depth=1
	.loc	3 412 13                        @ ../../../CORTEX_MPU_M3_NUCLEO_L152RE_GCC/Demo/GenQTest.c:412:13
	ldr	r0, [sp, #12]
	add	r1, sp, #24
	movs	r3, #0
	mov	r2, r3
	bl	MPU_xQueueGenericSend
.Ltmp56:
	.loc	3 412 13 is_stmt 0              @ ../../../CORTEX_MPU_M3_NUCLEO_L152RE_GCC/Demo/GenQTest.c:412:13
	cbz	r0, .LBB1_29
	b	.LBB1_28
.LBB1_28:                               @   in Loop: Header=BB1_1 Depth=1
.Ltmp57:
	.loc	3 414 48 is_stmt 1              @ ../../../CORTEX_MPU_M3_NUCLEO_L152RE_GCC/Demo/GenQTest.c:414:48
	movw	r1, :lower16:xSharedArray
	movt	r1, :upper16:xSharedArray
	movs	r0, #1
	str	r0, [r1]
	.loc	3 415 9                         @ ../../../CORTEX_MPU_M3_NUCLEO_L152RE_GCC/Demo/GenQTest.c:415:9
	b	.LBB1_29
.Ltmp58:
.LBB1_29:                               @   in Loop: Header=BB1_1 Depth=1
	.loc	3 0 9 is_stmt 0                 @ ../../../CORTEX_MPU_M3_NUCLEO_L152RE_GCC/Demo/GenQTest.c:0:9
	movs	r0, #0
.Ltmp59:
	.loc	3 422 21 is_stmt 1              @ ../../../CORTEX_MPU_M3_NUCLEO_L152RE_GCC/Demo/GenQTest.c:422:21
	str	r0, [sp, #24]
	.loc	3 422 14 is_stmt 0              @ ../../../CORTEX_MPU_M3_NUCLEO_L152RE_GCC/Demo/GenQTest.c:422:14
	b	.LBB1_30
.LBB1_30:                               @   Parent Loop BB1_1 Depth=1
                                        @ =>  This Inner Loop Header: Depth=2
.Ltmp60:
	.loc	3 422 26                        @ ../../../CORTEX_MPU_M3_NUCLEO_L152RE_GCC/Demo/GenQTest.c:422:26
	ldr	r0, [sp, #24]
.Ltmp61:
	.loc	3 422 9                         @ ../../../CORTEX_MPU_M3_NUCLEO_L152RE_GCC/Demo/GenQTest.c:422:9
	cmp	r0, #4
	bhi	.LBB1_41
	b	.LBB1_31
.LBB1_31:                               @   in Loop: Header=BB1_30 Depth=2
.Ltmp62:
	.loc	3 425 29 is_stmt 1              @ ../../../CORTEX_MPU_M3_NUCLEO_L152RE_GCC/Demo/GenQTest.c:425:29
	ldr	r0, [sp, #12]
	add	r1, sp, #20
	movs	r2, #0
	.loc	3 425 17 is_stmt 0              @ ../../../CORTEX_MPU_M3_NUCLEO_L152RE_GCC/Demo/GenQTest.c:425:17
	bl	MPU_xQueuePeek
.Ltmp63:
	.loc	3 425 17                        @ ../../../CORTEX_MPU_M3_NUCLEO_L152RE_GCC/Demo/GenQTest.c:425:17
	cmp	r0, #1
	beq	.LBB1_33
	b	.LBB1_32
.LBB1_32:                               @   in Loop: Header=BB1_30 Depth=2
.Ltmp64:
	.loc	3 427 52 is_stmt 1              @ ../../../CORTEX_MPU_M3_NUCLEO_L152RE_GCC/Demo/GenQTest.c:427:52
	movw	r1, :lower16:xSharedArray
	movt	r1, :upper16:xSharedArray
	movs	r0, #1
	str	r0, [r1]
	.loc	3 428 13                        @ ../../../CORTEX_MPU_M3_NUCLEO_L152RE_GCC/Demo/GenQTest.c:428:13
	b	.LBB1_33
.Ltmp65:
.LBB1_33:                               @   in Loop: Header=BB1_30 Depth=2
	.loc	3 430 17                        @ ../../../CORTEX_MPU_M3_NUCLEO_L152RE_GCC/Demo/GenQTest.c:430:17
	ldr	r0, [sp, #24]
	.loc	3 430 27 is_stmt 0              @ ../../../CORTEX_MPU_M3_NUCLEO_L152RE_GCC/Demo/GenQTest.c:430:27
	ldr	r1, [sp, #20]
.Ltmp66:
	.loc	3 430 17                        @ ../../../CORTEX_MPU_M3_NUCLEO_L152RE_GCC/Demo/GenQTest.c:430:17
	cmp	r0, r1
	beq	.LBB1_35
	b	.LBB1_34
.LBB1_34:                               @   in Loop: Header=BB1_30 Depth=2
.Ltmp67:
	.loc	3 432 52 is_stmt 1              @ ../../../CORTEX_MPU_M3_NUCLEO_L152RE_GCC/Demo/GenQTest.c:432:52
	movw	r1, :lower16:xSharedArray
	movt	r1, :upper16:xSharedArray
	movs	r0, #1
	str	r0, [r1]
	.loc	3 433 13                        @ ../../../CORTEX_MPU_M3_NUCLEO_L152RE_GCC/Demo/GenQTest.c:433:13
	b	.LBB1_35
.Ltmp68:
.LBB1_35:                               @   in Loop: Header=BB1_30 Depth=2
	.loc	3 437 24                        @ ../../../CORTEX_MPU_M3_NUCLEO_L152RE_GCC/Demo/GenQTest.c:437:24
	ldr	r0, [sp, #20]
	.loc	3 437 23 is_stmt 0              @ ../../../CORTEX_MPU_M3_NUCLEO_L152RE_GCC/Demo/GenQTest.c:437:23
	mvns	r0, r0
	.loc	3 437 21                        @ ../../../CORTEX_MPU_M3_NUCLEO_L152RE_GCC/Demo/GenQTest.c:437:21
	str	r0, [sp, #20]
.Ltmp69:
	.loc	3 439 32 is_stmt 1              @ ../../../CORTEX_MPU_M3_NUCLEO_L152RE_GCC/Demo/GenQTest.c:439:32
	ldr	r0, [sp, #12]
	add	r1, sp, #20
	movs	r2, #0
	.loc	3 439 17 is_stmt 0              @ ../../../CORTEX_MPU_M3_NUCLEO_L152RE_GCC/Demo/GenQTest.c:439:17
	bl	MPU_xQueueReceive
.Ltmp70:
	.loc	3 439 17                        @ ../../../CORTEX_MPU_M3_NUCLEO_L152RE_GCC/Demo/GenQTest.c:439:17
	cmp	r0, #1
	beq	.LBB1_37
	b	.LBB1_36
.LBB1_36:                               @   in Loop: Header=BB1_30 Depth=2
.Ltmp71:
	.loc	3 441 52 is_stmt 1              @ ../../../CORTEX_MPU_M3_NUCLEO_L152RE_GCC/Demo/GenQTest.c:441:52
	movw	r1, :lower16:xSharedArray
	movt	r1, :upper16:xSharedArray
	movs	r0, #1
	str	r0, [r1]
	.loc	3 442 13                        @ ../../../CORTEX_MPU_M3_NUCLEO_L152RE_GCC/Demo/GenQTest.c:442:13
	b	.LBB1_37
.Ltmp72:
.LBB1_37:                               @   in Loop: Header=BB1_30 Depth=2
	.loc	3 444 17                        @ ../../../CORTEX_MPU_M3_NUCLEO_L152RE_GCC/Demo/GenQTest.c:444:17
	ldr	r0, [sp, #24]
	.loc	3 444 27 is_stmt 0              @ ../../../CORTEX_MPU_M3_NUCLEO_L152RE_GCC/Demo/GenQTest.c:444:27
	ldr	r1, [sp, #20]
.Ltmp73:
	.loc	3 444 17                        @ ../../../CORTEX_MPU_M3_NUCLEO_L152RE_GCC/Demo/GenQTest.c:444:17
	cmp	r0, r1
	beq	.LBB1_39
	b	.LBB1_38
.LBB1_38:                               @   in Loop: Header=BB1_30 Depth=2
.Ltmp74:
	.loc	3 446 52 is_stmt 1              @ ../../../CORTEX_MPU_M3_NUCLEO_L152RE_GCC/Demo/GenQTest.c:446:52
	movw	r1, :lower16:xSharedArray
	movt	r1, :upper16:xSharedArray
	movs	r0, #1
	str	r0, [r1]
	.loc	3 447 13                        @ ../../../CORTEX_MPU_M3_NUCLEO_L152RE_GCC/Demo/GenQTest.c:447:13
	b	.LBB1_39
.Ltmp75:
.LBB1_39:                               @   in Loop: Header=BB1_30 Depth=2
	.loc	3 448 9                         @ ../../../CORTEX_MPU_M3_NUCLEO_L152RE_GCC/Demo/GenQTest.c:448:9
	b	.LBB1_40
.Ltmp76:
.LBB1_40:                               @   in Loop: Header=BB1_30 Depth=2
	.loc	3 422 59                        @ ../../../CORTEX_MPU_M3_NUCLEO_L152RE_GCC/Demo/GenQTest.c:422:59
	ldr	r0, [sp, #24]
	adds	r0, r0, #1
	str	r0, [sp, #24]
	.loc	3 422 9 is_stmt 0               @ ../../../CORTEX_MPU_M3_NUCLEO_L152RE_GCC/Demo/GenQTest.c:422:9
	b	.LBB1_30
.Ltmp77:
.LBB1_41:                               @   in Loop: Header=BB1_1 Depth=1
	.loc	3 451 37 is_stmt 1              @ ../../../CORTEX_MPU_M3_NUCLEO_L152RE_GCC/Demo/GenQTest.c:451:37
	ldr	r0, [sp, #12]
	.loc	3 451 13 is_stmt 0              @ ../../../CORTEX_MPU_M3_NUCLEO_L152RE_GCC/Demo/GenQTest.c:451:13
	bl	MPU_uxQueueMessagesWaiting
.Ltmp78:
	.loc	3 451 13                        @ ../../../CORTEX_MPU_M3_NUCLEO_L152RE_GCC/Demo/GenQTest.c:451:13
	cbz	r0, .LBB1_43
	b	.LBB1_42
.LBB1_42:                               @   in Loop: Header=BB1_1 Depth=1
.Ltmp79:
	.loc	3 453 48 is_stmt 1              @ ../../../CORTEX_MPU_M3_NUCLEO_L152RE_GCC/Demo/GenQTest.c:453:48
	movw	r1, :lower16:xSharedArray
	movt	r1, :upper16:xSharedArray
	movs	r0, #1
	str	r0, [r1]
	.loc	3 454 9                         @ ../../../CORTEX_MPU_M3_NUCLEO_L152RE_GCC/Demo/GenQTest.c:454:9
	b	.LBB1_43
.Ltmp80:
.LBB1_43:                               @   in Loop: Header=BB1_1 Depth=1
	.loc	3 0 9 is_stmt 0                 @ ../../../CORTEX_MPU_M3_NUCLEO_L152RE_GCC/Demo/GenQTest.c:0:9
	movs	r0, #10
	.loc	3 462 16 is_stmt 1              @ ../../../CORTEX_MPU_M3_NUCLEO_L152RE_GCC/Demo/GenQTest.c:462:16
	str	r0, [sp, #24]
.Ltmp81:
	.loc	3 464 13                        @ ../../../CORTEX_MPU_M3_NUCLEO_L152RE_GCC/Demo/GenQTest.c:464:13
	ldr	r0, [sp, #12]
	add	r1, sp, #24
	movs	r3, #0
	mov	r2, r3
	bl	MPU_xQueueGenericSend
.Ltmp82:
	.loc	3 464 13 is_stmt 0              @ ../../../CORTEX_MPU_M3_NUCLEO_L152RE_GCC/Demo/GenQTest.c:464:13
	cmp	r0, #1
	beq	.LBB1_45
	b	.LBB1_44
.LBB1_44:                               @   in Loop: Header=BB1_1 Depth=1
.Ltmp83:
	.loc	3 466 48 is_stmt 1              @ ../../../CORTEX_MPU_M3_NUCLEO_L152RE_GCC/Demo/GenQTest.c:466:48
	movw	r1, :lower16:xSharedArray
	movt	r1, :upper16:xSharedArray
	movs	r0, #1
	str	r0, [r1]
	.loc	3 467 9                         @ ../../../CORTEX_MPU_M3_NUCLEO_L152RE_GCC/Demo/GenQTest.c:467:9
	b	.LBB1_45
.Ltmp84:
.LBB1_45:                               @   in Loop: Header=BB1_1 Depth=1
	.loc	3 0 9 is_stmt 0                 @ ../../../CORTEX_MPU_M3_NUCLEO_L152RE_GCC/Demo/GenQTest.c:0:9
	movs	r0, #11
	.loc	3 469 16 is_stmt 1              @ ../../../CORTEX_MPU_M3_NUCLEO_L152RE_GCC/Demo/GenQTest.c:469:16
	str	r0, [sp, #24]
.Ltmp85:
	.loc	3 471 13                        @ ../../../CORTEX_MPU_M3_NUCLEO_L152RE_GCC/Demo/GenQTest.c:471:13
	ldr	r0, [sp, #12]
	add	r1, sp, #24
	movs	r3, #0
	mov	r2, r3
	bl	MPU_xQueueGenericSend
.Ltmp86:
	.loc	3 471 13 is_stmt 0              @ ../../../CORTEX_MPU_M3_NUCLEO_L152RE_GCC/Demo/GenQTest.c:471:13
	cmp	r0, #1
	beq	.LBB1_47
	b	.LBB1_46
.LBB1_46:                               @   in Loop: Header=BB1_1 Depth=1
.Ltmp87:
	.loc	3 473 48 is_stmt 1              @ ../../../CORTEX_MPU_M3_NUCLEO_L152RE_GCC/Demo/GenQTest.c:473:48
	movw	r1, :lower16:xSharedArray
	movt	r1, :upper16:xSharedArray
	movs	r0, #1
	str	r0, [r1]
	.loc	3 474 9                         @ ../../../CORTEX_MPU_M3_NUCLEO_L152RE_GCC/Demo/GenQTest.c:474:9
	b	.LBB1_47
.Ltmp88:
.LBB1_47:                               @   in Loop: Header=BB1_1 Depth=1
	.loc	3 476 37                        @ ../../../CORTEX_MPU_M3_NUCLEO_L152RE_GCC/Demo/GenQTest.c:476:37
	ldr	r0, [sp, #12]
	.loc	3 476 13 is_stmt 0              @ ../../../CORTEX_MPU_M3_NUCLEO_L152RE_GCC/Demo/GenQTest.c:476:13
	bl	MPU_uxQueueMessagesWaiting
.Ltmp89:
	.loc	3 476 13                        @ ../../../CORTEX_MPU_M3_NUCLEO_L152RE_GCC/Demo/GenQTest.c:476:13
	cmp	r0, #2
	beq	.LBB1_49
	b	.LBB1_48
.LBB1_48:                               @   in Loop: Header=BB1_1 Depth=1
.Ltmp90:
	.loc	3 478 48 is_stmt 1              @ ../../../CORTEX_MPU_M3_NUCLEO_L152RE_GCC/Demo/GenQTest.c:478:48
	movw	r1, :lower16:xSharedArray
	movt	r1, :upper16:xSharedArray
	movs	r0, #1
	str	r0, [r1]
	.loc	3 479 9                         @ ../../../CORTEX_MPU_M3_NUCLEO_L152RE_GCC/Demo/GenQTest.c:479:9
	b	.LBB1_49
.Ltmp91:
.LBB1_49:                               @   in Loop: Header=BB1_1 Depth=1
	.loc	3 0 9 is_stmt 0                 @ ../../../CORTEX_MPU_M3_NUCLEO_L152RE_GCC/Demo/GenQTest.c:0:9
	movs	r0, #9
.Ltmp92:
	.loc	3 483 21 is_stmt 1              @ ../../../CORTEX_MPU_M3_NUCLEO_L152RE_GCC/Demo/GenQTest.c:483:21
	str	r0, [sp, #24]
	.loc	3 483 14 is_stmt 0              @ ../../../CORTEX_MPU_M3_NUCLEO_L152RE_GCC/Demo/GenQTest.c:483:14
	b	.LBB1_50
.LBB1_50:                               @   Parent Loop BB1_1 Depth=1
                                        @ =>  This Inner Loop Header: Depth=2
.Ltmp93:
	.loc	3 483 26                        @ ../../../CORTEX_MPU_M3_NUCLEO_L152RE_GCC/Demo/GenQTest.c:483:26
	ldr	r0, [sp, #24]
.Ltmp94:
	.loc	3 483 9                         @ ../../../CORTEX_MPU_M3_NUCLEO_L152RE_GCC/Demo/GenQTest.c:483:9
	cmp	r0, #7
	blo	.LBB1_55
	b	.LBB1_51
.LBB1_51:                               @   in Loop: Header=BB1_50 Depth=2
.Ltmp95:
	.loc	3 485 17 is_stmt 1              @ ../../../CORTEX_MPU_M3_NUCLEO_L152RE_GCC/Demo/GenQTest.c:485:17
	ldr	r0, [sp, #12]
	add	r1, sp, #24
	movs	r2, #0
	movs	r3, #1
	bl	MPU_xQueueGenericSend
.Ltmp96:
	.loc	3 485 17 is_stmt 0              @ ../../../CORTEX_MPU_M3_NUCLEO_L152RE_GCC/Demo/GenQTest.c:485:17
	cmp	r0, #1
	beq	.LBB1_53
	b	.LBB1_52
.LBB1_52:                               @   in Loop: Header=BB1_50 Depth=2
.Ltmp97:
	.loc	3 487 52 is_stmt 1              @ ../../../CORTEX_MPU_M3_NUCLEO_L152RE_GCC/Demo/GenQTest.c:487:52
	movw	r1, :lower16:xSharedArray
	movt	r1, :upper16:xSharedArray
	movs	r0, #1
	str	r0, [r1]
	.loc	3 488 13                        @ ../../../CORTEX_MPU_M3_NUCLEO_L152RE_GCC/Demo/GenQTest.c:488:13
	b	.LBB1_53
.Ltmp98:
.LBB1_53:                               @   in Loop: Header=BB1_50 Depth=2
	.loc	3 489 9                         @ ../../../CORTEX_MPU_M3_NUCLEO_L152RE_GCC/Demo/GenQTest.c:489:9
	b	.LBB1_54
.Ltmp99:
.LBB1_54:                               @   in Loop: Header=BB1_50 Depth=2
	.loc	3 483 45                        @ ../../../CORTEX_MPU_M3_NUCLEO_L152RE_GCC/Demo/GenQTest.c:483:45
	ldr	r0, [sp, #24]
	subs	r0, r0, #1
	str	r0, [sp, #24]
	.loc	3 483 9 is_stmt 0               @ ../../../CORTEX_MPU_M3_NUCLEO_L152RE_GCC/Demo/GenQTest.c:483:9
	b	.LBB1_50
.Ltmp100:
.LBB1_55:                               @   in Loop: Header=BB1_1 Depth=1
	.loc	3 493 37 is_stmt 1              @ ../../../CORTEX_MPU_M3_NUCLEO_L152RE_GCC/Demo/GenQTest.c:493:37
	ldr	r0, [sp, #12]
	.loc	3 493 13 is_stmt 0              @ ../../../CORTEX_MPU_M3_NUCLEO_L152RE_GCC/Demo/GenQTest.c:493:13
	bl	MPU_uxQueueMessagesWaiting
.Ltmp101:
	.loc	3 493 13                        @ ../../../CORTEX_MPU_M3_NUCLEO_L152RE_GCC/Demo/GenQTest.c:493:13
	cmp	r0, #5
	beq	.LBB1_57
	b	.LBB1_56
.LBB1_56:                               @   in Loop: Header=BB1_1 Depth=1
.Ltmp102:
	.loc	3 495 48 is_stmt 1              @ ../../../CORTEX_MPU_M3_NUCLEO_L152RE_GCC/Demo/GenQTest.c:495:48
	movw	r1, :lower16:xSharedArray
	movt	r1, :upper16:xSharedArray
	movs	r0, #1
	str	r0, [r1]
	.loc	3 496 9                         @ ../../../CORTEX_MPU_M3_NUCLEO_L152RE_GCC/Demo/GenQTest.c:496:9
	b	.LBB1_57
.Ltmp103:
.LBB1_57:                               @   in Loop: Header=BB1_1 Depth=1
	.loc	3 498 13                        @ ../../../CORTEX_MPU_M3_NUCLEO_L152RE_GCC/Demo/GenQTest.c:498:13
	ldr	r0, [sp, #12]
	add	r1, sp, #24
	movs	r2, #0
	movs	r3, #1
	bl	MPU_xQueueGenericSend
.Ltmp104:
	.loc	3 498 13 is_stmt 0              @ ../../../CORTEX_MPU_M3_NUCLEO_L152RE_GCC/Demo/GenQTest.c:498:13
	cbz	r0, .LBB1_59
	b	.LBB1_58
.LBB1_58:                               @   in Loop: Header=BB1_1 Depth=1
.Ltmp105:
	.loc	3 500 48 is_stmt 1              @ ../../../CORTEX_MPU_M3_NUCLEO_L152RE_GCC/Demo/GenQTest.c:500:48
	movw	r1, :lower16:xSharedArray
	movt	r1, :upper16:xSharedArray
	movs	r0, #1
	str	r0, [r1]
	.loc	3 501 9                         @ ../../../CORTEX_MPU_M3_NUCLEO_L152RE_GCC/Demo/GenQTest.c:501:9
	b	.LBB1_59
.Ltmp106:
.LBB1_59:                               @   in Loop: Header=BB1_1 Depth=1
	.loc	3 503 13                        @ ../../../CORTEX_MPU_M3_NUCLEO_L152RE_GCC/Demo/GenQTest.c:503:13
	ldr	r0, [sp, #12]
	add	r1, sp, #24
	movs	r3, #0
	mov	r2, r3
	bl	MPU_xQueueGenericSend
.Ltmp107:
	.loc	3 503 13 is_stmt 0              @ ../../../CORTEX_MPU_M3_NUCLEO_L152RE_GCC/Demo/GenQTest.c:503:13
	cbz	r0, .LBB1_61
	b	.LBB1_60
.LBB1_60:                               @   in Loop: Header=BB1_1 Depth=1
.Ltmp108:
	.loc	3 505 48 is_stmt 1              @ ../../../CORTEX_MPU_M3_NUCLEO_L152RE_GCC/Demo/GenQTest.c:505:48
	movw	r1, :lower16:xSharedArray
	movt	r1, :upper16:xSharedArray
	movs	r0, #1
	str	r0, [r1]
	.loc	3 506 9                         @ ../../../CORTEX_MPU_M3_NUCLEO_L152RE_GCC/Demo/GenQTest.c:506:9
	b	.LBB1_61
.Ltmp109:
.LBB1_61:                               @   in Loop: Header=BB1_1 Depth=1
	.loc	3 0 9 is_stmt 0                 @ ../../../CORTEX_MPU_M3_NUCLEO_L152RE_GCC/Demo/GenQTest.c:0:9
	movs	r0, #7
.Ltmp110:
	.loc	3 513 21 is_stmt 1              @ ../../../CORTEX_MPU_M3_NUCLEO_L152RE_GCC/Demo/GenQTest.c:513:21
	str	r0, [sp, #24]
	.loc	3 513 14 is_stmt 0              @ ../../../CORTEX_MPU_M3_NUCLEO_L152RE_GCC/Demo/GenQTest.c:513:14
	b	.LBB1_62
.LBB1_62:                               @   Parent Loop BB1_1 Depth=1
                                        @ =>  This Inner Loop Header: Depth=2
.Ltmp111:
	.loc	3 513 26                        @ ../../../CORTEX_MPU_M3_NUCLEO_L152RE_GCC/Demo/GenQTest.c:513:26
	ldr	r0, [sp, #24]
.Ltmp112:
	.loc	3 513 9                         @ ../../../CORTEX_MPU_M3_NUCLEO_L152RE_GCC/Demo/GenQTest.c:513:9
	cmp	r0, #11
	bhi	.LBB1_69
	b	.LBB1_63
.LBB1_63:                               @   in Loop: Header=BB1_62 Depth=2
.Ltmp113:
	.loc	3 515 32 is_stmt 1              @ ../../../CORTEX_MPU_M3_NUCLEO_L152RE_GCC/Demo/GenQTest.c:515:32
	ldr	r0, [sp, #12]
	add	r1, sp, #20
	movs	r2, #0
	.loc	3 515 17 is_stmt 0              @ ../../../CORTEX_MPU_M3_NUCLEO_L152RE_GCC/Demo/GenQTest.c:515:17
	bl	MPU_xQueueReceive
.Ltmp114:
	.loc	3 515 17                        @ ../../../CORTEX_MPU_M3_NUCLEO_L152RE_GCC/Demo/GenQTest.c:515:17
	cmp	r0, #1
	beq	.LBB1_65
	b	.LBB1_64
.LBB1_64:                               @   in Loop: Header=BB1_62 Depth=2
.Ltmp115:
	.loc	3 517 52 is_stmt 1              @ ../../../CORTEX_MPU_M3_NUCLEO_L152RE_GCC/Demo/GenQTest.c:517:52
	movw	r1, :lower16:xSharedArray
	movt	r1, :upper16:xSharedArray
	movs	r0, #1
	str	r0, [r1]
	.loc	3 518 13                        @ ../../../CORTEX_MPU_M3_NUCLEO_L152RE_GCC/Demo/GenQTest.c:518:13
	b	.LBB1_65
.Ltmp116:
.LBB1_65:                               @   in Loop: Header=BB1_62 Depth=2
	.loc	3 520 17                        @ ../../../CORTEX_MPU_M3_NUCLEO_L152RE_GCC/Demo/GenQTest.c:520:17
	ldr	r0, [sp, #24]
	.loc	3 520 27 is_stmt 0              @ ../../../CORTEX_MPU_M3_NUCLEO_L152RE_GCC/Demo/GenQTest.c:520:27
	ldr	r1, [sp, #20]
.Ltmp117:
	.loc	3 520 17                        @ ../../../CORTEX_MPU_M3_NUCLEO_L152RE_GCC/Demo/GenQTest.c:520:17
	cmp	r0, r1
	beq	.LBB1_67
	b	.LBB1_66
.LBB1_66:                               @   in Loop: Header=BB1_62 Depth=2
.Ltmp118:
	.loc	3 522 52 is_stmt 1              @ ../../../CORTEX_MPU_M3_NUCLEO_L152RE_GCC/Demo/GenQTest.c:522:52
	movw	r1, :lower16:xSharedArray
	movt	r1, :upper16:xSharedArray
	movs	r0, #1
	str	r0, [r1]
	.loc	3 523 13                        @ ../../../CORTEX_MPU_M3_NUCLEO_L152RE_GCC/Demo/GenQTest.c:523:13
	b	.LBB1_67
.Ltmp119:
.LBB1_67:                               @   in Loop: Header=BB1_62 Depth=2
	.loc	3 524 9                         @ ../../../CORTEX_MPU_M3_NUCLEO_L152RE_GCC/Demo/GenQTest.c:524:9
	b	.LBB1_68
.Ltmp120:
.LBB1_68:                               @   in Loop: Header=BB1_62 Depth=2
	.loc	3 513 67                        @ ../../../CORTEX_MPU_M3_NUCLEO_L152RE_GCC/Demo/GenQTest.c:513:67
	ldr	r0, [sp, #24]
	adds	r0, r0, #1
	str	r0, [sp, #24]
	.loc	3 513 9 is_stmt 0               @ ../../../CORTEX_MPU_M3_NUCLEO_L152RE_GCC/Demo/GenQTest.c:513:9
	b	.LBB1_62
.Ltmp121:
.LBB1_69:                               @   in Loop: Header=BB1_1 Depth=1
	.loc	3 526 37 is_stmt 1              @ ../../../CORTEX_MPU_M3_NUCLEO_L152RE_GCC/Demo/GenQTest.c:526:37
	ldr	r0, [sp, #12]
	.loc	3 526 13 is_stmt 0              @ ../../../CORTEX_MPU_M3_NUCLEO_L152RE_GCC/Demo/GenQTest.c:526:13
	bl	MPU_uxQueueMessagesWaiting
.Ltmp122:
	.loc	3 526 13                        @ ../../../CORTEX_MPU_M3_NUCLEO_L152RE_GCC/Demo/GenQTest.c:526:13
	cbz	r0, .LBB1_71
	b	.LBB1_70
.LBB1_70:                               @   in Loop: Header=BB1_1 Depth=1
.Ltmp123:
	.loc	3 528 48 is_stmt 1              @ ../../../CORTEX_MPU_M3_NUCLEO_L152RE_GCC/Demo/GenQTest.c:528:48
	movw	r1, :lower16:xSharedArray
	movt	r1, :upper16:xSharedArray
	movs	r0, #1
	str	r0, [r1]
	.loc	3 529 9                         @ ../../../CORTEX_MPU_M3_NUCLEO_L152RE_GCC/Demo/GenQTest.c:529:9
	b	.LBB1_71
.Ltmp124:
.LBB1_71:                               @   in Loop: Header=BB1_1 Depth=1
	.loc	3 533 43                        @ ../../../CORTEX_MPU_M3_NUCLEO_L152RE_GCC/Demo/GenQTest.c:533:43
	movw	r1, :lower16:xSharedArray
	movt	r1, :upper16:xSharedArray
	ldr	r0, [r1, #4]
	adds	r0, r0, #1
	str	r0, [r1, #4]
.Ltmp125:
	.loc	3 320 5                         @ ../../../CORTEX_MPU_M3_NUCLEO_L152RE_GCC/Demo/GenQTest.c:320:5
	b	.LBB1_1
.Ltmp126:
.Lfunc_end1:
	.size	prvSendFrontAndBackTest, .Lfunc_end1-prvSendFrontAndBackTest
	.cfi_endproc
	.cantunwind
	.fnend
                                        @ -- End function
	.section	.text.prvLowPriorityMutexTask,"ax",%progbits
	.p2align	1                               @ -- Begin function prvLowPriorityMutexTask
	.type	prvLowPriorityMutexTask,%function
	.code	16                              @ @prvLowPriorityMutexTask
	.thumb_func
prvLowPriorityMutexTask:
.Lfunc_begin2:
	.loc	3 1003 0                        @ ../../../CORTEX_MPU_M3_NUCLEO_L152RE_GCC/Demo/GenQTest.c:1003:0
	.fnstart
	.cfi_startproc
@ %bb.0:
	.save	{r7, lr}
	push	{r7, lr}
	.cfi_def_cfa_offset 8
	.cfi_offset lr, -4
	.cfi_offset r7, -8
	.pad	#16
	sub	sp, #16
	.cfi_def_cfa_offset 24
	str	r0, [sp, #12]
.Ltmp127:
	.loc	3 1004 54 prologue_end          @ ../../../CORTEX_MPU_M3_NUCLEO_L152RE_GCC/Demo/GenQTest.c:1004:54
	ldr	r0, [sp, #12]
	.loc	3 1004 23 is_stmt 0             @ ../../../CORTEX_MPU_M3_NUCLEO_L152RE_GCC/Demo/GenQTest.c:1004:23
	str	r0, [sp, #8]
	movs	r0, #1
	.loc	3 1016 19 is_stmt 1             @ ../../../CORTEX_MPU_M3_NUCLEO_L152RE_GCC/Demo/GenQTest.c:1016:19
	bl	MPU_xQueueCreateMutex
	.loc	3 1016 17 is_stmt 0             @ ../../../CORTEX_MPU_M3_NUCLEO_L152RE_GCC/Demo/GenQTest.c:1016:17
	str	r0, [sp, #4]
.Ltmp128:
	.loc	3 1017 5 is_stmt 1              @ ../../../CORTEX_MPU_M3_NUCLEO_L152RE_GCC/Demo/GenQTest.c:1017:5
	ldr	r0, [sp, #4]
.Ltmp129:
	.loc	3 1017 5 is_stmt 0              @ ../../../CORTEX_MPU_M3_NUCLEO_L152RE_GCC/Demo/GenQTest.c:1017:5
	cbnz	r0, .LBB2_3
	b	.LBB2_1
.LBB2_1:
.Ltmp130:
	.loc	3 1017 5                        @ ../../../CORTEX_MPU_M3_NUCLEO_L152RE_GCC/Demo/GenQTest.c:1017:5
	@APP
	cpsid i
	@NO_APP
	b	.LBB2_2
.LBB2_2:                                @ =>This Inner Loop Header: Depth=1
.Ltmp131:
	.loc	3 1017 5                        @ ../../../CORTEX_MPU_M3_NUCLEO_L152RE_GCC/Demo/GenQTest.c:1017:5
	b	.LBB2_2
.Ltmp132:
.LBB2_3:
	.loc	3 1019 5 is_stmt 1              @ ../../../CORTEX_MPU_M3_NUCLEO_L152RE_GCC/Demo/GenQTest.c:1019:5
	b	.LBB2_4
.LBB2_4:                                @ =>This Inner Loop Header: Depth=1
.Ltmp133:
	.loc	3 1024 50                       @ ../../../CORTEX_MPU_M3_NUCLEO_L152RE_GCC/Demo/GenQTest.c:1024:50
	ldr	r0, [sp, #8]
	.loc	3 1024 58 is_stmt 0             @ ../../../CORTEX_MPU_M3_NUCLEO_L152RE_GCC/Demo/GenQTest.c:1024:58
	ldr	r1, [sp, #4]
	.loc	3 1024 9                        @ ../../../CORTEX_MPU_M3_NUCLEO_L152RE_GCC/Demo/GenQTest.c:1024:9
	bl	prvTakeTwoMutexesReturnInDifferentOrder
	.loc	3 1027 43 is_stmt 1             @ ../../../CORTEX_MPU_M3_NUCLEO_L152RE_GCC/Demo/GenQTest.c:1027:43
	movw	r1, :lower16:xSharedArray
	movt	r1, :upper16:xSharedArray
	str	r1, [sp]                        @ 4-byte Spill
	ldr	r0, [r1, #8]
	adds	r0, r0, #1
	str	r0, [r1, #8]
	.loc	3 1035 45                       @ ../../../CORTEX_MPU_M3_NUCLEO_L152RE_GCC/Demo/GenQTest.c:1035:45
	ldr	r0, [sp, #8]
	.loc	3 1035 53 is_stmt 0             @ ../../../CORTEX_MPU_M3_NUCLEO_L152RE_GCC/Demo/GenQTest.c:1035:53
	ldr	r1, [sp, #4]
	.loc	3 1035 9                        @ ../../../CORTEX_MPU_M3_NUCLEO_L152RE_GCC/Demo/GenQTest.c:1035:9
	bl	prvTakeTwoMutexesReturnInSameOrder
	ldr	r1, [sp]                        @ 4-byte Reload
	.loc	3 1038 43 is_stmt 1             @ ../../../CORTEX_MPU_M3_NUCLEO_L152RE_GCC/Demo/GenQTest.c:1038:43
	ldr	r0, [r1, #8]
	adds	r0, r0, #1
	str	r0, [r1, #8]
.Ltmp134:
	.loc	3 1049 37                       @ ../../../CORTEX_MPU_M3_NUCLEO_L152RE_GCC/Demo/GenQTest.c:1049:37
	ldr	r0, [sp, #8]
	.loc	3 1049 13 is_stmt 0             @ ../../../CORTEX_MPU_M3_NUCLEO_L152RE_GCC/Demo/GenQTest.c:1049:13
	bl	prvHighPriorityTimeout
.Ltmp135:
	.loc	3 1019 5 is_stmt 1              @ ../../../CORTEX_MPU_M3_NUCLEO_L152RE_GCC/Demo/GenQTest.c:1019:5
	b	.LBB2_4
.Ltmp136:
.Lfunc_end2:
	.size	prvLowPriorityMutexTask, .Lfunc_end2-prvLowPriorityMutexTask
	.cfi_endproc
	.cantunwind
	.fnend
                                        @ -- End function
	.section	.text.prvMediumPriorityMutexTask,"ax",%progbits
	.p2align	1                               @ -- Begin function prvMediumPriorityMutexTask
	.type	prvMediumPriorityMutexTask,%function
	.code	16                              @ @prvMediumPriorityMutexTask
	.thumb_func
prvMediumPriorityMutexTask:
.Lfunc_begin3:
	.loc	3 1057 0                        @ ../../../CORTEX_MPU_M3_NUCLEO_L152RE_GCC/Demo/GenQTest.c:1057:0
	.fnstart
	.cfi_startproc
@ %bb.0:
	.save	{r7, lr}
	push	{r7, lr}
	.cfi_def_cfa_offset 8
	.cfi_offset lr, -4
	.cfi_offset r7, -8
	.pad	#8
	sub	sp, #8
	.cfi_def_cfa_offset 16
	str	r0, [sp, #4]
.Ltmp137:
	.loc	3 1060 5 prologue_end           @ ../../../CORTEX_MPU_M3_NUCLEO_L152RE_GCC/Demo/GenQTest.c:1060:5
	b	.LBB3_1
.LBB3_1:                                @ =>This Inner Loop Header: Depth=1
	.loc	3 0 5 is_stmt 0                 @ ../../../CORTEX_MPU_M3_NUCLEO_L152RE_GCC/Demo/GenQTest.c:0:5
	movs	r0, #0
.Ltmp138:
	.loc	3 1064 9 is_stmt 1              @ ../../../CORTEX_MPU_M3_NUCLEO_L152RE_GCC/Demo/GenQTest.c:1064:9
	bl	MPU_vTaskSuspend
	.loc	3 1069 45                       @ ../../../CORTEX_MPU_M3_NUCLEO_L152RE_GCC/Demo/GenQTest.c:1069:45
	movw	r1, :lower16:xSharedArray
	movt	r1, :upper16:xSharedArray
	ldr	r0, [r1, #16]
	adds	r0, r0, #1
	str	r0, [r1, #16]
.Ltmp139:
	.loc	3 1060 5                        @ ../../../CORTEX_MPU_M3_NUCLEO_L152RE_GCC/Demo/GenQTest.c:1060:5
	b	.LBB3_1
.Ltmp140:
.Lfunc_end3:
	.size	prvMediumPriorityMutexTask, .Lfunc_end3-prvMediumPriorityMutexTask
	.cfi_endproc
	.cantunwind
	.fnend
                                        @ -- End function
	.section	.text.prvHighPriorityMutexTask,"ax",%progbits
	.p2align	1                               @ -- Begin function prvHighPriorityMutexTask
	.type	prvHighPriorityMutexTask,%function
	.code	16                              @ @prvHighPriorityMutexTask
	.thumb_func
prvHighPriorityMutexTask:
.Lfunc_begin4:
	.loc	3 1075 0                        @ ../../../CORTEX_MPU_M3_NUCLEO_L152RE_GCC/Demo/GenQTest.c:1075:0
	.fnstart
	.cfi_startproc
@ %bb.0:
	.save	{r7, lr}
	push	{r7, lr}
	.cfi_def_cfa_offset 8
	.cfi_offset lr, -4
	.cfi_offset r7, -8
	.pad	#16
	sub	sp, #16
	.cfi_def_cfa_offset 24
	str	r0, [sp, #12]
.Ltmp141:
	.loc	3 1076 54 prologue_end          @ ../../../CORTEX_MPU_M3_NUCLEO_L152RE_GCC/Demo/GenQTest.c:1076:54
	ldr	r0, [sp, #12]
	.loc	3 1076 23 is_stmt 0             @ ../../../CORTEX_MPU_M3_NUCLEO_L152RE_GCC/Demo/GenQTest.c:1076:23
	str	r0, [sp, #8]
	.loc	3 1078 5 is_stmt 1              @ ../../../CORTEX_MPU_M3_NUCLEO_L152RE_GCC/Demo/GenQTest.c:1078:5
	b	.LBB4_1
.LBB4_1:                                @ =>This Inner Loop Header: Depth=1
	.loc	3 0 5 is_stmt 0                 @ ../../../CORTEX_MPU_M3_NUCLEO_L152RE_GCC/Demo/GenQTest.c:0:5
	movs	r0, #0
.Ltmp142:
	.loc	3 1082 9 is_stmt 1              @ ../../../CORTEX_MPU_M3_NUCLEO_L152RE_GCC/Demo/GenQTest.c:1082:9
	str	r0, [sp, #4]                    @ 4-byte Spill
	bl	MPU_vTaskSuspend
	ldr	r1, [sp, #4]                    @ 4-byte Reload
.Ltmp143:
	.loc	3 1087 13                       @ ../../../CORTEX_MPU_M3_NUCLEO_L152RE_GCC/Demo/GenQTest.c:1087:13
	ldr	r0, [sp, #8]
	mvns	r1, r1
	bl	MPU_xQueueSemaphoreTake
.Ltmp144:
	.loc	3 1087 13 is_stmt 0             @ ../../../CORTEX_MPU_M3_NUCLEO_L152RE_GCC/Demo/GenQTest.c:1087:13
	cmp	r0, #1
	beq	.LBB4_6
	b	.LBB4_2
.LBB4_2:                                @   in Loop: Header=BB4_1 Depth=1
.Ltmp145:
	.loc	3 1091 17 is_stmt 1             @ ../../../CORTEX_MPU_M3_NUCLEO_L152RE_GCC/Demo/GenQTest.c:1091:17
	movw	r0, :lower16:xSharedArray
	movt	r0, :upper16:xSharedArray
	ldr	r0, [r0, #20]
.Ltmp146:
	.loc	3 1091 17 is_stmt 0             @ ../../../CORTEX_MPU_M3_NUCLEO_L152RE_GCC/Demo/GenQTest.c:1091:17
	cbnz	r0, .LBB4_4
	b	.LBB4_3
.LBB4_3:                                @   in Loop: Header=BB4_1 Depth=1
.Ltmp147:
	.loc	3 1093 52 is_stmt 1             @ ../../../CORTEX_MPU_M3_NUCLEO_L152RE_GCC/Demo/GenQTest.c:1093:52
	movw	r1, :lower16:xSharedArray
	movt	r1, :upper16:xSharedArray
	movs	r0, #1
	str	r0, [r1]
	.loc	3 1094 13                       @ ../../../CORTEX_MPU_M3_NUCLEO_L152RE_GCC/Demo/GenQTest.c:1094:13
	b	.LBB4_5
.Ltmp148:
.LBB4_4:                                @   in Loop: Header=BB4_1 Depth=1
	.loc	3 1097 51                       @ ../../../CORTEX_MPU_M3_NUCLEO_L152RE_GCC/Demo/GenQTest.c:1097:51
	movw	r1, :lower16:xSharedArray
	movt	r1, :upper16:xSharedArray
	movs	r0, #0
	str	r0, [r1, #20]
	b	.LBB4_5
.Ltmp149:
.LBB4_5:                                @   in Loop: Header=BB4_1 Depth=1
	.loc	3 1099 9                        @ ../../../CORTEX_MPU_M3_NUCLEO_L152RE_GCC/Demo/GenQTest.c:1099:9
	b	.LBB4_9
.Ltmp150:
.LBB4_6:                                @   in Loop: Header=BB4_1 Depth=1
	.loc	3 1104 17                       @ ../../../CORTEX_MPU_M3_NUCLEO_L152RE_GCC/Demo/GenQTest.c:1104:17
	ldr	r0, [sp, #8]
	movs	r3, #0
	mov	r1, r3
	mov	r2, r3
	bl	MPU_xQueueGenericSend
.Ltmp151:
	.loc	3 1104 17 is_stmt 0             @ ../../../CORTEX_MPU_M3_NUCLEO_L152RE_GCC/Demo/GenQTest.c:1104:17
	cmp	r0, #1
	beq	.LBB4_8
	b	.LBB4_7
.LBB4_7:                                @   in Loop: Header=BB4_1 Depth=1
.Ltmp152:
	.loc	3 1106 52 is_stmt 1             @ ../../../CORTEX_MPU_M3_NUCLEO_L152RE_GCC/Demo/GenQTest.c:1106:52
	movw	r1, :lower16:xSharedArray
	movt	r1, :upper16:xSharedArray
	movs	r0, #1
	str	r0, [r1]
	.loc	3 1107 13                       @ ../../../CORTEX_MPU_M3_NUCLEO_L152RE_GCC/Demo/GenQTest.c:1107:13
	b	.LBB4_8
.Ltmp153:
.LBB4_8:                                @   in Loop: Header=BB4_1 Depth=1
	.loc	3 0 13 is_stmt 0                @ ../../../CORTEX_MPU_M3_NUCLEO_L152RE_GCC/Demo/GenQTest.c:0:13
	b	.LBB4_9
.LBB4_9:                                @   in Loop: Header=BB4_1 Depth=1
	.loc	3 1078 5 is_stmt 1              @ ../../../CORTEX_MPU_M3_NUCLEO_L152RE_GCC/Demo/GenQTest.c:1078:5
	b	.LBB4_1
.Ltmp154:
.Lfunc_end4:
	.size	prvHighPriorityMutexTask, .Lfunc_end4-prvHighPriorityMutexTask
	.cfi_endproc
	.cantunwind
	.fnend
                                        @ -- End function
	.section	.text.xAreGenericQueueTasksStillRunning,"ax",%progbits
	.hidden	xAreGenericQueueTasksStillRunning @ -- Begin function xAreGenericQueueTasksStillRunning
	.globl	xAreGenericQueueTasksStillRunning
	.p2align	1
	.type	xAreGenericQueueTasksStillRunning,%function
	.code	16                              @ @xAreGenericQueueTasksStillRunning
	.thumb_func
xAreGenericQueueTasksStillRunning:
.Lfunc_begin5:
	.loc	3 1116 0                        @ ../../../CORTEX_MPU_M3_NUCLEO_L152RE_GCC/Demo/GenQTest.c:1116:0
	.fnstart
	.cfi_startproc
@ %bb.0:
	.loc	3 1121 9 prologue_end           @ ../../../CORTEX_MPU_M3_NUCLEO_L152RE_GCC/Demo/GenQTest.c:1121:9
	movw	r0, :lower16:xAreGenericQueueTasksStillRunning.ulLastLoopCounter
	movt	r0, :upper16:xAreGenericQueueTasksStillRunning.ulLastLoopCounter
	ldr	r0, [r0]
	.loc	3 1121 30 is_stmt 0             @ ../../../CORTEX_MPU_M3_NUCLEO_L152RE_GCC/Demo/GenQTest.c:1121:30
	movw	r1, :lower16:xSharedArray
	movt	r1, :upper16:xSharedArray
	ldr	r1, [r1, #4]
.Ltmp155:
	.loc	3 1121 9                        @ ../../../CORTEX_MPU_M3_NUCLEO_L152RE_GCC/Demo/GenQTest.c:1121:9
	cmp	r0, r1
	bne	.LBB5_2
	b	.LBB5_1
.LBB5_1:
.Ltmp156:
	.loc	3 1123 44 is_stmt 1             @ ../../../CORTEX_MPU_M3_NUCLEO_L152RE_GCC/Demo/GenQTest.c:1123:44
	movw	r1, :lower16:xSharedArray
	movt	r1, :upper16:xSharedArray
	movs	r0, #1
	str	r0, [r1]
	.loc	3 1124 5                        @ ../../../CORTEX_MPU_M3_NUCLEO_L152RE_GCC/Demo/GenQTest.c:1124:5
	b	.LBB5_2
.Ltmp157:
.LBB5_2:
	.loc	3 1126 9                        @ ../../../CORTEX_MPU_M3_NUCLEO_L152RE_GCC/Demo/GenQTest.c:1126:9
	movw	r0, :lower16:xAreGenericQueueTasksStillRunning.ulLastLoopCounter2
	movt	r0, :upper16:xAreGenericQueueTasksStillRunning.ulLastLoopCounter2
	ldr	r0, [r0]
	.loc	3 1126 31 is_stmt 0             @ ../../../CORTEX_MPU_M3_NUCLEO_L152RE_GCC/Demo/GenQTest.c:1126:31
	movw	r1, :lower16:xSharedArray
	movt	r1, :upper16:xSharedArray
	ldr	r1, [r1, #8]
.Ltmp158:
	.loc	3 1126 9                        @ ../../../CORTEX_MPU_M3_NUCLEO_L152RE_GCC/Demo/GenQTest.c:1126:9
	cmp	r0, r1
	bne	.LBB5_4
	b	.LBB5_3
.LBB5_3:
.Ltmp159:
	.loc	3 1128 44 is_stmt 1             @ ../../../CORTEX_MPU_M3_NUCLEO_L152RE_GCC/Demo/GenQTest.c:1128:44
	movw	r1, :lower16:xSharedArray
	movt	r1, :upper16:xSharedArray
	movs	r0, #1
	str	r0, [r1]
	.loc	3 1129 5                        @ ../../../CORTEX_MPU_M3_NUCLEO_L152RE_GCC/Demo/GenQTest.c:1129:5
	b	.LBB5_4
.Ltmp160:
.LBB5_4:
	.loc	3 1131 25                       @ ../../../CORTEX_MPU_M3_NUCLEO_L152RE_GCC/Demo/GenQTest.c:1131:25
	movw	r0, :lower16:xSharedArray
	movt	r0, :upper16:xSharedArray
	ldr	r1, [r0, #4]
	.loc	3 1131 23 is_stmt 0             @ ../../../CORTEX_MPU_M3_NUCLEO_L152RE_GCC/Demo/GenQTest.c:1131:23
	movw	r2, :lower16:xAreGenericQueueTasksStillRunning.ulLastLoopCounter
	movt	r2, :upper16:xAreGenericQueueTasksStillRunning.ulLastLoopCounter
	str	r1, [r2]
	.loc	3 1132 26 is_stmt 1             @ ../../../CORTEX_MPU_M3_NUCLEO_L152RE_GCC/Demo/GenQTest.c:1132:26
	ldr	r1, [r0, #8]
	.loc	3 1132 24 is_stmt 0             @ ../../../CORTEX_MPU_M3_NUCLEO_L152RE_GCC/Demo/GenQTest.c:1132:24
	movw	r2, :lower16:xAreGenericQueueTasksStillRunning.ulLastLoopCounter2
	movt	r2, :upper16:xAreGenericQueueTasksStillRunning.ulLastLoopCounter2
	str	r1, [r2]
	.loc	3 1137 28 is_stmt 1             @ ../../../CORTEX_MPU_M3_NUCLEO_L152RE_GCC/Demo/GenQTest.c:1137:28
	ldr	r0, [r0]
	.loc	3 1137 27 is_stmt 0             @ ../../../CORTEX_MPU_M3_NUCLEO_L152RE_GCC/Demo/GenQTest.c:1137:27
	rsbs	r1, r0, #0
	adcs	r0, r1
	.loc	3 1137 5                        @ ../../../CORTEX_MPU_M3_NUCLEO_L152RE_GCC/Demo/GenQTest.c:1137:5
	bx	lr
.Ltmp161:
.Lfunc_end5:
	.size	xAreGenericQueueTasksStillRunning, .Lfunc_end5-xAreGenericQueueTasksStillRunning
	.cfi_endproc
	.cantunwind
	.fnend
                                        @ -- End function
	.section	.text.prvTakeTwoMutexesReturnInDifferentOrder,"ax",%progbits
	.p2align	1                               @ -- Begin function prvTakeTwoMutexesReturnInDifferentOrder
	.type	prvTakeTwoMutexesReturnInDifferentOrder,%function
	.code	16                              @ @prvTakeTwoMutexesReturnInDifferentOrder
	.thumb_func
prvTakeTwoMutexesReturnInDifferentOrder:
.Lfunc_begin6:
	.loc	3 753 0 is_stmt 1               @ ../../../CORTEX_MPU_M3_NUCLEO_L152RE_GCC/Demo/GenQTest.c:753:0
	.fnstart
	.cfi_startproc
@ %bb.0:
	.save	{r7, lr}
	push	{r7, lr}
	.cfi_def_cfa_offset 8
	.cfi_offset lr, -4
	.cfi_offset r7, -8
	.pad	#16
	sub	sp, #16
	.cfi_def_cfa_offset 24
	str	r0, [sp, #12]
	str	r1, [sp, #8]
.Ltmp162:
	.loc	3 755 9 prologue_end            @ ../../../CORTEX_MPU_M3_NUCLEO_L152RE_GCC/Demo/GenQTest.c:755:9
	ldr	r0, [sp, #12]
	movs	r1, #0
	bl	MPU_xQueueSemaphoreTake
.Ltmp163:
	.loc	3 755 9 is_stmt 0               @ ../../../CORTEX_MPU_M3_NUCLEO_L152RE_GCC/Demo/GenQTest.c:755:9
	cmp	r0, #1
	beq	.LBB6_2
	b	.LBB6_1
.LBB6_1:
.Ltmp164:
	.loc	3 757 44 is_stmt 1              @ ../../../CORTEX_MPU_M3_NUCLEO_L152RE_GCC/Demo/GenQTest.c:757:44
	movw	r1, :lower16:xSharedArray
	movt	r1, :upper16:xSharedArray
	movs	r0, #1
	str	r0, [r1]
	.loc	3 758 5                         @ ../../../CORTEX_MPU_M3_NUCLEO_L152RE_GCC/Demo/GenQTest.c:758:5
	b	.LBB6_2
.Ltmp165:
.LBB6_2:
	.loc	3 761 42                        @ ../../../CORTEX_MPU_M3_NUCLEO_L152RE_GCC/Demo/GenQTest.c:761:42
	movw	r1, :lower16:xSharedArray
	movt	r1, :upper16:xSharedArray
	movs	r0, #0
	str	r0, [r1, #16]
.Ltmp166:
	.loc	3 765 9                         @ ../../../CORTEX_MPU_M3_NUCLEO_L152RE_GCC/Demo/GenQTest.c:765:9
	bl	MPU_uxTaskPriorityGet
.Ltmp167:
	.loc	3 765 9 is_stmt 0               @ ../../../CORTEX_MPU_M3_NUCLEO_L152RE_GCC/Demo/GenQTest.c:765:9
	cbz	r0, .LBB6_4
	b	.LBB6_3
.LBB6_3:
.Ltmp168:
	.loc	3 767 44 is_stmt 1              @ ../../../CORTEX_MPU_M3_NUCLEO_L152RE_GCC/Demo/GenQTest.c:767:44
	movw	r1, :lower16:xSharedArray
	movt	r1, :upper16:xSharedArray
	movs	r0, #1
	str	r0, [r1]
	.loc	3 768 5                         @ ../../../CORTEX_MPU_M3_NUCLEO_L152RE_GCC/Demo/GenQTest.c:768:5
	b	.LBB6_4
.Ltmp169:
.LBB6_4:
	.loc	3 772 18                        @ ../../../CORTEX_MPU_M3_NUCLEO_L152RE_GCC/Demo/GenQTest.c:772:18
	movw	r0, :lower16:xLocalTaskHandles
	movt	r0, :upper16:xLocalTaskHandles
	str	r0, [sp, #4]                    @ 4-byte Spill
	ldr	r0, [r0]
	.loc	3 772 5 is_stmt 0               @ ../../../CORTEX_MPU_M3_NUCLEO_L152RE_GCC/Demo/GenQTest.c:772:5
	bl	MPU_vTaskResume
	ldr	r0, [sp, #4]                    @ 4-byte Reload
.Ltmp170:
	.loc	3 782 9 is_stmt 1               @ ../../../CORTEX_MPU_M3_NUCLEO_L152RE_GCC/Demo/GenQTest.c:782:9
	ldr	r0, [r0]
	bl	MPU_eTaskGetState
.Ltmp171:
	.loc	3 782 9 is_stmt 0               @ ../../../CORTEX_MPU_M3_NUCLEO_L152RE_GCC/Demo/GenQTest.c:782:9
	cmp	r0, #2
	beq	.LBB6_7
	b	.LBB6_5
.LBB6_5:
.Ltmp172:
	.loc	3 782 9                         @ ../../../CORTEX_MPU_M3_NUCLEO_L152RE_GCC/Demo/GenQTest.c:782:9
	@APP
	cpsid i
	@NO_APP
	b	.LBB6_6
.LBB6_6:                                @ =>This Inner Loop Header: Depth=1
.Ltmp173:
	.loc	3 782 9                         @ ../../../CORTEX_MPU_M3_NUCLEO_L152RE_GCC/Demo/GenQTest.c:782:9
	b	.LBB6_6
.Ltmp174:
.LBB6_7:
	.loc	3 0 9                           @ ../../../CORTEX_MPU_M3_NUCLEO_L152RE_GCC/Demo/GenQTest.c:0:9
	movs	r0, #0
.Ltmp175:
	.loc	3 789 9 is_stmt 1               @ ../../../CORTEX_MPU_M3_NUCLEO_L152RE_GCC/Demo/GenQTest.c:789:9
	bl	MPU_uxTaskPriorityGet
.Ltmp176:
	.loc	3 789 9 is_stmt 0               @ ../../../CORTEX_MPU_M3_NUCLEO_L152RE_GCC/Demo/GenQTest.c:789:9
	cmp	r0, #3
	beq	.LBB6_9
	b	.LBB6_8
.LBB6_8:
.Ltmp177:
	.loc	3 791 44 is_stmt 1              @ ../../../CORTEX_MPU_M3_NUCLEO_L152RE_GCC/Demo/GenQTest.c:791:44
	movw	r1, :lower16:xSharedArray
	movt	r1, :upper16:xSharedArray
	movs	r0, #1
	str	r0, [r1]
	.loc	3 792 5                         @ ../../../CORTEX_MPU_M3_NUCLEO_L152RE_GCC/Demo/GenQTest.c:792:5
	b	.LBB6_9
.Ltmp178:
.LBB6_9:
	.loc	3 0 5 is_stmt 0                 @ ../../../CORTEX_MPU_M3_NUCLEO_L152RE_GCC/Demo/GenQTest.c:0:5
	movs	r0, #0
	str	r0, [sp]                        @ 4-byte Spill
	movs	r1, #1
	.loc	3 797 5 is_stmt 1               @ ../../../CORTEX_MPU_M3_NUCLEO_L152RE_GCC/Demo/GenQTest.c:797:5
	bl	MPU_vTaskPrioritySet
	ldr	r0, [sp]                        @ 4-byte Reload
.Ltmp179:
	.loc	3 799 9                         @ ../../../CORTEX_MPU_M3_NUCLEO_L152RE_GCC/Demo/GenQTest.c:799:9
	bl	MPU_uxTaskPriorityGet
.Ltmp180:
	.loc	3 799 9 is_stmt 0               @ ../../../CORTEX_MPU_M3_NUCLEO_L152RE_GCC/Demo/GenQTest.c:799:9
	cmp	r0, #3
	beq	.LBB6_11
	b	.LBB6_10
.LBB6_10:
.Ltmp181:
	.loc	3 801 44 is_stmt 1              @ ../../../CORTEX_MPU_M3_NUCLEO_L152RE_GCC/Demo/GenQTest.c:801:44
	movw	r1, :lower16:xSharedArray
	movt	r1, :upper16:xSharedArray
	movs	r0, #1
	str	r0, [r1]
	.loc	3 802 5                         @ ../../../CORTEX_MPU_M3_NUCLEO_L152RE_GCC/Demo/GenQTest.c:802:5
	b	.LBB6_11
.Ltmp182:
.LBB6_11:
	.loc	3 807 18                        @ ../../../CORTEX_MPU_M3_NUCLEO_L152RE_GCC/Demo/GenQTest.c:807:18
	movw	r0, :lower16:xLocalTaskHandles
	movt	r0, :upper16:xLocalTaskHandles
	ldr	r0, [r0, #4]
	.loc	3 807 5 is_stmt 0               @ ../../../CORTEX_MPU_M3_NUCLEO_L152RE_GCC/Demo/GenQTest.c:807:5
	bl	MPU_vTaskResume
.Ltmp183:
	.loc	3 811 9 is_stmt 1               @ ../../../CORTEX_MPU_M3_NUCLEO_L152RE_GCC/Demo/GenQTest.c:811:9
	movw	r0, :lower16:xSharedArray
	movt	r0, :upper16:xSharedArray
	ldr	r0, [r0, #16]
.Ltmp184:
	.loc	3 811 9 is_stmt 0               @ ../../../CORTEX_MPU_M3_NUCLEO_L152RE_GCC/Demo/GenQTest.c:811:9
	cbz	r0, .LBB6_13
	b	.LBB6_12
.LBB6_12:
.Ltmp185:
	.loc	3 813 44 is_stmt 1              @ ../../../CORTEX_MPU_M3_NUCLEO_L152RE_GCC/Demo/GenQTest.c:813:44
	movw	r1, :lower16:xSharedArray
	movt	r1, :upper16:xSharedArray
	movs	r0, #1
	str	r0, [r1]
	.loc	3 814 5                         @ ../../../CORTEX_MPU_M3_NUCLEO_L152RE_GCC/Demo/GenQTest.c:814:5
	b	.LBB6_13
.Ltmp186:
.LBB6_13:
	.loc	3 817 9                         @ ../../../CORTEX_MPU_M3_NUCLEO_L152RE_GCC/Demo/GenQTest.c:817:9
	ldr	r0, [sp, #8]
	movs	r1, #0
	bl	MPU_xQueueSemaphoreTake
.Ltmp187:
	.loc	3 817 9 is_stmt 0               @ ../../../CORTEX_MPU_M3_NUCLEO_L152RE_GCC/Demo/GenQTest.c:817:9
	cmp	r0, #1
	beq	.LBB6_15
	b	.LBB6_14
.LBB6_14:
.Ltmp188:
	.loc	3 819 44 is_stmt 1              @ ../../../CORTEX_MPU_M3_NUCLEO_L152RE_GCC/Demo/GenQTest.c:819:44
	movw	r1, :lower16:xSharedArray
	movt	r1, :upper16:xSharedArray
	movs	r0, #1
	str	r0, [r1]
	.loc	3 820 5                         @ ../../../CORTEX_MPU_M3_NUCLEO_L152RE_GCC/Demo/GenQTest.c:820:5
	b	.LBB6_15
.Ltmp189:
.LBB6_15:
	.loc	3 828 9                         @ ../../../CORTEX_MPU_M3_NUCLEO_L152RE_GCC/Demo/GenQTest.c:828:9
	ldr	r0, [sp, #12]
	movs	r3, #0
	mov	r1, r3
	mov	r2, r3
	bl	MPU_xQueueGenericSend
.Ltmp190:
	.loc	3 828 9 is_stmt 0               @ ../../../CORTEX_MPU_M3_NUCLEO_L152RE_GCC/Demo/GenQTest.c:828:9
	cmp	r0, #1
	beq	.LBB6_17
	b	.LBB6_16
.LBB6_16:
.Ltmp191:
	.loc	3 830 44 is_stmt 1              @ ../../../CORTEX_MPU_M3_NUCLEO_L152RE_GCC/Demo/GenQTest.c:830:44
	movw	r1, :lower16:xSharedArray
	movt	r1, :upper16:xSharedArray
	movs	r0, #1
	str	r0, [r1]
	.loc	3 831 5                         @ ../../../CORTEX_MPU_M3_NUCLEO_L152RE_GCC/Demo/GenQTest.c:831:5
	b	.LBB6_17
.Ltmp192:
.LBB6_17:
	.loc	3 840 9                         @ ../../../CORTEX_MPU_M3_NUCLEO_L152RE_GCC/Demo/GenQTest.c:840:9
	movw	r0, :lower16:xSharedArray
	movt	r0, :upper16:xSharedArray
	ldr	r0, [r0, #16]
.Ltmp193:
	.loc	3 840 9 is_stmt 0               @ ../../../CORTEX_MPU_M3_NUCLEO_L152RE_GCC/Demo/GenQTest.c:840:9
	cbz	r0, .LBB6_19
	b	.LBB6_18
.LBB6_18:
.Ltmp194:
	.loc	3 842 44 is_stmt 1              @ ../../../CORTEX_MPU_M3_NUCLEO_L152RE_GCC/Demo/GenQTest.c:842:44
	movw	r1, :lower16:xSharedArray
	movt	r1, :upper16:xSharedArray
	movs	r0, #1
	str	r0, [r1]
	.loc	3 843 5                         @ ../../../CORTEX_MPU_M3_NUCLEO_L152RE_GCC/Demo/GenQTest.c:843:5
	b	.LBB6_19
.Ltmp195:
.LBB6_19:
	.loc	3 0 5 is_stmt 0                 @ ../../../CORTEX_MPU_M3_NUCLEO_L152RE_GCC/Demo/GenQTest.c:0:5
	movs	r0, #0
.Ltmp196:
	.loc	3 845 9 is_stmt 1               @ ../../../CORTEX_MPU_M3_NUCLEO_L152RE_GCC/Demo/GenQTest.c:845:9
	bl	MPU_uxTaskPriorityGet
.Ltmp197:
	.loc	3 845 9 is_stmt 0               @ ../../../CORTEX_MPU_M3_NUCLEO_L152RE_GCC/Demo/GenQTest.c:845:9
	cmp	r0, #3
	beq	.LBB6_21
	b	.LBB6_20
.LBB6_20:
.Ltmp198:
	.loc	3 847 44 is_stmt 1              @ ../../../CORTEX_MPU_M3_NUCLEO_L152RE_GCC/Demo/GenQTest.c:847:44
	movw	r1, :lower16:xSharedArray
	movt	r1, :upper16:xSharedArray
	movs	r0, #1
	str	r0, [r1]
	.loc	3 848 5                         @ ../../../CORTEX_MPU_M3_NUCLEO_L152RE_GCC/Demo/GenQTest.c:848:5
	b	.LBB6_21
.Ltmp199:
.LBB6_21:
	.loc	3 856 9                         @ ../../../CORTEX_MPU_M3_NUCLEO_L152RE_GCC/Demo/GenQTest.c:856:9
	ldr	r0, [sp, #8]
	movs	r3, #0
	mov	r1, r3
	mov	r2, r3
	bl	MPU_xQueueGenericSend
.Ltmp200:
	.loc	3 856 9 is_stmt 0               @ ../../../CORTEX_MPU_M3_NUCLEO_L152RE_GCC/Demo/GenQTest.c:856:9
	cmp	r0, #1
	beq	.LBB6_23
	b	.LBB6_22
.LBB6_22:
.Ltmp201:
	.loc	3 858 44 is_stmt 1              @ ../../../CORTEX_MPU_M3_NUCLEO_L152RE_GCC/Demo/GenQTest.c:858:44
	movw	r1, :lower16:xSharedArray
	movt	r1, :upper16:xSharedArray
	movs	r0, #1
	str	r0, [r1]
	.loc	3 859 5                         @ ../../../CORTEX_MPU_M3_NUCLEO_L152RE_GCC/Demo/GenQTest.c:859:5
	b	.LBB6_23
.Ltmp202:
.LBB6_23:
	.loc	3 866 9                         @ ../../../CORTEX_MPU_M3_NUCLEO_L152RE_GCC/Demo/GenQTest.c:866:9
	movw	r0, :lower16:xSharedArray
	movt	r0, :upper16:xSharedArray
	ldr	r0, [r0, #16]
.Ltmp203:
	.loc	3 866 9 is_stmt 0               @ ../../../CORTEX_MPU_M3_NUCLEO_L152RE_GCC/Demo/GenQTest.c:866:9
	cmp	r0, #1
	beq	.LBB6_25
	b	.LBB6_24
.LBB6_24:
.Ltmp204:
	.loc	3 868 44 is_stmt 1              @ ../../../CORTEX_MPU_M3_NUCLEO_L152RE_GCC/Demo/GenQTest.c:868:44
	movw	r1, :lower16:xSharedArray
	movt	r1, :upper16:xSharedArray
	movs	r0, #1
	str	r0, [r1]
	.loc	3 869 5                         @ ../../../CORTEX_MPU_M3_NUCLEO_L152RE_GCC/Demo/GenQTest.c:869:5
	b	.LBB6_25
.Ltmp205:
.LBB6_25:
	.loc	3 0 5 is_stmt 0                 @ ../../../CORTEX_MPU_M3_NUCLEO_L152RE_GCC/Demo/GenQTest.c:0:5
	movs	r0, #0
.Ltmp206:
	.loc	3 873 9 is_stmt 1               @ ../../../CORTEX_MPU_M3_NUCLEO_L152RE_GCC/Demo/GenQTest.c:873:9
	bl	MPU_uxTaskPriorityGet
.Ltmp207:
	.loc	3 873 9 is_stmt 0               @ ../../../CORTEX_MPU_M3_NUCLEO_L152RE_GCC/Demo/GenQTest.c:873:9
	cmp	r0, #1
	beq	.LBB6_27
	b	.LBB6_26
.LBB6_26:
.Ltmp208:
	.loc	3 875 44 is_stmt 1              @ ../../../CORTEX_MPU_M3_NUCLEO_L152RE_GCC/Demo/GenQTest.c:875:44
	movw	r1, :lower16:xSharedArray
	movt	r1, :upper16:xSharedArray
	movs	r0, #1
	str	r0, [r1]
	.loc	3 876 5                         @ ../../../CORTEX_MPU_M3_NUCLEO_L152RE_GCC/Demo/GenQTest.c:876:5
	b	.LBB6_27
.Ltmp209:
.LBB6_27:
	.loc	3 0 5 is_stmt 0                 @ ../../../CORTEX_MPU_M3_NUCLEO_L152RE_GCC/Demo/GenQTest.c:0:5
	movs	r1, #0
	.loc	3 880 5 is_stmt 1               @ ../../../CORTEX_MPU_M3_NUCLEO_L152RE_GCC/Demo/GenQTest.c:880:5
	mov	r0, r1
	bl	MPU_vTaskPrioritySet
	.loc	3 881 1                         @ ../../../CORTEX_MPU_M3_NUCLEO_L152RE_GCC/Demo/GenQTest.c:881:1
	add	sp, #16
	pop	{r7, pc}
.Ltmp210:
.Lfunc_end6:
	.size	prvTakeTwoMutexesReturnInDifferentOrder, .Lfunc_end6-prvTakeTwoMutexesReturnInDifferentOrder
	.cfi_endproc
	.cantunwind
	.fnend
                                        @ -- End function
	.section	.text.prvTakeTwoMutexesReturnInSameOrder,"ax",%progbits
	.p2align	1                               @ -- Begin function prvTakeTwoMutexesReturnInSameOrder
	.type	prvTakeTwoMutexesReturnInSameOrder,%function
	.code	16                              @ @prvTakeTwoMutexesReturnInSameOrder
	.thumb_func
prvTakeTwoMutexesReturnInSameOrder:
.Lfunc_begin7:
	.loc	3 886 0                         @ ../../../CORTEX_MPU_M3_NUCLEO_L152RE_GCC/Demo/GenQTest.c:886:0
	.fnstart
	.cfi_startproc
@ %bb.0:
	.save	{r7, lr}
	push	{r7, lr}
	.cfi_def_cfa_offset 8
	.cfi_offset lr, -4
	.cfi_offset r7, -8
	.pad	#16
	sub	sp, #16
	.cfi_def_cfa_offset 24
	str	r0, [sp, #12]
	str	r1, [sp, #8]
.Ltmp211:
	.loc	3 888 9 prologue_end            @ ../../../CORTEX_MPU_M3_NUCLEO_L152RE_GCC/Demo/GenQTest.c:888:9
	ldr	r0, [sp, #12]
	movs	r1, #0
	bl	MPU_xQueueSemaphoreTake
.Ltmp212:
	.loc	3 888 9 is_stmt 0               @ ../../../CORTEX_MPU_M3_NUCLEO_L152RE_GCC/Demo/GenQTest.c:888:9
	cmp	r0, #1
	beq	.LBB7_2
	b	.LBB7_1
.LBB7_1:
.Ltmp213:
	.loc	3 890 44 is_stmt 1              @ ../../../CORTEX_MPU_M3_NUCLEO_L152RE_GCC/Demo/GenQTest.c:890:44
	movw	r1, :lower16:xSharedArray
	movt	r1, :upper16:xSharedArray
	movs	r0, #1
	str	r0, [r1]
	.loc	3 891 5                         @ ../../../CORTEX_MPU_M3_NUCLEO_L152RE_GCC/Demo/GenQTest.c:891:5
	b	.LBB7_2
.Ltmp214:
.LBB7_2:
	.loc	3 894 42                        @ ../../../CORTEX_MPU_M3_NUCLEO_L152RE_GCC/Demo/GenQTest.c:894:42
	movw	r1, :lower16:xSharedArray
	movt	r1, :upper16:xSharedArray
	movs	r0, #0
	str	r0, [r1, #16]
.Ltmp215:
	.loc	3 898 9                         @ ../../../CORTEX_MPU_M3_NUCLEO_L152RE_GCC/Demo/GenQTest.c:898:9
	bl	MPU_uxTaskPriorityGet
.Ltmp216:
	.loc	3 898 9 is_stmt 0               @ ../../../CORTEX_MPU_M3_NUCLEO_L152RE_GCC/Demo/GenQTest.c:898:9
	cbz	r0, .LBB7_4
	b	.LBB7_3
.LBB7_3:
.Ltmp217:
	.loc	3 900 44 is_stmt 1              @ ../../../CORTEX_MPU_M3_NUCLEO_L152RE_GCC/Demo/GenQTest.c:900:44
	movw	r1, :lower16:xSharedArray
	movt	r1, :upper16:xSharedArray
	movs	r0, #1
	str	r0, [r1]
	.loc	3 901 5                         @ ../../../CORTEX_MPU_M3_NUCLEO_L152RE_GCC/Demo/GenQTest.c:901:5
	b	.LBB7_4
.Ltmp218:
.LBB7_4:
	.loc	3 905 18                        @ ../../../CORTEX_MPU_M3_NUCLEO_L152RE_GCC/Demo/GenQTest.c:905:18
	movw	r0, :lower16:xLocalTaskHandles
	movt	r0, :upper16:xLocalTaskHandles
	str	r0, [sp, #4]                    @ 4-byte Spill
	ldr	r0, [r0]
	.loc	3 905 5 is_stmt 0               @ ../../../CORTEX_MPU_M3_NUCLEO_L152RE_GCC/Demo/GenQTest.c:905:5
	bl	MPU_vTaskResume
	ldr	r0, [sp, #4]                    @ 4-byte Reload
.Ltmp219:
	.loc	3 915 9 is_stmt 1               @ ../../../CORTEX_MPU_M3_NUCLEO_L152RE_GCC/Demo/GenQTest.c:915:9
	ldr	r0, [r0]
	bl	MPU_eTaskGetState
.Ltmp220:
	.loc	3 915 9 is_stmt 0               @ ../../../CORTEX_MPU_M3_NUCLEO_L152RE_GCC/Demo/GenQTest.c:915:9
	cmp	r0, #2
	beq	.LBB7_7
	b	.LBB7_5
.LBB7_5:
.Ltmp221:
	.loc	3 915 9                         @ ../../../CORTEX_MPU_M3_NUCLEO_L152RE_GCC/Demo/GenQTest.c:915:9
	@APP
	cpsid i
	@NO_APP
	b	.LBB7_6
.LBB7_6:                                @ =>This Inner Loop Header: Depth=1
.Ltmp222:
	.loc	3 915 9                         @ ../../../CORTEX_MPU_M3_NUCLEO_L152RE_GCC/Demo/GenQTest.c:915:9
	b	.LBB7_6
.Ltmp223:
.LBB7_7:
	.loc	3 0 9                           @ ../../../CORTEX_MPU_M3_NUCLEO_L152RE_GCC/Demo/GenQTest.c:0:9
	movs	r0, #0
.Ltmp224:
	.loc	3 922 9 is_stmt 1               @ ../../../CORTEX_MPU_M3_NUCLEO_L152RE_GCC/Demo/GenQTest.c:922:9
	bl	MPU_uxTaskPriorityGet
.Ltmp225:
	.loc	3 922 9 is_stmt 0               @ ../../../CORTEX_MPU_M3_NUCLEO_L152RE_GCC/Demo/GenQTest.c:922:9
	cmp	r0, #3
	beq	.LBB7_9
	b	.LBB7_8
.LBB7_8:
.Ltmp226:
	.loc	3 924 44 is_stmt 1              @ ../../../CORTEX_MPU_M3_NUCLEO_L152RE_GCC/Demo/GenQTest.c:924:44
	movw	r1, :lower16:xSharedArray
	movt	r1, :upper16:xSharedArray
	movs	r0, #1
	str	r0, [r1]
	.loc	3 925 5                         @ ../../../CORTEX_MPU_M3_NUCLEO_L152RE_GCC/Demo/GenQTest.c:925:5
	b	.LBB7_9
.Ltmp227:
.LBB7_9:
	.loc	3 930 18                        @ ../../../CORTEX_MPU_M3_NUCLEO_L152RE_GCC/Demo/GenQTest.c:930:18
	movw	r0, :lower16:xLocalTaskHandles
	movt	r0, :upper16:xLocalTaskHandles
	ldr	r0, [r0, #4]
	.loc	3 930 5 is_stmt 0               @ ../../../CORTEX_MPU_M3_NUCLEO_L152RE_GCC/Demo/GenQTest.c:930:5
	bl	MPU_vTaskResume
.Ltmp228:
	.loc	3 934 9 is_stmt 1               @ ../../../CORTEX_MPU_M3_NUCLEO_L152RE_GCC/Demo/GenQTest.c:934:9
	movw	r0, :lower16:xSharedArray
	movt	r0, :upper16:xSharedArray
	ldr	r0, [r0, #16]
.Ltmp229:
	.loc	3 934 9 is_stmt 0               @ ../../../CORTEX_MPU_M3_NUCLEO_L152RE_GCC/Demo/GenQTest.c:934:9
	cbz	r0, .LBB7_11
	b	.LBB7_10
.LBB7_10:
.Ltmp230:
	.loc	3 936 44 is_stmt 1              @ ../../../CORTEX_MPU_M3_NUCLEO_L152RE_GCC/Demo/GenQTest.c:936:44
	movw	r1, :lower16:xSharedArray
	movt	r1, :upper16:xSharedArray
	movs	r0, #1
	str	r0, [r1]
	.loc	3 937 5                         @ ../../../CORTEX_MPU_M3_NUCLEO_L152RE_GCC/Demo/GenQTest.c:937:5
	b	.LBB7_11
.Ltmp231:
.LBB7_11:
	.loc	3 940 9                         @ ../../../CORTEX_MPU_M3_NUCLEO_L152RE_GCC/Demo/GenQTest.c:940:9
	ldr	r0, [sp, #8]
	movs	r1, #0
	bl	MPU_xQueueSemaphoreTake
.Ltmp232:
	.loc	3 940 9 is_stmt 0               @ ../../../CORTEX_MPU_M3_NUCLEO_L152RE_GCC/Demo/GenQTest.c:940:9
	cmp	r0, #1
	beq	.LBB7_13
	b	.LBB7_12
.LBB7_12:
.Ltmp233:
	.loc	3 942 44 is_stmt 1              @ ../../../CORTEX_MPU_M3_NUCLEO_L152RE_GCC/Demo/GenQTest.c:942:44
	movw	r1, :lower16:xSharedArray
	movt	r1, :upper16:xSharedArray
	movs	r0, #1
	str	r0, [r1]
	.loc	3 943 5                         @ ../../../CORTEX_MPU_M3_NUCLEO_L152RE_GCC/Demo/GenQTest.c:943:5
	b	.LBB7_13
.Ltmp234:
.LBB7_13:
	.loc	3 951 9                         @ ../../../CORTEX_MPU_M3_NUCLEO_L152RE_GCC/Demo/GenQTest.c:951:9
	ldr	r0, [sp, #8]
	movs	r3, #0
	mov	r1, r3
	mov	r2, r3
	bl	MPU_xQueueGenericSend
.Ltmp235:
	.loc	3 951 9 is_stmt 0               @ ../../../CORTEX_MPU_M3_NUCLEO_L152RE_GCC/Demo/GenQTest.c:951:9
	cmp	r0, #1
	beq	.LBB7_15
	b	.LBB7_14
.LBB7_14:
.Ltmp236:
	.loc	3 953 44 is_stmt 1              @ ../../../CORTEX_MPU_M3_NUCLEO_L152RE_GCC/Demo/GenQTest.c:953:44
	movw	r1, :lower16:xSharedArray
	movt	r1, :upper16:xSharedArray
	movs	r0, #1
	str	r0, [r1]
	.loc	3 954 5                         @ ../../../CORTEX_MPU_M3_NUCLEO_L152RE_GCC/Demo/GenQTest.c:954:5
	b	.LBB7_15
.Ltmp237:
.LBB7_15:
	.loc	3 963 9                         @ ../../../CORTEX_MPU_M3_NUCLEO_L152RE_GCC/Demo/GenQTest.c:963:9
	movw	r0, :lower16:xSharedArray
	movt	r0, :upper16:xSharedArray
	ldr	r0, [r0, #16]
.Ltmp238:
	.loc	3 963 9 is_stmt 0               @ ../../../CORTEX_MPU_M3_NUCLEO_L152RE_GCC/Demo/GenQTest.c:963:9
	cbz	r0, .LBB7_17
	b	.LBB7_16
.LBB7_16:
.Ltmp239:
	.loc	3 965 44 is_stmt 1              @ ../../../CORTEX_MPU_M3_NUCLEO_L152RE_GCC/Demo/GenQTest.c:965:44
	movw	r1, :lower16:xSharedArray
	movt	r1, :upper16:xSharedArray
	movs	r0, #1
	str	r0, [r1]
	.loc	3 966 5                         @ ../../../CORTEX_MPU_M3_NUCLEO_L152RE_GCC/Demo/GenQTest.c:966:5
	b	.LBB7_17
.Ltmp240:
.LBB7_17:
	.loc	3 0 5 is_stmt 0                 @ ../../../CORTEX_MPU_M3_NUCLEO_L152RE_GCC/Demo/GenQTest.c:0:5
	movs	r0, #0
.Ltmp241:
	.loc	3 968 9 is_stmt 1               @ ../../../CORTEX_MPU_M3_NUCLEO_L152RE_GCC/Demo/GenQTest.c:968:9
	bl	MPU_uxTaskPriorityGet
.Ltmp242:
	.loc	3 968 9 is_stmt 0               @ ../../../CORTEX_MPU_M3_NUCLEO_L152RE_GCC/Demo/GenQTest.c:968:9
	cmp	r0, #3
	beq	.LBB7_19
	b	.LBB7_18
.LBB7_18:
.Ltmp243:
	.loc	3 970 44 is_stmt 1              @ ../../../CORTEX_MPU_M3_NUCLEO_L152RE_GCC/Demo/GenQTest.c:970:44
	movw	r1, :lower16:xSharedArray
	movt	r1, :upper16:xSharedArray
	movs	r0, #1
	str	r0, [r1]
	.loc	3 971 5                         @ ../../../CORTEX_MPU_M3_NUCLEO_L152RE_GCC/Demo/GenQTest.c:971:5
	b	.LBB7_19
.Ltmp244:
.LBB7_19:
	.loc	3 978 9                         @ ../../../CORTEX_MPU_M3_NUCLEO_L152RE_GCC/Demo/GenQTest.c:978:9
	ldr	r0, [sp, #12]
	movs	r3, #0
	mov	r1, r3
	mov	r2, r3
	bl	MPU_xQueueGenericSend
.Ltmp245:
	.loc	3 978 9 is_stmt 0               @ ../../../CORTEX_MPU_M3_NUCLEO_L152RE_GCC/Demo/GenQTest.c:978:9
	cmp	r0, #1
	beq	.LBB7_21
	b	.LBB7_20
.LBB7_20:
.Ltmp246:
	.loc	3 980 44 is_stmt 1              @ ../../../CORTEX_MPU_M3_NUCLEO_L152RE_GCC/Demo/GenQTest.c:980:44
	movw	r1, :lower16:xSharedArray
	movt	r1, :upper16:xSharedArray
	movs	r0, #1
	str	r0, [r1]
	.loc	3 981 5                         @ ../../../CORTEX_MPU_M3_NUCLEO_L152RE_GCC/Demo/GenQTest.c:981:5
	b	.LBB7_21
.Ltmp247:
.LBB7_21:
	.loc	3 988 9                         @ ../../../CORTEX_MPU_M3_NUCLEO_L152RE_GCC/Demo/GenQTest.c:988:9
	movw	r0, :lower16:xSharedArray
	movt	r0, :upper16:xSharedArray
	ldr	r0, [r0, #16]
.Ltmp248:
	.loc	3 988 9 is_stmt 0               @ ../../../CORTEX_MPU_M3_NUCLEO_L152RE_GCC/Demo/GenQTest.c:988:9
	cmp	r0, #1
	beq	.LBB7_23
	b	.LBB7_22
.LBB7_22:
.Ltmp249:
	.loc	3 990 44 is_stmt 1              @ ../../../CORTEX_MPU_M3_NUCLEO_L152RE_GCC/Demo/GenQTest.c:990:44
	movw	r1, :lower16:xSharedArray
	movt	r1, :upper16:xSharedArray
	movs	r0, #1
	str	r0, [r1]
	.loc	3 991 5                         @ ../../../CORTEX_MPU_M3_NUCLEO_L152RE_GCC/Demo/GenQTest.c:991:5
	b	.LBB7_23
.Ltmp250:
.LBB7_23:
	.loc	3 0 5 is_stmt 0                 @ ../../../CORTEX_MPU_M3_NUCLEO_L152RE_GCC/Demo/GenQTest.c:0:5
	movs	r0, #0
.Ltmp251:
	.loc	3 995 9 is_stmt 1               @ ../../../CORTEX_MPU_M3_NUCLEO_L152RE_GCC/Demo/GenQTest.c:995:9
	bl	MPU_uxTaskPriorityGet
.Ltmp252:
	.loc	3 995 9 is_stmt 0               @ ../../../CORTEX_MPU_M3_NUCLEO_L152RE_GCC/Demo/GenQTest.c:995:9
	cbz	r0, .LBB7_25
	b	.LBB7_24
.LBB7_24:
.Ltmp253:
	.loc	3 997 44 is_stmt 1              @ ../../../CORTEX_MPU_M3_NUCLEO_L152RE_GCC/Demo/GenQTest.c:997:44
	movw	r1, :lower16:xSharedArray
	movt	r1, :upper16:xSharedArray
	movs	r0, #1
	str	r0, [r1]
	.loc	3 998 5                         @ ../../../CORTEX_MPU_M3_NUCLEO_L152RE_GCC/Demo/GenQTest.c:998:5
	b	.LBB7_25
.Ltmp254:
.LBB7_25:
	.loc	3 999 1                         @ ../../../CORTEX_MPU_M3_NUCLEO_L152RE_GCC/Demo/GenQTest.c:999:1
	add	sp, #16
	pop	{r7, pc}
.Ltmp255:
.Lfunc_end7:
	.size	prvTakeTwoMutexesReturnInSameOrder, .Lfunc_end7-prvTakeTwoMutexesReturnInSameOrder
	.cfi_endproc
	.cantunwind
	.fnend
                                        @ -- End function
	.section	.text.prvHighPriorityTimeout,"ax",%progbits
	.p2align	1                               @ -- Begin function prvHighPriorityTimeout
	.type	prvHighPriorityTimeout,%function
	.code	16                              @ @prvHighPriorityTimeout
	.thumb_func
prvHighPriorityTimeout:
.Lfunc_begin8:
	.loc	3 541 0                         @ ../../../CORTEX_MPU_M3_NUCLEO_L152RE_GCC/Demo/GenQTest.c:541:0
	.fnstart
	.cfi_startproc
@ %bb.0:
	.save	{r7, lr}
	push	{r7, lr}
	.cfi_def_cfa_offset 8
	.cfi_offset lr, -4
	.cfi_offset r7, -8
	.pad	#16
	sub	sp, #16
	.cfi_def_cfa_offset 24
	str	r0, [sp, #12]
.Ltmp256:
	.loc	3 547 13 prologue_end           @ ../../../CORTEX_MPU_M3_NUCLEO_L152RE_GCC/Demo/GenQTest.c:547:13
	ldr	r0, [sp, #12]
	bl	MPU_xQueueGetMutexHolder
.Ltmp257:
	.loc	3 547 13 is_stmt 0              @ ../../../CORTEX_MPU_M3_NUCLEO_L152RE_GCC/Demo/GenQTest.c:547:13
	cbz	r0, .LBB8_2
	b	.LBB8_1
.LBB8_1:
.Ltmp258:
	.loc	3 549 48 is_stmt 1              @ ../../../CORTEX_MPU_M3_NUCLEO_L152RE_GCC/Demo/GenQTest.c:549:48
	movw	r1, :lower16:xSharedArray
	movt	r1, :upper16:xSharedArray
	movs	r0, #1
	str	r0, [r1]
	.loc	3 550 9                         @ ../../../CORTEX_MPU_M3_NUCLEO_L152RE_GCC/Demo/GenQTest.c:550:9
	b	.LBB8_2
.Ltmp259:
.LBB8_2:
	.loc	3 552 13                        @ ../../../CORTEX_MPU_M3_NUCLEO_L152RE_GCC/Demo/GenQTest.c:552:13
	ldr	r0, [sp, #12]
	movs	r1, #0
	bl	MPU_xQueueSemaphoreTake
.Ltmp260:
	.loc	3 552 13 is_stmt 0              @ ../../../CORTEX_MPU_M3_NUCLEO_L152RE_GCC/Demo/GenQTest.c:552:13
	cmp	r0, #1
	beq	.LBB8_4
	b	.LBB8_3
.LBB8_3:
.Ltmp261:
	.loc	3 554 48 is_stmt 1              @ ../../../CORTEX_MPU_M3_NUCLEO_L152RE_GCC/Demo/GenQTest.c:554:48
	movw	r1, :lower16:xSharedArray
	movt	r1, :upper16:xSharedArray
	movs	r0, #1
	str	r0, [r1]
	.loc	3 555 9                         @ ../../../CORTEX_MPU_M3_NUCLEO_L152RE_GCC/Demo/GenQTest.c:555:9
	b	.LBB8_4
.Ltmp262:
.LBB8_4:
	.loc	3 557 13                        @ ../../../CORTEX_MPU_M3_NUCLEO_L152RE_GCC/Demo/GenQTest.c:557:13
	ldr	r0, [sp, #12]
	bl	MPU_xQueueGetMutexHolder
	.loc	3 557 51 is_stmt 0              @ ../../../CORTEX_MPU_M3_NUCLEO_L152RE_GCC/Demo/GenQTest.c:557:51
	str	r0, [sp, #8]                    @ 4-byte Spill
	bl	MPU_xTaskGetCurrentTaskHandle
	mov	r1, r0
.Ltmp263:
	.loc	3 557 13                        @ ../../../CORTEX_MPU_M3_NUCLEO_L152RE_GCC/Demo/GenQTest.c:557:13
	ldr	r0, [sp, #8]                    @ 4-byte Reload
	cmp	r0, r1
	beq	.LBB8_6
	b	.LBB8_5
.LBB8_5:
.Ltmp264:
	.loc	3 559 48 is_stmt 1              @ ../../../CORTEX_MPU_M3_NUCLEO_L152RE_GCC/Demo/GenQTest.c:559:48
	movw	r1, :lower16:xSharedArray
	movt	r1, :upper16:xSharedArray
	movs	r0, #1
	str	r0, [r1]
	.loc	3 560 9                         @ ../../../CORTEX_MPU_M3_NUCLEO_L152RE_GCC/Demo/GenQTest.c:560:9
	b	.LBB8_6
.Ltmp265:
.LBB8_6:
	.loc	3 0 9 is_stmt 0                 @ ../../../CORTEX_MPU_M3_NUCLEO_L152RE_GCC/Demo/GenQTest.c:0:9
	movs	r0, #0
.Ltmp266:
	.loc	3 564 13 is_stmt 1              @ ../../../CORTEX_MPU_M3_NUCLEO_L152RE_GCC/Demo/GenQTest.c:564:13
	bl	MPU_uxTaskPriorityGet
.Ltmp267:
	.loc	3 564 13 is_stmt 0              @ ../../../CORTEX_MPU_M3_NUCLEO_L152RE_GCC/Demo/GenQTest.c:564:13
	cbz	r0, .LBB8_8
	b	.LBB8_7
.LBB8_7:
.Ltmp268:
	.loc	3 566 48 is_stmt 1              @ ../../../CORTEX_MPU_M3_NUCLEO_L152RE_GCC/Demo/GenQTest.c:566:48
	movw	r1, :lower16:xSharedArray
	movt	r1, :upper16:xSharedArray
	movs	r0, #1
	str	r0, [r1]
	.loc	3 567 9                         @ ../../../CORTEX_MPU_M3_NUCLEO_L152RE_GCC/Demo/GenQTest.c:567:9
	b	.LBB8_8
.Ltmp269:
.LBB8_8:
	.loc	3 571 22                        @ ../../../CORTEX_MPU_M3_NUCLEO_L152RE_GCC/Demo/GenQTest.c:571:22
	movw	r0, :lower16:xLocalTaskHandles
	movt	r0, :upper16:xLocalTaskHandles
	ldr	r0, [r0]
	.loc	3 571 9 is_stmt 0               @ ../../../CORTEX_MPU_M3_NUCLEO_L152RE_GCC/Demo/GenQTest.c:571:9
	bl	MPU_vTaskResume
	movs	r0, #0
.Ltmp270:
	.loc	3 576 13 is_stmt 1              @ ../../../CORTEX_MPU_M3_NUCLEO_L152RE_GCC/Demo/GenQTest.c:576:13
	bl	MPU_uxTaskPriorityGet
.Ltmp271:
	.loc	3 576 13 is_stmt 0              @ ../../../CORTEX_MPU_M3_NUCLEO_L152RE_GCC/Demo/GenQTest.c:576:13
	cmp	r0, #3
	beq	.LBB8_10
	b	.LBB8_9
.LBB8_9:
.Ltmp272:
	.loc	3 578 48 is_stmt 1              @ ../../../CORTEX_MPU_M3_NUCLEO_L152RE_GCC/Demo/GenQTest.c:578:48
	movw	r1, :lower16:xSharedArray
	movt	r1, :upper16:xSharedArray
	movs	r0, #1
	str	r0, [r1]
	.loc	3 579 9                         @ ../../../CORTEX_MPU_M3_NUCLEO_L152RE_GCC/Demo/GenQTest.c:579:9
	b	.LBB8_10
.Ltmp273:
.LBB8_10:
	.loc	3 584 22                        @ ../../../CORTEX_MPU_M3_NUCLEO_L152RE_GCC/Demo/GenQTest.c:584:22
	movw	r0, :lower16:xLocalTaskHandles
	movt	r0, :upper16:xLocalTaskHandles
	ldr	r0, [r0, #8]
	.loc	3 584 9 is_stmt 0               @ ../../../CORTEX_MPU_M3_NUCLEO_L152RE_GCC/Demo/GenQTest.c:584:9
	bl	MPU_vTaskResume
	movs	r0, #0
.Ltmp274:
	.loc	3 589 13 is_stmt 1              @ ../../../CORTEX_MPU_M3_NUCLEO_L152RE_GCC/Demo/GenQTest.c:589:13
	bl	MPU_uxTaskPriorityGet
.Ltmp275:
	.loc	3 589 13 is_stmt 0              @ ../../../CORTEX_MPU_M3_NUCLEO_L152RE_GCC/Demo/GenQTest.c:589:13
	cmp	r0, #3
	beq	.LBB8_12
	b	.LBB8_11
.LBB8_11:
.Ltmp276:
	.loc	3 591 48 is_stmt 1              @ ../../../CORTEX_MPU_M3_NUCLEO_L152RE_GCC/Demo/GenQTest.c:591:48
	movw	r1, :lower16:xSharedArray
	movt	r1, :upper16:xSharedArray
	movs	r0, #1
	str	r0, [r1]
	.loc	3 592 9                         @ ../../../CORTEX_MPU_M3_NUCLEO_L152RE_GCC/Demo/GenQTest.c:592:9
	b	.LBB8_12
.Ltmp277:
.LBB8_12:
	.loc	3 602 21                        @ ../../../CORTEX_MPU_M3_NUCLEO_L152RE_GCC/Demo/GenQTest.c:602:21
	movw	r0, :lower16:xSharedArray
	movt	r0, :upper16:xSharedArray
	str	r0, [sp, #4]                    @ 4-byte Spill
	ldr	r0, [r0, #12]
	movs	r1, #7
	.loc	3 602 52 is_stmt 0              @ ../../../CORTEX_MPU_M3_NUCLEO_L152RE_GCC/Demo/GenQTest.c:602:52
	ands	r0, r1
	.loc	3 602 9                         @ ../../../CORTEX_MPU_M3_NUCLEO_L152RE_GCC/Demo/GenQTest.c:602:9
	bl	MPU_vTaskDelay
	ldr	r1, [sp, #4]                    @ 4-byte Reload
	movs	r0, #1
	.loc	3 608 43 is_stmt 1              @ ../../../CORTEX_MPU_M3_NUCLEO_L152RE_GCC/Demo/GenQTest.c:608:43
	str	r0, [r1, #20]
.Ltmp278:
	.loc	3 610 30                        @ ../../../CORTEX_MPU_M3_NUCLEO_L152RE_GCC/Demo/GenQTest.c:610:30
	movw	r0, :lower16:xLocalTaskHandles
	movt	r0, :upper16:xLocalTaskHandles
	ldr	r0, [r0]
	.loc	3 610 13 is_stmt 0              @ ../../../CORTEX_MPU_M3_NUCLEO_L152RE_GCC/Demo/GenQTest.c:610:13
	bl	MPU_xTaskAbortDelay
.Ltmp279:
	.loc	3 610 13                        @ ../../../CORTEX_MPU_M3_NUCLEO_L152RE_GCC/Demo/GenQTest.c:610:13
	cmp	r0, #1
	beq	.LBB8_14
	b	.LBB8_13
.LBB8_13:
.Ltmp280:
	.loc	3 612 48 is_stmt 1              @ ../../../CORTEX_MPU_M3_NUCLEO_L152RE_GCC/Demo/GenQTest.c:612:48
	movw	r1, :lower16:xSharedArray
	movt	r1, :upper16:xSharedArray
	movs	r0, #1
	str	r0, [r1]
	.loc	3 613 9                         @ ../../../CORTEX_MPU_M3_NUCLEO_L152RE_GCC/Demo/GenQTest.c:613:9
	b	.LBB8_14
.Ltmp281:
.LBB8_14:
	.loc	3 621 9                         @ ../../../CORTEX_MPU_M3_NUCLEO_L152RE_GCC/Demo/GenQTest.c:621:9
	b	.LBB8_15
.LBB8_15:                               @ =>This Inner Loop Header: Depth=1
	.loc	3 0 9 is_stmt 0                 @ ../../../CORTEX_MPU_M3_NUCLEO_L152RE_GCC/Demo/GenQTest.c:0:9
	movs	r0, #0
	.loc	3 621 16                        @ ../../../CORTEX_MPU_M3_NUCLEO_L152RE_GCC/Demo/GenQTest.c:621:16
	bl	MPU_uxTaskPriorityGet
	.loc	3 621 9                         @ ../../../CORTEX_MPU_M3_NUCLEO_L152RE_GCC/Demo/GenQTest.c:621:9
	cmp	r0, #2
	beq	.LBB8_17
	b	.LBB8_16
.LBB8_16:                               @   in Loop: Header=BB8_15 Depth=1
	.loc	3 0 9                           @ ../../../CORTEX_MPU_M3_NUCLEO_L152RE_GCC/Demo/GenQTest.c:0:9
	movs	r0, #0
.Ltmp282:
	.loc	3 625 13 is_stmt 1              @ ../../../CORTEX_MPU_M3_NUCLEO_L152RE_GCC/Demo/GenQTest.c:625:13
	bl	MPU_vTaskDelay
.Ltmp283:
	.loc	3 621 9                         @ ../../../CORTEX_MPU_M3_NUCLEO_L152RE_GCC/Demo/GenQTest.c:621:9
	b	.LBB8_15
.LBB8_17:
	.loc	3 631 43                        @ ../../../CORTEX_MPU_M3_NUCLEO_L152RE_GCC/Demo/GenQTest.c:631:43
	movw	r1, :lower16:xSharedArray
	movt	r1, :upper16:xSharedArray
	movs	r0, #1
	str	r0, [r1, #20]
.Ltmp284:
	.loc	3 633 30                        @ ../../../CORTEX_MPU_M3_NUCLEO_L152RE_GCC/Demo/GenQTest.c:633:30
	movw	r0, :lower16:xLocalTaskHandles
	movt	r0, :upper16:xLocalTaskHandles
	ldr	r0, [r0, #8]
	.loc	3 633 13 is_stmt 0              @ ../../../CORTEX_MPU_M3_NUCLEO_L152RE_GCC/Demo/GenQTest.c:633:13
	bl	MPU_xTaskAbortDelay
.Ltmp285:
	.loc	3 633 13                        @ ../../../CORTEX_MPU_M3_NUCLEO_L152RE_GCC/Demo/GenQTest.c:633:13
	cmp	r0, #1
	beq	.LBB8_19
	b	.LBB8_18
.LBB8_18:
.Ltmp286:
	.loc	3 635 48 is_stmt 1              @ ../../../CORTEX_MPU_M3_NUCLEO_L152RE_GCC/Demo/GenQTest.c:635:48
	movw	r1, :lower16:xSharedArray
	movt	r1, :upper16:xSharedArray
	movs	r0, #1
	str	r0, [r1]
	.loc	3 636 9                         @ ../../../CORTEX_MPU_M3_NUCLEO_L152RE_GCC/Demo/GenQTest.c:636:9
	b	.LBB8_19
.Ltmp287:
.LBB8_19:
	.loc	3 642 9                         @ ../../../CORTEX_MPU_M3_NUCLEO_L152RE_GCC/Demo/GenQTest.c:642:9
	b	.LBB8_20
.LBB8_20:                               @ =>This Inner Loop Header: Depth=1
	.loc	3 0 9 is_stmt 0                 @ ../../../CORTEX_MPU_M3_NUCLEO_L152RE_GCC/Demo/GenQTest.c:0:9
	movs	r0, #0
	.loc	3 642 16                        @ ../../../CORTEX_MPU_M3_NUCLEO_L152RE_GCC/Demo/GenQTest.c:642:16
	bl	MPU_uxTaskPriorityGet
	.loc	3 642 9                         @ ../../../CORTEX_MPU_M3_NUCLEO_L152RE_GCC/Demo/GenQTest.c:642:9
	cbz	r0, .LBB8_22
	b	.LBB8_21
.LBB8_21:                               @   in Loop: Header=BB8_20 Depth=1
	.loc	3 0 9                           @ ../../../CORTEX_MPU_M3_NUCLEO_L152RE_GCC/Demo/GenQTest.c:0:9
	movs	r0, #0
.Ltmp288:
	.loc	3 646 13 is_stmt 1              @ ../../../CORTEX_MPU_M3_NUCLEO_L152RE_GCC/Demo/GenQTest.c:646:13
	bl	MPU_vTaskDelay
.Ltmp289:
	.loc	3 642 9                         @ ../../../CORTEX_MPU_M3_NUCLEO_L152RE_GCC/Demo/GenQTest.c:642:9
	b	.LBB8_20
.LBB8_22:
.Ltmp290:
	.loc	3 651 13                        @ ../../../CORTEX_MPU_M3_NUCLEO_L152RE_GCC/Demo/GenQTest.c:651:13
	ldr	r0, [sp, #12]
	bl	xQueueGetMutexHolderFromISR
	.loc	3 651 58 is_stmt 0              @ ../../../CORTEX_MPU_M3_NUCLEO_L152RE_GCC/Demo/GenQTest.c:651:58
	str	r0, [sp]                        @ 4-byte Spill
	bl	MPU_xTaskGetCurrentTaskHandle
	mov	r1, r0
.Ltmp291:
	.loc	3 651 13                        @ ../../../CORTEX_MPU_M3_NUCLEO_L152RE_GCC/Demo/GenQTest.c:651:13
	ldr	r0, [sp]                        @ 4-byte Reload
	cmp	r0, r1
	beq	.LBB8_24
	b	.LBB8_23
.LBB8_23:
.Ltmp292:
	.loc	3 653 48 is_stmt 1              @ ../../../CORTEX_MPU_M3_NUCLEO_L152RE_GCC/Demo/GenQTest.c:653:48
	movw	r1, :lower16:xSharedArray
	movt	r1, :upper16:xSharedArray
	movs	r0, #1
	str	r0, [r1]
	.loc	3 654 9                         @ ../../../CORTEX_MPU_M3_NUCLEO_L152RE_GCC/Demo/GenQTest.c:654:9
	b	.LBB8_24
.Ltmp293:
.LBB8_24:
	.loc	3 656 9                         @ ../../../CORTEX_MPU_M3_NUCLEO_L152RE_GCC/Demo/GenQTest.c:656:9
	ldr	r0, [sp, #12]
	movs	r3, #0
	mov	r1, r3
	mov	r2, r3
	bl	MPU_xQueueGenericSend
.Ltmp294:
	.loc	3 658 13                        @ ../../../CORTEX_MPU_M3_NUCLEO_L152RE_GCC/Demo/GenQTest.c:658:13
	ldr	r0, [sp, #12]
	bl	xQueueGetMutexHolderFromISR
.Ltmp295:
	.loc	3 658 13 is_stmt 0              @ ../../../CORTEX_MPU_M3_NUCLEO_L152RE_GCC/Demo/GenQTest.c:658:13
	cbz	r0, .LBB8_26
	b	.LBB8_25
.LBB8_25:
.Ltmp296:
	.loc	3 660 48 is_stmt 1              @ ../../../CORTEX_MPU_M3_NUCLEO_L152RE_GCC/Demo/GenQTest.c:660:48
	movw	r1, :lower16:xSharedArray
	movt	r1, :upper16:xSharedArray
	movs	r0, #1
	str	r0, [r1]
	.loc	3 661 9                         @ ../../../CORTEX_MPU_M3_NUCLEO_L152RE_GCC/Demo/GenQTest.c:661:9
	b	.LBB8_26
.Ltmp297:
.LBB8_26:
	.loc	3 663 9                         @ ../../../CORTEX_MPU_M3_NUCLEO_L152RE_GCC/Demo/GenQTest.c:663:9
	movw	r0, :lower16:xSharedArray
	movt	r0, :upper16:xSharedArray
	ldr	r0, [r0]
.Ltmp298:
	.loc	3 663 9 is_stmt 0               @ ../../../CORTEX_MPU_M3_NUCLEO_L152RE_GCC/Demo/GenQTest.c:663:9
	cbz	r0, .LBB8_29
	b	.LBB8_27
.LBB8_27:
.Ltmp299:
	.loc	3 663 9                         @ ../../../CORTEX_MPU_M3_NUCLEO_L152RE_GCC/Demo/GenQTest.c:663:9
	@APP
	cpsid i
	@NO_APP
	b	.LBB8_28
.LBB8_28:                               @ =>This Inner Loop Header: Depth=1
.Ltmp300:
	.loc	3 663 9                         @ ../../../CORTEX_MPU_M3_NUCLEO_L152RE_GCC/Demo/GenQTest.c:663:9
	b	.LBB8_28
.Ltmp301:
.LBB8_29:
	.loc	3 672 13 is_stmt 1              @ ../../../CORTEX_MPU_M3_NUCLEO_L152RE_GCC/Demo/GenQTest.c:672:13
	ldr	r0, [sp, #12]
	movs	r1, #0
	bl	MPU_xQueueSemaphoreTake
.Ltmp302:
	.loc	3 672 13 is_stmt 0              @ ../../../CORTEX_MPU_M3_NUCLEO_L152RE_GCC/Demo/GenQTest.c:672:13
	cmp	r0, #1
	beq	.LBB8_31
	b	.LBB8_30
.LBB8_30:
.Ltmp303:
	.loc	3 674 48 is_stmt 1              @ ../../../CORTEX_MPU_M3_NUCLEO_L152RE_GCC/Demo/GenQTest.c:674:48
	movw	r1, :lower16:xSharedArray
	movt	r1, :upper16:xSharedArray
	movs	r0, #1
	str	r0, [r1]
	.loc	3 675 9                         @ ../../../CORTEX_MPU_M3_NUCLEO_L152RE_GCC/Demo/GenQTest.c:675:9
	b	.LBB8_31
.Ltmp304:
.LBB8_31:
	.loc	3 0 9 is_stmt 0                 @ ../../../CORTEX_MPU_M3_NUCLEO_L152RE_GCC/Demo/GenQTest.c:0:9
	movs	r0, #0
.Ltmp305:
	.loc	3 677 13 is_stmt 1              @ ../../../CORTEX_MPU_M3_NUCLEO_L152RE_GCC/Demo/GenQTest.c:677:13
	bl	MPU_uxTaskPriorityGet
.Ltmp306:
	.loc	3 677 13 is_stmt 0              @ ../../../CORTEX_MPU_M3_NUCLEO_L152RE_GCC/Demo/GenQTest.c:677:13
	cbz	r0, .LBB8_33
	b	.LBB8_32
.LBB8_32:
.Ltmp307:
	.loc	3 679 48 is_stmt 1              @ ../../../CORTEX_MPU_M3_NUCLEO_L152RE_GCC/Demo/GenQTest.c:679:48
	movw	r1, :lower16:xSharedArray
	movt	r1, :upper16:xSharedArray
	movs	r0, #1
	str	r0, [r1]
	.loc	3 680 9                         @ ../../../CORTEX_MPU_M3_NUCLEO_L152RE_GCC/Demo/GenQTest.c:680:9
	b	.LBB8_33
.Ltmp308:
.LBB8_33:
	.loc	3 684 22                        @ ../../../CORTEX_MPU_M3_NUCLEO_L152RE_GCC/Demo/GenQTest.c:684:22
	movw	r0, :lower16:xLocalTaskHandles
	movt	r0, :upper16:xLocalTaskHandles
	ldr	r0, [r0, #8]
	.loc	3 684 9 is_stmt 0               @ ../../../CORTEX_MPU_M3_NUCLEO_L152RE_GCC/Demo/GenQTest.c:684:9
	bl	MPU_vTaskResume
	movs	r0, #0
.Ltmp309:
	.loc	3 688 13 is_stmt 1              @ ../../../CORTEX_MPU_M3_NUCLEO_L152RE_GCC/Demo/GenQTest.c:688:13
	bl	MPU_uxTaskPriorityGet
.Ltmp310:
	.loc	3 688 13 is_stmt 0              @ ../../../CORTEX_MPU_M3_NUCLEO_L152RE_GCC/Demo/GenQTest.c:688:13
	cmp	r0, #2
	beq	.LBB8_35
	b	.LBB8_34
.LBB8_34:
.Ltmp311:
	.loc	3 690 48 is_stmt 1              @ ../../../CORTEX_MPU_M3_NUCLEO_L152RE_GCC/Demo/GenQTest.c:690:48
	movw	r1, :lower16:xSharedArray
	movt	r1, :upper16:xSharedArray
	movs	r0, #1
	str	r0, [r1]
	.loc	3 691 9                         @ ../../../CORTEX_MPU_M3_NUCLEO_L152RE_GCC/Demo/GenQTest.c:691:9
	b	.LBB8_35
.Ltmp312:
.LBB8_35:
	.loc	3 694 22                        @ ../../../CORTEX_MPU_M3_NUCLEO_L152RE_GCC/Demo/GenQTest.c:694:22
	movw	r0, :lower16:xLocalTaskHandles
	movt	r0, :upper16:xLocalTaskHandles
	ldr	r0, [r0]
	.loc	3 694 9 is_stmt 0               @ ../../../CORTEX_MPU_M3_NUCLEO_L152RE_GCC/Demo/GenQTest.c:694:9
	bl	MPU_vTaskResume
	movs	r0, #0
.Ltmp313:
	.loc	3 698 13 is_stmt 1              @ ../../../CORTEX_MPU_M3_NUCLEO_L152RE_GCC/Demo/GenQTest.c:698:13
	bl	MPU_uxTaskPriorityGet
.Ltmp314:
	.loc	3 698 13 is_stmt 0              @ ../../../CORTEX_MPU_M3_NUCLEO_L152RE_GCC/Demo/GenQTest.c:698:13
	cmp	r0, #3
	beq	.LBB8_37
	b	.LBB8_36
.LBB8_36:
.Ltmp315:
	.loc	3 700 48 is_stmt 1              @ ../../../CORTEX_MPU_M3_NUCLEO_L152RE_GCC/Demo/GenQTest.c:700:48
	movw	r1, :lower16:xSharedArray
	movt	r1, :upper16:xSharedArray
	movs	r0, #1
	str	r0, [r1]
	.loc	3 701 9                         @ ../../../CORTEX_MPU_M3_NUCLEO_L152RE_GCC/Demo/GenQTest.c:701:9
	b	.LBB8_37
.Ltmp316:
.LBB8_37:
	.loc	3 707 43                        @ ../../../CORTEX_MPU_M3_NUCLEO_L152RE_GCC/Demo/GenQTest.c:707:43
	movw	r1, :lower16:xSharedArray
	movt	r1, :upper16:xSharedArray
	movs	r0, #1
	str	r0, [r1, #20]
.Ltmp317:
	.loc	3 709 30                        @ ../../../CORTEX_MPU_M3_NUCLEO_L152RE_GCC/Demo/GenQTest.c:709:30
	movw	r0, :lower16:xLocalTaskHandles
	movt	r0, :upper16:xLocalTaskHandles
	ldr	r0, [r0]
	.loc	3 709 13 is_stmt 0              @ ../../../CORTEX_MPU_M3_NUCLEO_L152RE_GCC/Demo/GenQTest.c:709:13
	bl	MPU_xTaskAbortDelay
.Ltmp318:
	.loc	3 709 13                        @ ../../../CORTEX_MPU_M3_NUCLEO_L152RE_GCC/Demo/GenQTest.c:709:13
	cmp	r0, #1
	beq	.LBB8_39
	b	.LBB8_38
.LBB8_38:
.Ltmp319:
	.loc	3 711 48 is_stmt 1              @ ../../../CORTEX_MPU_M3_NUCLEO_L152RE_GCC/Demo/GenQTest.c:711:48
	movw	r1, :lower16:xSharedArray
	movt	r1, :upper16:xSharedArray
	movs	r0, #1
	str	r0, [r1]
	.loc	3 712 9                         @ ../../../CORTEX_MPU_M3_NUCLEO_L152RE_GCC/Demo/GenQTest.c:712:9
	b	.LBB8_39
.Ltmp320:
.LBB8_39:
	.loc	3 714 9                         @ ../../../CORTEX_MPU_M3_NUCLEO_L152RE_GCC/Demo/GenQTest.c:714:9
	b	.LBB8_40
.LBB8_40:                               @ =>This Inner Loop Header: Depth=1
	.loc	3 0 9 is_stmt 0                 @ ../../../CORTEX_MPU_M3_NUCLEO_L152RE_GCC/Demo/GenQTest.c:0:9
	movs	r0, #0
	.loc	3 714 16                        @ ../../../CORTEX_MPU_M3_NUCLEO_L152RE_GCC/Demo/GenQTest.c:714:16
	bl	MPU_uxTaskPriorityGet
	.loc	3 714 9                         @ ../../../CORTEX_MPU_M3_NUCLEO_L152RE_GCC/Demo/GenQTest.c:714:9
	cmp	r0, #2
	beq	.LBB8_42
	b	.LBB8_41
.LBB8_41:                               @   in Loop: Header=BB8_40 Depth=1
	.loc	3 0 9                           @ ../../../CORTEX_MPU_M3_NUCLEO_L152RE_GCC/Demo/GenQTest.c:0:9
	movs	r0, #0
.Ltmp321:
	.loc	3 718 13 is_stmt 1              @ ../../../CORTEX_MPU_M3_NUCLEO_L152RE_GCC/Demo/GenQTest.c:718:13
	bl	MPU_vTaskDelay
.Ltmp322:
	.loc	3 714 9                         @ ../../../CORTEX_MPU_M3_NUCLEO_L152RE_GCC/Demo/GenQTest.c:714:9
	b	.LBB8_40
.LBB8_42:
	.loc	3 724 43                        @ ../../../CORTEX_MPU_M3_NUCLEO_L152RE_GCC/Demo/GenQTest.c:724:43
	movw	r1, :lower16:xSharedArray
	movt	r1, :upper16:xSharedArray
	movs	r0, #1
	str	r0, [r1, #20]
.Ltmp323:
	.loc	3 726 30                        @ ../../../CORTEX_MPU_M3_NUCLEO_L152RE_GCC/Demo/GenQTest.c:726:30
	movw	r0, :lower16:xLocalTaskHandles
	movt	r0, :upper16:xLocalTaskHandles
	ldr	r0, [r0, #8]
	.loc	3 726 13 is_stmt 0              @ ../../../CORTEX_MPU_M3_NUCLEO_L152RE_GCC/Demo/GenQTest.c:726:13
	bl	MPU_xTaskAbortDelay
.Ltmp324:
	.loc	3 726 13                        @ ../../../CORTEX_MPU_M3_NUCLEO_L152RE_GCC/Demo/GenQTest.c:726:13
	cmp	r0, #1
	beq	.LBB8_44
	b	.LBB8_43
.LBB8_43:
.Ltmp325:
	.loc	3 728 48 is_stmt 1              @ ../../../CORTEX_MPU_M3_NUCLEO_L152RE_GCC/Demo/GenQTest.c:728:48
	movw	r1, :lower16:xSharedArray
	movt	r1, :upper16:xSharedArray
	movs	r0, #1
	str	r0, [r1]
	.loc	3 729 9                         @ ../../../CORTEX_MPU_M3_NUCLEO_L152RE_GCC/Demo/GenQTest.c:729:9
	b	.LBB8_44
.Ltmp326:
.LBB8_44:
	.loc	3 731 9                         @ ../../../CORTEX_MPU_M3_NUCLEO_L152RE_GCC/Demo/GenQTest.c:731:9
	b	.LBB8_45
.LBB8_45:                               @ =>This Inner Loop Header: Depth=1
	.loc	3 0 9 is_stmt 0                 @ ../../../CORTEX_MPU_M3_NUCLEO_L152RE_GCC/Demo/GenQTest.c:0:9
	movs	r0, #0
	.loc	3 731 16                        @ ../../../CORTEX_MPU_M3_NUCLEO_L152RE_GCC/Demo/GenQTest.c:731:16
	bl	MPU_uxTaskPriorityGet
	.loc	3 731 9                         @ ../../../CORTEX_MPU_M3_NUCLEO_L152RE_GCC/Demo/GenQTest.c:731:9
	cbz	r0, .LBB8_47
	b	.LBB8_46
.LBB8_46:                               @   in Loop: Header=BB8_45 Depth=1
	.loc	3 0 9                           @ ../../../CORTEX_MPU_M3_NUCLEO_L152RE_GCC/Demo/GenQTest.c:0:9
	movs	r0, #0
.Ltmp327:
	.loc	3 735 13 is_stmt 1              @ ../../../CORTEX_MPU_M3_NUCLEO_L152RE_GCC/Demo/GenQTest.c:735:13
	bl	MPU_vTaskDelay
.Ltmp328:
	.loc	3 731 9                         @ ../../../CORTEX_MPU_M3_NUCLEO_L152RE_GCC/Demo/GenQTest.c:731:9
	b	.LBB8_45
.LBB8_47:
	.loc	3 739 9                         @ ../../../CORTEX_MPU_M3_NUCLEO_L152RE_GCC/Demo/GenQTest.c:739:9
	ldr	r0, [sp, #12]
	movs	r3, #0
	mov	r1, r3
	mov	r2, r3
	bl	MPU_xQueueGenericSend
.Ltmp329:
	.loc	3 741 9                         @ ../../../CORTEX_MPU_M3_NUCLEO_L152RE_GCC/Demo/GenQTest.c:741:9
	movw	r0, :lower16:xSharedArray
	movt	r0, :upper16:xSharedArray
	ldr	r0, [r0]
.Ltmp330:
	.loc	3 741 9 is_stmt 0               @ ../../../CORTEX_MPU_M3_NUCLEO_L152RE_GCC/Demo/GenQTest.c:741:9
	cbz	r0, .LBB8_50
	b	.LBB8_48
.LBB8_48:
.Ltmp331:
	.loc	3 741 9                         @ ../../../CORTEX_MPU_M3_NUCLEO_L152RE_GCC/Demo/GenQTest.c:741:9
	@APP
	cpsid i
	@NO_APP
	b	.LBB8_49
.LBB8_49:                               @ =>This Inner Loop Header: Depth=1
.Ltmp332:
	.loc	3 741 9                         @ ../../../CORTEX_MPU_M3_NUCLEO_L152RE_GCC/Demo/GenQTest.c:741:9
	b	.LBB8_49
.Ltmp333:
.LBB8_50:
	.loc	3 745 39 is_stmt 1              @ ../../../CORTEX_MPU_M3_NUCLEO_L152RE_GCC/Demo/GenQTest.c:745:39
	movw	r1, :lower16:xSharedArray
	movt	r1, :upper16:xSharedArray
	ldr	r0, [r1, #12]
	adds	r0, r0, #1
	str	r0, [r1, #12]
	.loc	3 746 5                         @ ../../../CORTEX_MPU_M3_NUCLEO_L152RE_GCC/Demo/GenQTest.c:746:5
	add	sp, #16
	pop	{r7, pc}
.Ltmp334:
.Lfunc_end8:
	.size	prvHighPriorityTimeout, .Lfunc_end8-prvHighPriorityTimeout
	.cfi_endproc
	.cantunwind
	.fnend
                                        @ -- End function
	.type	vStartGenericQueueTasks.xLowPriorityMutexTaskStack,%object @ @vStartGenericQueueTasks.xLowPriorityMutexTaskStack
	.section	.bss.vStartGenericQueueTasks.xLowPriorityMutexTaskStack,"aw",%nobits
	.p2align	9, 0x0
vStartGenericQueueTasks.xLowPriorityMutexTaskStack:
	.zero	512
	.size	vStartGenericQueueTasks.xLowPriorityMutexTaskStack, 512

	.type	vStartGenericQueueTasks.xMediumPriorityMutexTaskStack,%object @ @vStartGenericQueueTasks.xMediumPriorityMutexTaskStack
	.section	.bss.vStartGenericQueueTasks.xMediumPriorityMutexTaskStack,"aw",%nobits
	.p2align	9, 0x0
vStartGenericQueueTasks.xMediumPriorityMutexTaskStack:
	.zero	512
	.size	vStartGenericQueueTasks.xMediumPriorityMutexTaskStack, 512

	.type	vStartGenericQueueTasks.xHighPriorityMutexTaskStack,%object @ @vStartGenericQueueTasks.xHighPriorityMutexTaskStack
	.section	.bss.vStartGenericQueueTasks.xHighPriorityMutexTaskStack,"aw",%nobits
	.p2align	9, 0x0
vStartGenericQueueTasks.xHighPriorityMutexTaskStack:
	.zero	512
	.size	vStartGenericQueueTasks.xHighPriorityMutexTaskStack, 512

	.type	vStartGenericQueueTasks.xHighPriorityMutexTask2Stack,%object @ @vStartGenericQueueTasks.xHighPriorityMutexTask2Stack
	.section	.bss.vStartGenericQueueTasks.xHighPriorityMutexTask2Stack,"aw",%nobits
	.p2align	9, 0x0
vStartGenericQueueTasks.xHighPriorityMutexTask2Stack:
	.zero	512
	.size	vStartGenericQueueTasks.xHighPriorityMutexTask2Stack, 512

	.type	vStartGenericQueueTasks.xSendFrontAndBackTestStack,%object @ @vStartGenericQueueTasks.xSendFrontAndBackTestStack
	.section	.bss.vStartGenericQueueTasks.xSendFrontAndBackTestStack,"aw",%nobits
	.p2align	9, 0x0
vStartGenericQueueTasks.xSendFrontAndBackTestStack:
	.zero	512
	.size	vStartGenericQueueTasks.xSendFrontAndBackTestStack, 512

	.type	.L.str,%object                  @ @.str
	.section	.rodata.str1.1,"aMS",%progbits,1
.L.str:
	.asciz	"GenQ"
	.size	.L.str, 5

	.type	xSharedArray,%object            @ @xSharedArray
	.section	.bss.xSharedArray,"aw",%nobits
	.p2align	5, 0x0
xSharedArray:
	.zero	32
	.size	xSharedArray, 32

	.type	.Lconstinit,%object             @ @constinit
	.section	.data..Lconstinit,"aw",%progbits
	.p2align	2, 0x0
.Lconstinit:
	.long	xSharedArray
	.long	32                              @ 0x20
	.long	3                               @ 0x3
	.zero	12
	.zero	12
	.size	.Lconstinit, 36

	.type	.L.str.1,%object                @ @.str.1
	.section	.rodata.str1.1,"aMS",%progbits,1
.L.str.1:
	.asciz	"MuLow"
	.size	.L.str.1, 6

	.type	xLocalTaskHandles,%object       @ @xLocalTaskHandles
	.section	.bss.xLocalTaskHandles,"aw",%nobits
	.p2align	5, 0x0
xLocalTaskHandles:
	.zero	32
	.size	xLocalTaskHandles, 32

	.type	.Lconstinit.2,%object           @ @constinit.2
	.section	.data..Lconstinit.2,"aw",%progbits
	.p2align	2, 0x0
.Lconstinit.2:
	.long	xSharedArray
	.long	32                              @ 0x20
	.long	3                               @ 0x3
	.long	xLocalTaskHandles
	.long	32                              @ 0x20
	.long	3                               @ 0x3
	.zero	12
	.size	.Lconstinit.2, 36

	.type	.L.str.3,%object                @ @.str.3
	.section	.rodata.str1.1,"aMS",%progbits,1
.L.str.3:
	.asciz	"MuMed"
	.size	.L.str.3, 6

	.type	.L__const.vStartGenericQueueTasks.xMediumPriorityMutexTaskParameters,%object @ @__const.vStartGenericQueueTasks.xMediumPriorityMutexTaskParameters
	.section	.rodata..L__const.vStartGenericQueueTasks.xMediumPriorityMutexTaskParameters,"a",%progbits
	.p2align	2, 0x0
.L__const.vStartGenericQueueTasks.xMediumPriorityMutexTaskParameters:
	.long	prvMediumPriorityMutexTask
	.long	.L.str.3
	.short	128                             @ 0x80
	.zero	2
	.long	0
	.long	2                               @ 0x2
	.long	vStartGenericQueueTasks.xMediumPriorityMutexTaskStack
	.long	xSharedArray
	.long	32                              @ 0x20
	.long	3                               @ 0x3
	.zero	12
	.zero	12
	.long	0
	.size	.L__const.vStartGenericQueueTasks.xMediumPriorityMutexTaskParameters, 64

	.type	.L.str.4,%object                @ @.str.4
	.section	.rodata.str1.1,"aMS",%progbits,1
.L.str.4:
	.asciz	"MuHigh"
	.size	.L.str.4, 7

	.type	.Lconstinit.5,%object           @ @constinit.5
	.section	.data..Lconstinit.5,"aw",%progbits
	.p2align	2, 0x0
.Lconstinit.5:
	.long	xSharedArray
	.long	32                              @ 0x20
	.long	3                               @ 0x3
	.zero	12
	.zero	12
	.size	.Lconstinit.5, 36

	.type	.L.str.6,%object                @ @.str.6
	.section	.rodata.str1.1,"aMS",%progbits,1
.L.str.6:
	.asciz	"MuHigh2"
	.size	.L.str.6, 8

	.type	.Lconstinit.7,%object           @ @constinit.7
	.section	.data..Lconstinit.7,"aw",%progbits
	.p2align	2, 0x0
.Lconstinit.7:
	.long	xSharedArray
	.long	32                              @ 0x20
	.long	3                               @ 0x3
	.zero	12
	.zero	12
	.size	.Lconstinit.7, 36

	.type	xAreGenericQueueTasksStillRunning.ulLastLoopCounter,%object @ @xAreGenericQueueTasksStillRunning.ulLastLoopCounter
	.section	.bss.xAreGenericQueueTasksStillRunning.ulLastLoopCounter,"aw",%nobits
	.p2align	2, 0x0
xAreGenericQueueTasksStillRunning.ulLastLoopCounter:
	.long	0                               @ 0x0
	.size	xAreGenericQueueTasksStillRunning.ulLastLoopCounter, 4

	.type	xAreGenericQueueTasksStillRunning.ulLastLoopCounter2,%object @ @xAreGenericQueueTasksStillRunning.ulLastLoopCounter2
	.section	.bss.xAreGenericQueueTasksStillRunning.ulLastLoopCounter2,"aw",%nobits
	.p2align	2, 0x0
xAreGenericQueueTasksStillRunning.ulLastLoopCounter2:
	.long	0                               @ 0x0
	.size	xAreGenericQueueTasksStillRunning.ulLastLoopCounter2, 4

	.file	7 "C:\\Users\\karahulx\\Downloads\\Kernel\\FreeRTOS\\FreeRTOS\\Demo\\CORTEX_MPU_M23_Nuvoton_NuMaker_PFM_M2351_IAR_GCC\\Projects_NTZ\\Keil" "../../../../Source/include/projdefs.h"
	.file	8 "C:\\Users\\karahulx\\Downloads\\Kernel\\FreeRTOS\\FreeRTOS\\Demo\\CORTEX_MPU_M23_Nuvoton_NuMaker_PFM_M2351_IAR_GCC\\Projects_NTZ\\Keil" "../../../../Source/include\\FreeRTOS.h"
	.section	".note.GNU-stack","",%progbits
	.eabi_attribute	30, 6	@ Tag_ABI_optimization_goals
	.ARM_attribute	16, 1	@ Tag_AV_eba