	.text
	.syntax unified
	.eabi_attribute	67, "2.09"	@ Tag_conformance
	.eabi_attribute	6, 16	@ Tag_CPU_arch
	.eabi_attribute	7, 77	@ Tag_CPU_arch_profile
	.eabi_attribute	8, 0	@ Tag_ARM_ISA_use
	.eabi_attribute	9, 3	@ Tag_THUMB_ISA_use
	.eabi_attribute	34, 0	@ Tag_CPU_unaligned_access
	.eabi_attribute	17, 1	@ Tag_ABI_PCS_GOT_use
	.eabi_attribute	20, 2	@ Tag_ABI_FP_denormal
	.eabi_attribute	21, 0	@ Tag_ABI_FP_exceptions
	.eabi_attribute	23, 1	@ Tag_ABI_FP_number_model
	.eabi_attribute	24, 1	@ Tag_ABI_align_needed
	.eabi_attribute	25, 1	@ Tag_ABI_align_preserved
	.eabi_attribute	38, 1	@ Tag_ABI_FP_16bit_format
	.eabi_attribute	18, 4	@ Tag_ABI_PCS_wchar_t
	.eabi_attribute	26, 2	@ Tag_ABI_enum_size
	.eabi_attribute	14, 0	@ Tag_ABI_PCS_R9_use
	.file	"gpio.c"
	.section	.text.GPIO_SetMode,"ax",%progbits
	.hidden	GPIO_SetMode                    @ -- Begin function GPIO_SetMode
	.globl	GPIO_SetMode
	.p2align	1
	.type	GPIO_SetMode,%function
	.code	16                              @ @GPIO_SetMode
	.thumb_func
GPIO_SetMode:
.Lfunc_begin0:
	.file	1 "C:\\Users\\karahulx\\Downloads\\Kernel\\FreeRTOS\\FreeRTOS\\Demo\\CORTEX_MPU_M23_Nuvoton_NuMaker_PFM_M2351_IAR_GCC\\Projects_NTZ\\Keil" "../../Nuvoton_Code/StdDriver/src/gpio.c"
	.loc	1 46 0                          @ ../../Nuvoton_Code/StdDriver/src/gpio.c:46:0
	.fnstart
	.cfi_sections .debug_frame
	.cfi_startproc
@ %bb.0:
	.pad	#16
	sub	sp, #16
	.cfi_def_cfa_offset 16
	str	r0, [sp, #12]
	str	r1, [sp, #8]
	str	r2, [sp, #4]
	movs	r0, #0
.Ltmp0:
	.loc	1 49 16 prologue_end            @ ../../Nuvoton_Code/StdDriver/src/gpio.c:49:16
	str	r0, [sp]
	.loc	1 49 9 is_stmt 0                @ ../../Nuvoton_Code/StdDriver/src/gpio.c:49:9
	b	.LBB0_1
.LBB0_1:                                @ =>This Inner Loop Header: Depth=1
.Ltmp1:
	.loc	1 49 23                         @ ../../Nuvoton_Code/StdDriver/src/gpio.c:49:23
	ldr	r0, [sp]
.Ltmp2:
	.loc	1 49 5                          @ ../../Nuvoton_Code/StdDriver/src/gpio.c:49:5
	cmp	r0, #15
	bhi	.LBB0_6
	b	.LBB0_2
.LBB0_2:                                @   in Loop: Header=BB0_1 Depth=1
.Ltmp3:
	.loc	1 51 13 is_stmt 1               @ ../../Nuvoton_Code/StdDriver/src/gpio.c:51:13
	ldr	r0, [sp, #8]
	.loc	1 51 34 is_stmt 0               @ ../../Nuvoton_Code/StdDriver/src/gpio.c:51:34
	ldr	r1, [sp]
.Ltmp4:
	.loc	1 51 12                         @ ../../Nuvoton_Code/StdDriver/src/gpio.c:51:12
	lsrs	r0, r1
	lsls	r0, r0, #31
	cbz	r0, .LBB0_4
	b	.LBB0_3
.LBB0_3:                                @   in Loop: Header=BB0_1 Depth=1
.Ltmp5:
	.loc	1 53 27 is_stmt 1               @ ../../Nuvoton_Code/StdDriver/src/gpio.c:53:27
	ldr	r0, [sp, #12]
	.loc	1 53 33 is_stmt 0               @ ../../Nuvoton_Code/StdDriver/src/gpio.c:53:33
	ldr	r0, [r0]
	.loc	1 53 52                         @ ../../Nuvoton_Code/StdDriver/src/gpio.c:53:52
	ldr	r1, [sp]
	.loc	1 53 59                         @ ../../Nuvoton_Code/StdDriver/src/gpio.c:53:59
	lsls	r2, r1, #1
	movs	r1, #3
	.loc	1 53 48                         @ ../../Nuvoton_Code/StdDriver/src/gpio.c:53:48
	lsls	r1, r2
	.loc	1 53 38                         @ ../../Nuvoton_Code/StdDriver/src/gpio.c:53:38
	bics	r0, r1
	.loc	1 53 70                         @ ../../Nuvoton_Code/StdDriver/src/gpio.c:53:70
	ldr	r1, [sp, #4]
	.loc	1 53 78                         @ ../../Nuvoton_Code/StdDriver/src/gpio.c:53:78
	lsls	r1, r2
	.loc	1 53 67                         @ ../../Nuvoton_Code/StdDriver/src/gpio.c:53:67
	orrs	r0, r1
	.loc	1 53 13                         @ ../../Nuvoton_Code/StdDriver/src/gpio.c:53:13
	ldr	r1, [sp, #12]
	.loc	1 53 24                         @ ../../Nuvoton_Code/StdDriver/src/gpio.c:53:24
	str	r0, [r1]
	.loc	1 54 9 is_stmt 1                @ ../../Nuvoton_Code/StdDriver/src/gpio.c:54:9
	b	.LBB0_4
.Ltmp6:
.LBB0_4:                                @   in Loop: Header=BB0_1 Depth=1
	.loc	1 55 5                          @ ../../Nuvoton_Code/StdDriver/src/gpio.c:55:5
	b	.LBB0_5
.Ltmp7:
.LBB0_5:                                @   in Loop: Header=BB0_1 Depth=1
	.loc	1 49 52                         @ ../../Nuvoton_Code/StdDriver/src/gpio.c:49:52
	ldr	r0, [sp]
	adds	r0, r0, #1
	str	r0, [sp]
	.loc	1 49 5 is_stmt 0                @ ../../Nuvoton_Code/StdDriver/src/gpio.c:49:5
	b	.LBB0_1
.Ltmp8:
.LBB0_6:
	.loc	1 56 1 is_stmt 1                @ ../../Nuvoton_Code/StdDriver/src/gpio.c:56:1
	add	sp, #16
	bx	lr
.Ltmp9:
.Lfunc_end0:
	.size	GPIO_SetMode, .Lfunc_end0-GPIO_SetMode
	.cfi_endproc
	.cantunwind
	.fnend
                                        @ -- End function
	.section	.text.GPIO_EnableInt,"ax",%progbits
	.hidden	GPIO_EnableInt                  @ -- Begin function GPIO_EnableInt
	.globl	GPIO_EnableInt
	.p2align	1
	.type	GPIO_EnableInt,%function
	.code	16                              @ @GPIO_EnableInt
	.thumb_func
GPIO_EnableInt:
.Lfunc_begin1:
	.loc	1 81 0                          @ ../../Nuvoton_Code/StdDriver/src/gpio.c:81:0
	.fnstart
	.cfi_startproc
@ %bb.0:
	.pad	#12
	sub	sp, #12
	.cfi_def_cfa_offset 12
	str	r0, [sp, #8]
	str	r1, [sp, #4]
	str	r2, [sp]
.Ltmp10:
	.loc	1 83 22 prologue_end            @ ../../Nuvoton_Code/StdDriver/src/gpio.c:83:22
	ldr	r0, [sp, #8]
	.loc	1 83 28 is_stmt 0               @ ../../Nuvoton_Code/StdDriver/src/gpio.c:83:28
	ldr	r0, [r0, #24]
	.loc	1 83 47                         @ ../../Nuvoton_Code/StdDriver/src/gpio.c:83:47
	ldr	r2, [sp, #4]
	movs	r1, #1
	.loc	1 83 44                         @ ../../Nuvoton_Code/StdDriver/src/gpio.c:83:44
	lsls	r1, r2
	.loc	1 83 36                         @ ../../Nuvoton_Code/StdDriver/src/gpio.c:83:36
	bics	r0, r1
	mov	r1, sp
	.loc	1 83 61                         @ ../../Nuvoton_Code/StdDriver/src/gpio.c:83:61
	ldrb	r1, [r1, #3]
	.loc	1 83 92                         @ ../../Nuvoton_Code/StdDriver/src/gpio.c:83:92
	lsls	r1, r2
	.loc	1 83 56                         @ ../../Nuvoton_Code/StdDriver/src/gpio.c:83:56
	orrs	r0, r1
	.loc	1 83 5                          @ ../../Nuvoton_Code/StdDriver/src/gpio.c:83:5
	ldr	r1, [sp, #8]
	.loc	1 83 19                         @ ../../Nuvoton_Code/StdDriver/src/gpio.c:83:19
	str	r0, [r1, #24]
	.loc	1 86 20 is_stmt 1               @ ../../Nuvoton_Code/StdDriver/src/gpio.c:86:20
	ldr	r0, [sp, #8]
	.loc	1 86 26 is_stmt 0               @ ../../Nuvoton_Code/StdDriver/src/gpio.c:86:26
	ldr	r0, [r0, #28]
	.loc	1 86 52                         @ ../../Nuvoton_Code/StdDriver/src/gpio.c:86:52
	ldr	r2, [sp, #4]
	movw	r1, #1
	movt	r1, #1
	.loc	1 86 49                         @ ../../Nuvoton_Code/StdDriver/src/gpio.c:86:49
	lsls	r1, r2
	.loc	1 86 32                         @ ../../Nuvoton_Code/StdDriver/src/gpio.c:86:32
	bics	r0, r1
	.loc	1 86 65                         @ ../../Nuvoton_Code/StdDriver/src/gpio.c:86:65
	ldr	r1, [sp]
	movw	r3, #65535
	movt	r3, #255
	.loc	1 86 79                         @ ../../Nuvoton_Code/StdDriver/src/gpio.c:86:79
	ands	r1, r3
	.loc	1 86 93                         @ ../../Nuvoton_Code/StdDriver/src/gpio.c:86:93
	lsls	r1, r2
	.loc	1 86 61                         @ ../../Nuvoton_Code/StdDriver/src/gpio.c:86:61
	orrs	r0, r1
	.loc	1 86 5                          @ ../../Nuvoton_Code/StdDriver/src/gpio.c:86:5
	ldr	r1, [sp, #8]
	.loc	1 86 17                         @ ../../Nuvoton_Code/StdDriver/src/gpio.c:86:17
	str	r0, [r1, #28]
	.loc	1 87 1 is_stmt 1                @ ../../Nuvoton_Code/StdDriver/src/gpio.c:87:1
	add	sp, #12
	bx	lr
.Ltmp11:
.Lfunc_end1:
	.size	GPIO_EnableInt, .Lfunc_end1-GPIO_EnableInt
	.cfi_endproc
	.cantunwind
	.fnend
                                        @ -- End function
	.section	.text.GPIO_DisableInt,"ax",%progbits
	.hidden	GPIO_DisableInt                 @ -- Begin function GPIO_DisableInt
	.globl	GPIO_DisableInt
	.p2align	1
	.type	GPIO_DisableInt,%function
	.code	16                              @ @GPIO_DisableInt
	.thumb_func
GPIO_DisableInt:
.Lfunc_begin2:
	.loc	1 108 0                         @ ../../Nuvoton_Code/StdDriver/src/gpio.c:108:0
	.fnstart
	.cfi_startproc
@ %bb.0:
	.pad	#8
	sub	sp, #8
	.cfi_def_cfa_offset 8
	str	r0, [sp, #4]
	str	r1, [sp]
.Ltmp12:
	.loc	1 110 31 prologue_end           @ ../../Nuvoton_Code/StdDriver/src/gpio.c:110:31
	ldr	r0, [sp]
	movs	r2, #1
	.loc	1 110 28 is_stmt 0              @ ../../Nuvoton_Code/StdDriver/src/gpio.c:110:28
	lsls	r2, r0
	.loc	1 110 5                         @ ../../Nuvoton_Code/StdDriver/src/gpio.c:110:5
	ldr	r1, [sp, #4]
	.loc	1 110 19                        @ ../../Nuvoton_Code/StdDriver/src/gpio.c:110:19
	ldr	r0, [r1, #24]
	bics	r0, r2
	str	r0, [r1, #24]
	.loc	1 113 40 is_stmt 1              @ ../../Nuvoton_Code/StdDriver/src/gpio.c:113:40
	ldr	r0, [sp]
	movw	r2, #1
	movt	r2, #1
	.loc	1 113 37 is_stmt 0              @ ../../Nuvoton_Code/StdDriver/src/gpio.c:113:37
	lsls	r2, r0
	.loc	1 113 5                         @ ../../Nuvoton_Code/StdDriver/src/gpio.c:113:5
	ldr	r1, [sp, #4]
	.loc	1 113 17                        @ ../../Nuvoton_Code/StdDriver/src/gpio.c:113:17
	ldr	r0, [r1, #28]
	bics	r0, r2
	str	r0, [r1, #28]
	.loc	1 114 1 is_stmt 1               @ ../../Nuvoton_Code/StdDriver/src/gpio.c:114:1
	add	sp, #8
	bx	lr
.Ltmp13:
.Lfunc_end2:
	.size	GPIO_DisableInt, .Lfunc_end2-GPIO_DisableInt
	.cfi_endproc
	.cantunwind
	.fnend
                                        @ -- End function
	.section	.text.GPIO_SetSlewCtl,"ax",%progbits
	.hidden	GPIO_SetSlewCtl                 @ -- Begin function GPIO_SetSlewCtl
	.globl	GPIO_SetSlewCtl
	.p2align	1
	.type	GPIO_SetSlewCtl,%function
	.code	16                              @ @GPIO_SetSlewCtl
	.thumb_func
GPIO_SetSlewCtl:
.Lfunc_begin3:
	.loc	1 138 0                         @ ../../Nuvoton_Code/StdDriver/src/gpio.c:138:0
	.fnstart
	.cfi_startproc
@ %bb.0:
	.pad	#16
	sub	sp, #16
	.cfi_def_cfa_offset 16
	str	r0, [sp, #12]
	str	r1, [sp, #8]
	str	r2, [sp, #4]
	movs	r0, #0
.Ltmp14:
	.loc	1 141 16 prologue_end           @ ../../Nuvoton_Code/StdDriver/src/gpio.c:141:16
	str	r0, [sp]
	.loc	1 141 9 is_stmt 0               @ ../../Nuvoton_Code/StdDriver/src/gpio.c:141:9
	b	.LBB3_1
.LBB3_1:                                @ =>This Inner Loop Header: Depth=1
.Ltmp15:
	.loc	1 141 23                        @ ../../Nuvoton_Code/StdDriver/src/gpio.c:141:23
	ldr	r0, [sp]
.Ltmp16:
	.loc	1 141 5                         @ ../../Nuvoton_Code/StdDriver/src/gpio.c:141:5
	cmp	r0, #15
	bhi	.LBB3_6
	b	.LBB3_2
.LBB3_2:                                @   in Loop: Header=BB3_1 Depth=1
.Ltmp17:
	.loc	1 143 12 is_stmt 1              @ ../../Nuvoton_Code/StdDriver/src/gpio.c:143:12
	ldr	r0, [sp, #8]
	.loc	1 143 33 is_stmt 0              @ ../../Nuvoton_Code/StdDriver/src/gpio.c:143:33
	ldr	r1, [sp]
.Ltmp18:
	.loc	1 143 12                        @ ../../Nuvoton_Code/StdDriver/src/gpio.c:143:12
	lsrs	r0, r1
	lsls	r0, r0, #31
	cbz	r0, .LBB3_4
	b	.LBB3_3
.LBB3_3:                                @   in Loop: Header=BB3_1 Depth=1
.Ltmp19:
	.loc	1 145 30 is_stmt 1              @ ../../Nuvoton_Code/StdDriver/src/gpio.c:145:30
	ldr	r0, [sp, #12]
	.loc	1 145 36 is_stmt 0              @ ../../Nuvoton_Code/StdDriver/src/gpio.c:145:36
	ldr	r0, [r0, #40]
	.loc	1 145 58                        @ ../../Nuvoton_Code/StdDriver/src/gpio.c:145:58
	ldr	r1, [sp]
	.loc	1 145 65                        @ ../../Nuvoton_Code/StdDriver/src/gpio.c:145:65
	lsls	r2, r1, #1
	movs	r1, #3
	.loc	1 145 54                        @ ../../Nuvoton_Code/StdDriver/src/gpio.c:145:54
	lsls	r1, r2
	.loc	1 145 44                        @ ../../Nuvoton_Code/StdDriver/src/gpio.c:145:44
	bics	r0, r1
	.loc	1 145 76                        @ ../../Nuvoton_Code/StdDriver/src/gpio.c:145:76
	ldr	r1, [sp, #4]
	.loc	1 145 84                        @ ../../Nuvoton_Code/StdDriver/src/gpio.c:145:84
	lsls	r1, r2
	.loc	1 145 73                        @ ../../Nuvoton_Code/StdDriver/src/gpio.c:145:73
	orrs	r0, r1
	.loc	1 145 13                        @ ../../Nuvoton_Code/StdDriver/src/gpio.c:145:13
	ldr	r1, [sp, #12]
	.loc	1 145 27                        @ ../../Nuvoton_Code/StdDriver/src/gpio.c:145:27
	str	r0, [r1, #40]
	.loc	1 146 9 is_stmt 1               @ ../../Nuvoton_Code/StdDriver/src/gpio.c:146:9
	b	.LBB3_4
.Ltmp20:
.LBB3_4:                                @   in Loop: Header=BB3_1 Depth=1
	.loc	1 147 5                         @ ../../Nuvoton_Code/StdDriver/src/gpio.c:147:5
	b	.LBB3_5
.Ltmp21:
.LBB3_5:                                @   in Loop: Header=BB3_1 Depth=1
	.loc	1 141 52                        @ ../../Nuvoton_Code/StdDriver/src/gpio.c:141:52
	ldr	r0, [sp]
	adds	r0, r0, #1
	str	r0, [sp]
	.loc	1 141 5 is_stmt 0               @ ../../Nuvoton_Code/StdDriver/src/gpio.c:141:5
	b	.LBB3_1
.Ltmp22:
.LBB3_6:
	.loc	1 148 1 is_stmt 1               @ ../../Nuvoton_Code/StdDriver/src/gpio.c:148:1
	add	sp, #16
	bx	lr
.Ltmp23:
.Lfunc_end3:
	.size	GPIO_SetSlewCtl, .Lfunc_end3-GPIO_SetSlewCtl
	.cfi_endproc
	.cantunwind
	.fnend
                                        @ -- End function
	.section	.text.GPIO_SetPullCtl,"ax",%progbits
	.hidden	GPIO_SetPullCtl                 @ -- Begin function GPIO_SetPullCtl
	.globl	GPIO_SetPullCtl
	.p2align	1
	.type	GPIO_SetPullCtl,%function
	.code	16                              @ @GPIO_SetPullCtl
	.thumb_func
GPIO_SetPullCtl:
.Lfunc_begin4:
	.loc	1 172 0                         @ ../../Nuvoton_Code/StdDriver/src/gpio.c:172:0
	.fnstart
	.cfi_startproc
@ %bb.0:
	.pad	#16
	sub	sp, #16
	.cfi_def_cfa_offset 16
	str	r0, [sp, #12]
	str	r1, [sp, #8]
	str	r2, [sp, #4]
	movs	r0, #0
.Ltmp24:
	.loc	1 175 16 prologue_end           @ ../../Nuvoton_Code/StdDriver/src/gpio.c:175:16
	str	r0, [sp]
	.loc	1 175 9 is_stmt 0               @ ../../Nuvoton_Code/StdDriver/src/gpio.c:175:9
	b	.LBB4_1
.LBB4_1:                                @ =>This Inner Loop Header: Depth=1
.Ltmp25:
	.loc	1 175 23                        @ ../../Nuvoton_Code/StdDriver/src/gpio.c:175:23
	ldr	r0, [sp]
.Ltmp26:
	.loc	1 175 5                         @ ../../Nuvoton_Code/StdDriver/src/gpio.c:175:5
	cmp	r0, #15
	bhi	.LBB4_6
	b	.LBB4_2
.LBB4_2:                                @   in Loop: Header=BB4_1 Depth=1
.Ltmp27:
	.loc	1 177 12 is_stmt 1              @ ../../Nuvoton_Code/StdDriver/src/gpio.c:177:12
	ldr	r0, [sp, #8]
	.loc	1 177 33 is_stmt 0              @ ../../Nuvoton_Code/StdDriver/src/gpio.c:177:33
	ldr	r1, [sp]
.Ltmp28:
	.loc	1 177 12                        @ ../../Nuvoton_Code/StdDriver/src/gpio.c:177:12
	lsrs	r0, r1
	lsls	r0, r0, #31
	cbz	r0, .LBB4_4
	b	.LBB4_3
.LBB4_3:                                @   in Loop: Header=BB4_1 Depth=1
.Ltmp29:
	.loc	1 179 28 is_stmt 1              @ ../../Nuvoton_Code/StdDriver/src/gpio.c:179:28
	ldr	r0, [sp, #12]
	.loc	1 179 34 is_stmt 0              @ ../../Nuvoton_Code/StdDriver/src/gpio.c:179:34
	ldr	r0, [r0, #48]
	.loc	1 179 54                        @ ../../Nuvoton_Code/StdDriver/src/gpio.c:179:54
	ldr	r1, [sp]
	.loc	1 179 61                        @ ../../Nuvoton_Code/StdDriver/src/gpio.c:179:61
	lsls	r2, r1, #1
	movs	r1, #3
	.loc	1 179 50                        @ ../../Nuvoton_Code/StdDriver/src/gpio.c:179:50
	lsls	r1, r2
	.loc	1 179 40                        @ ../../Nuvoton_Code/StdDriver/src/gpio.c:179:40
	bics	r0, r1
	.loc	1 179 72                        @ ../../Nuvoton_Code/StdDriver/src/gpio.c:179:72
	ldr	r1, [sp, #4]
	.loc	1 179 80                        @ ../../Nuvoton_Code/StdDriver/src/gpio.c:179:80
	lsls	r1, r2
	.loc	1 179 69                        @ ../../Nuvoton_Code/StdDriver/src/gpio.c:179:69
	orrs	r0, r1
	.loc	1 179 13                        @ ../../Nuvoton_Code/StdDriver/src/gpio.c:179:13
	ldr	r1, [sp, #12]
	.loc	1 179 25                        @ ../../Nuvoton_Code/StdDriver/src/gpio.c:179:25
	str	r0, [r1, #48]
	.loc	1 180 9 is_stmt 1               @ ../../Nuvoton_Code/StdDriver/src/gpio.c:180:9
	b	.LBB4_4
.Ltmp30:
.LBB4_4:                                @   in Loop: Header=BB4_1 Depth=1
	.loc	1 181 5                         @ ../../Nuvoton_Code/StdDriver/src/gpio.c:181:5
	b	.LBB4_5
.Ltmp31:
.LBB4_5:                                @   in Loop: Header=BB4_1 Depth=1
	.loc	1 175 52                        @ ../../Nuvoton_Code/StdDriver/src/gpio.c:175:52
	ldr	r0, [sp]
	adds	r0, r0, #1
	str	r0, [sp]
	.loc	1 175 5 is_stmt 0               @ ../../Nuvoton_Code/StdDriver/src/gpio.c:175:5
	b	.LBB4_1
.Ltmp32:
.LBB4_6:
	.loc	1 182 1 is_stmt 1               @ ../../Nuvoton_Code/StdDriver/src/gpio.c:182:1
	add	sp, #16
	bx	lr
.Ltmp33:
.Lfunc_end4:
	.size	GPIO_SetPullCtl, .Lfunc_end4-GPIO_SetPullCtl
	.cfi_endproc
	.cantunwind
	.fnend
                                        @ -- End function
	.file	2 "C:\\Keil_v5\\ARM\\ARMCLANG\\Bin\\..\\include" "stdint.h"
	.file	3 "C:\\Users\\karahulx\\Downloads\\Kernel\\FreeRTOS\\FreeRTOS\\Demo\\CORTEX_MPU_M23_Nuvoton_NuMaker_PFM_M2351_IAR_GCC\\Projects_NTZ\\Keil" "../../Nuvoton_Code/Device/Nuvoton/M2351/Include/gpio_reg.h"
	.section	".note.GNU-stack","",%progbits
	.eabi_attribute	30, 6	@ Tag_ABI_optimization_goals
	.ARM_attribute	16, 1	@ Tag_AV_eba