	.text
	.syntax unified
	.eabi_attribute	67, "2.09"	@ Tag_conformance
	.eabi_attribute	6, 16	@ Tag_CPU_arch
	.eabi_attribute	7, 77	@ Tag_CPU_arch_profile
	.eabi_attribute	8, 0	@ Tag_ARM_ISA_use
	.eabi_attribute	9, 3	@ Tag_THUMB_ISA_use
	.eabi_attribute	34, 0	@ Tag_CPU_unaligned_access
	.eabi_attribute	17, 1	@ Tag_ABI_PCS_GOT_use
	.eabi_attribute	20, 2	@ Tag_ABI_FP_denormal
	.eabi_attribute	21, 0	@ Tag_ABI_FP_exceptions
	.eabi_attribute	23, 1	@ Tag_ABI_FP_number_model
	.eabi_attribute	24, 1	@ Tag_ABI_align_needed
	.eabi_attribute	25, 1	@ Tag_ABI_align_preserved
	.eabi_attribute	38, 1	@ Tag_ABI_FP_16bit_format
	.eabi_attribute	18, 4	@ Tag_ABI_PCS_wchar_t
	.eabi_attribute	26, 2	@ Tag_ABI_enum_size
	.eabi_attribute	14, 0	@ Tag_ABI_PCS_R9_use
	.file	"integer.c"
	.file	1 "C:\\Keil_v5\\ARM\\ARMCLANG\\Bin\\..\\include" "stdint.h"
	.file	2 "C:\\Users\\karahulx\\Downloads\\Kernel\\FreeRTOS\\FreeRTOS\\Demo\\CORTEX_MPU_M23_Nuvoton_NuMaker_PFM_M2351_IAR_GCC\\Projects_NTZ\\Keil" "../../../../Source/portable/GCC/ARM_CM23_NTZ/non_secure/portmacrocommon.h"
	.file	3 "C:\\Users\\karahulx\\Downloads\\Kernel\\FreeRTOS\\FreeRTOS\\Demo\\CORTEX_MPU_M23_Nuvoton_NuMaker_PFM_M2351_IAR_GCC\\Projects_NTZ\\Keil" "../../../CORTEX_MPU_M3_NUCLEO_L152RE_GCC/Demo/integer.c"
	.section	.text.vStartIntegerMathTasks,"ax",%progbits
	.hidden	vStartIntegerMathTasks          @ -- Begin function vStartIntegerMathTasks
	.globl	vStartIntegerMathTasks
	.p2align	1
	.type	vStartIntegerMathTasks,%function
	.code	16                              @ @vStartIntegerMathTasks
	.thumb_func
vStartIntegerMathTasks:
.Lfunc_begin0:
	.loc	3 69 0                          @ ../../../CORTEX_MPU_M3_NUCLEO_L152RE_GCC/Demo/integer.c:69:0
	.fnstart
	.cfi_sections .debug_frame
	.cfi_startproc
@ %bb.0:
	.save	{r4, r5, r7, lr}
	push	{r4, r5, r7, lr}
	.cfi_def_cfa_offset 16
	.cfi_offset lr, -4
	.cfi_offset r7, -8
	.cfi_offset r5, -12
	.cfi_offset r4, -16
	.pad	#72
	sub	sp, #72
	.cfi_def_cfa_offset 88
	str	r0, [sp, #68]
.Ltmp0:
	.loc	3 72 5 prologue_end             @ ../../../CORTEX_MPU_M3_NUCLEO_L152RE_GCC/Demo/integer.c:72:5
	movw	r0, :lower16:vCompeteingIntMathTask
	movt	r0, :upper16:vCompeteingIntMathTask
	str	r0, [sp, #4]
	movw	r0, :lower16:.L.str
	movt	r0, :upper16:.L.str
	str	r0, [sp, #8]
	add	r0, sp, #4
	movs	r1, #128
	strh	r1, [r0, #8]
	movw	r1, :lower16:xTaskCheck
	movt	r1, :upper16:xTaskCheck
	str	r1, [sp, #16]
	.loc	3 77 28                         @ ../../../CORTEX_MPU_M3_NUCLEO_L152RE_GCC/Demo/integer.c:77:28
	ldr	r1, [sp, #68]
	.loc	3 72 5                          @ ../../../CORTEX_MPU_M3_NUCLEO_L152RE_GCC/Demo/integer.c:72:5
	str	r1, [sp, #20]
	movw	r1, :lower16:vStartIntegerMathTasks.xCompletingIntMathTaskStack
	movt	r1, :upper16:vStartIntegerMathTasks.xCompletingIntMathTaskStack
	str	r1, [sp, #24]
	mov	r1, r0
	adds	r1, #24
	.loc	3 79 31                         @ ../../../CORTEX_MPU_M3_NUCLEO_L152RE_GCC/Demo/integer.c:79:31
	movw	r2, :lower16:.Lconstinit
	movt	r2, :upper16:.Lconstinit
	ldm	r2!, {r3, r4, r5}
	stm	r1!, {r3, r4, r5}
	ldm	r2!, {r3, r4, r5}
	stm	r1!, {r3, r4, r5}
	ldm	r2!, {r3, r4, r5}
	stm	r1!, {r3, r4, r5}
	movs	r1, #0
	.loc	3 72 5                          @ ../../../CORTEX_MPU_M3_NUCLEO_L152RE_GCC/Demo/integer.c:72:5
	str	r1, [sp, #64]
	.loc	3 87 5                          @ ../../../CORTEX_MPU_M3_NUCLEO_L152RE_GCC/Demo/integer.c:87:5
	bl	xTaskCreateRestricted
	.loc	3 88 1                          @ ../../../CORTEX_MPU_M3_NUCLEO_L152RE_GCC/Demo/integer.c:88:1
	add	sp, #72
	pop	{r4, r5, r7, pc}
.Ltmp1:
.Lfunc_end0:
	.size	vStartIntegerMathTasks, .Lfunc_end0-vStartIntegerMathTasks
	.cfi_endproc
	.cantunwind
	.fnend
                                        @ -- End function
	.section	.text.vCompeteingIntMathTask,"ax",%progbits
	.p2align	1                               @ -- Begin function vCompeteingIntMathTask
	.type	vCompeteingIntMathTask,%function
	.code	16                              @ @vCompeteingIntMathTask
	.thumb_func
vCompeteingIntMathTask:
.Lfunc_begin1:
	.loc	3 92 0                          @ ../../../CORTEX_MPU_M3_NUCLEO_L152RE_GCC/Demo/integer.c:92:0
	.fnstart
	.cfi_startproc
@ %bb.0:
	.save	{r7, lr}
	push	{r7, lr}
	.cfi_def_cfa_offset 8
	.cfi_offset lr, -4
	.cfi_offset r7, -8
	.pad	#16
	sub	sp, #16
	.cfi_def_cfa_offset 24
	str	r0, [sp, #12]
	add	r1, sp, #4
	movs	r0, #0
.Ltmp2:
	.loc	3 96 11 prologue_end            @ ../../../CORTEX_MPU_M3_NUCLEO_L152RE_GCC/Demo/integer.c:96:11
	strh	r0, [r1]
	.loc	3 102 51                        @ ../../../CORTEX_MPU_M3_NUCLEO_L152RE_GCC/Demo/integer.c:102:51
	ldr	r0, [sp, #12]
	.loc	3 102 23 is_stmt 0              @ ../../../CORTEX_MPU_M3_NUCLEO_L152RE_GCC/Demo/integer.c:102:23
	str	r0, [sp]
	.loc	3 105 5 is_stmt 1               @ ../../../CORTEX_MPU_M3_NUCLEO_L152RE_GCC/Demo/integer.c:105:5
	b	.LBB1_1
.LBB1_1:                                @ =>This Inner Loop Header: Depth=1
	.loc	3 0 5 is_stmt 0                 @ ../../../CORTEX_MPU_M3_NUCLEO_L152RE_GCC/Demo/integer.c:0:5
	movs	r0, #123
.Ltmp3:
	.loc	3 109 16 is_stmt 1              @ ../../../CORTEX_MPU_M3_NUCLEO_L152RE_GCC/Demo/integer.c:109:16
	str	r0, [sp, #8]
	.loc	3 110 16                        @ ../../../CORTEX_MPU_M3_NUCLEO_L152RE_GCC/Demo/integer.c:110:16
	ldr	r0, [sp, #8]
	movw	r1, #37959
	movt	r1, #3
	adds	r0, r0, r1
	str	r0, [sp, #8]
	.loc	3 120 16                        @ ../../../CORTEX_MPU_M3_NUCLEO_L152RE_GCC/Demo/integer.c:120:16
	ldr	r1, [sp, #8]
	movs	r0, #2
	mvns	r0, r0
	muls	r0, r1, r0
	str	r0, [sp, #8]
	.loc	3 121 16                        @ ../../../CORTEX_MPU_M3_NUCLEO_L152RE_GCC/Demo/integer.c:121:16
	ldr	r0, [sp, #8]
	movs	r1, #7
	sdiv	r0, r0, r1
	str	r0, [sp, #8]
.Ltmp4:
	.loc	3 126 13                        @ ../../../CORTEX_MPU_M3_NUCLEO_L152RE_GCC/Demo/integer.c:126:13
	ldr	r0, [sp, #8]
	movw	r1, #30491
	movt	r1, #65534
.Ltmp5:
	.loc	3 126 13 is_stmt 0              @ ../../../CORTEX_MPU_M3_NUCLEO_L152RE_GCC/Demo/integer.c:126:13
	cmp	r0, r1
	beq	.LBB1_3
	b	.LBB1_2
.LBB1_2:                                @   in Loop: Header=BB1_1 Depth=1
	.loc	3 0 13                          @ ../../../CORTEX_MPU_M3_NUCLEO_L152RE_GCC/Demo/integer.c:0:13
	add	r1, sp, #4
	movs	r0, #1
.Ltmp6:
	.loc	3 128 20 is_stmt 1              @ ../../../CORTEX_MPU_M3_NUCLEO_L152RE_GCC/Demo/integer.c:128:20
	strh	r0, [r1]
	.loc	3 129 9                         @ ../../../CORTEX_MPU_M3_NUCLEO_L152RE_GCC/Demo/integer.c:129:9
	b	.LBB1_3
.Ltmp7:
.LBB1_3:                                @   in Loop: Header=BB1_1 Depth=1
	.loc	3 131 13                        @ ../../../CORTEX_MPU_M3_NUCLEO_L152RE_GCC/Demo/integer.c:131:13
	movs	r1, #0
	add	r0, sp, #4
	ldrsh	r0, [r0, r1]
.Ltmp8:
	.loc	3 131 13 is_stmt 0              @ ../../../CORTEX_MPU_M3_NUCLEO_L152RE_GCC/Demo/integer.c:131:13
	cbnz	r0, .LBB1_5
	b	.LBB1_4
.LBB1_4:                                @   in Loop: Header=BB1_1 Depth=1
.Ltmp9:
	.loc	3 136 13 is_stmt 1              @ ../../../CORTEX_MPU_M3_NUCLEO_L152RE_GCC/Demo/integer.c:136:13
	bl	vPortEnterCritical
	.loc	3 137 14                        @ ../../../CORTEX_MPU_M3_NUCLEO_L152RE_GCC/Demo/integer.c:137:14
	ldr	r1, [sp]
	movs	r0, #1
	.loc	3 137 32 is_stmt 0              @ ../../../CORTEX_MPU_M3_NUCLEO_L152RE_GCC/Demo/integer.c:137:32
	str	r0, [r1]
	.loc	3 138 13 is_stmt 1              @ ../../../CORTEX_MPU_M3_NUCLEO_L152RE_GCC/Demo/integer.c:138:13
	bl	vPortExitCritical
	.loc	3 139 9                         @ ../../../CORTEX_MPU_M3_NUCLEO_L152RE_GCC/Demo/integer.c:139:9
	b	.LBB1_5
.Ltmp10:
.LBB1_5:                                @   in Loop: Header=BB1_1 Depth=1
	.loc	3 105 5                         @ ../../../CORTEX_MPU_M3_NUCLEO_L152RE_GCC/Demo/integer.c:105:5
	b	.LBB1_1
.Ltmp11:
.Lfunc_end1:
	.size	vCompeteingIntMathTask, .Lfunc_end1-vCompeteingIntMathTask
	.cfi_endproc
	.cantunwind
	.fnend
                                        @ -- End function
	.section	.text.xAreIntegerMathsTaskStillRunning,"ax",%progbits
	.hidden	xAreIntegerMathsTaskStillRunning @ -- Begin function xAreIntegerMathsTaskStillRunning
	.globl	xAreIntegerMathsTaskStillRunning
	.p2align	1
	.type	xAreIntegerMathsTaskStillRunning,%function
	.code	16                              @ @xAreIntegerMathsTaskStillRunning
	.thumb_func
xAreIntegerMathsTaskStillRunning:
.Lfunc_begin2:
	.loc	3 153 0                         @ ../../../CORTEX_MPU_M3_NUCLEO_L152RE_GCC/Demo/integer.c:153:0
	.fnstart
	.cfi_startproc
@ %bb.0:
	.pad	#4
	sub	sp, #4
	.cfi_def_cfa_offset 4
	movs	r0, #1
.Ltmp12:
	.loc	3 154 16 prologue_end           @ ../../../CORTEX_MPU_M3_NUCLEO_L152RE_GCC/Demo/integer.c:154:16
	str	r0, [sp]
.Ltmp13:
	.loc	3 158 9                         @ ../../../CORTEX_MPU_M3_NUCLEO_L152RE_GCC/Demo/integer.c:158:9
	movw	r0, :lower16:xTaskCheck
	movt	r0, :upper16:xTaskCheck
	ldr	r0, [r0]
.Ltmp14:
	.loc	3 158 9 is_stmt 0               @ ../../../CORTEX_MPU_M3_NUCLEO_L152RE_GCC/Demo/integer.c:158:9
	cbnz	r0, .LBB2_2
	b	.LBB2_1
.LBB2_1:
	.loc	3 0 9                           @ ../../../CORTEX_MPU_M3_NUCLEO_L152RE_GCC/Demo/integer.c:0:9
	movs	r0, #0
.Ltmp15:
	.loc	3 161 17 is_stmt 1              @ ../../../CORTEX_MPU_M3_NUCLEO_L152RE_GCC/Demo/integer.c:161:17
	str	r0, [sp]
	.loc	3 162 5                         @ ../../../CORTEX_MPU_M3_NUCLEO_L152RE_GCC/Demo/integer.c:162:5
	b	.LBB2_2
.Ltmp16:
.LBB2_2:
	.loc	3 166 21                        @ ../../../CORTEX_MPU_M3_NUCLEO_L152RE_GCC/Demo/integer.c:166:21
	movw	r1, :lower16:xTaskCheck
	movt	r1, :upper16:xTaskCheck
	movs	r0, #0
	str	r0, [r1]
	.loc	3 168 12                        @ ../../../CORTEX_MPU_M3_NUCLEO_L152RE_GCC/Demo/integer.c:168:12
	ldr	r0, [sp]
	.loc	3 168 5 is_stmt 0               @ ../../../CORTEX_MPU_M3_NUCLEO_L152RE_GCC/Demo/integer.c:168:5
	add	sp, #4
	bx	lr
.Ltmp17:
.Lfunc_end2:
	.size	xAreIntegerMathsTaskStillRunning, .Lfunc_end2-xAreIntegerMathsTaskStillRunning
	.cfi_endproc
	.cantunwind
	.fnend
                                        @ -- End function
	.type	vStartIntegerMathTasks.xCompletingIntMathTaskStack,%object @ @vStartIntegerMathTasks.xCompletingIntMathTaskStack
	.section	.bss.vStartIntegerMathTasks.xCompletingIntMathTaskStack,"aw",%nobits
	.p2align	9, 0x0
vStartIntegerMathTasks.xCompletingIntMathTaskStack:
	.zero	512
	.size	vStartIntegerMathTasks.xCompletingIntMathTaskStack, 512

	.type	.L.str,%object                  @ @.str
	.section	.rodata.str1.1,"aMS",%progbits,1
.L.str:
	.asciz	"IntMath"
	.size	.L.str, 8

	.type	xTaskCheck,%object              @ @xTaskCheck
	.section	.bss.xTaskCheck,"aw",%nobits
	.p2align	5, 0x0
xTaskCheck:
	.zero	32
	.size	xTaskCheck, 32

	.type	.Lconstinit,%object             @ @constinit
	.section	.data..Lconstinit,"aw",%progbits
	.p2align	2, 0x0
.Lconstinit:
	.long	xTaskCheck
	.long	32                              @ 0x20
	.long	3                               @ 0x3
	.zero	12
	.zero	12
	.size	.Lconstinit, 36

	.file	4 "C:\\Users\\karahulx\\Downloads\\Kernel\\FreeRTOS\\FreeRTOS\\Demo\\CORTEX_MPU_M23_Nuvoton_NuMaker_PFM_M2351_IAR_GCC\\Projects_NTZ\\Keil" "../../../../Source/include/projdefs.h"
	.file	5 "C:\\Users\\karahulx\\Downloads\\Kernel\\FreeRTOS\\FreeRTOS\\Demo\\CORTEX_MPU_M23_Nuvoton_NuMaker_PFM_M2351_IAR_GCC\\Projects_NTZ\\Keil" "../../../../Source/include\\task.h"
	.file	6 "C:\\Users\\karahulx\\Downloads\\Kernel\\FreeRTOS\\FreeRTOS\\Demo\\CORTEX_MPU_M23_Nuvoton_NuMaker_PFM_M2351_IAR_GCC\\Projects_NTZ\\Keil" "../../../../Source/include\\FreeRTOS.h"
	.section	".note.GNU-stack","",%progbits
	.eabi_attribute	30, 6	@ Tag_ABI_optimization_goals
	.ARM_attribute	16, 1	@ Tag_AV_eba