	.text
	.syntax unified
	.eabi_attribute	67, "2.09"	@ Tag_conformance
	.eabi_attribute	6, 16	@ Tag_CPU_arch
	.eabi_attribute	7, 77	@ Tag_CPU_arch_profile
	.eabi_attribute	8, 0	@ Tag_ARM_ISA_use
	.eabi_attribute	9, 3	@ Tag_THUMB_ISA_use
	.eabi_attribute	34, 0	@ Tag_CPU_unaligned_access
	.eabi_attribute	17, 1	@ Tag_ABI_PCS_GOT_use
	.eabi_attribute	20, 2	@ Tag_ABI_FP_denormal
	.eabi_attribute	21, 0	@ Tag_ABI_FP_exceptions
	.eabi_attribute	23, 1	@ Tag_ABI_FP_number_model
	.eabi_attribute	24, 1	@ Tag_ABI_align_needed
	.eabi_attribute	25, 1	@ Tag_ABI_align_preserved
	.eabi_attribute	38, 1	@ Tag_ABI_FP_16bit_format
	.eabi_attribute	18, 4	@ Tag_ABI_PCS_wchar_t
	.eabi_attribute	26, 2	@ Tag_ABI_enum_size
	.eabi_attribute	14, 0	@ Tag_ABI_PCS_R9_use
	.file	"IntQueue.c"
	.file	1 "C:\\Users\\karahulx\\Downloads\\Kernel\\FreeRTOS\\FreeRTOS\\Demo\\CORTEX_MPU_M23_Nuvoton_NuMaker_PFM_M2351_IAR_GCC\\Projects_NTZ\\Keil" "../../../../Source/portable/GCC/ARM_CM23_NTZ/non_secure/portmacrocommon.h"
	.file	2 "C:\\Users\\karahulx\\Downloads\\Kernel\\FreeRTOS\\FreeRTOS\\Demo\\CORTEX_MPU_M23_Nuvoton_NuMaker_PFM_M2351_IAR_GCC\\Projects_NTZ\\Keil" "../../../CORTEX_MPU_M3_NUCLEO_L152RE_GCC/Demo/IntQueue.c"
	.file	3 "C:\\Keil_v5\\ARM\\ARMCLANG\\Bin\\..\\include" "stdint.h"
	.file	4 "C:\\Users\\karahulx\\Downloads\\Kernel\\FreeRTOS\\FreeRTOS\\Demo\\CORTEX_MPU_M23_Nuvoton_NuMaker_PFM_M2351_IAR_GCC\\Projects_NTZ\\Keil" "../../../../Source/include\\queue.h"
	.file	5 "C:\\Users\\karahulx\\Downloads\\Kernel\\FreeRTOS\\FreeRTOS\\Demo\\CORTEX_MPU_M23_Nuvoton_NuMaker_PFM_M2351_IAR_GCC\\Projects_NTZ\\Keil" "../../../../Source/include\\task.h"
	.section	.text.vStartInterruptQueueTasks,"ax",%progbits
	.hidden	vStartInterruptQueueTasks       @ -- Begin function vStartInterruptQueueTasks
	.globl	vStartInterruptQueueTasks
	.p2align	1
	.type	vStartInterruptQueueTasks,%function
	.code	16                              @ @vStartInterruptQueueTasks
	.thumb_func
vStartInterruptQueueTasks:
.Lfunc_begin0:
	.loc	2 217 0                         @ ../../../CORTEX_MPU_M3_NUCLEO_L152RE_GCC/Demo/IntQueue.c:217:0
	.fnstart
	.cfi_sections .debug_frame
	.cfi_startproc
@ %bb.0:
	.save	{r4, r5, r6, lr}
	push	{r4, r5, r6, lr}
	.cfi_def_cfa_offset 16
	.cfi_offset lr, -4
	.cfi_offset r6, -8
	.cfi_offset r5, -12
	.cfi_offset r4, -16
	.pad	#424
	sub	sp, #424
	.cfi_def_cfa_offset 440
.Ltmp0:
	.loc	2 227 22 prologue_end           @ ../../../CORTEX_MPU_M3_NUCLEO_L152RE_GCC/Demo/IntQueue.c:227:22
	movw	r2, :lower16:.L__const.vStartInterruptQueueTasks.x1stHigherPriorityNormallyEmptyTaskParameters
	movt	r2, :upper16:.L__const.vStartInterruptQueueTasks.x1stHigherPriorityNormallyEmptyTaskParameters
	add	r0, sp, #360
	mov	r1, r0
	ldm	r2!, {r3, r4, r5, r6}
	stm	r1!, {r3, r4, r5, r6}
	ldm	r2!, {r3, r4, r5, r6}
	stm	r1!, {r3, r4, r5, r6}
	ldm	r2!, {r3, r4, r5, r6}
	stm	r1!, {r3, r4, r5, r6}
	ldm	r2!, {r3, r4, r5, r6}
	stm	r1!, {r3, r4, r5, r6}
	.loc	2 243 22                        @ ../../../CORTEX_MPU_M3_NUCLEO_L152RE_GCC/Demo/IntQueue.c:243:22
	movw	r2, :lower16:.L__const.vStartInterruptQueueTasks.x2ndHigherPriorityNormallyEmptyTaskParameters
	movt	r2, :upper16:.L__const.vStartInterruptQueueTasks.x2ndHigherPriorityNormallyEmptyTaskParameters
	add	r1, sp, #296
	str	r1, [sp, #4]                    @ 4-byte Spill
	ldm	r2!, {r3, r4, r5, r6}
	stm	r1!, {r3, r4, r5, r6}
	ldm	r2!, {r3, r4, r5, r6}
	stm	r1!, {r3, r4, r5, r6}
	ldm	r2!, {r3, r4, r5, r6}
	stm	r1!, {r3, r4, r5, r6}
	ldm	r2!, {r3, r4, r5, r6}
	stm	r1!, {r3, r4, r5, r6}
	.loc	2 258 22                        @ ../../../CORTEX_MPU_M3_NUCLEO_L152RE_GCC/Demo/IntQueue.c:258:22
	movw	r2, :lower16:.L__const.vStartInterruptQueueTasks.xLowerPriorityNormallyEmptyTaskParameters
	movt	r2, :upper16:.L__const.vStartInterruptQueueTasks.xLowerPriorityNormallyEmptyTaskParameters
	add	r1, sp, #232
	str	r1, [sp, #8]                    @ 4-byte Spill
	ldm	r2!, {r3, r4, r5, r6}
	stm	r1!, {r3, r4, r5, r6}
	ldm	r2!, {r3, r4, r5, r6}
	stm	r1!, {r3, r4, r5, r6}
	ldm	r2!, {r3, r4, r5, r6}
	stm	r1!, {r3, r4, r5, r6}
	ldm	r2!, {r3, r4, r5, r6}
	stm	r1!, {r3, r4, r5, r6}
	.loc	2 273 22                        @ ../../../CORTEX_MPU_M3_NUCLEO_L152RE_GCC/Demo/IntQueue.c:273:22
	movw	r2, :lower16:.L__const.vStartInterruptQueueTasks.x1stHigherPriorityNormallyFullTaskParameters
	movt	r2, :upper16:.L__const.vStartInterruptQueueTasks.x1stHigherPriorityNormallyFullTaskParameters
	add	r1, sp, #168
	str	r1, [sp, #12]                   @ 4-byte Spill
	ldm	r2!, {r3, r4, r5, r6}
	stm	r1!, {r3, r4, r5, r6}
	ldm	r2!, {r3, r4, r5, r6}
	stm	r1!, {r3, r4, r5, r6}
	ldm	r2!, {r3, r4, r5, r6}
	stm	r1!, {r3, r4, r5, r6}
	ldm	r2!, {r3, r4, r5, r6}
	stm	r1!, {r3, r4, r5, r6}
	.loc	2 288 22                        @ ../../../CORTEX_MPU_M3_NUCLEO_L152RE_GCC/Demo/IntQueue.c:288:22
	movw	r2, :lower16:.L__const.vStartInterruptQueueTasks.x2ndHigherPriorityNormallyFullTaskParameters
	movt	r2, :upper16:.L__const.vStartInterruptQueueTasks.x2ndHigherPriorityNormallyFullTaskParameters
	add	r1, sp, #104
	str	r1, [sp, #16]                   @ 4-byte Spill
	ldm	r2!, {r3, r4, r5, r6}
	stm	r1!, {r3, r4, r5, r6}
	ldm	r2!, {r3, r4, r5, r6}
	stm	r1!, {r3, r4, r5, r6}
	ldm	r2!, {r3, r4, r5, r6}
	stm	r1!, {r3, r4, r5, r6}
	ldm	r2!, {r3, r4, r5, r6}
	stm	r1!, {r3, r4, r5, r6}
	.loc	2 309 22                        @ ../../../CORTEX_MPU_M3_NUCLEO_L152RE_GCC/Demo/IntQueue.c:309:22
	movw	r2, :lower16:.L__const.vStartInterruptQueueTasks.xLowerPriorityNormallyFullTaskParameters
	movt	r2, :upper16:.L__const.vStartInterruptQueueTasks.xLowerPriorityNormallyFullTaskParameters
	add	r1, sp, #40
	str	r1, [sp, #24]                   @ 4-byte Spill
	ldm	r2!, {r3, r4, r5, r6}
	stm	r1!, {r3, r4, r5, r6}
	ldm	r2!, {r3, r4, r5, r6}
	stm	r1!, {r3, r4, r5, r6}
	ldm	r2!, {r3, r4, r5, r6}
	stm	r1!, {r3, r4, r5, r6}
	ldm	r2!, {r3, r4, r5, r6}
	stm	r1!, {r3, r4, r5, r6}
	.loc	2 325 5                         @ ../../../CORTEX_MPU_M3_NUCLEO_L152RE_GCC/Demo/IntQueue.c:325:5
	movw	r1, :lower16:xLocalTaskHandles
	movt	r1, :upper16:xLocalTaskHandles
	str	r1, [sp, #20]                   @ 4-byte Spill
	adds	r1, #8
	bl	xTaskCreateRestricted
	ldr	r1, [sp, #20]                   @ 4-byte Reload
                                        @ kill: def $r2 killed $r0
	.loc	2 326 5                         @ ../../../CORTEX_MPU_M3_NUCLEO_L152RE_GCC/Demo/IntQueue.c:326:5
	ldr	r0, [sp, #4]                    @ 4-byte Reload
	adds	r1, #12
	bl	xTaskCreateRestricted
	ldr	r1, [sp, #20]                   @ 4-byte Reload
                                        @ kill: def $r2 killed $r0
	.loc	2 327 5                         @ ../../../CORTEX_MPU_M3_NUCLEO_L152RE_GCC/Demo/IntQueue.c:327:5
	ldr	r0, [sp, #8]                    @ 4-byte Reload
	bl	xTaskCreateRestricted
	ldr	r1, [sp, #20]                   @ 4-byte Reload
                                        @ kill: def $r2 killed $r0
	.loc	2 328 5                         @ ../../../CORTEX_MPU_M3_NUCLEO_L152RE_GCC/Demo/IntQueue.c:328:5
	ldr	r0, [sp, #12]                   @ 4-byte Reload
	adds	r1, #16
	bl	xTaskCreateRestricted
	ldr	r1, [sp, #20]                   @ 4-byte Reload
                                        @ kill: def $r2 killed $r0
	.loc	2 329 5                         @ ../../../CORTEX_MPU_M3_NUCLEO_L152RE_GCC/Demo/IntQueue.c:329:5
	ldr	r0, [sp, #16]                   @ 4-byte Reload
	adds	r1, #20
	bl	xTaskCreateRestricted
	ldr	r1, [sp, #20]                   @ 4-byte Reload
                                        @ kill: def $r2 killed $r0
	.loc	2 330 5                         @ ../../../CORTEX_MPU_M3_NUCLEO_L152RE_GCC/Demo/IntQueue.c:330:5
	ldr	r0, [sp, #24]                   @ 4-byte Reload
	adds	r1, r1, #4
	bl	xTaskCreateRestricted
	movs	r0, #10
	str	r0, [sp, #36]                   @ 4-byte Spill
	movs	r1, #4
	str	r1, [sp, #28]                   @ 4-byte Spill
	movs	r2, #0
	.loc	2 334 31                        @ ../../../CORTEX_MPU_M3_NUCLEO_L152RE_GCC/Demo/IntQueue.c:334:31
	str	r2, [sp, #32]                   @ 4-byte Spill
	bl	MPU_xQueueGenericCreate
	ldr	r1, [sp, #28]                   @ 4-byte Reload
	ldr	r2, [sp, #32]                   @ 4-byte Reload
	mov	r3, r0
	.loc	2 334 29 is_stmt 0              @ ../../../CORTEX_MPU_M3_NUCLEO_L152RE_GCC/Demo/IntQueue.c:334:29
	ldr	r0, [sp, #36]                   @ 4-byte Reload
	movw	r4, :lower16:xNormallyFullQueue
	movt	r4, :upper16:xNormallyFullQueue
	str	r3, [r4]
	.loc	2 335 32 is_stmt 1              @ ../../../CORTEX_MPU_M3_NUCLEO_L152RE_GCC/Demo/IntQueue.c:335:32
	bl	MPU_xQueueGenericCreate
	.loc	2 335 30 is_stmt 0              @ ../../../CORTEX_MPU_M3_NUCLEO_L152RE_GCC/Demo/IntQueue.c:335:30
	movw	r1, :lower16:xNormallyEmptyQueue
	movt	r1, :upper16:xNormallyEmptyQueue
	str	r0, [r1]
	.loc	2 345 1 is_stmt 1               @ ../../../CORTEX_MPU_M3_NUCLEO_L152RE_GCC/Demo/IntQueue.c:345:1
	add	sp, #424
	pop	{r4, r5, r6, pc}
.Ltmp1:
.Lfunc_end0:
	.size	vStartInterruptQueueTasks, .Lfunc_end0-vStartInterruptQueueTasks
	.cfi_endproc
	.cantunwind
	.fnend
                                        @ -- End function
	.section	.text.prvHigherPriorityNormallyEmptyTask,"ax",%progbits
	.p2align	1                               @ -- Begin function prvHigherPriorityNormallyEmptyTask
	.type	prvHigherPriorityNormallyEmptyTask,%function
	.code	16                              @ @prvHigherPriorityNormallyEmptyTask
	.thumb_func
prvHigherPriorityNormallyEmptyTask:
.Lfunc_begin1:
	.loc	2 393 0                         @ ../../../CORTEX_MPU_M3_NUCLEO_L152RE_GCC/Demo/IntQueue.c:393:0
	.fnstart
	.cfi_startproc
@ %bb.0:
	.save	{r7, lr}
	push	{r7, lr}
	.cfi_def_cfa_offset 8
	.cfi_offset lr, -4
	.cfi_offset r7, -8
	.pad	#32
	sub	sp, #32
	.cfi_def_cfa_offset 40
	str	r0, [sp, #28]
	movs	r0, #0
.Ltmp2:
	.loc	2 394 61 prologue_end           @ ../../../CORTEX_MPU_M3_NUCLEO_L152RE_GCC/Demo/IntQueue.c:394:61
	str	r0, [sp, #4]
	.loc	2 394 80 is_stmt 0              @ ../../../CORTEX_MPU_M3_NUCLEO_L152RE_GCC/Demo/IntQueue.c:394:80
	str	r0, [sp]
.Ltmp3:
	.loc	2 399 25 is_stmt 1              @ ../../../CORTEX_MPU_M3_NUCLEO_L152RE_GCC/Demo/IntQueue.c:399:25
	ldr	r0, [sp, #28]
.Ltmp4:
	.loc	2 399 9 is_stmt 0               @ ../../../CORTEX_MPU_M3_NUCLEO_L152RE_GCC/Demo/IntQueue.c:399:9
	cmp	r0, #1
	bne	.LBB1_2
	b	.LBB1_1
.LBB1_1:
.Ltmp5:
	.loc	2 401 9 is_stmt 1               @ ../../../CORTEX_MPU_M3_NUCLEO_L152RE_GCC/Demo/IntQueue.c:401:9
	bl	vInitialiseTimerForIntQueueTest
	.loc	2 402 5                         @ ../../../CORTEX_MPU_M3_NUCLEO_L152RE_GCC/Demo/IntQueue.c:402:5
	b	.LBB1_2
.Ltmp6:
.LBB1_2:
	.loc	2 404 5                         @ ../../../CORTEX_MPU_M3_NUCLEO_L152RE_GCC/Demo/IntQueue.c:404:5
	b	.LBB1_3
.LBB1_3:                                @ =>This Loop Header: Depth=1
                                        @     Child Loop BB1_9 Depth 2
.Ltmp7:
	.loc	2 408 28                        @ ../../../CORTEX_MPU_M3_NUCLEO_L152RE_GCC/Demo/IntQueue.c:408:28
	movw	r0, :lower16:xNormallyEmptyQueue
	movt	r0, :upper16:xNormallyEmptyQueue
	ldr	r0, [r0]
	add	r1, sp, #24
	movs	r2, #140
	.loc	2 408 13 is_stmt 0              @ ../../../CORTEX_MPU_M3_NUCLEO_L152RE_GCC/Demo/IntQueue.c:408:13
	bl	MPU_xQueueReceive
.Ltmp8:
	.loc	2 408 13                        @ ../../../CORTEX_MPU_M3_NUCLEO_L152RE_GCC/Demo/IntQueue.c:408:13
	cmp	r0, #1
	beq	.LBB1_5
	b	.LBB1_4
.LBB1_4:                                @   in Loop: Header=BB1_3 Depth=1
	.loc	2 0 13                          @ ../../../CORTEX_MPU_M3_NUCLEO_L152RE_GCC/Demo/IntQueue.c:0:13
	movw	r0, #410
.Ltmp9:
	.loc	2 410 13 is_stmt 1              @ ../../../CORTEX_MPU_M3_NUCLEO_L152RE_GCC/Demo/IntQueue.c:410:13
	bl	prvQueueAccessLogError
	.loc	2 411 9                         @ ../../../CORTEX_MPU_M3_NUCLEO_L152RE_GCC/Demo/IntQueue.c:411:9
	b	.LBB1_6
.Ltmp10:
.LBB1_5:                                @   in Loop: Header=BB1_3 Depth=1
	.loc	2 416 43                        @ ../../../CORTEX_MPU_M3_NUCLEO_L152RE_GCC/Demo/IntQueue.c:416:43
	ldr	r0, [sp, #24]
	.loc	2 416 67 is_stmt 0              @ ../../../CORTEX_MPU_M3_NUCLEO_L152RE_GCC/Demo/IntQueue.c:416:67
	ldr	r1, [sp, #28]
	.loc	2 416 13                        @ ../../../CORTEX_MPU_M3_NUCLEO_L152RE_GCC/Demo/IntQueue.c:416:13
	bl	prvRecordValue_NormallyEmpty
	b	.LBB1_6
.Ltmp11:
.LBB1_6:                                @   in Loop: Header=BB1_3 Depth=1
	.loc	2 420 9 is_stmt 1               @ ../../../CORTEX_MPU_M3_NUCLEO_L152RE_GCC/Demo/IntQueue.c:420:9
	bl	vPortYield
.Ltmp12:
	.loc	2 422 29                        @ ../../../CORTEX_MPU_M3_NUCLEO_L152RE_GCC/Demo/IntQueue.c:422:29
	ldr	r0, [sp, #28]
.Ltmp13:
	.loc	2 422 13 is_stmt 0              @ ../../../CORTEX_MPU_M3_NUCLEO_L152RE_GCC/Demo/IntQueue.c:422:13
	cmp	r0, #1
	beq	.LBB1_7
	b	.LBB1_37
.LBB1_7:                                @   in Loop: Header=BB1_3 Depth=1
.Ltmp14:
	.loc	2 425 17 is_stmt 1              @ ../../../CORTEX_MPU_M3_NUCLEO_L152RE_GCC/Demo/IntQueue.c:425:17
	movw	r0, :lower16:uxValueForNormallyEmptyQueue
	movt	r0, :upper16:uxValueForNormallyEmptyQueue
	ldr	r0, [r0]
.Ltmp15:
	.loc	2 425 17 is_stmt 0              @ ../../../CORTEX_MPU_M3_NUCLEO_L152RE_GCC/Demo/IntQueue.c:425:17
	cmp	r0, #251
	bhs	.LBB1_8
	b	.LBB1_36
.LBB1_8:                                @   in Loop: Header=BB1_3 Depth=1
.Ltmp16:
	.loc	2 427 31 is_stmt 1              @ ../../../CORTEX_MPU_M3_NUCLEO_L152RE_GCC/Demo/IntQueue.c:427:31
	movw	r0, :lower16:xLocalTaskHandles
	movt	r0, :upper16:xLocalTaskHandles
	ldr	r0, [r0, #12]
	.loc	2 427 17 is_stmt 0              @ ../../../CORTEX_MPU_M3_NUCLEO_L152RE_GCC/Demo/IntQueue.c:427:17
	bl	MPU_vTaskSuspend
	movs	r0, #0
	.loc	2 429 25 is_stmt 1              @ ../../../CORTEX_MPU_M3_NUCLEO_L152RE_GCC/Demo/IntQueue.c:429:25
	str	r0, [sp, #16]
	.loc	2 430 25                        @ ../../../CORTEX_MPU_M3_NUCLEO_L152RE_GCC/Demo/IntQueue.c:430:25
	str	r0, [sp, #12]
	.loc	2 431 30                        @ ../../../CORTEX_MPU_M3_NUCLEO_L152RE_GCC/Demo/IntQueue.c:431:30
	str	r0, [sp, #8]
	movs	r0, #1
.Ltmp17:
	.loc	2 436 25                        @ ../../../CORTEX_MPU_M3_NUCLEO_L152RE_GCC/Demo/IntQueue.c:436:25
	str	r0, [sp, #20]
	.loc	2 436 22 is_stmt 0              @ ../../../CORTEX_MPU_M3_NUCLEO_L152RE_GCC/Demo/IntQueue.c:436:22
	b	.LBB1_9
.LBB1_9:                                @   Parent Loop BB1_3 Depth=1
                                        @ =>  This Inner Loop Header: Depth=2
.Ltmp18:
	.loc	2 436 30                        @ ../../../CORTEX_MPU_M3_NUCLEO_L152RE_GCC/Demo/IntQueue.c:436:30
	ldr	r0, [sp, #20]
.Ltmp19:
	.loc	2 436 17                        @ ../../../CORTEX_MPU_M3_NUCLEO_L152RE_GCC/Demo/IntQueue.c:436:17
	cmp	r0, #199
	bhi	.LBB1_23
	b	.LBB1_10
.LBB1_10:                               @   in Loop: Header=BB1_9 Depth=2
.Ltmp20:
	.loc	2 438 56 is_stmt 1              @ ../../../CORTEX_MPU_M3_NUCLEO_L152RE_GCC/Demo/IntQueue.c:438:56
	ldr	r1, [sp, #20]
	.loc	2 438 25 is_stmt 0              @ ../../../CORTEX_MPU_M3_NUCLEO_L152RE_GCC/Demo/IntQueue.c:438:25
	movw	r0, :lower16:ucNormallyEmptyReceivedValues
	movt	r0, :upper16:ucNormallyEmptyReceivedValues
	ldrb	r0, [r0, r1]
.Ltmp21:
	.loc	2 438 25                        @ ../../../CORTEX_MPU_M3_NUCLEO_L152RE_GCC/Demo/IntQueue.c:438:25
	cbnz	r0, .LBB1_12
	b	.LBB1_11
.LBB1_11:                               @   in Loop: Header=BB1_9 Depth=2
	.loc	2 0 25                          @ ../../../CORTEX_MPU_M3_NUCLEO_L152RE_GCC/Demo/IntQueue.c:0:25
	movw	r0, #441
.Ltmp22:
	.loc	2 441 25 is_stmt 1              @ ../../../CORTEX_MPU_M3_NUCLEO_L152RE_GCC/Demo/IntQueue.c:441:25
	bl	prvQueueAccessLogError
	.loc	2 442 21                        @ ../../../CORTEX_MPU_M3_NUCLEO_L152RE_GCC/Demo/IntQueue.c:442:21
	b	.LBB1_21
.Ltmp23:
.LBB1_12:                               @   in Loop: Header=BB1_9 Depth=2
	.loc	2 445 60                        @ ../../../CORTEX_MPU_M3_NUCLEO_L152RE_GCC/Demo/IntQueue.c:445:60
	ldr	r1, [sp, #20]
	.loc	2 445 29 is_stmt 0              @ ../../../CORTEX_MPU_M3_NUCLEO_L152RE_GCC/Demo/IntQueue.c:445:29
	movw	r0, :lower16:ucNormallyEmptyReceivedValues
	movt	r0, :upper16:ucNormallyEmptyReceivedValues
	ldrb	r0, [r0, r1]
.Ltmp24:
	.loc	2 445 29                        @ ../../../CORTEX_MPU_M3_NUCLEO_L152RE_GCC/Demo/IntQueue.c:445:29
	cmp	r0, #1
	bne	.LBB1_14
	b	.LBB1_13
.LBB1_13:                               @   in Loop: Header=BB1_9 Depth=2
.Ltmp25:
	.loc	2 448 36 is_stmt 1              @ ../../../CORTEX_MPU_M3_NUCLEO_L152RE_GCC/Demo/IntQueue.c:448:36
	ldr	r0, [sp, #16]
	adds	r0, r0, #1
	str	r0, [sp, #16]
	.loc	2 449 25                        @ ../../../CORTEX_MPU_M3_NUCLEO_L152RE_GCC/Demo/IntQueue.c:449:25
	b	.LBB1_20
.Ltmp26:
.LBB1_14:                               @   in Loop: Header=BB1_9 Depth=2
	.loc	2 450 65                        @ ../../../CORTEX_MPU_M3_NUCLEO_L152RE_GCC/Demo/IntQueue.c:450:65
	ldr	r1, [sp, #20]
	.loc	2 450 34 is_stmt 0              @ ../../../CORTEX_MPU_M3_NUCLEO_L152RE_GCC/Demo/IntQueue.c:450:34
	movw	r0, :lower16:ucNormallyEmptyReceivedValues
	movt	r0, :upper16:ucNormallyEmptyReceivedValues
	ldrb	r0, [r0, r1]
.Ltmp27:
	.loc	2 450 34                        @ ../../../CORTEX_MPU_M3_NUCLEO_L152RE_GCC/Demo/IntQueue.c:450:34
	cmp	r0, #2
	bne	.LBB1_16
	b	.LBB1_15
.LBB1_15:                               @   in Loop: Header=BB1_9 Depth=2
.Ltmp28:
	.loc	2 453 36 is_stmt 1              @ ../../../CORTEX_MPU_M3_NUCLEO_L152RE_GCC/Demo/IntQueue.c:453:36
	ldr	r0, [sp, #12]
	adds	r0, r0, #1
	str	r0, [sp, #12]
	.loc	2 454 25                        @ ../../../CORTEX_MPU_M3_NUCLEO_L152RE_GCC/Demo/IntQueue.c:454:25
	b	.LBB1_19
.Ltmp29:
.LBB1_16:                               @   in Loop: Header=BB1_9 Depth=2
	.loc	2 455 65                        @ ../../../CORTEX_MPU_M3_NUCLEO_L152RE_GCC/Demo/IntQueue.c:455:65
	ldr	r1, [sp, #20]
	.loc	2 455 34 is_stmt 0              @ ../../../CORTEX_MPU_M3_NUCLEO_L152RE_GCC/Demo/IntQueue.c:455:34
	movw	r0, :lower16:ucNormallyEmptyReceivedValues
	movt	r0, :upper16:ucNormallyEmptyReceivedValues
	ldrb	r0, [r0, r1]
.Ltmp30:
	.loc	2 455 34                        @ ../../../CORTEX_MPU_M3_NUCLEO_L152RE_GCC/Demo/IntQueue.c:455:34
	cmp	r0, #5
	bne	.LBB1_18
	b	.LBB1_17
.LBB1_17:                               @   in Loop: Header=BB1_9 Depth=2
.Ltmp31:
	.loc	2 457 41 is_stmt 1              @ ../../../CORTEX_MPU_M3_NUCLEO_L152RE_GCC/Demo/IntQueue.c:457:41
	ldr	r0, [sp, #8]
	adds	r0, r0, #1
	str	r0, [sp, #8]
	.loc	2 458 25                        @ ../../../CORTEX_MPU_M3_NUCLEO_L152RE_GCC/Demo/IntQueue.c:458:25
	b	.LBB1_18
.Ltmp32:
.LBB1_18:                               @   in Loop: Header=BB1_9 Depth=2
	.loc	2 0 25 is_stmt 0                @ ../../../CORTEX_MPU_M3_NUCLEO_L152RE_GCC/Demo/IntQueue.c:0:25
	b	.LBB1_19
.LBB1_19:                               @   in Loop: Header=BB1_9 Depth=2
	b	.LBB1_20
.LBB1_20:                               @   in Loop: Header=BB1_9 Depth=2
	b	.LBB1_21
.LBB1_21:                               @   in Loop: Header=BB1_9 Depth=2
	.loc	2 460 17 is_stmt 1              @ ../../../CORTEX_MPU_M3_NUCLEO_L152RE_GCC/Demo/IntQueue.c:460:17
	b	.LBB1_22
.Ltmp33:
.LBB1_22:                               @   in Loop: Header=BB1_9 Depth=2
	.loc	2 436 60                        @ ../../../CORTEX_MPU_M3_NUCLEO_L152RE_GCC/Demo/IntQueue.c:436:60
	ldr	r0, [sp, #20]
	adds	r0, r0, #1
	str	r0, [sp, #20]
	.loc	2 436 17 is_stmt 0              @ ../../../CORTEX_MPU_M3_NUCLEO_L152RE_GCC/Demo/IntQueue.c:436:17
	b	.LBB1_9
.Ltmp34:
.LBB1_23:                               @   in Loop: Header=BB1_3 Depth=1
	.loc	2 462 21 is_stmt 1              @ ../../../CORTEX_MPU_M3_NUCLEO_L152RE_GCC/Demo/IntQueue.c:462:21
	ldr	r0, [sp, #16]
.Ltmp35:
	.loc	2 462 21 is_stmt 0              @ ../../../CORTEX_MPU_M3_NUCLEO_L152RE_GCC/Demo/IntQueue.c:462:21
	cmp	r0, #4
	bhi	.LBB1_27
	b	.LBB1_24
.LBB1_24:                               @   in Loop: Header=BB1_3 Depth=1
.Ltmp36:
	.loc	2 465 34 is_stmt 1              @ ../../../CORTEX_MPU_M3_NUCLEO_L152RE_GCC/Demo/IntQueue.c:465:34
	ldr	r0, [sp, #4]
	adds	r0, r0, #1
	str	r0, [sp, #4]
.Ltmp37:
	.loc	2 467 25                        @ ../../../CORTEX_MPU_M3_NUCLEO_L152RE_GCC/Demo/IntQueue.c:467:25
	ldr	r0, [sp, #4]
.Ltmp38:
	.loc	2 467 25 is_stmt 0              @ ../../../CORTEX_MPU_M3_NUCLEO_L152RE_GCC/Demo/IntQueue.c:467:25
	cmp	r0, #3
	blo	.LBB1_26
	b	.LBB1_25
.LBB1_25:                               @   in Loop: Header=BB1_3 Depth=1
	.loc	2 0 25                          @ ../../../CORTEX_MPU_M3_NUCLEO_L152RE_GCC/Demo/IntQueue.c:0:25
	movw	r0, #469
.Ltmp39:
	.loc	2 469 25 is_stmt 1              @ ../../../CORTEX_MPU_M3_NUCLEO_L152RE_GCC/Demo/IntQueue.c:469:25
	bl	prvQueueAccessLogError
	.loc	2 470 21                        @ ../../../CORTEX_MPU_M3_NUCLEO_L152RE_GCC/Demo/IntQueue.c:470:21
	b	.LBB1_26
.Ltmp40:
.LBB1_26:                               @   in Loop: Header=BB1_3 Depth=1
	.loc	2 471 17                        @ ../../../CORTEX_MPU_M3_NUCLEO_L152RE_GCC/Demo/IntQueue.c:471:17
	b	.LBB1_28
.Ltmp41:
.LBB1_27:                               @   in Loop: Header=BB1_3 Depth=1
	.loc	2 0 17 is_stmt 0                @ ../../../CORTEX_MPU_M3_NUCLEO_L152RE_GCC/Demo/IntQueue.c:0:17
	movs	r0, #0
.Ltmp42:
	.loc	2 474 35 is_stmt 1              @ ../../../CORTEX_MPU_M3_NUCLEO_L152RE_GCC/Demo/IntQueue.c:474:35
	str	r0, [sp, #4]
	b	.LBB1_28
.Ltmp43:
.LBB1_28:                               @   in Loop: Header=BB1_3 Depth=1
	.loc	2 477 21                        @ ../../../CORTEX_MPU_M3_NUCLEO_L152RE_GCC/Demo/IntQueue.c:477:21
	ldr	r0, [sp, #12]
.Ltmp44:
	.loc	2 477 21 is_stmt 0              @ ../../../CORTEX_MPU_M3_NUCLEO_L152RE_GCC/Demo/IntQueue.c:477:21
	cmp	r0, #4
	bhi	.LBB1_32
	b	.LBB1_29
.LBB1_29:                               @   in Loop: Header=BB1_3 Depth=1
.Ltmp45:
	.loc	2 480 34 is_stmt 1              @ ../../../CORTEX_MPU_M3_NUCLEO_L152RE_GCC/Demo/IntQueue.c:480:34
	ldr	r0, [sp]
	adds	r0, r0, #1
	str	r0, [sp]
.Ltmp46:
	.loc	2 482 25                        @ ../../../CORTEX_MPU_M3_NUCLEO_L152RE_GCC/Demo/IntQueue.c:482:25
	ldr	r0, [sp]
.Ltmp47:
	.loc	2 482 25 is_stmt 0              @ ../../../CORTEX_MPU_M3_NUCLEO_L152RE_GCC/Demo/IntQueue.c:482:25
	cmp	r0, #3
	blo	.LBB1_31
	b	.LBB1_30
.LBB1_30:                               @   in Loop: Header=BB1_3 Depth=1
	.loc	2 0 25                          @ ../../../CORTEX_MPU_M3_NUCLEO_L152RE_GCC/Demo/IntQueue.c:0:25
	movw	r0, #484
.Ltmp48:
	.loc	2 484 25 is_stmt 1              @ ../../../CORTEX_MPU_M3_NUCLEO_L152RE_GCC/Demo/IntQueue.c:484:25
	bl	prvQueueAccessLogError
	.loc	2 485 21                        @ ../../../CORTEX_MPU_M3_NUCLEO_L152RE_GCC/Demo/IntQueue.c:485:21
	b	.LBB1_31
.Ltmp49:
.LBB1_31:                               @   in Loop: Header=BB1_3 Depth=1
	.loc	2 486 17                        @ ../../../CORTEX_MPU_M3_NUCLEO_L152RE_GCC/Demo/IntQueue.c:486:17
	b	.LBB1_33
.Ltmp50:
.LBB1_32:                               @   in Loop: Header=BB1_3 Depth=1
	.loc	2 0 17 is_stmt 0                @ ../../../CORTEX_MPU_M3_NUCLEO_L152RE_GCC/Demo/IntQueue.c:0:17
	movs	r0, #0
.Ltmp51:
	.loc	2 489 35 is_stmt 1              @ ../../../CORTEX_MPU_M3_NUCLEO_L152RE_GCC/Demo/IntQueue.c:489:35
	str	r0, [sp]
	b	.LBB1_33
.Ltmp52:
.LBB1_33:                               @   in Loop: Header=BB1_3 Depth=1
	.loc	2 492 21                        @ ../../../CORTEX_MPU_M3_NUCLEO_L152RE_GCC/Demo/IntQueue.c:492:21
	ldr	r0, [sp, #8]
.Ltmp53:
	.loc	2 492 21 is_stmt 0              @ ../../../CORTEX_MPU_M3_NUCLEO_L152RE_GCC/Demo/IntQueue.c:492:21
	cbnz	r0, .LBB1_35
	b	.LBB1_34
.LBB1_34:                               @   in Loop: Header=BB1_3 Depth=1
	.loc	2 0 21                          @ ../../../CORTEX_MPU_M3_NUCLEO_L152RE_GCC/Demo/IntQueue.c:0:21
	movw	r0, #494
.Ltmp54:
	.loc	2 494 21 is_stmt 1              @ ../../../CORTEX_MPU_M3_NUCLEO_L152RE_GCC/Demo/IntQueue.c:494:21
	bl	prvQueueAccessLogError
	.loc	2 495 17                        @ ../../../CORTEX_MPU_M3_NUCLEO_L152RE_GCC/Demo/IntQueue.c:495:17
	b	.LBB1_35
.Ltmp55:
.LBB1_35:                               @   in Loop: Header=BB1_3 Depth=1
	.loc	2 498 17                        @ ../../../CORTEX_MPU_M3_NUCLEO_L152RE_GCC/Demo/IntQueue.c:498:17
	movw	r0, :lower16:ucNormallyEmptyReceivedValues
	movt	r0, :upper16:ucNormallyEmptyReceivedValues
	movw	r1, #256
	bl	__aeabi_memclr8
	.loc	2 500 42                        @ ../../../CORTEX_MPU_M3_NUCLEO_L152RE_GCC/Demo/IntQueue.c:500:42
	movw	r1, :lower16:uxHighPriorityLoops1
	movt	r1, :upper16:uxHighPriorityLoops1
	ldr	r0, [r1]
	adds	r0, r0, #1
	str	r0, [r1]
	.loc	2 501 51                        @ ../../../CORTEX_MPU_M3_NUCLEO_L152RE_GCC/Demo/IntQueue.c:501:51
	movw	r1, :lower16:uxValueForNormallyEmptyQueue
	movt	r1, :upper16:uxValueForNormallyEmptyQueue
	movs	r0, #0
	str	r0, [r1]
	.loc	2 509 17                        @ ../../../CORTEX_MPU_M3_NUCLEO_L152RE_GCC/Demo/IntQueue.c:509:17
	bl	MPU_vTaskSuspend
	.loc	2 510 30                        @ ../../../CORTEX_MPU_M3_NUCLEO_L152RE_GCC/Demo/IntQueue.c:510:30
	movw	r0, :lower16:xLocalTaskHandles
	movt	r0, :upper16:xLocalTaskHandles
	ldr	r0, [r0, #12]
	.loc	2 510 17 is_stmt 0              @ ../../../CORTEX_MPU_M3_NUCLEO_L152RE_GCC/Demo/IntQueue.c:510:17
	bl	MPU_vTaskResume
	.loc	2 511 13 is_stmt 1              @ ../../../CORTEX_MPU_M3_NUCLEO_L152RE_GCC/Demo/IntQueue.c:511:13
	b	.LBB1_36
.Ltmp56:
.LBB1_36:                               @   in Loop: Header=BB1_3 Depth=1
	.loc	2 512 9                         @ ../../../CORTEX_MPU_M3_NUCLEO_L152RE_GCC/Demo/IntQueue.c:512:9
	b	.LBB1_37
.Ltmp57:
.LBB1_37:                               @   in Loop: Header=BB1_3 Depth=1
	.loc	2 404 5                         @ ../../../CORTEX_MPU_M3_NUCLEO_L152RE_GCC/Demo/IntQueue.c:404:5
	b	.LBB1_3
.Ltmp58:
.Lfunc_end1:
	.size	prvHigherPriorityNormallyEmptyTask, .Lfunc_end1-prvHigherPriorityNormallyEmptyTask
	.cfi_endproc
	.cantunwind
	.fnend
                                        @ -- End function
	.section	.text.prvLowerPriorityNormallyEmptyTask,"ax",%progbits
	.p2align	1                               @ -- Begin function prvLowerPriorityNormallyEmptyTask
	.type	prvLowerPriorityNormallyEmptyTask,%function
	.code	16                              @ @prvLowerPriorityNormallyEmptyTask
	.thumb_func
prvLowerPriorityNormallyEmptyTask:
.Lfunc_begin2:
	.loc	2 518 0                         @ ../../../CORTEX_MPU_M3_NUCLEO_L152RE_GCC/Demo/IntQueue.c:518:0
	.fnstart
	.cfi_startproc
@ %bb.0:
	.save	{r7, lr}
	push	{r7, lr}
	.cfi_def_cfa_offset 8
	.cfi_offset lr, -4
	.cfi_offset r7, -8
	.pad	#16
	sub	sp, #16
	.cfi_def_cfa_offset 24
	str	r0, [sp, #12]
.Ltmp59:
	.loc	2 524 5 prologue_end            @ ../../../CORTEX_MPU_M3_NUCLEO_L152RE_GCC/Demo/IntQueue.c:524:5
	b	.LBB2_1
.LBB2_1:                                @ =>This Inner Loop Header: Depth=1
.Ltmp60:
	.loc	2 526 28                        @ ../../../CORTEX_MPU_M3_NUCLEO_L152RE_GCC/Demo/IntQueue.c:526:28
	movw	r0, :lower16:xNormallyEmptyQueue
	movt	r0, :upper16:xNormallyEmptyQueue
	ldr	r0, [r0]
	add	r1, sp, #4
	movs	r2, #1
	.loc	2 526 13 is_stmt 0              @ ../../../CORTEX_MPU_M3_NUCLEO_L152RE_GCC/Demo/IntQueue.c:526:13
	bl	MPU_xQueueReceive
.Ltmp61:
	.loc	2 526 13                        @ ../../../CORTEX_MPU_M3_NUCLEO_L152RE_GCC/Demo/IntQueue.c:526:13
	cbz	r0, .LBB2_5
	b	.LBB2_2
.LBB2_2:                                @   in Loop: Header=BB2_1 Depth=1
.Ltmp62:
	.loc	2 530 32 is_stmt 1              @ ../../../CORTEX_MPU_M3_NUCLEO_L152RE_GCC/Demo/IntQueue.c:530:32
	movw	r0, :lower16:xLocalTaskHandles
	movt	r0, :upper16:xLocalTaskHandles
	ldr	r0, [r0, #8]
	.loc	2 530 17 is_stmt 0              @ ../../../CORTEX_MPU_M3_NUCLEO_L152RE_GCC/Demo/IntQueue.c:530:17
	bl	MPU_eTaskGetState
.Ltmp63:
	.loc	2 530 17                        @ ../../../CORTEX_MPU_M3_NUCLEO_L152RE_GCC/Demo/IntQueue.c:530:17
	cmp	r0, #3
	beq	.LBB2_4
	b	.LBB2_3
.LBB2_3:                                @   in Loop: Header=BB2_1 Depth=1
	.loc	2 0 17                          @ ../../../CORTEX_MPU_M3_NUCLEO_L152RE_GCC/Demo/IntQueue.c:0:17
	movw	r0, #532
.Ltmp64:
	.loc	2 532 17 is_stmt 1              @ ../../../CORTEX_MPU_M3_NUCLEO_L152RE_GCC/Demo/IntQueue.c:532:17
	bl	prvQueueAccessLogError
	.loc	2 533 13                        @ ../../../CORTEX_MPU_M3_NUCLEO_L152RE_GCC/Demo/IntQueue.c:533:13
	b	.LBB2_4
.Ltmp65:
.LBB2_4:                                @   in Loop: Header=BB2_1 Depth=1
	.loc	2 535 43                        @ ../../../CORTEX_MPU_M3_NUCLEO_L152RE_GCC/Demo/IntQueue.c:535:43
	ldr	r0, [sp, #4]
	movs	r1, #3
	.loc	2 535 13 is_stmt 0              @ ../../../CORTEX_MPU_M3_NUCLEO_L152RE_GCC/Demo/IntQueue.c:535:13
	bl	prvRecordValue_NormallyEmpty
	.loc	2 538 26 is_stmt 1              @ ../../../CORTEX_MPU_M3_NUCLEO_L152RE_GCC/Demo/IntQueue.c:538:26
	movw	r0, :lower16:xLocalTaskHandles
	movt	r0, :upper16:xLocalTaskHandles
	ldr	r0, [r0, #8]
	.loc	2 538 13 is_stmt 0              @ ../../../CORTEX_MPU_M3_NUCLEO_L152RE_GCC/Demo/IntQueue.c:538:13
	bl	MPU_vTaskResume
	.loc	2 539 37 is_stmt 1              @ ../../../CORTEX_MPU_M3_NUCLEO_L152RE_GCC/Demo/IntQueue.c:539:37
	movw	r1, :lower16:uxLowPriorityLoops1
	movt	r1, :upper16:uxLowPriorityLoops1
	ldr	r0, [r1]
	adds	r0, r0, #1
	str	r0, [r1]
	.loc	2 540 9                         @ ../../../CORTEX_MPU_M3_NUCLEO_L152RE_GCC/Demo/IntQueue.c:540:9
	b	.LBB2_8
.Ltmp66:
.LBB2_5:                                @   in Loop: Header=BB2_1 Depth=1
	.loc	2 0 9 is_stmt 0                 @ ../../../CORTEX_MPU_M3_NUCLEO_L152RE_GCC/Demo/IntQueue.c:0:9
	movs	r0, #0
	str	r0, [sp]                        @ 4-byte Spill
	movs	r1, #4
.Ltmp67:
	.loc	2 545 13 is_stmt 1              @ ../../../CORTEX_MPU_M3_NUCLEO_L152RE_GCC/Demo/IntQueue.c:545:13
	bl	MPU_vTaskPrioritySet
	.loc	2 547 13                        @ ../../../CORTEX_MPU_M3_NUCLEO_L152RE_GCC/Demo/IntQueue.c:547:13
	bl	vPortEnterCritical
.Ltmp68:
	.loc	2 549 50                        @ ../../../CORTEX_MPU_M3_NUCLEO_L152RE_GCC/Demo/IntQueue.c:549:50
	movw	r0, :lower16:uxValueForNormallyEmptyQueue
	movt	r0, :upper16:uxValueForNormallyEmptyQueue
	ldr	r1, [r0]
	adds	r1, r1, #1
	str	r1, [r0]
	.loc	2 550 27                        @ ../../../CORTEX_MPU_M3_NUCLEO_L152RE_GCC/Demo/IntQueue.c:550:27
	ldr	r0, [r0]
	.loc	2 550 25 is_stmt 0              @ ../../../CORTEX_MPU_M3_NUCLEO_L152RE_GCC/Demo/IntQueue.c:550:25
	str	r0, [sp, #8]
.Ltmp69:
	.loc	2 552 13 is_stmt 1              @ ../../../CORTEX_MPU_M3_NUCLEO_L152RE_GCC/Demo/IntQueue.c:552:13
	bl	vPortExitCritical
	ldr	r3, [sp]                        @ 4-byte Reload
.Ltmp70:
	.loc	2 554 17                        @ ../../../CORTEX_MPU_M3_NUCLEO_L152RE_GCC/Demo/IntQueue.c:554:17
	movw	r0, :lower16:xNormallyEmptyQueue
	movt	r0, :upper16:xNormallyEmptyQueue
	ldr	r0, [r0]
	mvns	r2, r3
	add	r1, sp, #8
	bl	MPU_xQueueGenericSend
.Ltmp71:
	.loc	2 554 17 is_stmt 0              @ ../../../CORTEX_MPU_M3_NUCLEO_L152RE_GCC/Demo/IntQueue.c:554:17
	cmp	r0, #1
	beq	.LBB2_7
	b	.LBB2_6
.LBB2_6:                                @   in Loop: Header=BB2_1 Depth=1
	.loc	2 0 17                          @ ../../../CORTEX_MPU_M3_NUCLEO_L152RE_GCC/Demo/IntQueue.c:0:17
	movw	r0, #556
.Ltmp72:
	.loc	2 556 17 is_stmt 1              @ ../../../CORTEX_MPU_M3_NUCLEO_L152RE_GCC/Demo/IntQueue.c:556:17
	bl	prvQueueAccessLogError
	.loc	2 557 13                        @ ../../../CORTEX_MPU_M3_NUCLEO_L152RE_GCC/Demo/IntQueue.c:557:13
	b	.LBB2_7
.Ltmp73:
.LBB2_7:                                @   in Loop: Header=BB2_1 Depth=1
	.loc	2 0 13 is_stmt 0                @ ../../../CORTEX_MPU_M3_NUCLEO_L152RE_GCC/Demo/IntQueue.c:0:13
	movs	r1, #0
	.loc	2 559 13 is_stmt 1              @ ../../../CORTEX_MPU_M3_NUCLEO_L152RE_GCC/Demo/IntQueue.c:559:13
	mov	r0, r1
	bl	MPU_vTaskPrioritySet
	b	.LBB2_8
.Ltmp74:
.LBB2_8:                                @   in Loop: Header=BB2_1 Depth=1
	.loc	2 524 5                         @ ../../../CORTEX_MPU_M3_NUCLEO_L152RE_GCC/Demo/IntQueue.c:524:5
	b	.LBB2_1
.Ltmp75:
.Lfunc_end2:
	.size	prvLowerPriorityNormallyEmptyTask, .Lfunc_end2-prvLowerPriorityNormallyEmptyTask
	.cfi_endproc
	.cantunwind
	.fnend
                                        @ -- End function
	.section	.text.prv1stHigherPriorityNormallyFullTask,"ax",%progbits
	.p2align	1                               @ -- Begin function prv1stHigherPriorityNormallyFullTask
	.type	prv1stHigherPriorityNormallyFullTask,%function
	.code	16                              @ @prv1stHigherPriorityNormallyFullTask
	.thumb_func
prv1stHigherPriorityNormallyFullTask:
.Lfunc_begin3:
	.loc	2 566 0                         @ ../../../CORTEX_MPU_M3_NUCLEO_L152RE_GCC/Demo/IntQueue.c:566:0
	.fnstart
	.cfi_startproc
@ %bb.0:
	.save	{r7, lr}
	push	{r7, lr}
	.cfi_def_cfa_offset 8
	.cfi_offset lr, -4
	.cfi_offset r7, -8
	.pad	#16
	sub	sp, #16
	.cfi_def_cfa_offset 24
	str	r0, [sp, #12]
	movs	r0, #0
.Ltmp76:
	.loc	2 574 13 prologue_end           @ ../../../CORTEX_MPU_M3_NUCLEO_L152RE_GCC/Demo/IntQueue.c:574:13
	str	r0, [sp, #4]
	.loc	2 574 10 is_stmt 0              @ ../../../CORTEX_MPU_M3_NUCLEO_L152RE_GCC/Demo/IntQueue.c:574:10
	b	.LBB3_1
.LBB3_1:                                @ =>This Inner Loop Header: Depth=1
.Ltmp77:
	.loc	2 574 18                        @ ../../../CORTEX_MPU_M3_NUCLEO_L152RE_GCC/Demo/IntQueue.c:574:18
	ldr	r0, [sp, #4]
.Ltmp78:
	.loc	2 574 5                         @ ../../../CORTEX_MPU_M3_NUCLEO_L152RE_GCC/Demo/IntQueue.c:574:5
	cmp	r0, #4
	bhi	.LBB3_4
	b	.LBB3_2
.LBB3_2:                                @   in Loop: Header=BB3_1 Depth=1
.Ltmp79:
	.loc	2 576 9 is_stmt 1               @ ../../../CORTEX_MPU_M3_NUCLEO_L152RE_GCC/Demo/IntQueue.c:576:9
	bl	vPortEnterCritical
.Ltmp80:
	.loc	2 578 45                        @ ../../../CORTEX_MPU_M3_NUCLEO_L152RE_GCC/Demo/IntQueue.c:578:45
	movw	r0, :lower16:uxValueForNormallyFullQueue
	movt	r0, :upper16:uxValueForNormallyFullQueue
	ldr	r1, [r0]
	adds	r1, r1, #1
	str	r1, [r0]
	.loc	2 579 27                        @ ../../../CORTEX_MPU_M3_NUCLEO_L152RE_GCC/Demo/IntQueue.c:579:27
	ldr	r0, [r0]
	.loc	2 579 25 is_stmt 0              @ ../../../CORTEX_MPU_M3_NUCLEO_L152RE_GCC/Demo/IntQueue.c:579:25
	str	r0, [sp, #8]
.Ltmp81:
	.loc	2 581 9 is_stmt 1               @ ../../../CORTEX_MPU_M3_NUCLEO_L152RE_GCC/Demo/IntQueue.c:581:9
	bl	vPortExitCritical
	.loc	2 583 9                         @ ../../../CORTEX_MPU_M3_NUCLEO_L152RE_GCC/Demo/IntQueue.c:583:9
	movw	r0, :lower16:xNormallyFullQueue
	movt	r0, :upper16:xNormallyFullQueue
	ldr	r0, [r0]
	add	r1, sp, #8
	movs	r2, #140
	movs	r3, #0
	bl	MPU_xQueueGenericSend
	.loc	2 584 5                         @ ../../../CORTEX_MPU_M3_NUCLEO_L152RE_GCC/Demo/IntQueue.c:584:5
	b	.LBB3_3
.Ltmp82:
.LBB3_3:                                @   in Loop: Header=BB3_1 Depth=1
	.loc	2 574 52                        @ ../../../CORTEX_MPU_M3_NUCLEO_L152RE_GCC/Demo/IntQueue.c:574:52
	ldr	r0, [sp, #4]
	adds	r0, r0, #1
	str	r0, [sp, #4]
	.loc	2 574 5 is_stmt 0               @ ../../../CORTEX_MPU_M3_NUCLEO_L152RE_GCC/Demo/IntQueue.c:574:5
	b	.LBB3_1
.Ltmp83:
.LBB3_4:
	.loc	2 586 5 is_stmt 1               @ ../../../CORTEX_MPU_M3_NUCLEO_L152RE_GCC/Demo/IntQueue.c:586:5
	b	.LBB3_5
.LBB3_5:                                @ =>This Loop Header: Depth=1
                                        @     Child Loop BB3_11 Depth 2
.Ltmp84:
	.loc	2 588 9                         @ ../../../CORTEX_MPU_M3_NUCLEO_L152RE_GCC/Demo/IntQueue.c:588:9
	bl	vPortEnterCritical
.Ltmp85:
	.loc	2 590 45                        @ ../../../CORTEX_MPU_M3_NUCLEO_L152RE_GCC/Demo/IntQueue.c:590:45
	movw	r0, :lower16:uxValueForNormallyFullQueue
	movt	r0, :upper16:uxValueForNormallyFullQueue
	ldr	r1, [r0]
	adds	r1, r1, #1
	str	r1, [r0]
	.loc	2 591 27                        @ ../../../CORTEX_MPU_M3_NUCLEO_L152RE_GCC/Demo/IntQueue.c:591:27
	ldr	r0, [r0]
	.loc	2 591 25 is_stmt 0              @ ../../../CORTEX_MPU_M3_NUCLEO_L152RE_GCC/Demo/IntQueue.c:591:25
	str	r0, [sp, #8]
.Ltmp86:
	.loc	2 593 9 is_stmt 1               @ ../../../CORTEX_MPU_M3_NUCLEO_L152RE_GCC/Demo/IntQueue.c:593:9
	bl	vPortExitCritical
.Ltmp87:
	.loc	2 595 13                        @ ../../../CORTEX_MPU_M3_NUCLEO_L152RE_GCC/Demo/IntQueue.c:595:13
	movw	r0, :lower16:xNormallyFullQueue
	movt	r0, :upper16:xNormallyFullQueue
	ldr	r0, [r0]
	add	r1, sp, #8
	movs	r2, #140
	movs	r3, #0
	bl	MPU_xQueueGenericSend
.Ltmp88:
	.loc	2 595 13 is_stmt 0              @ ../../../CORTEX_MPU_M3_NUCLEO_L152RE_GCC/Demo/IntQueue.c:595:13
	cmp	r0, #1
	beq	.LBB3_7
	b	.LBB3_6
.LBB3_6:                                @   in Loop: Header=BB3_5 Depth=1
	.loc	2 0 13                          @ ../../../CORTEX_MPU_M3_NUCLEO_L152RE_GCC/Demo/IntQueue.c:0:13
	movw	r0, #599
.Ltmp89:
	.loc	2 599 13 is_stmt 1              @ ../../../CORTEX_MPU_M3_NUCLEO_L152RE_GCC/Demo/IntQueue.c:599:13
	bl	prvQueueAccessLogError
	.loc	2 600 9                         @ ../../../CORTEX_MPU_M3_NUCLEO_L152RE_GCC/Demo/IntQueue.c:600:9
	b	.LBB3_7
.Ltmp90:
.LBB3_7:                                @   in Loop: Header=BB3_5 Depth=1
	.loc	2 603 9                         @ ../../../CORTEX_MPU_M3_NUCLEO_L152RE_GCC/Demo/IntQueue.c:603:9
	bl	vPortYield
.Ltmp91:
	.loc	2 606 13                        @ ../../../CORTEX_MPU_M3_NUCLEO_L152RE_GCC/Demo/IntQueue.c:606:13
	ldr	r0, [sp, #8]
.Ltmp92:
	.loc	2 606 13 is_stmt 0              @ ../../../CORTEX_MPU_M3_NUCLEO_L152RE_GCC/Demo/IntQueue.c:606:13
	cmp	r0, #251
	blo	.LBB3_22
	b	.LBB3_8
.LBB3_8:                                @   in Loop: Header=BB3_5 Depth=1
	.loc	2 0 13                          @ ../../../CORTEX_MPU_M3_NUCLEO_L152RE_GCC/Demo/IntQueue.c:0:13
	movs	r0, #140
.Ltmp93:
	.loc	2 610 13 is_stmt 1              @ ../../../CORTEX_MPU_M3_NUCLEO_L152RE_GCC/Demo/IntQueue.c:610:13
	bl	MPU_vTaskDelay
	.loc	2 612 27                        @ ../../../CORTEX_MPU_M3_NUCLEO_L152RE_GCC/Demo/IntQueue.c:612:27
	movw	r0, :lower16:xLocalTaskHandles
	movt	r0, :upper16:xLocalTaskHandles
	ldr	r0, [r0, #20]
	.loc	2 612 13 is_stmt 0              @ ../../../CORTEX_MPU_M3_NUCLEO_L152RE_GCC/Demo/IntQueue.c:612:13
	bl	MPU_vTaskSuspend
.Ltmp94:
	.loc	2 614 17 is_stmt 1              @ ../../../CORTEX_MPU_M3_NUCLEO_L152RE_GCC/Demo/IntQueue.c:614:17
	movw	r0, :lower16:xWasSuspended
	movt	r0, :upper16:xWasSuspended
	ldr	r0, [r0]
.Ltmp95:
	.loc	2 614 17 is_stmt 0              @ ../../../CORTEX_MPU_M3_NUCLEO_L152RE_GCC/Demo/IntQueue.c:614:17
	cmp	r0, #1
	bne	.LBB3_10
	b	.LBB3_9
.LBB3_9:                                @   in Loop: Header=BB3_5 Depth=1
	.loc	2 0 17                          @ ../../../CORTEX_MPU_M3_NUCLEO_L152RE_GCC/Demo/IntQueue.c:0:17
	movw	r0, #618
.Ltmp96:
	.loc	2 618 17 is_stmt 1              @ ../../../CORTEX_MPU_M3_NUCLEO_L152RE_GCC/Demo/IntQueue.c:618:17
	bl	prvQueueAccessLogError
	.loc	2 619 13                        @ ../../../CORTEX_MPU_M3_NUCLEO_L152RE_GCC/Demo/IntQueue.c:619:13
	b	.LBB3_10
.Ltmp97:
.LBB3_10:                               @   in Loop: Header=BB3_5 Depth=1
	.loc	2 623 32                        @ ../../../CORTEX_MPU_M3_NUCLEO_L152RE_GCC/Demo/IntQueue.c:623:32
	movw	r1, :lower16:xWasSuspended
	movt	r1, :upper16:xWasSuspended
	movs	r0, #1
	str	r0, [r1]
	movs	r1, #0
	.loc	2 626 26                        @ ../../../CORTEX_MPU_M3_NUCLEO_L152RE_GCC/Demo/IntQueue.c:626:26
	str	r1, [sp]
.Ltmp98:
	.loc	2 629 21                        @ ../../../CORTEX_MPU_M3_NUCLEO_L152RE_GCC/Demo/IntQueue.c:629:21
	str	r0, [sp, #4]
	.loc	2 629 18 is_stmt 0              @ ../../../CORTEX_MPU_M3_NUCLEO_L152RE_GCC/Demo/IntQueue.c:629:18
	b	.LBB3_11
.LBB3_11:                               @   Parent Loop BB3_5 Depth=1
                                        @ =>  This Inner Loop Header: Depth=2
.Ltmp99:
	.loc	2 629 26                        @ ../../../CORTEX_MPU_M3_NUCLEO_L152RE_GCC/Demo/IntQueue.c:629:26
	ldr	r0, [sp, #4]
.Ltmp100:
	.loc	2 629 13                        @ ../../../CORTEX_MPU_M3_NUCLEO_L152RE_GCC/Demo/IntQueue.c:629:13
	cmp	r0, #199
	bhi	.LBB3_19
	b	.LBB3_12
.LBB3_12:                               @   in Loop: Header=BB3_11 Depth=2
.Ltmp101:
	.loc	2 631 51 is_stmt 1              @ ../../../CORTEX_MPU_M3_NUCLEO_L152RE_GCC/Demo/IntQueue.c:631:51
	ldr	r1, [sp, #4]
	.loc	2 631 21 is_stmt 0              @ ../../../CORTEX_MPU_M3_NUCLEO_L152RE_GCC/Demo/IntQueue.c:631:21
	movw	r0, :lower16:ucNormallyFullReceivedValues
	movt	r0, :upper16:ucNormallyFullReceivedValues
	ldrb	r0, [r0, r1]
.Ltmp102:
	.loc	2 631 21                        @ ../../../CORTEX_MPU_M3_NUCLEO_L152RE_GCC/Demo/IntQueue.c:631:21
	cbnz	r0, .LBB3_14
	b	.LBB3_13
.LBB3_13:                               @   in Loop: Header=BB3_11 Depth=2
	.loc	2 0 21                          @ ../../../CORTEX_MPU_M3_NUCLEO_L152RE_GCC/Demo/IntQueue.c:0:21
	movw	r0, #634
.Ltmp103:
	.loc	2 634 21 is_stmt 1              @ ../../../CORTEX_MPU_M3_NUCLEO_L152RE_GCC/Demo/IntQueue.c:634:21
	bl	prvQueueAccessLogError
	.loc	2 635 17                        @ ../../../CORTEX_MPU_M3_NUCLEO_L152RE_GCC/Demo/IntQueue.c:635:17
	b	.LBB3_17
.Ltmp104:
.LBB3_14:                               @   in Loop: Header=BB3_11 Depth=2
	.loc	2 636 56                        @ ../../../CORTEX_MPU_M3_NUCLEO_L152RE_GCC/Demo/IntQueue.c:636:56
	ldr	r1, [sp, #4]
	.loc	2 636 26 is_stmt 0              @ ../../../CORTEX_MPU_M3_NUCLEO_L152RE_GCC/Demo/IntQueue.c:636:26
	movw	r0, :lower16:ucNormallyFullReceivedValues
	movt	r0, :upper16:ucNormallyFullReceivedValues
	ldrb	r0, [r0, r1]
.Ltmp105:
	.loc	2 636 26                        @ ../../../CORTEX_MPU_M3_NUCLEO_L152RE_GCC/Demo/IntQueue.c:636:26
	cmp	r0, #5
	bne	.LBB3_16
	b	.LBB3_15
.LBB3_15:                               @   in Loop: Header=BB3_11 Depth=2
.Ltmp106:
	.loc	2 638 33 is_stmt 1              @ ../../../CORTEX_MPU_M3_NUCLEO_L152RE_GCC/Demo/IntQueue.c:638:33
	ldr	r0, [sp]
	adds	r0, r0, #1
	str	r0, [sp]
	.loc	2 639 17                        @ ../../../CORTEX_MPU_M3_NUCLEO_L152RE_GCC/Demo/IntQueue.c:639:17
	b	.LBB3_16
.Ltmp107:
.LBB3_16:                               @   in Loop: Header=BB3_11 Depth=2
	.loc	2 0 17 is_stmt 0                @ ../../../CORTEX_MPU_M3_NUCLEO_L152RE_GCC/Demo/IntQueue.c:0:17
	b	.LBB3_17
.LBB3_17:                               @   in Loop: Header=BB3_11 Depth=2
	.loc	2 640 13 is_stmt 1              @ ../../../CORTEX_MPU_M3_NUCLEO_L152RE_GCC/Demo/IntQueue.c:640:13
	b	.LBB3_18
.Ltmp108:
.LBB3_18:                               @   in Loop: Header=BB3_11 Depth=2
	.loc	2 629 56                        @ ../../../CORTEX_MPU_M3_NUCLEO_L152RE_GCC/Demo/IntQueue.c:629:56
	ldr	r0, [sp, #4]
	adds	r0, r0, #1
	str	r0, [sp, #4]
	.loc	2 629 13 is_stmt 0              @ ../../../CORTEX_MPU_M3_NUCLEO_L152RE_GCC/Demo/IntQueue.c:629:13
	b	.LBB3_11
.Ltmp109:
.LBB3_19:                               @   in Loop: Header=BB3_5 Depth=1
	.loc	2 642 17 is_stmt 1              @ ../../../CORTEX_MPU_M3_NUCLEO_L152RE_GCC/Demo/IntQueue.c:642:17
	ldr	r0, [sp]
.Ltmp110:
	.loc	2 642 17 is_stmt 0              @ ../../../CORTEX_MPU_M3_NUCLEO_L152RE_GCC/Demo/IntQueue.c:642:17
	cbnz	r0, .LBB3_21
	b	.LBB3_20
.LBB3_20:                               @   in Loop: Header=BB3_5 Depth=1
	.loc	2 0 17                          @ ../../../CORTEX_MPU_M3_NUCLEO_L152RE_GCC/Demo/IntQueue.c:0:17
	movw	r0, #646
.Ltmp111:
	.loc	2 646 17 is_stmt 1              @ ../../../CORTEX_MPU_M3_NUCLEO_L152RE_GCC/Demo/IntQueue.c:646:17
	bl	prvQueueAccessLogError
	.loc	2 647 13                        @ ../../../CORTEX_MPU_M3_NUCLEO_L152RE_GCC/Demo/IntQueue.c:647:13
	b	.LBB3_21
.Ltmp112:
.LBB3_21:                               @   in Loop: Header=BB3_5 Depth=1
	.loc	2 650 13                        @ ../../../CORTEX_MPU_M3_NUCLEO_L152RE_GCC/Demo/IntQueue.c:650:13
	movw	r0, :lower16:ucNormallyFullReceivedValues
	movt	r0, :upper16:ucNormallyFullReceivedValues
	movw	r1, #256
	bl	__aeabi_memclr8
	.loc	2 652 38                        @ ../../../CORTEX_MPU_M3_NUCLEO_L152RE_GCC/Demo/IntQueue.c:652:38
	movw	r1, :lower16:uxHighPriorityLoops2
	movt	r1, :upper16:uxHighPriorityLoops2
	ldr	r0, [r1]
	adds	r0, r0, #1
	str	r0, [r1]
	.loc	2 653 46                        @ ../../../CORTEX_MPU_M3_NUCLEO_L152RE_GCC/Demo/IntQueue.c:653:46
	movw	r1, :lower16:uxValueForNormallyFullQueue
	movt	r1, :upper16:uxValueForNormallyFullQueue
	movs	r0, #0
	str	r0, [r1]
	.loc	2 661 13                        @ ../../../CORTEX_MPU_M3_NUCLEO_L152RE_GCC/Demo/IntQueue.c:661:13
	bl	MPU_vTaskSuspend
	.loc	2 662 26                        @ ../../../CORTEX_MPU_M3_NUCLEO_L152RE_GCC/Demo/IntQueue.c:662:26
	movw	r0, :lower16:xLocalTaskHandles
	movt	r0, :upper16:xLocalTaskHandles
	ldr	r0, [r0, #20]
	.loc	2 662 13 is_stmt 0              @ ../../../CORTEX_MPU_M3_NUCLEO_L152RE_GCC/Demo/IntQueue.c:662:13
	bl	MPU_vTaskResume
	.loc	2 663 9 is_stmt 1               @ ../../../CORTEX_MPU_M3_NUCLEO_L152RE_GCC/Demo/IntQueue.c:663:9
	b	.LBB3_22
.Ltmp113:
.LBB3_22:                               @   in Loop: Header=BB3_5 Depth=1
	.loc	2 586 5                         @ ../../../CORTEX_MPU_M3_NUCLEO_L152RE_GCC/Demo/IntQueue.c:586:5
	b	.LBB3_5
.Ltmp114:
.Lfunc_end3:
	.size	prv1stHigherPriorityNormallyFullTask, .Lfunc_end3-prv1stHigherPriorityNormallyFullTask
	.cfi_endproc
	.cantunwind
	.fnend
                                        @ -- End function
	.section	.text.prv2ndHigherPriorityNormallyFullTask,"ax",%progbits
	.p2align	1                               @ -- Begin function prv2ndHigherPriorityNormallyFullTask
	.type	prv2ndHigherPriorityNormallyFullTask,%function
	.code	16                              @ @prv2ndHigherPriorityNormallyFullTask
	.thumb_func
prv2ndHigherPriorityNormallyFullTask:
.Lfunc_begin4:
	.loc	2 669 0                         @ ../../../CORTEX_MPU_M3_NUCLEO_L152RE_GCC/Demo/IntQueue.c:669:0
	.fnstart
	.cfi_startproc
@ %bb.0:
	.save	{r7, lr}
	push	{r7, lr}
	.cfi_def_cfa_offset 8
	.cfi_offset lr, -4
	.cfi_offset r7, -8
	.pad	#16
	sub	sp, #16
	.cfi_def_cfa_offset 24
	str	r0, [sp, #12]
	movs	r0, #0
.Ltmp115:
	.loc	2 677 13 prologue_end           @ ../../../CORTEX_MPU_M3_NUCLEO_L152RE_GCC/Demo/IntQueue.c:677:13
	str	r0, [sp, #4]
	.loc	2 677 10 is_stmt 0              @ ../../../CORTEX_MPU_M3_NUCLEO_L152RE_GCC/Demo/IntQueue.c:677:10
	b	.LBB4_1
.LBB4_1:                                @ =>This Inner Loop Header: Depth=1
.Ltmp116:
	.loc	2 677 18                        @ ../../../CORTEX_MPU_M3_NUCLEO_L152RE_GCC/Demo/IntQueue.c:677:18
	ldr	r0, [sp, #4]
.Ltmp117:
	.loc	2 677 5                         @ ../../../CORTEX_MPU_M3_NUCLEO_L152RE_GCC/Demo/IntQueue.c:677:5
	cmp	r0, #4
	bhi	.LBB4_4
	b	.LBB4_2
.LBB4_2:                                @   in Loop: Header=BB4_1 Depth=1
.Ltmp118:
	.loc	2 679 9 is_stmt 1               @ ../../../CORTEX_MPU_M3_NUCLEO_L152RE_GCC/Demo/IntQueue.c:679:9
	bl	vPortEnterCritical
.Ltmp119:
	.loc	2 681 45                        @ ../../../CORTEX_MPU_M3_NUCLEO_L152RE_GCC/Demo/IntQueue.c:681:45
	movw	r0, :lower16:uxValueForNormallyFullQueue
	movt	r0, :upper16:uxValueForNormallyFullQueue
	ldr	r1, [r0]
	adds	r1, r1, #1
	str	r1, [r0]
	.loc	2 682 27                        @ ../../../CORTEX_MPU_M3_NUCLEO_L152RE_GCC/Demo/IntQueue.c:682:27
	ldr	r0, [r0]
	.loc	2 682 25 is_stmt 0              @ ../../../CORTEX_MPU_M3_NUCLEO_L152RE_GCC/Demo/IntQueue.c:682:25
	str	r0, [sp, #8]
.Ltmp120:
	.loc	2 684 9 is_stmt 1               @ ../../../CORTEX_MPU_M3_NUCLEO_L152RE_GCC/Demo/IntQueue.c:684:9
	bl	vPortExitCritical
	.loc	2 686 9                         @ ../../../CORTEX_MPU_M3_NUCLEO_L152RE_GCC/Demo/IntQueue.c:686:9
	movw	r0, :lower16:xNormallyFullQueue
	movt	r0, :upper16:xNormallyFullQueue
	ldr	r0, [r0]
	add	r1, sp, #8
	movs	r2, #140
	movs	r3, #0
	bl	MPU_xQueueGenericSend
	.loc	2 687 5                         @ ../../../CORTEX_MPU_M3_NUCLEO_L152RE_GCC/Demo/IntQueue.c:687:5
	b	.LBB4_3
.Ltmp121:
.LBB4_3:                                @   in Loop: Header=BB4_1 Depth=1
	.loc	2 677 52                        @ ../../../CORTEX_MPU_M3_NUCLEO_L152RE_GCC/Demo/IntQueue.c:677:52
	ldr	r0, [sp, #4]
	adds	r0, r0, #1
	str	r0, [sp, #4]
	.loc	2 677 5 is_stmt 0               @ ../../../CORTEX_MPU_M3_NUCLEO_L152RE_GCC/Demo/IntQueue.c:677:5
	b	.LBB4_1
.Ltmp122:
.LBB4_4:
	.loc	2 689 5 is_stmt 1               @ ../../../CORTEX_MPU_M3_NUCLEO_L152RE_GCC/Demo/IntQueue.c:689:5
	b	.LBB4_5
.LBB4_5:                                @ =>This Inner Loop Header: Depth=1
.Ltmp123:
	.loc	2 691 9                         @ ../../../CORTEX_MPU_M3_NUCLEO_L152RE_GCC/Demo/IntQueue.c:691:9
	bl	vPortEnterCritical
.Ltmp124:
	.loc	2 693 45                        @ ../../../CORTEX_MPU_M3_NUCLEO_L152RE_GCC/Demo/IntQueue.c:693:45
	movw	r0, :lower16:uxValueForNormallyFullQueue
	movt	r0, :upper16:uxValueForNormallyFullQueue
	ldr	r1, [r0]
	adds	r1, r1, #1
	str	r1, [r0]
	.loc	2 694 27                        @ ../../../CORTEX_MPU_M3_NUCLEO_L152RE_GCC/Demo/IntQueue.c:694:27
	ldr	r0, [r0]
	.loc	2 694 25 is_stmt 0              @ ../../../CORTEX_MPU_M3_NUCLEO_L152RE_GCC/Demo/IntQueue.c:694:25
	str	r0, [sp, #8]
.Ltmp125:
	.loc	2 696 9 is_stmt 1               @ ../../../CORTEX_MPU_M3_NUCLEO_L152RE_GCC/Demo/IntQueue.c:696:9
	bl	vPortExitCritical
.Ltmp126:
	.loc	2 698 13                        @ ../../../CORTEX_MPU_M3_NUCLEO_L152RE_GCC/Demo/IntQueue.c:698:13
	movw	r0, :lower16:xNormallyFullQueue
	movt	r0, :upper16:xNormallyFullQueue
	ldr	r0, [r0]
	add	r1, sp, #8
	movs	r2, #140
	movs	r3, #0
	bl	MPU_xQueueGenericSend
.Ltmp127:
	.loc	2 698 13 is_stmt 0              @ ../../../CORTEX_MPU_M3_NUCLEO_L152RE_GCC/Demo/IntQueue.c:698:13
	cmp	r0, #1
	beq	.LBB4_9
	b	.LBB4_6
.LBB4_6:                                @   in Loop: Header=BB4_5 Depth=1
.Ltmp128:
	.loc	2 700 17 is_stmt 1              @ ../../../CORTEX_MPU_M3_NUCLEO_L152RE_GCC/Demo/IntQueue.c:700:17
	movw	r0, :lower16:xWasSuspended
	movt	r0, :upper16:xWasSuspended
	ldr	r0, [r0]
.Ltmp129:
	.loc	2 700 17 is_stmt 0              @ ../../../CORTEX_MPU_M3_NUCLEO_L152RE_GCC/Demo/IntQueue.c:700:17
	cmp	r0, #1
	beq	.LBB4_8
	b	.LBB4_7
.LBB4_7:                                @   in Loop: Header=BB4_5 Depth=1
	.loc	2 0 17                          @ ../../../CORTEX_MPU_M3_NUCLEO_L152RE_GCC/Demo/IntQueue.c:0:17
	movw	r0, #703
.Ltmp130:
	.loc	2 703 17 is_stmt 1              @ ../../../CORTEX_MPU_M3_NUCLEO_L152RE_GCC/Demo/IntQueue.c:703:17
	bl	prvQueueAccessLogError
	.loc	2 704 13                        @ ../../../CORTEX_MPU_M3_NUCLEO_L152RE_GCC/Demo/IntQueue.c:704:13
	b	.LBB4_8
.Ltmp131:
.LBB4_8:                                @   in Loop: Header=BB4_5 Depth=1
	.loc	2 705 9                         @ ../../../CORTEX_MPU_M3_NUCLEO_L152RE_GCC/Demo/IntQueue.c:705:9
	b	.LBB4_9
.Ltmp132:
.LBB4_9:                                @   in Loop: Header=BB4_5 Depth=1
	.loc	2 707 28                        @ ../../../CORTEX_MPU_M3_NUCLEO_L152RE_GCC/Demo/IntQueue.c:707:28
	movw	r1, :lower16:xWasSuspended
	movt	r1, :upper16:xWasSuspended
	movs	r0, #0
	str	r0, [r1]
	.loc	2 709 9                         @ ../../../CORTEX_MPU_M3_NUCLEO_L152RE_GCC/Demo/IntQueue.c:709:9
	bl	vPortYield
.Ltmp133:
	.loc	2 689 5                         @ ../../../CORTEX_MPU_M3_NUCLEO_L152RE_GCC/Demo/IntQueue.c:689:5
	b	.LBB4_5
.Ltmp134:
.Lfunc_end4:
	.size	prv2ndHigherPriorityNormallyFullTask, .Lfunc_end4-prv2ndHigherPriorityNormallyFullTask
	.cfi_endproc
	.cantunwind
	.fnend
                                        @ -- End function
	.section	.text.prvLowerPriorityNormallyFullTask,"ax",%progbits
	.p2align	1                               @ -- Begin function prvLowerPriorityNormallyFullTask
	.type	prvLowerPriorityNormallyFullTask,%function
	.code	16                              @ @prvLowerPriorityNormallyFullTask
	.thumb_func
prvLowerPriorityNormallyFullTask:
.Lfunc_begin5:
	.loc	2 715 0                         @ ../../../CORTEX_MPU_M3_NUCLEO_L152RE_GCC/Demo/IntQueue.c:715:0
	.fnstart
	.cfi_startproc
@ %bb.0:
	.save	{r7, lr}
	push	{r7, lr}
	.cfi_def_cfa_offset 8
	.cfi_offset lr, -4
	.cfi_offset r7, -8
	.pad	#16
	sub	sp, #16
	.cfi_def_cfa_offset 24
	str	r0, [sp, #12]
	movw	r0, #9999
.Ltmp135:
	.loc	2 716 26 prologue_end           @ ../../../CORTEX_MPU_M3_NUCLEO_L152RE_GCC/Demo/IntQueue.c:716:26
	str	r0, [sp, #4]
	.loc	2 721 5                         @ ../../../CORTEX_MPU_M3_NUCLEO_L152RE_GCC/Demo/IntQueue.c:721:5
	b	.LBB5_1
.LBB5_1:                                @ =>This Inner Loop Header: Depth=1
.Ltmp136:
	.loc	2 723 13                        @ ../../../CORTEX_MPU_M3_NUCLEO_L152RE_GCC/Demo/IntQueue.c:723:13
	movw	r0, :lower16:xNormallyFullQueue
	movt	r0, :upper16:xNormallyFullQueue
	ldr	r0, [r0]
	add	r1, sp, #4
	movs	r2, #1
	movs	r3, #0
	bl	MPU_xQueueGenericSend
.Ltmp137:
	.loc	2 723 13 is_stmt 0              @ ../../../CORTEX_MPU_M3_NUCLEO_L152RE_GCC/Demo/IntQueue.c:723:13
	cbz	r0, .LBB5_5
	b	.LBB5_2
.LBB5_2:                                @   in Loop: Header=BB5_1 Depth=1
.Ltmp138:
	.loc	2 726 32 is_stmt 1              @ ../../../CORTEX_MPU_M3_NUCLEO_L152RE_GCC/Demo/IntQueue.c:726:32
	movw	r0, :lower16:xLocalTaskHandles
	movt	r0, :upper16:xLocalTaskHandles
	ldr	r0, [r0, #16]
	.loc	2 726 17 is_stmt 0              @ ../../../CORTEX_MPU_M3_NUCLEO_L152RE_GCC/Demo/IntQueue.c:726:17
	bl	MPU_eTaskGetState
.Ltmp139:
	.loc	2 726 17                        @ ../../../CORTEX_MPU_M3_NUCLEO_L152RE_GCC/Demo/IntQueue.c:726:17
	cmp	r0, #3
	beq	.LBB5_4
	b	.LBB5_3
.LBB5_3:                                @   in Loop: Header=BB5_1 Depth=1
	.loc	2 0 17                          @ ../../../CORTEX_MPU_M3_NUCLEO_L152RE_GCC/Demo/IntQueue.c:0:17
	movw	r0, #728
.Ltmp140:
	.loc	2 728 17 is_stmt 1              @ ../../../CORTEX_MPU_M3_NUCLEO_L152RE_GCC/Demo/IntQueue.c:728:17
	bl	prvQueueAccessLogError
	.loc	2 729 13                        @ ../../../CORTEX_MPU_M3_NUCLEO_L152RE_GCC/Demo/IntQueue.c:729:13
	b	.LBB5_4
.Ltmp141:
.LBB5_4:                                @   in Loop: Header=BB5_1 Depth=1
	.loc	2 731 26                        @ ../../../CORTEX_MPU_M3_NUCLEO_L152RE_GCC/Demo/IntQueue.c:731:26
	movw	r0, :lower16:xLocalTaskHandles
	movt	r0, :upper16:xLocalTaskHandles
	ldr	r0, [r0, #16]
	.loc	2 731 13 is_stmt 0              @ ../../../CORTEX_MPU_M3_NUCLEO_L152RE_GCC/Demo/IntQueue.c:731:13
	bl	MPU_vTaskResume
	.loc	2 732 37 is_stmt 1              @ ../../../CORTEX_MPU_M3_NUCLEO_L152RE_GCC/Demo/IntQueue.c:732:37
	movw	r1, :lower16:uxLowPriorityLoops2
	movt	r1, :upper16:uxLowPriorityLoops2
	ldr	r0, [r1]
	adds	r0, r0, #1
	str	r0, [r1]
	.loc	2 733 9                         @ ../../../CORTEX_MPU_M3_NUCLEO_L152RE_GCC/Demo/IntQueue.c:733:9
	b	.LBB5_9
.Ltmp142:
.LBB5_5:                                @   in Loop: Header=BB5_1 Depth=1
	.loc	2 0 9 is_stmt 0                 @ ../../../CORTEX_MPU_M3_NUCLEO_L152RE_GCC/Demo/IntQueue.c:0:9
	movs	r0, #0
	str	r0, [sp]                        @ 4-byte Spill
	movs	r1, #4
.Ltmp143:
	.loc	2 738 13 is_stmt 1              @ ../../../CORTEX_MPU_M3_NUCLEO_L152RE_GCC/Demo/IntQueue.c:738:13
	bl	MPU_vTaskPrioritySet
	ldr	r1, [sp]                        @ 4-byte Reload
.Ltmp144:
	.loc	2 740 32                        @ ../../../CORTEX_MPU_M3_NUCLEO_L152RE_GCC/Demo/IntQueue.c:740:32
	movw	r0, :lower16:xNormallyFullQueue
	movt	r0, :upper16:xNormallyFullQueue
	ldr	r0, [r0]
	mvns	r2, r1
	add	r1, sp, #8
	.loc	2 740 17 is_stmt 0              @ ../../../CORTEX_MPU_M3_NUCLEO_L152RE_GCC/Demo/IntQueue.c:740:17
	bl	MPU_xQueueReceive
.Ltmp145:
	.loc	2 740 17                        @ ../../../CORTEX_MPU_M3_NUCLEO_L152RE_GCC/Demo/IntQueue.c:740:17
	cmp	r0, #1
	beq	.LBB5_7
	b	.LBB5_6
.LBB5_6:                                @   in Loop: Header=BB5_1 Depth=1
	.loc	2 0 17                          @ ../../../CORTEX_MPU_M3_NUCLEO_L152RE_GCC/Demo/IntQueue.c:0:17
	movw	r0, #742
.Ltmp146:
	.loc	2 742 17 is_stmt 1              @ ../../../CORTEX_MPU_M3_NUCLEO_L152RE_GCC/Demo/IntQueue.c:742:17
	bl	prvQueueAccessLogError
	.loc	2 743 13                        @ ../../../CORTEX_MPU_M3_NUCLEO_L152RE_GCC/Demo/IntQueue.c:743:13
	b	.LBB5_8
.Ltmp147:
.LBB5_7:                                @   in Loop: Header=BB5_1 Depth=1
	.loc	2 746 46                        @ ../../../CORTEX_MPU_M3_NUCLEO_L152RE_GCC/Demo/IntQueue.c:746:46
	ldr	r0, [sp, #8]
	movs	r1, #3
	.loc	2 746 17 is_stmt 0              @ ../../../CORTEX_MPU_M3_NUCLEO_L152RE_GCC/Demo/IntQueue.c:746:17
	bl	prvRecordValue_NormallyFull
	b	.LBB5_8
.Ltmp148:
.LBB5_8:                                @   in Loop: Header=BB5_1 Depth=1
	.loc	2 0 17                          @ ../../../CORTEX_MPU_M3_NUCLEO_L152RE_GCC/Demo/IntQueue.c:0:17
	movs	r1, #0
	.loc	2 749 13 is_stmt 1              @ ../../../CORTEX_MPU_M3_NUCLEO_L152RE_GCC/Demo/IntQueue.c:749:13
	mov	r0, r1
	bl	MPU_vTaskPrioritySet
	b	.LBB5_9
.Ltmp149:
.LBB5_9:                                @   in Loop: Header=BB5_1 Depth=1
	.loc	2 721 5                         @ ../../../CORTEX_MPU_M3_NUCLEO_L152RE_GCC/Demo/IntQueue.c:721:5
	b	.LBB5_1
.Ltmp150:
.Lfunc_end5:
	.size	prvLowerPriorityNormallyFullTask, .Lfunc_end5-prvLowerPriorityNormallyFullTask
	.cfi_endproc
	.cantunwind
	.fnend
                                        @ -- End function
	.section	.text.xFirstTimerHandler,"ax",%progbits
	.hidden	xFirstTimerHandler              @ -- Begin function xFirstTimerHandler
	.globl	xFirstTimerHandler
	.p2align	1
	.type	xFirstTimerHandler,%function
	.code	16                              @ @xFirstTimerHandler
	.thumb_func
xFirstTimerHandler:
.Lfunc_begin6:
	.loc	2 756 0                         @ ../../../CORTEX_MPU_M3_NUCLEO_L152RE_GCC/Demo/IntQueue.c:756:0
	.fnstart
	.cfi_startproc
@ %bb.0:
	.save	{r7, lr}
	push	{r7, lr}
	.cfi_def_cfa_offset 8
	.cfi_offset lr, -4
	.cfi_offset r7, -8
	.pad	#24
	sub	sp, #24
	.cfi_def_cfa_offset 32
	movs	r0, #0
.Ltmp151:
	.loc	2 757 16 prologue_end           @ ../../../CORTEX_MPU_M3_NUCLEO_L152RE_GCC/Demo/IntQueue.c:757:16
	str	r0, [sp, #20]
	.loc	2 764 20                        @ ../../../CORTEX_MPU_M3_NUCLEO_L152RE_GCC/Demo/IntQueue.c:764:20
	movw	r0, :lower16:xFirstTimerHandler.uxNextOperation
	movt	r0, :upper16:xFirstTimerHandler.uxNextOperation
	ldr	r1, [r0]
	adds	r1, r1, #1
	str	r1, [r0]
	.loc	2 766 9                         @ ../../../CORTEX_MPU_M3_NUCLEO_L152RE_GCC/Demo/IntQueue.c:766:9
	ldrb	r0, [r0]
	lsls	r0, r0, #31
	cbnz	r0, .LBB6_1
	b	.LBB6_14
.LBB6_1:
.Ltmp152:
	.loc	2 768 9                         @ ../../../CORTEX_MPU_M3_NUCLEO_L152RE_GCC/Demo/IntQueue.c:768:9
	movw	r0, :lower16:xNormallyEmptyQueue
	movt	r0, :upper16:xNormallyEmptyQueue
	ldr	r0, [r0]
	bl	xQueueIsQueueFullFromISR
.Ltmp153:
	.loc	2 768 9 is_stmt 0               @ ../../../CORTEX_MPU_M3_NUCLEO_L152RE_GCC/Demo/IntQueue.c:768:9
	cmp	r0, #1
	beq	.LBB6_5
	b	.LBB6_2
.LBB6_2:
.Ltmp154:
	.loc	2 768 9                         @ ../../../CORTEX_MPU_M3_NUCLEO_L152RE_GCC/Demo/IntQueue.c:768:9
	bl	ulSetInterruptMask
	str	r0, [sp, #12]
.Ltmp155:
	.loc	2 768 9                         @ ../../../CORTEX_MPU_M3_NUCLEO_L152RE_GCC/Demo/IntQueue.c:768:9
	movw	r1, :lower16:uxValueForNormallyEmptyQueue
	movt	r1, :upper16:uxValueForNormallyEmptyQueue
	ldr	r0, [r1]
	adds	r0, r0, #1
	str	r0, [r1]
.Ltmp156:
	.loc	2 768 9                         @ ../../../CORTEX_MPU_M3_NUCLEO_L152RE_GCC/Demo/IntQueue.c:768:9
	movw	r0, :lower16:xNormallyEmptyQueue
	movt	r0, :upper16:xNormallyEmptyQueue
	ldr	r0, [r0]
	add	r2, sp, #20
	movs	r3, #0
	bl	xQueueGenericSendFromISR
.Ltmp157:
	.loc	2 768 9                         @ ../../../CORTEX_MPU_M3_NUCLEO_L152RE_GCC/Demo/IntQueue.c:768:9
	cmp	r0, #1
	beq	.LBB6_4
	b	.LBB6_3
.LBB6_3:
.Ltmp158:
	.loc	2 768 9                         @ ../../../CORTEX_MPU_M3_NUCLEO_L152RE_GCC/Demo/IntQueue.c:768:9
	movw	r1, :lower16:uxValueForNormallyEmptyQueue
	movt	r1, :upper16:uxValueForNormallyEmptyQueue
	ldr	r0, [r1]
	subs	r0, r0, #1
	str	r0, [r1]
	b	.LBB6_4
.Ltmp159:
.LBB6_4:
	.loc	2 768 9                         @ ../../../CORTEX_MPU_M3_NUCLEO_L152RE_GCC/Demo/IntQueue.c:768:9
	ldr	r0, [sp, #12]
	bl	vClearInterruptMask
	b	.LBB6_5
.Ltmp160:
.LBB6_5:
	.loc	2 769 9 is_stmt 1               @ ../../../CORTEX_MPU_M3_NUCLEO_L152RE_GCC/Demo/IntQueue.c:769:9
	movw	r0, :lower16:xNormallyEmptyQueue
	movt	r0, :upper16:xNormallyEmptyQueue
	ldr	r0, [r0]
	bl	xQueueIsQueueFullFromISR
.Ltmp161:
	.loc	2 769 9 is_stmt 0               @ ../../../CORTEX_MPU_M3_NUCLEO_L152RE_GCC/Demo/IntQueue.c:769:9
	cmp	r0, #1
	beq	.LBB6_9
	b	.LBB6_6
.LBB6_6:
.Ltmp162:
	.loc	2 769 9                         @ ../../../CORTEX_MPU_M3_NUCLEO_L152RE_GCC/Demo/IntQueue.c:769:9
	bl	ulSetInterruptMask
	str	r0, [sp, #8]
.Ltmp163:
	.loc	2 769 9                         @ ../../../CORTEX_MPU_M3_NUCLEO_L152RE_GCC/Demo/IntQueue.c:769:9
	movw	r1, :lower16:uxValueForNormallyEmptyQueue
	movt	r1, :upper16:uxValueForNormallyEmptyQueue
	ldr	r0, [r1]
	adds	r0, r0, #1
	str	r0, [r1]
.Ltmp164:
	.loc	2 769 9                         @ ../../../CORTEX_MPU_M3_NUCLEO_L152RE_GCC/Demo/IntQueue.c:769:9
	movw	r0, :lower16:xNormallyEmptyQueue
	movt	r0, :upper16:xNormallyEmptyQueue
	ldr	r0, [r0]
	add	r2, sp, #20
	movs	r3, #0
	bl	xQueueGenericSendFromISR
.Ltmp165:
	.loc	2 769 9                         @ ../../../CORTEX_MPU_M3_NUCLEO_L152RE_GCC/Demo/IntQueue.c:769:9
	cmp	r0, #1
	beq	.LBB6_8
	b	.LBB6_7
.LBB6_7:
.Ltmp166:
	.loc	2 769 9                         @ ../../../CORTEX_MPU_M3_NUCLEO_L152RE_GCC/Demo/IntQueue.c:769:9
	movw	r1, :lower16:uxValueForNormallyEmptyQueue
	movt	r1, :upper16:uxValueForNormallyEmptyQueue
	ldr	r0, [r1]
	subs	r0, r0, #1
	str	r0, [r1]
	b	.LBB6_8
.Ltmp167:
.LBB6_8:
	.loc	2 769 9                         @ ../../../CORTEX_MPU_M3_NUCLEO_L152RE_GCC/Demo/IntQueue.c:769:9
	ldr	r0, [sp, #8]
	bl	vClearInterruptMask
	b	.LBB6_9
.Ltmp168:
.LBB6_9:
	.loc	2 770 9 is_stmt 1               @ ../../../CORTEX_MPU_M3_NUCLEO_L152RE_GCC/Demo/IntQueue.c:770:9
	movw	r0, :lower16:xNormallyEmptyQueue
	movt	r0, :upper16:xNormallyEmptyQueue
	ldr	r0, [r0]
	bl	xQueueIsQueueFullFromISR
.Ltmp169:
	.loc	2 770 9 is_stmt 0               @ ../../../CORTEX_MPU_M3_NUCLEO_L152RE_GCC/Demo/IntQueue.c:770:9
	cmp	r0, #1
	beq	.LBB6_13
	b	.LBB6_10
.LBB6_10:
.Ltmp170:
	.loc	2 770 9                         @ ../../../CORTEX_MPU_M3_NUCLEO_L152RE_GCC/Demo/IntQueue.c:770:9
	bl	ulSetInterruptMask
	str	r0, [sp, #4]
.Ltmp171:
	.loc	2 770 9                         @ ../../../CORTEX_MPU_M3_NUCLEO_L152RE_GCC/Demo/IntQueue.c:770:9
	movw	r1, :lower16:uxValueForNormallyEmptyQueue
	movt	r1, :upper16:uxValueForNormallyEmptyQueue
	ldr	r0, [r1]
	adds	r0, r0, #1
	str	r0, [r1]
.Ltmp172:
	.loc	2 770 9                         @ ../../../CORTEX_MPU_M3_NUCLEO_L152RE_GCC/Demo/IntQueue.c:770:9
	movw	r0, :lower16:xNormallyEmptyQueue
	movt	r0, :upper16:xNormallyEmptyQueue
	ldr	r0, [r0]
	add	r2, sp, #20
	movs	r3, #0
	bl	xQueueGenericSendFromISR
.Ltmp173:
	.loc	2 770 9                         @ ../../../CORTEX_MPU_M3_NUCLEO_L152RE_GCC/Demo/IntQueue.c:770:9
	cmp	r0, #1
	beq	.LBB6_12
	b	.LBB6_11
.LBB6_11:
.Ltmp174:
	.loc	2 770 9                         @ ../../../CORTEX_MPU_M3_NUCLEO_L152RE_GCC/Demo/IntQueue.c:770:9
	movw	r1, :lower16:uxValueForNormallyEmptyQueue
	movt	r1, :upper16:uxValueForNormallyEmptyQueue
	ldr	r0, [r1]
	subs	r0, r0, #1
	str	r0, [r1]
	b	.LBB6_12
.Ltmp175:
.LBB6_12:
	.loc	2 770 9                         @ ../../../CORTEX_MPU_M3_NUCLEO_L152RE_GCC/Demo/IntQueue.c:770:9
	ldr	r0, [sp, #4]
	bl	vClearInterruptMask
	b	.LBB6_13
.Ltmp176:
.LBB6_13:
	.loc	2 771 5 is_stmt 1               @ ../../../CORTEX_MPU_M3_NUCLEO_L152RE_GCC/Demo/IntQueue.c:771:5
	b	.LBB6_21
.Ltmp177:
.LBB6_14:
	.loc	2 774 9                         @ ../../../CORTEX_MPU_M3_NUCLEO_L152RE_GCC/Demo/IntQueue.c:774:9
	movw	r0, :lower16:xNormallyFullQueue
	movt	r0, :upper16:xNormallyFullQueue
	ldr	r0, [r0]
	add	r1, sp, #16
	add	r2, sp, #20
	bl	xQueueReceiveFromISR
.Ltmp178:
	.loc	2 774 9 is_stmt 0               @ ../../../CORTEX_MPU_M3_NUCLEO_L152RE_GCC/Demo/IntQueue.c:774:9
	cmp	r0, #1
	bne	.LBB6_16
	b	.LBB6_15
.LBB6_15:
.Ltmp179:
	.loc	2 774 9                         @ ../../../CORTEX_MPU_M3_NUCLEO_L152RE_GCC/Demo/IntQueue.c:774:9
	ldr	r0, [sp, #16]
	movs	r1, #5
	bl	prvRecordValue_NormallyFull
	b	.LBB6_16
.Ltmp180:
.LBB6_16:
	.loc	2 775 9 is_stmt 1               @ ../../../CORTEX_MPU_M3_NUCLEO_L152RE_GCC/Demo/IntQueue.c:775:9
	movw	r0, :lower16:xNormallyFullQueue
	movt	r0, :upper16:xNormallyFullQueue
	ldr	r0, [r0]
	add	r1, sp, #16
	add	r2, sp, #20
	bl	xQueueReceiveFromISR
.Ltmp181:
	.loc	2 775 9 is_stmt 0               @ ../../../CORTEX_MPU_M3_NUCLEO_L152RE_GCC/Demo/IntQueue.c:775:9
	cmp	r0, #1
	bne	.LBB6_18
	b	.LBB6_17
.LBB6_17:
.Ltmp182:
	.loc	2 775 9                         @ ../../../CORTEX_MPU_M3_NUCLEO_L152RE_GCC/Demo/IntQueue.c:775:9
	ldr	r0, [sp, #16]
	movs	r1, #5
	bl	prvRecordValue_NormallyFull
	b	.LBB6_18
.Ltmp183:
.LBB6_18:
	.loc	2 776 9 is_stmt 1               @ ../../../CORTEX_MPU_M3_NUCLEO_L152RE_GCC/Demo/IntQueue.c:776:9
	movw	r0, :lower16:xNormallyFullQueue
	movt	r0, :upper16:xNormallyFullQueue
	ldr	r0, [r0]
	add	r1, sp, #16
	add	r2, sp, #20
	bl	xQueueReceiveFromISR
.Ltmp184:
	.loc	2 776 9 is_stmt 0               @ ../../../CORTEX_MPU_M3_NUCLEO_L152RE_GCC/Demo/IntQueue.c:776:9
	cmp	r0, #1
	bne	.LBB6_20
	b	.LBB6_19
.LBB6_19:
.Ltmp185:
	.loc	2 776 9                         @ ../../../CORTEX_MPU_M3_NUCLEO_L152RE_GCC/Demo/IntQueue.c:776:9
	ldr	r0, [sp, #16]
	movs	r1, #5
	bl	prvRecordValue_NormallyFull
	b	.LBB6_20
.Ltmp186:
.LBB6_20:
	.loc	2 0 9                           @ ../../../CORTEX_MPU_M3_NUCLEO_L152RE_GCC/Demo/IntQueue.c:0:9
	b	.LBB6_21
.LBB6_21:
	.loc	2 779 12 is_stmt 1              @ ../../../CORTEX_MPU_M3_NUCLEO_L152RE_GCC/Demo/IntQueue.c:779:12
	ldr	r0, [sp, #20]
	.loc	2 779 5 is_stmt 0               @ ../../../CORTEX_MPU_M3_NUCLEO_L152RE_GCC/Demo/IntQueue.c:779:5
	add	sp, #24
	pop	{r7, pc}
.Ltmp187:
.Lfunc_end6:
	.size	xFirstTimerHandler, .Lfunc_end6-xFirstTimerHandler
	.cfi_endproc
	.cantunwind
	.fnend
                                        @ -- End function
	.section	.text.prvRecordValue_NormallyFull,"ax",%progbits
	.p2align	1                               @ -- Begin function prvRecordValue_NormallyFull
	.type	prvRecordValue_NormallyFull,%function
	.code	16                              @ @prvRecordValue_NormallyFull
	.thumb_func
prvRecordValue_NormallyFull:
.Lfunc_begin7:
	.loc	2 350 0 is_stmt 1               @ ../../../CORTEX_MPU_M3_NUCLEO_L152RE_GCC/Demo/IntQueue.c:350:0
	.fnstart
	.cfi_startproc
@ %bb.0:
	.save	{r7, lr}
	push	{r7, lr}
	.cfi_def_cfa_offset 8
	.cfi_offset lr, -4
	.cfi_offset r7, -8
	.pad	#8
	sub	sp, #8
	.cfi_def_cfa_offset 16
	str	r0, [sp, #4]
	str	r1, [sp]
.Ltmp188:
	.loc	2 351 9 prologue_end            @ ../../../CORTEX_MPU_M3_NUCLEO_L152RE_GCC/Demo/IntQueue.c:351:9
	ldr	r0, [sp, #4]
.Ltmp189:
	.loc	2 351 9 is_stmt 0               @ ../../../CORTEX_MPU_M3_NUCLEO_L152RE_GCC/Demo/IntQueue.c:351:9
	cmp	r0, #199
	bhi	.LBB7_4
	b	.LBB7_1
.LBB7_1:
.Ltmp190:
	.loc	2 355 43 is_stmt 1              @ ../../../CORTEX_MPU_M3_NUCLEO_L152RE_GCC/Demo/IntQueue.c:355:43
	ldr	r1, [sp, #4]
	.loc	2 355 13 is_stmt 0              @ ../../../CORTEX_MPU_M3_NUCLEO_L152RE_GCC/Demo/IntQueue.c:355:13
	movw	r0, :lower16:ucNormallyFullReceivedValues
	movt	r0, :upper16:ucNormallyFullReceivedValues
	ldrb	r0, [r0, r1]
.Ltmp191:
	.loc	2 355 13                        @ ../../../CORTEX_MPU_M3_NUCLEO_L152RE_GCC/Demo/IntQueue.c:355:13
	cbz	r0, .LBB7_3
	b	.LBB7_2
.LBB7_2:
	.loc	2 0 13                          @ ../../../CORTEX_MPU_M3_NUCLEO_L152RE_GCC/Demo/IntQueue.c:0:13
	movw	r0, #357
.Ltmp192:
	.loc	2 357 13 is_stmt 1              @ ../../../CORTEX_MPU_M3_NUCLEO_L152RE_GCC/Demo/IntQueue.c:357:13
	bl	prvQueueAccessLogError
	.loc	2 358 9                         @ ../../../CORTEX_MPU_M3_NUCLEO_L152RE_GCC/Demo/IntQueue.c:358:9
	b	.LBB7_3
.Ltmp193:
.LBB7_3:
	.loc	2 361 63                        @ ../../../CORTEX_MPU_M3_NUCLEO_L152RE_GCC/Demo/IntQueue.c:361:63
	ldr	r0, [sp]
	.loc	2 361 39 is_stmt 0              @ ../../../CORTEX_MPU_M3_NUCLEO_L152RE_GCC/Demo/IntQueue.c:361:39
	ldr	r2, [sp, #4]
	.loc	2 361 9                         @ ../../../CORTEX_MPU_M3_NUCLEO_L152RE_GCC/Demo/IntQueue.c:361:9
	movw	r1, :lower16:ucNormallyFullReceivedValues
	movt	r1, :upper16:ucNormallyFullReceivedValues
	.loc	2 361 49                        @ ../../../CORTEX_MPU_M3_NUCLEO_L152RE_GCC/Demo/IntQueue.c:361:49
	strb	r0, [r1, r2]
	.loc	2 362 5 is_stmt 1               @ ../../../CORTEX_MPU_M3_NUCLEO_L152RE_GCC/Demo/IntQueue.c:362:5
	b	.LBB7_4
.Ltmp194:
.LBB7_4:
	.loc	2 363 1                         @ ../../../CORTEX_MPU_M3_NUCLEO_L152RE_GCC/Demo/IntQueue.c:363:1
	add	sp, #8
	pop	{r7, pc}
.Ltmp195:
.Lfunc_end7:
	.size	prvRecordValue_NormallyFull, .Lfunc_end7-prvRecordValue_NormallyFull
	.cfi_endproc
	.cantunwind
	.fnend
                                        @ -- End function
	.section	.text.xSecondTimerHandler,"ax",%progbits
	.hidden	xSecondTimerHandler             @ -- Begin function xSecondTimerHandler
	.globl	xSecondTimerHandler
	.p2align	1
	.type	xSecondTimerHandler,%function
	.code	16                              @ @xSecondTimerHandler
	.thumb_func
xSecondTimerHandler:
.Lfunc_begin8:
	.loc	2 784 0                         @ ../../../CORTEX_MPU_M3_NUCLEO_L152RE_GCC/Demo/IntQueue.c:784:0
	.fnstart
	.cfi_startproc
@ %bb.0:
	.save	{r7, lr}
	push	{r7, lr}
	.cfi_def_cfa_offset 8
	.cfi_offset lr, -4
	.cfi_offset r7, -8
	.pad	#32
	sub	sp, #32
	.cfi_def_cfa_offset 40
	movs	r0, #0
.Ltmp196:
	.loc	2 786 16 prologue_end           @ ../../../CORTEX_MPU_M3_NUCLEO_L152RE_GCC/Demo/IntQueue.c:786:16
	str	r0, [sp, #24]
	.loc	2 792 20                        @ ../../../CORTEX_MPU_M3_NUCLEO_L152RE_GCC/Demo/IntQueue.c:792:20
	movw	r0, :lower16:xSecondTimerHandler.uxNextOperation
	movt	r0, :upper16:xSecondTimerHandler.uxNextOperation
	ldr	r1, [r0]
	adds	r1, r1, #1
	str	r1, [r0]
	.loc	2 794 9                         @ ../../../CORTEX_MPU_M3_NUCLEO_L152RE_GCC/Demo/IntQueue.c:794:9
	ldrb	r0, [r0]
	lsls	r0, r0, #31
	cbnz	r0, .LBB8_1
	b	.LBB8_16
.LBB8_1:
.Ltmp197:
	.loc	2 796 9                         @ ../../../CORTEX_MPU_M3_NUCLEO_L152RE_GCC/Demo/IntQueue.c:796:9
	movw	r0, :lower16:xNormallyEmptyQueue
	movt	r0, :upper16:xNormallyEmptyQueue
	ldr	r0, [r0]
	bl	xQueueIsQueueFullFromISR
.Ltmp198:
	.loc	2 796 9 is_stmt 0               @ ../../../CORTEX_MPU_M3_NUCLEO_L152RE_GCC/Demo/IntQueue.c:796:9
	cmp	r0, #1
	beq	.LBB8_5
	b	.LBB8_2
.LBB8_2:
.Ltmp199:
	.loc	2 796 9                         @ ../../../CORTEX_MPU_M3_NUCLEO_L152RE_GCC/Demo/IntQueue.c:796:9
	bl	ulSetInterruptMask
	str	r0, [sp, #20]
.Ltmp200:
	.loc	2 796 9                         @ ../../../CORTEX_MPU_M3_NUCLEO_L152RE_GCC/Demo/IntQueue.c:796:9
	movw	r1, :lower16:uxValueForNormallyEmptyQueue
	movt	r1, :upper16:uxValueForNormallyEmptyQueue
	ldr	r0, [r1]
	adds	r0, r0, #1
	str	r0, [r1]
.Ltmp201:
	.loc	2 796 9                         @ ../../../CORTEX_MPU_M3_NUCLEO_L152RE_GCC/Demo/IntQueue.c:796:9
	movw	r0, :lower16:xNormallyEmptyQueue
	movt	r0, :upper16:xNormallyEmptyQueue
	ldr	r0, [r0]
	add	r2, sp, #24
	movs	r3, #0
	bl	xQueueGenericSendFromISR
.Ltmp202:
	.loc	2 796 9                         @ ../../../CORTEX_MPU_M3_NUCLEO_L152RE_GCC/Demo/IntQueue.c:796:9
	cmp	r0, #1
	beq	.LBB8_4
	b	.LBB8_3
.LBB8_3:
.Ltmp203:
	.loc	2 796 9                         @ ../../../CORTEX_MPU_M3_NUCLEO_L152RE_GCC/Demo/IntQueue.c:796:9
	movw	r1, :lower16:uxValueForNormallyEmptyQueue
	movt	r1, :upper16:uxValueForNormallyEmptyQueue
	ldr	r0, [r1]
	subs	r0, r0, #1
	str	r0, [r1]
	b	.LBB8_4
.Ltmp204:
.LBB8_4:
	.loc	2 796 9                         @ ../../../CORTEX_MPU_M3_NUCLEO_L152RE_GCC/Demo/IntQueue.c:796:9
	ldr	r0, [sp, #20]
	bl	vClearInterruptMask
	b	.LBB8_5
.Ltmp205:
.LBB8_5:
	.loc	2 797 9 is_stmt 1               @ ../../../CORTEX_MPU_M3_NUCLEO_L152RE_GCC/Demo/IntQueue.c:797:9
	movw	r0, :lower16:xNormallyEmptyQueue
	movt	r0, :upper16:xNormallyEmptyQueue
	ldr	r0, [r0]
	bl	xQueueIsQueueFullFromISR
.Ltmp206:
	.loc	2 797 9 is_stmt 0               @ ../../../CORTEX_MPU_M3_NUCLEO_L152RE_GCC/Demo/IntQueue.c:797:9
	cmp	r0, #1
	beq	.LBB8_9
	b	.LBB8_6
.LBB8_6:
.Ltmp207:
	.loc	2 797 9                         @ ../../../CORTEX_MPU_M3_NUCLEO_L152RE_GCC/Demo/IntQueue.c:797:9
	bl	ulSetInterruptMask
	str	r0, [sp, #16]
.Ltmp208:
	.loc	2 797 9                         @ ../../../CORTEX_MPU_M3_NUCLEO_L152RE_GCC/Demo/IntQueue.c:797:9
	movw	r1, :lower16:uxValueForNormallyEmptyQueue
	movt	r1, :upper16:uxValueForNormallyEmptyQueue
	ldr	r0, [r1]
	adds	r0, r0, #1
	str	r0, [r1]
.Ltmp209:
	.loc	2 797 9                         @ ../../../CORTEX_MPU_M3_NUCLEO_L152RE_GCC/Demo/IntQueue.c:797:9
	movw	r0, :lower16:xNormallyEmptyQueue
	movt	r0, :upper16:xNormallyEmptyQueue
	ldr	r0, [r0]
	add	r2, sp, #24
	movs	r3, #0
	bl	xQueueGenericSendFromISR
.Ltmp210:
	.loc	2 797 9                         @ ../../../CORTEX_MPU_M3_NUCLEO_L152RE_GCC/Demo/IntQueue.c:797:9
	cmp	r0, #1
	beq	.LBB8_8
	b	.LBB8_7
.LBB8_7:
.Ltmp211:
	.loc	2 797 9                         @ ../../../CORTEX_MPU_M3_NUCLEO_L152RE_GCC/Demo/IntQueue.c:797:9
	movw	r1, :lower16:uxValueForNormallyEmptyQueue
	movt	r1, :upper16:uxValueForNormallyEmptyQueue
	ldr	r0, [r1]
	subs	r0, r0, #1
	str	r0, [r1]
	b	.LBB8_8
.Ltmp212:
.LBB8_8:
	.loc	2 797 9                         @ ../../../CORTEX_MPU_M3_NUCLEO_L152RE_GCC/Demo/IntQueue.c:797:9
	ldr	r0, [sp, #16]
	bl	vClearInterruptMask
	b	.LBB8_9
.Ltmp213:
.LBB8_9:
	.loc	2 799 9 is_stmt 1               @ ../../../CORTEX_MPU_M3_NUCLEO_L152RE_GCC/Demo/IntQueue.c:799:9
	movw	r0, :lower16:xNormallyEmptyQueue
	movt	r0, :upper16:xNormallyEmptyQueue
	ldr	r0, [r0]
	add	r1, sp, #28
	add	r2, sp, #24
	bl	xQueueReceiveFromISR
.Ltmp214:
	.loc	2 799 9 is_stmt 0               @ ../../../CORTEX_MPU_M3_NUCLEO_L152RE_GCC/Demo/IntQueue.c:799:9
	cmp	r0, #1
	beq	.LBB8_11
	b	.LBB8_10
.LBB8_10:
	.loc	2 0 9                           @ ../../../CORTEX_MPU_M3_NUCLEO_L152RE_GCC/Demo/IntQueue.c:0:9
	movw	r0, #799
.Ltmp215:
	.loc	2 799 9                         @ ../../../CORTEX_MPU_M3_NUCLEO_L152RE_GCC/Demo/IntQueue.c:799:9
	bl	prvQueueAccessLogError
	b	.LBB8_12
.Ltmp216:
.LBB8_11:
	.loc	2 799 9                         @ ../../../CORTEX_MPU_M3_NUCLEO_L152RE_GCC/Demo/IntQueue.c:799:9
	ldr	r0, [sp, #28]
	movs	r1, #5
	bl	prvRecordValue_NormallyEmpty
	b	.LBB8_12
.Ltmp217:
.LBB8_12:
	.loc	2 800 9 is_stmt 1               @ ../../../CORTEX_MPU_M3_NUCLEO_L152RE_GCC/Demo/IntQueue.c:800:9
	movw	r0, :lower16:xNormallyEmptyQueue
	movt	r0, :upper16:xNormallyEmptyQueue
	ldr	r0, [r0]
	add	r1, sp, #28
	add	r2, sp, #24
	bl	xQueueReceiveFromISR
.Ltmp218:
	.loc	2 800 9 is_stmt 0               @ ../../../CORTEX_MPU_M3_NUCLEO_L152RE_GCC/Demo/IntQueue.c:800:9
	cmp	r0, #1
	beq	.LBB8_14
	b	.LBB8_13
.LBB8_13:
	.loc	2 0 9                           @ ../../../CORTEX_MPU_M3_NUCLEO_L152RE_GCC/Demo/IntQueue.c:0:9
	movw	r0, #800
.Ltmp219:
	.loc	2 800 9                         @ ../../../CORTEX_MPU_M3_NUCLEO_L152RE_GCC/Demo/IntQueue.c:800:9
	bl	prvQueueAccessLogError
	b	.LBB8_15
.Ltmp220:
.LBB8_14:
	.loc	2 800 9                         @ ../../../CORTEX_MPU_M3_NUCLEO_L152RE_GCC/Demo/IntQueue.c:800:9
	ldr	r0, [sp, #28]
	movs	r1, #5
	bl	prvRecordValue_NormallyEmpty
	b	.LBB8_15
.Ltmp221:
.LBB8_15:
	.loc	2 801 5 is_stmt 1               @ ../../../CORTEX_MPU_M3_NUCLEO_L152RE_GCC/Demo/IntQueue.c:801:5
	b	.LBB8_31
.Ltmp222:
.LBB8_16:
	.loc	2 804 9                         @ ../../../CORTEX_MPU_M3_NUCLEO_L152RE_GCC/Demo/IntQueue.c:804:9
	movw	r0, :lower16:xNormallyFullQueue
	movt	r0, :upper16:xNormallyFullQueue
	ldr	r0, [r0]
	add	r1, sp, #28
	add	r2, sp, #24
	bl	xQueueReceiveFromISR
.Ltmp223:
	.loc	2 804 9 is_stmt 0               @ ../../../CORTEX_MPU_M3_NUCLEO_L152RE_GCC/Demo/IntQueue.c:804:9
	cmp	r0, #1
	bne	.LBB8_18
	b	.LBB8_17
.LBB8_17:
.Ltmp224:
	.loc	2 804 9                         @ ../../../CORTEX_MPU_M3_NUCLEO_L152RE_GCC/Demo/IntQueue.c:804:9
	ldr	r0, [sp, #28]
	movs	r1, #5
	bl	prvRecordValue_NormallyFull
	b	.LBB8_18
.Ltmp225:
.LBB8_18:
	.loc	2 805 9 is_stmt 1               @ ../../../CORTEX_MPU_M3_NUCLEO_L152RE_GCC/Demo/IntQueue.c:805:9
	movw	r0, :lower16:xNormallyFullQueue
	movt	r0, :upper16:xNormallyFullQueue
	ldr	r0, [r0]
	bl	xQueueIsQueueFullFromISR
.Ltmp226:
	.loc	2 805 9 is_stmt 0               @ ../../../CORTEX_MPU_M3_NUCLEO_L152RE_GCC/Demo/IntQueue.c:805:9
	cmp	r0, #1
	beq	.LBB8_22
	b	.LBB8_19
.LBB8_19:
.Ltmp227:
	.loc	2 805 9                         @ ../../../CORTEX_MPU_M3_NUCLEO_L152RE_GCC/Demo/IntQueue.c:805:9
	bl	ulSetInterruptMask
	str	r0, [sp, #12]
.Ltmp228:
	.loc	2 805 9                         @ ../../../CORTEX_MPU_M3_NUCLEO_L152RE_GCC/Demo/IntQueue.c:805:9
	movw	r1, :lower16:uxValueForNormallyFullQueue
	movt	r1, :upper16:uxValueForNormallyFullQueue
	ldr	r0, [r1]
	adds	r0, r0, #1
	str	r0, [r1]
.Ltmp229:
	.loc	2 805 9                         @ ../../../CORTEX_MPU_M3_NUCLEO_L152RE_GCC/Demo/IntQueue.c:805:9
	movw	r0, :lower16:xNormallyFullQueue
	movt	r0, :upper16:xNormallyFullQueue
	ldr	r0, [r0]
	add	r2, sp, #24
	movs	r3, #0
	bl	xQueueGenericSendFromISR
.Ltmp230:
	.loc	2 805 9                         @ ../../../CORTEX_MPU_M3_NUCLEO_L152RE_GCC/Demo/IntQueue.c:805:9
	cmp	r0, #1
	beq	.LBB8_21
	b	.LBB8_20
.LBB8_20:
.Ltmp231:
	.loc	2 805 9                         @ ../../../CORTEX_MPU_M3_NUCLEO_L152RE_GCC/Demo/IntQueue.c:805:9
	movw	r1, :lower16:uxValueForNormallyFullQueue
	movt	r1, :upper16:uxValueForNormallyFullQueue
	ldr	r0, [r1]
	subs	r0, r0, #1
	str	r0, [r1]
	b	.LBB8_21
.Ltmp232:
.LBB8_21:
	.loc	2 805 9                         @ ../../../CORTEX_MPU_M3_NUCLEO_L152RE_GCC/Demo/IntQueue.c:805:9
	ldr	r0, [sp, #12]
	bl	vClearInterruptMask
	b	.LBB8_22
.Ltmp233:
.LBB8_22:
	.loc	2 806 9 is_stmt 1               @ ../../../CORTEX_MPU_M3_NUCLEO_L152RE_GCC/Demo/IntQueue.c:806:9
	movw	r0, :lower16:xNormallyFullQueue
	movt	r0, :upper16:xNormallyFullQueue
	ldr	r0, [r0]
	bl	xQueueIsQueueFullFromISR
.Ltmp234:
	.loc	2 806 9 is_stmt 0               @ ../../../CORTEX_MPU_M3_NUCLEO_L152RE_GCC/Demo/IntQueue.c:806:9
	cmp	r0, #1
	beq	.LBB8_26
	b	.LBB8_23
.LBB8_23:
.Ltmp235:
	.loc	2 806 9                         @ ../../../CORTEX_MPU_M3_NUCLEO_L152RE_GCC/Demo/IntQueue.c:806:9
	bl	ulSetInterruptMask
	str	r0, [sp, #8]
.Ltmp236:
	.loc	2 806 9                         @ ../../../CORTEX_MPU_M3_NUCLEO_L152RE_GCC/Demo/IntQueue.c:806:9
	movw	r1, :lower16:uxValueForNormallyFullQueue
	movt	r1, :upper16:uxValueForNormallyFullQueue
	ldr	r0, [r1]
	adds	r0, r0, #1
	str	r0, [r1]
.Ltmp237:
	.loc	2 806 9                         @ ../../../CORTEX_MPU_M3_NUCLEO_L152RE_GCC/Demo/IntQueue.c:806:9
	movw	r0, :lower16:xNormallyFullQueue
	movt	r0, :upper16:xNormallyFullQueue
	ldr	r0, [r0]
	add	r2, sp, #24
	movs	r3, #0
	bl	xQueueGenericSendFromISR
.Ltmp238:
	.loc	2 806 9                         @ ../../../CORTEX_MPU_M3_NUCLEO_L152RE_GCC/Demo/IntQueue.c:806:9
	cmp	r0, #1
	beq	.LBB8_25
	b	.LBB8_24
.LBB8_24:
.Ltmp239:
	.loc	2 806 9                         @ ../../../CORTEX_MPU_M3_NUCLEO_L152RE_GCC/Demo/IntQueue.c:806:9
	movw	r1, :lower16:uxValueForNormallyFullQueue
	movt	r1, :upper16:uxValueForNormallyFullQueue
	ldr	r0, [r1]
	subs	r0, r0, #1
	str	r0, [r1]
	b	.LBB8_25
.Ltmp240:
.LBB8_25:
	.loc	2 806 9                         @ ../../../CORTEX_MPU_M3_NUCLEO_L152RE_GCC/Demo/IntQueue.c:806:9
	ldr	r0, [sp, #8]
	bl	vClearInterruptMask
	b	.LBB8_26
.Ltmp241:
.LBB8_26:
	.loc	2 807 9 is_stmt 1               @ ../../../CORTEX_MPU_M3_NUCLEO_L152RE_GCC/Demo/IntQueue.c:807:9
	movw	r0, :lower16:xNormallyFullQueue
	movt	r0, :upper16:xNormallyFullQueue
	ldr	r0, [r0]
	bl	xQueueIsQueueFullFromISR
.Ltmp242:
	.loc	2 807 9 is_stmt 0               @ ../../../CORTEX_MPU_M3_NUCLEO_L152RE_GCC/Demo/IntQueue.c:807:9
	cmp	r0, #1
	beq	.LBB8_30
	b	.LBB8_27
.LBB8_27:
.Ltmp243:
	.loc	2 807 9                         @ ../../../CORTEX_MPU_M3_NUCLEO_L152RE_GCC/Demo/IntQueue.c:807:9
	bl	ulSetInterruptMask
	str	r0, [sp, #4]
.Ltmp244:
	.loc	2 807 9                         @ ../../../CORTEX_MPU_M3_NUCLEO_L152RE_GCC/Demo/IntQueue.c:807:9
	movw	r1, :lower16:uxValueForNormallyFullQueue
	movt	r1, :upper16:uxValueForNormallyFullQueue
	ldr	r0, [r1]
	adds	r0, r0, #1
	str	r0, [r1]
.Ltmp245:
	.loc	2 807 9                         @ ../../../CORTEX_MPU_M3_NUCLEO_L152RE_GCC/Demo/IntQueue.c:807:9
	movw	r0, :lower16:xNormallyFullQueue
	movt	r0, :upper16:xNormallyFullQueue
	ldr	r0, [r0]
	add	r2, sp, #24
	movs	r3, #0
	bl	xQueueGenericSendFromISR
.Ltmp246:
	.loc	2 807 9                         @ ../../../CORTEX_MPU_M3_NUCLEO_L152RE_GCC/Demo/IntQueue.c:807:9
	cmp	r0, #1
	beq	.LBB8_29
	b	.LBB8_28
.LBB8_28:
.Ltmp247:
	.loc	2 807 9                         @ ../../../CORTEX_MPU_M3_NUCLEO_L152RE_GCC/Demo/IntQueue.c:807:9
	movw	r1, :lower16:uxValueForNormallyFullQueue
	movt	r1, :upper16:uxValueForNormallyFullQueue
	ldr	r0, [r1]
	subs	r0, r0, #1
	str	r0, [r1]
	b	.LBB8_29
.Ltmp248:
.LBB8_29:
	.loc	2 807 9                         @ ../../../CORTEX_MPU_M3_NUCLEO_L152RE_GCC/Demo/IntQueue.c:807:9
	ldr	r0, [sp, #4]
	bl	vClearInterruptMask
	b	.LBB8_30
.Ltmp249:
.LBB8_30:
	.loc	2 0 9                           @ ../../../CORTEX_MPU_M3_NUCLEO_L152RE_GCC/Demo/IntQueue.c:0:9
	b	.LBB8_31
.LBB8_31:
	.loc	2 810 12 is_stmt 1              @ ../../../CORTEX_MPU_M3_NUCLEO_L152RE_GCC/Demo/IntQueue.c:810:12
	ldr	r0, [sp, #24]
	.loc	2 810 5 is_stmt 0               @ ../../../CORTEX_MPU_M3_NUCLEO_L152RE_GCC/Demo/IntQueue.c:810:5
	add	sp, #32
	pop	{r7, pc}
.Ltmp250:
.Lfunc_end8:
	.size	xSecondTimerHandler, .Lfunc_end8-xSecondTimerHandler
	.cfi_endproc
	.cantunwind
	.fnend
                                        @ -- End function
	.section	.text.prvQueueAccessLogError,"ax",%progbits
	.p2align	1                               @ -- Begin function prvQueueAccessLogError
	.type	prvQueueAccessLogError,%function
	.code	16                              @ @prvQueueAccessLogError
	.thumb_func
prvQueueAccessLogError:
.Lfunc_begin9:
	.loc	2 385 0 is_stmt 1               @ ../../../CORTEX_MPU_M3_NUCLEO_L152RE_GCC/Demo/IntQueue.c:385:0
	.fnstart
	.cfi_startproc
@ %bb.0:
	.pad	#4
	sub	sp, #4
	.cfi_def_cfa_offset 4
	str	r0, [sp]
.Ltmp251:
	.loc	2 387 23 prologue_end           @ ../../../CORTEX_MPU_M3_NUCLEO_L152RE_GCC/Demo/IntQueue.c:387:23
	ldr	r0, [sp]
	.loc	2 387 21 is_stmt 0              @ ../../../CORTEX_MPU_M3_NUCLEO_L152RE_GCC/Demo/IntQueue.c:387:21
	movw	r1, :lower16:xErrorLine
	movt	r1, :upper16:xErrorLine
	str	r0, [r1]
	.loc	2 388 23 is_stmt 1              @ ../../../CORTEX_MPU_M3_NUCLEO_L152RE_GCC/Demo/IntQueue.c:388:23
	movw	r1, :lower16:xErrorStatus
	movt	r1, :upper16:xErrorStatus
	movs	r0, #0
	str	r0, [r1]
	.loc	2 389 1                         @ ../../../CORTEX_MPU_M3_NUCLEO_L152RE_GCC/Demo/IntQueue.c:389:1
	add	sp, #4
	bx	lr
.Ltmp252:
.Lfunc_end9:
	.size	prvQueueAccessLogError, .Lfunc_end9-prvQueueAccessLogError
	.cfi_endproc
	.cantunwind
	.fnend
                                        @ -- End function
	.section	.text.prvRecordValue_NormallyEmpty,"ax",%progbits
	.p2align	1                               @ -- Begin function prvRecordValue_NormallyEmpty
	.type	prvRecordValue_NormallyEmpty,%function
	.code	16                              @ @prvRecordValue_NormallyEmpty
	.thumb_func
prvRecordValue_NormallyEmpty:
.Lfunc_begin10:
	.loc	2 368 0                         @ ../../../CORTEX_MPU_M3_NUCLEO_L152RE_GCC/Demo/IntQueue.c:368:0
	.fnstart
	.cfi_startproc
@ %bb.0:
	.save	{r7, lr}
	push	{r7, lr}
	.cfi_def_cfa_offset 8
	.cfi_offset lr, -4
	.cfi_offset r7, -8
	.pad	#8
	sub	sp, #8
	.cfi_def_cfa_offset 16
	str	r0, [sp, #4]
	str	r1, [sp]
.Ltmp253:
	.loc	2 369 9 prologue_end            @ ../../../CORTEX_MPU_M3_NUCLEO_L152RE_GCC/Demo/IntQueue.c:369:9
	ldr	r0, [sp, #4]
.Ltmp254:
	.loc	2 369 9 is_stmt 0               @ ../../../CORTEX_MPU_M3_NUCLEO_L152RE_GCC/Demo/IntQueue.c:369:9
	cmp	r0, #199
	bhi	.LBB10_4
	b	.LBB10_1
.LBB10_1:
.Ltmp255:
	.loc	2 373 44 is_stmt 1              @ ../../../CORTEX_MPU_M3_NUCLEO_L152RE_GCC/Demo/IntQueue.c:373:44
	ldr	r1, [sp, #4]
	.loc	2 373 13 is_stmt 0              @ ../../../CORTEX_MPU_M3_NUCLEO_L152RE_GCC/Demo/IntQueue.c:373:13
	movw	r0, :lower16:ucNormallyEmptyReceivedValues
	movt	r0, :upper16:ucNormallyEmptyReceivedValues
	ldrb	r0, [r0, r1]
.Ltmp256:
	.loc	2 373 13                        @ ../../../CORTEX_MPU_M3_NUCLEO_L152RE_GCC/Demo/IntQueue.c:373:13
	cbz	r0, .LBB10_3
	b	.LBB10_2
.LBB10_2:
	.loc	2 0 13                          @ ../../../CORTEX_MPU_M3_NUCLEO_L152RE_GCC/Demo/IntQueue.c:0:13
	movw	r0, #375
.Ltmp257:
	.loc	2 375 13 is_stmt 1              @ ../../../CORTEX_MPU_M3_NUCLEO_L152RE_GCC/Demo/IntQueue.c:375:13
	bl	prvQueueAccessLogError
	.loc	2 376 9                         @ ../../../CORTEX_MPU_M3_NUCLEO_L152RE_GCC/Demo/IntQueue.c:376:9
	b	.LBB10_3
.Ltmp258:
.LBB10_3:
	.loc	2 379 64                        @ ../../../CORTEX_MPU_M3_NUCLEO_L152RE_GCC/Demo/IntQueue.c:379:64
	ldr	r0, [sp]
	.loc	2 379 40 is_stmt 0              @ ../../../CORTEX_MPU_M3_NUCLEO_L152RE_GCC/Demo/IntQueue.c:379:40
	ldr	r2, [sp, #4]
	.loc	2 379 9                         @ ../../../CORTEX_MPU_M3_NUCLEO_L152RE_GCC/Demo/IntQueue.c:379:9
	movw	r1, :lower16:ucNormallyEmptyReceivedValues
	movt	r1, :upper16:ucNormallyEmptyReceivedValues
	.loc	2 379 50                        @ ../../../CORTEX_MPU_M3_NUCLEO_L152RE_GCC/Demo/IntQueue.c:379:50
	strb	r0, [r1, r2]
	.loc	2 380 5 is_stmt 1               @ ../../../CORTEX_MPU_M3_NUCLEO_L152RE_GCC/Demo/IntQueue.c:380:5
	b	.LBB10_4
.Ltmp259:
.LBB10_4:
	.loc	2 381 1                         @ ../../../CORTEX_MPU_M3_NUCLEO_L152RE_GCC/Demo/IntQueue.c:381:1
	add	sp, #8
	pop	{r7, pc}
.Ltmp260:
.Lfunc_end10:
	.size	prvRecordValue_NormallyEmpty, .Lfunc_end10-prvRecordValue_NormallyEmpty
	.cfi_endproc
	.cantunwind
	.fnend
                                        @ -- End function
	.section	.text.xAreIntQueueTasksStillRunning,"ax",%progbits
	.hidden	xAreIntQueueTasksStillRunning   @ -- Begin function xAreIntQueueTasksStillRunning
	.globl	xAreIntQueueTasksStillRunning
	.p2align	1
	.type	xAreIntQueueTasksStillRunning,%function
	.code	16                              @ @xAreIntQueueTasksStillRunning
	.thumb_func
xAreIntQueueTasksStillRunning:
.Lfunc_begin11:
	.loc	2 816 0                         @ ../../../CORTEX_MPU_M3_NUCLEO_L152RE_GCC/Demo/IntQueue.c:816:0
	.fnstart
	.cfi_startproc
@ %bb.0:
	.save	{r7, lr}
	push	{r7, lr}
	.cfi_def_cfa_offset 8
	.cfi_offset lr, -4
	.cfi_offset r7, -8
.Ltmp261:
	.loc	2 822 9 prologue_end            @ ../../../CORTEX_MPU_M3_NUCLEO_L152RE_GCC/Demo/IntQueue.c:822:9
	movw	r0, :lower16:uxHighPriorityLoops1
	movt	r0, :upper16:uxHighPriorityLoops1
	ldr	r0, [r0]
	.loc	2 822 38 is_stmt 0              @ ../../../CORTEX_MPU_M3_NUCLEO_L152RE_GCC/Demo/IntQueue.c:822:38
	movw	r1, :lower16:xAreIntQueueTasksStillRunning.uxLastHighPriorityLoops1
	movt	r1, :upper16:xAreIntQueueTasksStillRunning.uxLastHighPriorityLoops1
	ldr	r1, [r1]
.Ltmp262:
	.loc	2 822 9                         @ ../../../CORTEX_MPU_M3_NUCLEO_L152RE_GCC/Demo/IntQueue.c:822:9
	cmp	r0, r1
	bne	.LBB11_2
	b	.LBB11_1
.LBB11_1:
	.loc	2 0 9                           @ ../../../CORTEX_MPU_M3_NUCLEO_L152RE_GCC/Demo/IntQueue.c:0:9
	movw	r0, #825
.Ltmp263:
	.loc	2 825 9 is_stmt 1               @ ../../../CORTEX_MPU_M3_NUCLEO_L152RE_GCC/Demo/IntQueue.c:825:9
	bl	prvQueueAccessLogError
	.loc	2 826 5                         @ ../../../CORTEX_MPU_M3_NUCLEO_L152RE_GCC/Demo/IntQueue.c:826:5
	b	.LBB11_2
.Ltmp264:
.LBB11_2:
	.loc	2 828 32                        @ ../../../CORTEX_MPU_M3_NUCLEO_L152RE_GCC/Demo/IntQueue.c:828:32
	movw	r0, :lower16:uxHighPriorityLoops1
	movt	r0, :upper16:uxHighPriorityLoops1
	ldr	r0, [r0]
	.loc	2 828 30 is_stmt 0              @ ../../../CORTEX_MPU_M3_NUCLEO_L152RE_GCC/Demo/IntQueue.c:828:30
	movw	r1, :lower16:xAreIntQueueTasksStillRunning.uxLastHighPriorityLoops1
	movt	r1, :upper16:xAreIntQueueTasksStillRunning.uxLastHighPriorityLoops1
	str	r0, [r1]
.Ltmp265:
	.loc	2 830 9 is_stmt 1               @ ../../../CORTEX_MPU_M3_NUCLEO_L152RE_GCC/Demo/IntQueue.c:830:9
	movw	r0, :lower16:uxHighPriorityLoops2
	movt	r0, :upper16:uxHighPriorityLoops2
	ldr	r0, [r0]
	.loc	2 830 38 is_stmt 0              @ ../../../CORTEX_MPU_M3_NUCLEO_L152RE_GCC/Demo/IntQueue.c:830:38
	movw	r1, :lower16:xAreIntQueueTasksStillRunning.uxLastHighPriorityLoops2
	movt	r1, :upper16:xAreIntQueueTasksStillRunning.uxLastHighPriorityLoops2
	ldr	r1, [r1]
.Ltmp266:
	.loc	2 830 9                         @ ../../../CORTEX_MPU_M3_NUCLEO_L152RE_GCC/Demo/IntQueue.c:830:9
	cmp	r0, r1
	bne	.LBB11_4
	b	.LBB11_3
.LBB11_3:
	.loc	2 0 9                           @ ../../../CORTEX_MPU_M3_NUCLEO_L152RE_GCC/Demo/IntQueue.c:0:9
	movw	r0, #833
.Ltmp267:
	.loc	2 833 9 is_stmt 1               @ ../../../CORTEX_MPU_M3_NUCLEO_L152RE_GCC/Demo/IntQueue.c:833:9
	bl	prvQueueAccessLogError
	.loc	2 834 5                         @ ../../../CORTEX_MPU_M3_NUCLEO_L152RE_GCC/Demo/IntQueue.c:834:5
	b	.LBB11_4
.Ltmp268:
.LBB11_4:
	.loc	2 836 32                        @ ../../../CORTEX_MPU_M3_NUCLEO_L152RE_GCC/Demo/IntQueue.c:836:32
	movw	r0, :lower16:uxHighPriorityLoops2
	movt	r0, :upper16:uxHighPriorityLoops2
	ldr	r0, [r0]
	.loc	2 836 30 is_stmt 0              @ ../../../CORTEX_MPU_M3_NUCLEO_L152RE_GCC/Demo/IntQueue.c:836:30
	movw	r1, :lower16:xAreIntQueueTasksStillRunning.uxLastHighPriorityLoops2
	movt	r1, :upper16:xAreIntQueueTasksStillRunning.uxLastHighPriorityLoops2
	str	r0, [r1]
.Ltmp269:
	.loc	2 838 9 is_stmt 1               @ ../../../CORTEX_MPU_M3_NUCLEO_L152RE_GCC/Demo/IntQueue.c:838:9
	movw	r0, :lower16:uxLowPriorityLoops1
	movt	r0, :upper16:uxLowPriorityLoops1
	ldr	r0, [r0]
	.loc	2 838 37 is_stmt 0              @ ../../../CORTEX_MPU_M3_NUCLEO_L152RE_GCC/Demo/IntQueue.c:838:37
	movw	r1, :lower16:xAreIntQueueTasksStillRunning.uxLastLowPriorityLoops1
	movt	r1, :upper16:xAreIntQueueTasksStillRunning.uxLastLowPriorityLoops1
	ldr	r1, [r1]
.Ltmp270:
	.loc	2 838 9                         @ ../../../CORTEX_MPU_M3_NUCLEO_L152RE_GCC/Demo/IntQueue.c:838:9
	cmp	r0, r1
	bne	.LBB11_6
	b	.LBB11_5
.LBB11_5:
	.loc	2 0 9                           @ ../../../CORTEX_MPU_M3_NUCLEO_L152RE_GCC/Demo/IntQueue.c:0:9
	movw	r0, #841
.Ltmp271:
	.loc	2 841 9 is_stmt 1               @ ../../../CORTEX_MPU_M3_NUCLEO_L152RE_GCC/Demo/IntQueue.c:841:9
	bl	prvQueueAccessLogError
	.loc	2 842 5                         @ ../../../CORTEX_MPU_M3_NUCLEO_L152RE_GCC/Demo/IntQueue.c:842:5
	b	.LBB11_6
.Ltmp272:
.LBB11_6:
	.loc	2 844 31                        @ ../../../CORTEX_MPU_M3_NUCLEO_L152RE_GCC/Demo/IntQueue.c:844:31
	movw	r0, :lower16:uxLowPriorityLoops1
	movt	r0, :upper16:uxLowPriorityLoops1
	ldr	r0, [r0]
	.loc	2 844 29 is_stmt 0              @ ../../../CORTEX_MPU_M3_NUCLEO_L152RE_GCC/Demo/IntQueue.c:844:29
	movw	r1, :lower16:xAreIntQueueTasksStillRunning.uxLastLowPriorityLoops1
	movt	r1, :upper16:xAreIntQueueTasksStillRunning.uxLastLowPriorityLoops1
	str	r0, [r1]
.Ltmp273:
	.loc	2 846 9 is_stmt 1               @ ../../../CORTEX_MPU_M3_NUCLEO_L152RE_GCC/Demo/IntQueue.c:846:9
	movw	r0, :lower16:uxLowPriorityLoops2
	movt	r0, :upper16:uxLowPriorityLoops2
	ldr	r0, [r0]
	.loc	2 846 37 is_stmt 0              @ ../../../CORTEX_MPU_M3_NUCLEO_L152RE_GCC/Demo/IntQueue.c:846:37
	movw	r1, :lower16:xAreIntQueueTasksStillRunning.uxLastLowPriorityLoops2
	movt	r1, :upper16:xAreIntQueueTasksStillRunning.uxLastLowPriorityLoops2
	ldr	r1, [r1]
.Ltmp274:
	.loc	2 846 9                         @ ../../../CORTEX_MPU_M3_NUCLEO_L152RE_GCC/Demo/IntQueue.c:846:9
	cmp	r0, r1
	bne	.LBB11_8
	b	.LBB11_7
.LBB11_7:
	.loc	2 0 9                           @ ../../../CORTEX_MPU_M3_NUCLEO_L152RE_GCC/Demo/IntQueue.c:0:9
	movw	r0, #849
.Ltmp275:
	.loc	2 849 9 is_stmt 1               @ ../../../CORTEX_MPU_M3_NUCLEO_L152RE_GCC/Demo/IntQueue.c:849:9
	bl	prvQueueAccessLogError
	.loc	2 850 5                         @ ../../../CORTEX_MPU_M3_NUCLEO_L152RE_GCC/Demo/IntQueue.c:850:5
	b	.LBB11_8
.Ltmp276:
.LBB11_8:
	.loc	2 852 31                        @ ../../../CORTEX_MPU_M3_NUCLEO_L152RE_GCC/Demo/IntQueue.c:852:31
	movw	r0, :lower16:uxLowPriorityLoops2
	movt	r0, :upper16:uxLowPriorityLoops2
	ldr	r0, [r0]
	.loc	2 852 29 is_stmt 0              @ ../../../CORTEX_MPU_M3_NUCLEO_L152RE_GCC/Demo/IntQueue.c:852:29
	movw	r1, :lower16:xAreIntQueueTasksStillRunning.uxLastLowPriorityLoops2
	movt	r1, :upper16:xAreIntQueueTasksStillRunning.uxLastLowPriorityLoops2
	str	r0, [r1]
	.loc	2 854 12 is_stmt 1              @ ../../../CORTEX_MPU_M3_NUCLEO_L152RE_GCC/Demo/IntQueue.c:854:12
	movw	r0, :lower16:xErrorStatus
	movt	r0, :upper16:xErrorStatus
	ldr	r0, [r0]
	.loc	2 854 5 is_stmt 0               @ ../../../CORTEX_MPU_M3_NUCLEO_L152RE_GCC/Demo/IntQueue.c:854:5
	pop	{r7, pc}
.Ltmp277:
.Lfunc_end11:
	.size	xAreIntQueueTasksStillRunning, .Lfunc_end11-xAreIntQueueTasksStillRunning
	.cfi_endproc
	.cantunwind
	.fnend
                                        @ -- End function
	.hidden	xErrorStatus                    @ @xErrorStatus
	.type	xErrorStatus,%object
	.section	.data.xErrorStatus,"aw",%progbits
	.globl	xErrorStatus
	.p2align	5, 0x0
xErrorStatus:
	.long	1                               @ 0x1
	.long	0                               @ 0x0
	.long	0                               @ 0x0
	.long	0                               @ 0x0
	.long	0                               @ 0x0
	.long	0                               @ 0x0
	.long	0                               @ 0x0
	.long	0                               @ 0x0
	.size	xErrorStatus, 32

	.type	vStartInterruptQueueTasks.x1stHigherPriorityNormallyEmptyTaskStack,%object @ @vStartInterruptQueueTasks.x1stHigherPriorityNormallyEmptyTaskStack
	.section	.bss.vStartInterruptQueueTasks.x1stHigherPriorityNormallyEmptyTaskStack,"aw",%nobits
	.p2align	9, 0x0
vStartInterruptQueueTasks.x1stHigherPriorityNormallyEmptyTaskStack:
	.zero	512
	.size	vStartInterruptQueueTasks.x1stHigherPriorityNormallyEmptyTaskStack, 512

	.type	vStartInterruptQueueTasks.x2ndHigherPriorityNormallyEmptyTaskStack,%object @ @vStartInterruptQueueTasks.x2ndHigherPriorityNormallyEmptyTaskStack
	.section	.bss.vStartInterruptQueueTasks.x2ndHigherPriorityNormallyEmptyTaskStack,"aw",%nobits
	.p2align	9, 0x0
vStartInterruptQueueTasks.x2ndHigherPriorityNormallyEmptyTaskStack:
	.zero	512
	.size	vStartInterruptQueueTasks.x2ndHigherPriorityNormallyEmptyTaskStack, 512

	.type	vStartInterruptQueueTasks.xLowerPriorityNormallyEmptyTaskStack,%object @ @vStartInterruptQueueTasks.xLowerPriorityNormallyEmptyTaskStack
	.section	.bss.vStartInterruptQueueTasks.xLowerPriorityNormallyEmptyTaskStack,"aw",%nobits
	.p2align	9, 0x0
vStartInterruptQueueTasks.xLowerPriorityNormallyEmptyTaskStack:
	.zero	512
	.size	vStartInterruptQueueTasks.xLowerPriorityNormallyEmptyTaskStack, 512

	.type	vStartInterruptQueueTasks.x1stHigherPriorityNormallyFullTaskStack,%object @ @vStartInterruptQueueTasks.x1stHigherPriorityNormallyFullTaskStack
	.section	.bss.vStartInterruptQueueTasks.x1stHigherPriorityNormallyFullTaskStack,"aw",%nobits
	.p2align	9, 0x0
vStartInterruptQueueTasks.x1stHigherPriorityNormallyFullTaskStack:
	.zero	512
	.size	vStartInterruptQueueTasks.x1stHigherPriorityNormallyFullTaskStack, 512

	.type	vStartInterruptQueueTasks.x2ndHigherPriorityNormallyFullTaskStack,%object @ @vStartInterruptQueueTasks.x2ndHigherPriorityNormallyFullTaskStack
	.section	.bss.vStartInterruptQueueTasks.x2ndHigherPriorityNormallyFullTaskStack,"aw",%nobits
	.p2align	9, 0x0
vStartInterruptQueueTasks.x2ndHigherPriorityNormallyFullTaskStack:
	.zero	512
	.size	vStartInterruptQueueTasks.x2ndHigherPriorityNormallyFullTaskStack, 512

	.type	vStartInterruptQueueTasks.xLowerPriorityNormallyFullTaskStack,%object @ @vStartInterruptQueueTasks.xLowerPriorityNormallyFullTaskStack
	.section	.bss.vStartInterruptQueueTasks.xLowerPriorityNormallyFullTaskStack,"aw",%nobits
	.p2align	9, 0x0
vStartInterruptQueueTasks.xLowerPriorityNormallyFullTaskStack:
	.zero	512
	.size	vStartInterruptQueueTasks.xLowerPriorityNormallyFullTaskStack, 512

	.type	.L.str,%object                  @ @.str
	.section	.rodata.str1.1,"aMS",%progbits,1
.L.str:
	.asciz	"H1QRx"
	.size	.L.str, 6

	.type	.L__const.vStartInterruptQueueTasks.x1stHigherPriorityNormallyEmptyTaskParameters,%object @ @__const.vStartInterruptQueueTasks.x1stHigherPriorityNormallyEmptyTaskParameters
	.section	.rodata..L__const.vStartInterruptQueueTasks.x1stHigherPriorityNormallyEmptyTaskParameters,"a",%progbits
	.p2align	2, 0x0
.L__const.vStartInterruptQueueTasks.x1stHigherPriorityNormallyEmptyTaskParameters:
	.long	prvHigherPriorityNormallyEmptyTask
	.long	.L.str
	.short	128                             @ 0x80
	.zero	2
	.long	1
	.long	2147483651                      @ 0x80000003
	.long	vStartInterruptQueueTasks.x1stHigherPriorityNormallyEmptyTaskStack
	.zero	36
	.long	0
	.size	.L__const.vStartInterruptQueueTasks.x1stHigherPriorityNormallyEmptyTaskParameters, 64

	.type	.L.str.1,%object                @ @.str.1
	.section	.rodata.str1.1,"aMS",%progbits,1
.L.str.1:
	.asciz	"H2QRx"
	.size	.L.str.1, 6

	.type	.L__const.vStartInterruptQueueTasks.x2ndHigherPriorityNormallyEmptyTaskParameters,%object @ @__const.vStartInterruptQueueTasks.x2ndHigherPriorityNormallyEmptyTaskParameters
	.section	.rodata..L__const.vStartInterruptQueueTasks.x2ndHigherPriorityNormallyEmptyTaskParameters,"a",%progbits
	.p2align	2, 0x0
.L__const.vStartInterruptQueueTasks.x2ndHigherPriorityNormallyEmptyTaskParameters:
	.long	prvHigherPriorityNormallyEmptyTask
	.long	.L.str.1
	.short	128                             @ 0x80
	.zero	2
	.long	2
	.long	2147483651                      @ 0x80000003
	.long	vStartInterruptQueueTasks.x2ndHigherPriorityNormallyEmptyTaskStack
	.zero	36
	.long	0
	.size	.L__const.vStartInterruptQueueTasks.x2ndHigherPriorityNormallyEmptyTaskParameters, 64

	.type	.L.str.2,%object                @ @.str.2
	.section	.rodata.str1.1,"aMS",%progbits,1
.L.str.2:
	.asciz	"L1QRx"
	.size	.L.str.2, 6

	.type	.L__const.vStartInterruptQueueTasks.xLowerPriorityNormallyEmptyTaskParameters,%object @ @__const.vStartInterruptQueueTasks.xLowerPriorityNormallyEmptyTaskParameters
	.section	.rodata..L__const.vStartInterruptQueueTasks.xLowerPriorityNormallyEmptyTaskParameters,"a",%progbits
	.p2align	2, 0x0
.L__const.vStartInterruptQueueTasks.xLowerPriorityNormallyEmptyTaskParameters:
	.long	prvLowerPriorityNormallyEmptyTask
	.long	.L.str.2
	.short	128                             @ 0x80
	.zero	2
	.long	0
	.long	2147483648                      @ 0x80000000
	.long	vStartInterruptQueueTasks.xLowerPriorityNormallyEmptyTaskStack
	.zero	36
	.long	0
	.size	.L__const.vStartInterruptQueueTasks.xLowerPriorityNormallyEmptyTaskParameters, 64

	.type	.L.str.3,%object                @ @.str.3
	.section	.rodata.str1.1,"aMS",%progbits,1
.L.str.3:
	.asciz	"H1QTx"
	.size	.L.str.3, 6

	.type	.L__const.vStartInterruptQueueTasks.x1stHigherPriorityNormallyFullTaskParameters,%object @ @__const.vStartInterruptQueueTasks.x1stHigherPriorityNormallyFullTaskParameters
	.section	.rodata..L__const.vStartInterruptQueueTasks.x1stHigherPriorityNormallyFullTaskParameters,"a",%progbits
	.p2align	2, 0x0
.L__const.vStartInterruptQueueTasks.x1stHigherPriorityNormallyFullTaskParameters:
	.long	prv1stHigherPriorityNormallyFullTask
	.long	.L.str.3
	.short	128                             @ 0x80
	.zero	2
	.long	1
	.long	2147483651                      @ 0x80000003
	.long	vStartInterruptQueueTasks.x1stHigherPriorityNormallyFullTaskStack
	.zero	36
	.long	0
	.size	.L__const.vStartInterruptQueueTasks.x1stHigherPriorityNormallyFullTaskParameters, 64

	.type	.L.str.4,%object                @ @.str.4
	.section	.rodata.str1.1,"aMS",%progbits,1
.L.str.4:
	.asciz	"H2QTx"
	.size	.L.str.4, 6

	.type	uxValueForNormallyFullQueue,%object @ @uxValueForNormallyFullQueue
	.section	.bss.uxValueForNormallyFullQueue,"aw",%nobits
	.p2align	5, 0x0
uxValueForNormallyFullQueue:
	.zero	32
	.size	uxValueForNormallyFullQueue, 32

	.type	xNormallyFullQueue,%object      @ @xNormallyFullQueue
	.section	.bss.xNormallyFullQueue,"aw",%nobits
	.p2align	5, 0x0
xNormallyFullQueue:
	.zero	32
	.size	xNormallyFullQueue, 32

	.type	xWasSuspended,%object           @ @xWasSuspended
	.section	.bss.xWasSuspended,"aw",%nobits
	.p2align	5, 0x0
xWasSuspended:
	.zero	32
	.size	xWasSuspended, 32

	.type	.L__const.vStartInterruptQueueTasks.x2ndHigherPriorityNormallyFullTaskParameters,%object @ @__const.vStartInterruptQueueTasks.x2ndHigherPriorityNormallyFullTaskParameters
	.section	.rodata..L__const.vStartInterruptQueueTasks.x2ndHigherPriorityNormallyFullTaskParameters,"a",%progbits
	.p2align	2, 0x0
.L__const.vStartInterruptQueueTasks.x2ndHigherPriorityNormallyFullTaskParameters:
	.long	prv2ndHigherPriorityNormallyFullTask
	.long	.L.str.4
	.short	128                             @ 0x80
	.zero	2
	.long	2
	.long	3                               @ 0x3
	.long	vStartInterruptQueueTasks.x2ndHigherPriorityNormallyFullTaskStack
	.long	uxValueForNormallyFullQueue
	.long	256                             @ 0x100
	.long	3                               @ 0x3
	.long	xNormallyFullQueue
	.long	32                              @ 0x20
	.long	3                               @ 0x3
	.long	xWasSuspended
	.long	256                             @ 0x100
	.long	3                               @ 0x3
	.long	0
	.size	.L__const.vStartInterruptQueueTasks.x2ndHigherPriorityNormallyFullTaskParameters, 64

	.type	.L.str.5,%object                @ @.str.5
	.section	.rodata.str1.1,"aMS",%progbits,1
.L.str.5:
	.asciz	"L2QRx"
	.size	.L.str.5, 6

	.type	.L__const.vStartInterruptQueueTasks.xLowerPriorityNormallyFullTaskParameters,%object @ @__const.vStartInterruptQueueTasks.xLowerPriorityNormallyFullTaskParameters
	.section	.rodata..L__const.vStartInterruptQueueTasks.xLowerPriorityNormallyFullTaskParameters,"a",%progbits
	.p2align	2, 0x0
.L__const.vStartInterruptQueueTasks.xLowerPriorityNormallyFullTaskParameters:
	.long	prvLowerPriorityNormallyFullTask
	.long	.L.str.5
	.short	128                             @ 0x80
	.zero	2
	.long	0
	.long	2147483648                      @ 0x80000000
	.long	vStartInterruptQueueTasks.xLowerPriorityNormallyFullTaskStack
	.zero	36
	.long	0
	.size	.L__const.vStartInterruptQueueTasks.xLowerPriorityNormallyFullTaskParameters, 64

	.type	xLocalTaskHandles,%object       @ @xLocalTaskHandles
	.section	.bss.xLocalTaskHandles,"aw",%nobits
	.p2align	5, 0x0
xLocalTaskHandles:
	.zero	32
	.size	xLocalTaskHandles, 32

	.type	xNormallyEmptyQueue,%object     @ @xNormallyEmptyQueue
	.section	.bss.xNormallyEmptyQueue,"aw",%nobits
	.p2align	5, 0x0
xNormallyEmptyQueue:
	.zero	32
	.size	xNormallyEmptyQueue, 32

	.type	xFirstTimerHandler.uxNextOperation,%object @ @xFirstTimerHandler.uxNextOperation
	.section	.bss.xFirstTimerHandler.uxNextOperation,"aw",%nobits
	.p2align	2, 0x0
xFirstTimerHandler.uxNextOperation:
	.long	0                               @ 0x0
	.size	xFirstTimerHandler.uxNextOperation, 4

	.type	uxValueForNormallyEmptyQueue,%object @ @uxValueForNormallyEmptyQueue
	.section	.bss.uxValueForNormallyEmptyQueue,"aw",%nobits
	.p2align	5, 0x0
uxValueForNormallyEmptyQueue:
	.zero	32
	.size	uxValueForNormallyEmptyQueue, 32

	.type	xSecondTimerHandler.uxNextOperation,%object @ @xSecondTimerHandler.uxNextOperation
	.section	.bss.xSecondTimerHandler.uxNextOperation,"aw",%nobits
	.p2align	2, 0x0
xSecondTimerHandler.uxNextOperation:
	.long	0                               @ 0x0
	.size	xSecondTimerHandler.uxNextOperation, 4

	.type	xAreIntQueueTasksStillRunning.uxLastHighPriorityLoops1,%object @ @xAreIntQueueTasksStillRunning.uxLastHighPriorityLoops1
	.section	.bss.xAreIntQueueTasksStillRunning.uxLastHighPriorityLoops1,"aw",%nobits
	.p2align	2, 0x0
xAreIntQueueTasksStillRunning.uxLastHighPriorityLoops1:
	.long	0                               @ 0x0
	.size	xAreIntQueueTasksStillRunning.uxLastHighPriorityLoops1, 4

	.type	xAreIntQueueTasksStillRunning.uxLastHighPriorityLoops2,%object @ @xAreIntQueueTasksStillRunning.uxLastHighPriorityLoops2
	.section	.bss.xAreIntQueueTasksStillRunning.uxLastHighPriorityLoops2,"aw",%nobits
	.p2align	2, 0x0
xAreIntQueueTasksStillRunning.uxLastHighPriorityLoops2:
	.long	0                               @ 0x0
	.size	xAreIntQueueTasksStillRunning.uxLastHighPriorityLoops2, 4

	.type	xAreIntQueueTasksStillRunning.uxLastLowPriorityLoops1,%object @ @xAreIntQueueTasksStillRunning.uxLastLowPriorityLoops1
	.section	.bss.xAreIntQueueTasksStillRunning.uxLastLowPriorityLoops1,"aw",%nobits
	.p2align	2, 0x0
xAreIntQueueTasksStillRunning.uxLastLowPriorityLoops1:
	.long	0                               @ 0x0
	.size	xAreIntQueueTasksStillRunning.uxLastLowPriorityLoops1, 4

	.type	xAreIntQueueTasksStillRunning.uxLastLowPriorityLoops2,%object @ @xAreIntQueueTasksStillRunning.uxLastLowPriorityLoops2
	.section	.bss.xAreIntQueueTasksStillRunning.uxLastLowPriorityLoops2,"aw",%nobits
	.p2align	2, 0x0
xAreIntQueueTasksStillRunning.uxLastLowPriorityLoops2:
	.long	0                               @ 0x0
	.size	xAreIntQueueTasksStillRunning.uxLastLowPriorityLoops2, 4

	.type	uxHighPriorityLoops1,%object    @ @uxHighPriorityLoops1
	.section	.bss.uxHighPriorityLoops1,"aw",%nobits
	.p2align	5, 0x0
uxHighPriorityLoops1:
	.zero	32
	.size	uxHighPriorityLoops1, 32

	.type	uxHighPriorityLoops2,%object    @ @uxHighPriorityLoops2
	.section	.bss.uxHighPriorityLoops2,"aw",%nobits
	.p2align	5, 0x0
uxHighPriorityLoops2:
	.zero	32
	.size	uxHighPriorityLoops2, 32

	.type	uxLowPriorityLoops1,%object     @ @uxLowPriorityLoops1
	.section	.bss.uxLowPriorityLoops1,"aw",%nobits
	.p2align	5, 0x0
uxLowPriorityLoops1:
	.zero	32
	.size	uxLowPriorityLoops1, 32

	.type	uxLowPriorityLoops2,%object     @ @uxLowPriorityLoops2
	.section	.bss.uxLowPriorityLoops2,"aw",%nobits
	.p2align	5, 0x0
uxLowPriorityLoops2:
	.zero	32
	.size	uxLowPriorityLoops2, 32

	.type	ucNormallyEmptyReceivedValues,%object @ @ucNormallyEmptyReceivedValues
	.section	.bss.ucNormallyEmptyReceivedValues,"aw",%nobits
	.p2align	8, 0x0
ucNormallyEmptyReceivedValues:
	.zero	256
	.size	ucNormallyEmptyReceivedValues, 256

	.type	ucNormallyFullReceivedValues,%object @ @ucNormallyFullReceivedValues
	.section	.bss.ucNormallyFullReceivedValues,"aw",%nobits
	.p2align	8, 0x0
ucNormallyFullReceivedValues:
	.zero	256
	.size	ucNormallyFullReceivedValues, 256

	.type	xErrorLine,%object              @ @xErrorLine
	.section	.bss.xErrorLine,"aw",%nobits
	.p2align	5, 0x0
xErrorLine:
	.zero	32
	.size	xErrorLine, 32

	.file	6 "C:\\Users\\karahulx\\Downloads\\Kernel\\FreeRTOS\\FreeRTOS\\Demo\\CORTEX_MPU_M23_Nuvoton_NuMaker_PFM_M2351_IAR_GCC\\Projects_NTZ\\Keil" "../../../../Source/include/projdefs.h"
	.file	7 "C:\\Users\\karahulx\\Downloads\\Kernel\\FreeRTOS\\FreeRTOS\\Demo\\CORTEX_MPU_M23_Nuvoton_NuMaker_PFM_M2351_IAR_GCC\\Projects_NTZ\\Keil" "../../../../Source/include\\FreeRTOS.h"
	.section	".note.GNU-stack","",%progbits
	.eabi_attribute	30, 6	@ Tag_ABI_optimization_goals
	.ARM_attribute	16, 1	@ Tag_AV_eba