	.text
	.syntax unified
	.eabi_attribute	67, "2.09"	@ Tag_conformance
	.eabi_attribute	6, 16	@ Tag_CPU_arch
	.eabi_attribute	7, 77	@ Tag_CPU_arch_profile
	.eabi_attribute	8, 0	@ Tag_ARM_ISA_use
	.eabi_attribute	9, 3	@ Tag_THUMB_ISA_use
	.eabi_attribute	34, 0	@ Tag_CPU_unaligned_access
	.eabi_attribute	17, 1	@ Tag_ABI_PCS_GOT_use
	.eabi_attribute	20, 2	@ Tag_ABI_FP_denormal
	.eabi_attribute	21, 0	@ Tag_ABI_FP_exceptions
	.eabi_attribute	23, 1	@ Tag_ABI_FP_number_model
	.eabi_attribute	24, 1	@ Tag_ABI_align_needed
	.eabi_attribute	25, 1	@ Tag_ABI_align_preserved
	.eabi_attribute	38, 1	@ Tag_ABI_FP_16bit_format
	.eabi_attribute	18, 4	@ Tag_ABI_PCS_wchar_t
	.eabi_attribute	26, 2	@ Tag_ABI_enum_size
	.eabi_attribute	14, 0	@ Tag_ABI_PCS_R9_use
	.file	"main.c"
	.file	1 "C:\\Keil_v5\\ARM\\ARMCLANG\\Bin\\..\\include" "stdint.h"
	.file	2 "C:\\Users\\karahulx\\Downloads\\Kernel\\FreeRTOS\\FreeRTOS\\Demo\\CORTEX_MPU_M23_Nuvoton_NuMaker_PFM_M2351_IAR_GCC\\Projects_NTZ\\Keil" "main.c"
	.file	3 "C:\\Users\\karahulx\\Downloads\\Kernel\\FreeRTOS\\FreeRTOS\\Demo\\CORTEX_MPU_M23_Nuvoton_NuMaker_PFM_M2351_IAR_GCC\\Projects_NTZ\\Keil" "../../../../Source/include\\FreeRTOS.h"
	.file	4 "C:\\Users\\karahulx\\Downloads\\Kernel\\FreeRTOS\\FreeRTOS\\Demo\\CORTEX_MPU_M23_Nuvoton_NuMaker_PFM_M2351_IAR_GCC\\Projects_NTZ\\Keil" "../../../../Source/portable/GCC/ARM_CM23_NTZ/non_secure/portmacrocommon.h"
	.file	5 "C:\\Users\\karahulx\\Downloads\\Kernel\\FreeRTOS\\FreeRTOS\\Demo\\CORTEX_MPU_M23_Nuvoton_NuMaker_PFM_M2351_IAR_GCC\\Projects_NTZ\\Keil" "../../Nuvoton_Code/Device/Nuvoton/M2351/Include/clk_reg.h"
	.file	6 "C:\\Users\\karahulx\\Downloads\\Kernel\\FreeRTOS\\FreeRTOS\\Demo\\CORTEX_MPU_M23_Nuvoton_NuMaker_PFM_M2351_IAR_GCC\\Projects_NTZ\\Keil" "../../Nuvoton_Code/Device/Nuvoton/M2351/Include/sys_reg.h"
	.file	7 "C:\\Users\\karahulx\\Downloads\\Kernel\\FreeRTOS\\FreeRTOS\\Demo\\CORTEX_MPU_M23_Nuvoton_NuMaker_PFM_M2351_IAR_GCC\\Projects_NTZ\\Keil" "../../Nuvoton_Code/Device/Nuvoton/M2351/Include/uart_reg.h"
	.section	.text.main,"ax",%progbits
	.hidden	main                            @ -- Begin function main
	.globl	main
	.p2align	1
	.type	main,%function
	.code	16                              @ @main
	.thumb_func
main:
.Lfunc_begin0:
	.loc	2 94 0                          @ main.c:94:0
	.fnstart
	.cfi_sections .debug_frame
	.cfi_startproc
@ %bb.0:
	.save	{r7, lr}
	push	{r7, lr}
	.cfi_def_cfa_offset 8
	.cfi_offset lr, -4
	.cfi_offset r7, -8
	.pad	#8
	sub	sp, #8
	.cfi_def_cfa_offset 16
	movs	r0, #0
	str	r0, [sp, #4]
.Ltmp0:
	.loc	2 96 2 prologue_end             @ main.c:96:2
	bl	prvSetupHardware
	.loc	2 99 2                          @ main.c:99:2
	movw	r0, :lower16:.L.str
	movt	r0, :upper16:.L.str
	bl	printf
	.loc	2 100 2                         @ main.c:100:2
	movw	r0, :lower16:.L.str.1
	movt	r0, :upper16:.L.str.1
	str	r0, [sp]                        @ 4-byte Spill
	bl	printf
	.loc	2 101 2                         @ main.c:101:2
	movw	r0, :lower16:.L.str.2
	movt	r0, :upper16:.L.str.2
	bl	printf
                                        @ kill: def $r1 killed $r0
	.loc	2 102 2                         @ main.c:102:2
	ldr	r0, [sp]                        @ 4-byte Reload
	bl	printf
	.loc	2 105 2                         @ main.c:105:2
	bl	prvCreateTasks
	.loc	2 108 2                         @ main.c:108:2
	bl	vTaskStartScheduler
	.loc	2 114 2                         @ main.c:114:2
	b	.LBB0_1
.LBB0_1:                                @ =>This Inner Loop Header: Depth=1
.Ltmp1:
	.loc	2 114 2 is_stmt 0               @ main.c:114:2
	b	.LBB0_1
.Ltmp2:
.Lfunc_end0:
	.size	main, .Lfunc_end0-main
	.cfi_endproc
	.cantunwind
	.fnend
                                        @ -- End function
	.section	.text.prvSetupHardware,"ax",%progbits
	.p2align	1                               @ -- Begin function prvSetupHardware
	.type	prvSetupHardware,%function
	.code	16                              @ @prvSetupHardware
	.thumb_func
prvSetupHardware:
.Lfunc_begin1:
	.loc	2 121 0 is_stmt 1               @ main.c:121:0
	.fnstart
	.cfi_startproc
@ %bb.0:
	.save	{r4, r5, r6, lr}
	push	{r4, r5, r6, lr}
	.cfi_def_cfa_offset 16
	.cfi_offset lr, -4
	.cfi_offset r6, -8
	.cfi_offset r5, -12
	.cfi_offset r4, -16
.Ltmp3:
	.loc	2 123 2 prologue_end            @ main.c:123:2
	bl	SYS_UnlockReg
	movw	r1, #576
	movt	r1, #16384
	movw	r0, #17422
	movt	r0, #8
	.loc	2 127 14                        @ main.c:127:14
	str	r0, [r1]
	.loc	2 129 2                         @ main.c:129:2
	b	.LBB1_1
.LBB1_1:                                @ =>This Inner Loop Header: Depth=1
	.loc	2 0 2 is_stmt 0                 @ main.c:0:2
	movw	r0, #592
	movt	r0, #16384
	.loc	2 129 16                        @ main.c:129:16
	ldr	r0, [r0]
	.loc	2 129 2                         @ main.c:129:2
	lsls	r0, r0, #29
	cmp	r0, #0
	bmi	.LBB1_3
	b	.LBB1_2
.LBB1_2:                                @   in Loop: Header=BB1_1 Depth=1
	b	.LBB1_1
.LBB1_3:
	.loc	2 0 2                           @ main.c:0:2
	movw	r1, #544
	movt	r1, #16384
	.loc	2 132 24 is_stmt 1              @ main.c:132:24
	ldr	r0, [r1]
	movs	r2, #15
	.loc	2 132 32 is_stmt 0              @ main.c:132:32
	bics	r0, r2
	.loc	2 132 15                        @ main.c:132:15
	str	r0, [r1]
	movw	r1, #528
	movt	r1, #16384
	.loc	2 135 24 is_stmt 1              @ main.c:135:24
	ldr	r0, [r1]
	movs	r2, #2
	.loc	2 135 32 is_stmt 0              @ main.c:135:32
	orrs	r0, r2
	movs	r2, #5
	.loc	2 135 65                        @ main.c:135:65
	bics	r0, r2
	.loc	2 135 15                        @ main.c:135:15
	str	r0, [r1]
	movw	r3, #520
	movt	r3, #16384
	.loc	2 139 15 is_stmt 1              @ main.c:139:15
	ldr	r0, [r3]
	movs	r4, #1
	lsls	r1, r4, #16
	orrs	r0, r1
	str	r0, [r3]
	movw	r2, #532
	movt	r2, #16384
	.loc	2 142 24                        @ main.c:142:24
	ldr	r1, [r2]
	movs	r0, #3
	lsls	r5, r0, #24
	.loc	2 142 66 is_stmt 0              @ main.c:142:66
	orrs	r1, r5
	.loc	2 142 15                        @ main.c:142:15
	str	r1, [r2]
	movw	r5, #60
	movt	r5, #16384
	.loc	2 145 25 is_stmt 1              @ main.c:145:25
	ldr	r1, [r5]
	movw	r6, #65535
	movt	r6, #65520
	.loc	2 145 34 is_stmt 0              @ main.c:145:34
	ands	r1, r6
	lsls	r6, r0, #17
	.loc	2 145 62                        @ main.c:145:62
	adds	r1, r1, r6
	.loc	2 145 16                        @ main.c:145:16
	str	r1, [r5]
	.loc	2 146 25 is_stmt 1              @ main.c:146:25
	ldr	r1, [r5]
	movw	r6, #65535
	movt	r6, #65295
	.loc	2 146 34 is_stmt 0              @ main.c:146:34
	ands	r1, r6
	lsls	r6, r0, #21
	.loc	2 146 62                        @ main.c:146:62
	adds	r1, r1, r6
	.loc	2 146 16                        @ main.c:146:16
	str	r1, [r5]
	.loc	2 150 15 is_stmt 1              @ main.c:150:15
	ldr	r1, [r3]
	lsls	r4, r4, #17
	orrs	r1, r4
	str	r1, [r3]
	.loc	2 153 24                        @ main.c:153:24
	ldr	r1, [r2]
	lsls	r3, r0, #26
	.loc	2 153 66 is_stmt 0              @ main.c:153:66
	orrs	r1, r3
	.loc	2 153 15                        @ main.c:153:15
	str	r1, [r2]
	movw	r2, #48
	movt	r2, #16384
	.loc	2 156 25 is_stmt 1              @ main.c:156:25
	ldr	r1, [r2]
	movw	r3, #61695
	movt	r3, #65535
	.loc	2 156 34 is_stmt 0              @ main.c:156:34
	ands	r1, r3
	movw	r3, #2048
	.loc	2 156 61                        @ main.c:156:61
	adds	r1, r1, r3
	.loc	2 156 16                        @ main.c:156:16
	str	r1, [r2]
	.loc	2 157 25 is_stmt 1              @ main.c:157:25
	ldr	r1, [r2]
	movw	r3, #4095
	movt	r3, #65535
	.loc	2 157 34 is_stmt 0              @ main.c:157:34
	ands	r1, r3
	movw	r3, #32768
	.loc	2 157 61                        @ main.c:157:61
	adds	r1, r1, r3
	.loc	2 157 16                        @ main.c:157:16
	str	r1, [r2]
	.loc	2 160 12 is_stmt 1              @ main.c:160:12
	movw	r2, :lower16:PllClock
	movt	r2, :upper16:PllClock
	movw	r1, #36864
	movt	r1, #976
	str	r1, [r2]
	.loc	2 161 18                        @ main.c:161:18
	movw	r2, :lower16:SystemCoreClock
	movt	r2, :upper16:SystemCoreClock
	str	r1, [r2]
	.loc	2 162 15                        @ main.c:162:15
	movw	r2, :lower16:CyclesPerUs
	movt	r2, :upper16:CyclesPerUs
	movs	r1, #64
	str	r1, [r2]
	movw	r2, #36
	movt	r2, #16391
	movw	r1, #102
	movt	r1, #12288
	.loc	2 165 19                        @ main.c:165:19
	str	r1, [r2]
	movw	r1, #12
	movt	r1, #16391
	.loc	2 166 19                        @ main.c:166:19
	str	r0, [r1]
	.loc	2 169 2                         @ main.c:169:2
	bl	SYS_LockReg
	.loc	2 170 1                         @ main.c:170:1
	pop	{r4, r5, r6, pc}
.Ltmp4:
.Lfunc_end1:
	.size	prvSetupHardware, .Lfunc_end1-prvSetupHardware
	.cfi_endproc
	.cantunwind
	.fnend
                                        @ -- End function
	.section	.text.prvCreateTasks,"ax",%progbits
	.p2align	1                               @ -- Begin function prvCreateTasks
	.type	prvCreateTasks,%function
	.code	16                              @ @prvCreateTasks
	.thumb_func
prvCreateTasks:
.Lfunc_begin2:
	.loc	2 174 0                         @ main.c:174:0
	.fnstart
	.cfi_startproc
@ %bb.0:
	.save	{r7, lr}
	push	{r7, lr}
	.cfi_def_cfa_offset 8
	.cfi_offset lr, -4
	.cfi_offset r7, -8
.Ltmp5:
	.loc	2 176 2 prologue_end            @ main.c:176:2
	bl	vStartMPUDemo
	.loc	2 179 2                         @ main.c:179:2
	bl	vStartTests
	.loc	2 180 1                         @ main.c:180:1
	pop	{r7, pc}
.Ltmp6:
.Lfunc_end2:
	.size	prvCreateTasks, .Lfunc_end2-prvCreateTasks
	.cfi_endproc
	.cantunwind
	.fnend
                                        @ -- End function
	.section	.text.vApplicationStackOverflowHook,"ax",%progbits
	.hidden	vApplicationStackOverflowHook   @ -- Begin function vApplicationStackOverflowHook
	.globl	vApplicationStackOverflowHook
	.p2align	1
	.type	vApplicationStackOverflowHook,%function
	.code	16                              @ @vApplicationStackOverflowHook
	.thumb_func
vApplicationStackOverflowHook:
.Lfunc_begin3:
	.loc	2 185 0                         @ main.c:185:0
	.fnstart
	.cfi_startproc
@ %bb.0:
	.pad	#8
	sub	sp, #8
	.cfi_def_cfa_offset 8
	str	r0, [sp, #4]
	str	r1, [sp]
.Ltmp7:
	.loc	2 187 2 prologue_end            @ main.c:187:2
	ldr	r0, [sp]
.Ltmp8:
	.loc	2 187 2 is_stmt 0               @ main.c:187:2
	cbz	r0, .LBB3_3
	b	.LBB3_1
.LBB3_1:
.Ltmp9:
	.loc	2 187 2                         @ main.c:187:2
	@APP
	cpsid i
	@NO_APP
	b	.LBB3_2
.LBB3_2:                                @ =>This Inner Loop Header: Depth=1
.Ltmp10:
	.loc	2 187 2                         @ main.c:187:2
	b	.LBB3_2
.Ltmp11:
.LBB3_3:
	.loc	2 188 1 is_stmt 1               @ main.c:188:1
	add	sp, #8
	bx	lr
.Ltmp12:
.Lfunc_end3:
	.size	vApplicationStackOverflowHook, .Lfunc_end3-vApplicationStackOverflowHook
	.cfi_endproc
	.cantunwind
	.fnend
                                        @ -- End function
	.section	.text.vApplicationGetIdleTaskMemory,"ax",%progbits
	.hidden	vApplicationGetIdleTaskMemory   @ -- Begin function vApplicationGetIdleTaskMemory
	.globl	vApplicationGetIdleTaskMemory
	.p2align	1
	.type	vApplicationGetIdleTaskMemory,%function
	.code	16                              @ @vApplicationGetIdleTaskMemory
	.thumb_func
vApplicationGetIdleTaskMemory:
.Lfunc_begin4:
	.loc	2 197 0                         @ main.c:197:0
	.fnstart
	.cfi_startproc
@ %bb.0:
	.pad	#12
	sub	sp, #12
	.cfi_def_cfa_offset 12
	str	r0, [sp, #8]
	str	r1, [sp, #4]
	str	r2, [sp]
.Ltmp13:
	.loc	2 206 3 prologue_end            @ main.c:206:3
	ldr	r1, [sp, #8]
	.loc	2 206 24 is_stmt 0              @ main.c:206:24
	movw	r0, :lower16:vApplicationGetIdleTaskMemory.xIdleTaskTCB
	movt	r0, :upper16:vApplicationGetIdleTaskMemory.xIdleTaskTCB
	str	r0, [r1]
	.loc	2 209 3 is_stmt 1               @ main.c:209:3
	ldr	r1, [sp, #4]
	.loc	2 209 26 is_stmt 0              @ main.c:209:26
	movw	r0, :lower16:vApplicationGetIdleTaskMemory.uxIdleTaskStack
	movt	r0, :upper16:vApplicationGetIdleTaskMemory.uxIdleTaskStack
	str	r0, [r1]
	.loc	2 214 3 is_stmt 1               @ main.c:214:3
	ldr	r1, [sp]
	movs	r0, #128
	.loc	2 214 24 is_stmt 0              @ main.c:214:24
	str	r0, [r1]
	.loc	2 215 1 is_stmt 1               @ main.c:215:1
	add	sp, #12
	bx	lr
.Ltmp14:
.Lfunc_end4:
	.size	vApplicationGetIdleTaskMemory, .Lfunc_end4-vApplicationGetIdleTaskMemory
	.cfi_endproc
	.cantunwind
	.fnend
                                        @ -- End function
	.section	.text.vApplicationGetTimerTaskMemory,"ax",%progbits
	.hidden	vApplicationGetTimerTaskMemory  @ -- Begin function vApplicationGetTimerTaskMemory
	.globl	vApplicationGetTimerTaskMemory
	.p2align	1
	.type	vApplicationGetTimerTaskMemory,%function
	.code	16                              @ @vApplicationGetTimerTaskMemory
	.thumb_func
vApplicationGetTimerTaskMemory:
.Lfunc_begin5:
	.loc	2 224 0                         @ main.c:224:0
	.fnstart
	.cfi_startproc
@ %bb.0:
	.pad	#12
	sub	sp, #12
	.cfi_def_cfa_offset 12
	str	r0, [sp, #8]
	str	r1, [sp, #4]
	str	r2, [sp]
.Ltmp15:
	.loc	2 233 3 prologue_end            @ main.c:233:3
	ldr	r1, [sp, #8]
	.loc	2 233 25 is_stmt 0              @ main.c:233:25
	movw	r0, :lower16:vApplicationGetTimerTaskMemory.xTimerTaskTCB
	movt	r0, :upper16:vApplicationGetTimerTaskMemory.xTimerTaskTCB
	str	r0, [r1]
	.loc	2 236 3 is_stmt 1               @ main.c:236:3
	ldr	r1, [sp, #4]
	.loc	2 236 27 is_stmt 0              @ main.c:236:27
	movw	r0, :lower16:vApplicationGetTimerTaskMemory.uxTimerTaskStack
	movt	r0, :upper16:vApplicationGetTimerTaskMemory.uxTimerTaskStack
	str	r0, [r1]
	.loc	2 241 3 is_stmt 1               @ main.c:241:3
	ldr	r1, [sp]
	movs	r0, #128
	.loc	2 241 25 is_stmt 0              @ main.c:241:25
	str	r0, [r1]
	.loc	2 242 1 is_stmt 1               @ main.c:242:1
	add	sp, #12
	bx	lr
.Ltmp16:
.Lfunc_end5:
	.size	vApplicationGetTimerTaskMemory, .Lfunc_end5-vApplicationGetTimerTaskMemory
	.cfi_endproc
	.cantunwind
	.fnend
                                        @ -- End function
	.section	.text.HardFault_Handler,"ax",%progbits
	.hidden	HardFault_Handler               @ -- Begin function HardFault_Handler
	.globl	HardFault_Handler
	.p2align	1
	.type	HardFault_Handler,%function
	.code	16                              @ @HardFault_Handler
	.thumb_func
HardFault_Handler:
.Lfunc_begin6:
	.loc	2 246 0                         @ main.c:246:0
	.fnstart
	.cfi_startproc
@ %bb.0:
	.loc	2 247 2 prologue_end            @ main.c:247:2
	@APP
	movs	r0, #4
	mov	r1, lr
	tst	r0, r1
	beq	msp_used_for_stacking
	mrs	r0, psp
	ldr	r2, handler_address_const
	bx	r2
msp_used_for_stacking:
	mrs	r0, msp
	ldr	r2, handler_address_const
	bx	r2

	.p2align	4
handler_address_const:
	.long	vHandleMemoryFault

	@NO_APP
.Ltmp17:
.Lfunc_end6:
	.size	HardFault_Handler, .Lfunc_end6-HardFault_Handler
	.cfi_endproc
	.cantunwind
	.fnend
                                        @ -- End function
	.section	.text.SYS_UnlockReg,"ax",%progbits
	.p2align	1                               @ -- Begin function SYS_UnlockReg
	.type	SYS_UnlockReg,%function
	.code	16                              @ @SYS_UnlockReg
	.thumb_func
SYS_UnlockReg:
.Lfunc_begin7:
	.file	8 "C:\\Users\\karahulx\\Downloads\\Kernel\\FreeRTOS\\FreeRTOS\\Demo\\CORTEX_MPU_M23_Nuvoton_NuMaker_PFM_M2351_IAR_GCC\\Projects_NTZ\\Keil" "../../Nuvoton_Code/StdDriver/inc\\sys.h"
	.loc	8 3042 0                        @ ../../Nuvoton_Code/StdDriver/inc\sys.h:3042:0
	.fnstart
	.cfi_startproc
@ %bb.0:
	.loc	8 3043 5 prologue_end           @ ../../Nuvoton_Code/StdDriver/inc\sys.h:3043:5
	b	.LBB7_1
.LBB7_1:                                @ =>This Inner Loop Header: Depth=1
	.loc	8 0 5 is_stmt 0                 @ ../../Nuvoton_Code/StdDriver/inc\sys.h:0:5
	movw	r1, #256
	movt	r1, #16384
	movs	r0, #89
.Ltmp18:
	.loc	8 3045 22 is_stmt 1             @ ../../Nuvoton_Code/StdDriver/inc\sys.h:3045:22
	str	r0, [r1]
	movs	r0, #22
	.loc	8 3046 22                       @ ../../Nuvoton_Code/StdDriver/inc\sys.h:3046:22
	str	r0, [r1]
	movs	r0, #136
	.loc	8 3047 22                       @ ../../Nuvoton_Code/StdDriver/inc\sys.h:3047:22
	str	r0, [r1]
	.loc	8 3048 5                        @ ../../Nuvoton_Code/StdDriver/inc\sys.h:3048:5
	b	.LBB7_2
.Ltmp19:
.LBB7_2:                                @   in Loop: Header=BB7_1 Depth=1
	.loc	8 0 5 is_stmt 0                 @ ../../Nuvoton_Code/StdDriver/inc\sys.h:0:5
	movw	r0, #256
	movt	r0, #16384
	.loc	8 3049 16 is_stmt 1             @ ../../Nuvoton_Code/StdDriver/inc\sys.h:3049:16
	ldr	r0, [r0]
.Ltmp20:
	.loc	8 3048 5                        @ ../../Nuvoton_Code/StdDriver/inc\sys.h:3048:5
	cmp	r0, #0
	beq	.LBB7_1
	b	.LBB7_3
.Ltmp21:
.LBB7_3:
	.loc	8 3050 1                        @ ../../Nuvoton_Code/StdDriver/inc\sys.h:3050:1
	bx	lr
.Ltmp22:
.Lfunc_end7:
	.size	SYS_UnlockReg, .Lfunc_end7-SYS_UnlockReg
	.cfi_endproc
	.cantunwind
	.fnend
                                        @ -- End function
	.section	.text.SYS_LockReg,"ax",%progbits
	.p2align	1                               @ -- Begin function SYS_LockReg
	.type	SYS_LockReg,%function
	.code	16                              @ @SYS_LockReg
	.thumb_func
SYS_LockReg:
.Lfunc_begin8:
	.loc	8 3060 0                        @ ../../Nuvoton_Code/StdDriver/inc\sys.h:3060:0
	.fnstart
	.cfi_startproc
@ %bb.0:
	movw	r1, #256
	movt	r1, #16384
	movs	r0, #0
.Ltmp23:
	.loc	8 3061 18 prologue_end          @ ../../Nuvoton_Code/StdDriver/inc\sys.h:3061:18
	str	r0, [r1]
	.loc	8 3062 1                        @ ../../Nuvoton_Code/StdDriver/inc\sys.h:3062:1
	bx	lr
.Ltmp24:
.Lfunc_end8:
	.size	SYS_LockReg, .Lfunc_end8-SYS_LockReg
	.cfi_endproc
	.cantunwind
	.fnend
                                        @ -- End function
	.hidden	__privileged_functions_start__  @ @__privileged_functions_start__
	.type	__privileged_functions_start__,%object
	.section	.data.__privileged_functions_start__,"aw",%progbits
	.globl	__privileged_functions_start__
	.p2align	2, 0x0
__privileged_functions_start__:
	.long	Image$$ER_IROM_PRIVILEGED$$Base
	.size	__privileged_functions_start__, 4

	.hidden	__privileged_functions_end__    @ @__privileged_functions_end__
	.type	__privileged_functions_end__,%object
	.section	.data.__privileged_functions_end__,"aw",%progbits
	.globl	__privileged_functions_end__
	.p2align	2, 0x0
__privileged_functions_end__:
	.long	Image$$ER_IROM_PRIVILEGED_ALIGN$$Limit-1
	.size	__privileged_functions_end__, 4

	.hidden	__syscalls_flash_start__        @ @__syscalls_flash_start__
	.type	__syscalls_flash_start__,%object
	.section	.data.__syscalls_flash_start__,"aw",%progbits
	.globl	__syscalls_flash_start__
	.p2align	2, 0x0
__syscalls_flash_start__:
	.long	Image$$ER_IROM_FREERTOS_SYSTEM_CALLS$$Base
	.size	__syscalls_flash_start__, 4

	.hidden	__syscalls_flash_end__          @ @__syscalls_flash_end__
	.type	__syscalls_flash_end__,%object
	.section	.data.__syscalls_flash_end__,"aw",%progbits
	.globl	__syscalls_flash_end__
	.p2align	2, 0x0
__syscalls_flash_end__:
	.long	Image$$ER_IROM_FREERTOS_SYSTEM_CALLS_ALIGN$$Limit-1
	.size	__syscalls_flash_end__, 4

	.hidden	__unprivileged_flash_start__    @ @__unprivileged_flash_start__
	.type	__unprivileged_flash_start__,%object
	.section	.data.__unprivileged_flash_start__,"aw",%progbits
	.globl	__unprivileged_flash_start__
	.p2align	2, 0x0
__unprivileged_flash_start__:
	.long	Image$$ER_IROM_UNPRIVILEGED$$Base
	.size	__unprivileged_flash_start__, 4

	.hidden	__unprivileged_flash_end__      @ @__unprivileged_flash_end__
	.type	__unprivileged_flash_end__,%object
	.section	.data.__unprivileged_flash_end__,"aw",%progbits
	.globl	__unprivileged_flash_end__
	.p2align	2, 0x0
__unprivileged_flash_end__:
	.long	Image$$ER_IROM_UNPRIVILEGED_ALIGN$$Limit-1
	.size	__unprivileged_flash_end__, 4

	.hidden	__privileged_sram_start__       @ @__privileged_sram_start__
	.type	__privileged_sram_start__,%object
	.section	.data.__privileged_sram_start__,"aw",%progbits
	.globl	__privileged_sram_start__
	.p2align	2, 0x0
__privileged_sram_start__:
	.long	Image$$ER_IRAM_PRIVILEGED$$Base
	.size	__privileged_sram_start__, 4

	.hidden	__privileged_sram_end__         @ @__privileged_sram_end__
	.type	__privileged_sram_end__,%object
	.section	.data.__privileged_sram_end__,"aw",%progbits
	.globl	__privileged_sram_end__
	.p2align	2, 0x0
__privileged_sram_end__:
	.long	Image$$ER_IRAM_PRIVILEGED_ALIGN$$Limit-1
	.size	__privileged_sram_end__, 4

	.hidden	__unprivileged_sram_start__     @ @__unprivileged_sram_start__
	.type	__unprivileged_sram_start__,%object
	.section	.data.__unprivileged_sram_start__,"aw",%progbits
	.globl	__unprivileged_sram_start__
	.p2align	2, 0x0
__unprivileged_sram_start__:
	.long	Image$$ER_IRAM_UNPRIVILEGED$$Base
	.size	__unprivileged_sram_start__, 4

	.hidden	__unprivileged_sram_end__       @ @__unprivileged_sram_end__
	.type	__unprivileged_sram_end__,%object
	.section	.data.__unprivileged_sram_end__,"aw",%progbits
	.globl	__unprivileged_sram_end__
	.p2align	2, 0x0
__unprivileged_sram_end__:
	.long	Image$$ER_IRAM_UNPRIVILEGED_ALIGN$$Limit-1
	.size	__unprivileged_sram_end__, 4

	.type	.L.str,%object                  @ @.str
	.section	.rodata.str1.1,"aMS",%progbits,1
.L.str:
	.asciz	"\r\n"
	.size	.L.str, 3

	.type	.L.str.1,%object                @ @.str.1
.L.str.1:
	.asciz	"+---------------------------------------------+\r\n"
	.size	.L.str.1, 50

	.type	.L.str.2,%object                @ @.str.2
.L.str.2:
	.asciz	"|          Application is running ...         |\r\n"
	.size	.L.str.2, 50

	.type	vApplicationGetIdleTaskMemory.xIdleTaskTCB,%object @ @vApplicationGetIdleTaskMemory.xIdleTaskTCB
	.section	.bss.vApplicationGetIdleTaskMemory.xIdleTaskTCB,"aw",%nobits
	.p2align	2, 0x0
vApplicationGetIdleTaskMemory.xIdleTaskTCB:
	.zero	220
	.size	vApplicationGetIdleTaskMemory.xIdleTaskTCB, 220

	.type	vApplicationGetIdleTaskMemory.uxIdleTaskStack,%object @ @vApplicationGetIdleTaskMemory.uxIdleTaskStack
	.section	.bss.vApplicationGetIdleTaskMemory.uxIdleTaskStack,"aw",%nobits
	.p2align	5, 0x0
vApplicationGetIdleTaskMemory.uxIdleTaskStack:
	.zero	512
	.size	vApplicationGetIdleTaskMemory.uxIdleTaskStack, 512

	.type	vApplicationGetTimerTaskMemory.xTimerTaskTCB,%object @ @vApplicationGetTimerTaskMemory.xTimerTaskTCB
	.section	.bss.vApplicationGetTimerTaskMemory.xTimerTaskTCB,"aw",%nobits
	.p2align	2, 0x0
vApplicationGetTimerTaskMemory.xTimerTaskTCB:
	.zero	220
	.size	vApplicationGetTimerTaskMemory.xTimerTaskTCB, 220

	.type	vApplicationGetTimerTaskMemory.uxTimerTaskStack,%object @ @vApplicationGetTimerTaskMemory.uxTimerTaskStack
	.section	.bss.vApplicationGetTimerTaskMemory.uxTimerTaskStack,"aw",%nobits
	.p2align	5, 0x0
vApplicationGetTimerTaskMemory.uxTimerTaskStack:
	.zero	512
	.size	vApplicationGetTimerTaskMemory.uxTimerTaskStack, 512

	.type	__ARM_use_no_argv,%object       @ @__ARM_use_no_argv
	.section	.ARM.use_no_argv,"awR",%progbits,unique,1
	.globl	__ARM_use_no_argv
	.p2align	2, 0x0
__ARM_use_no_argv:
	.long	1                               @ 0x1
	.size	__ARM_use_no_argv, 4

	.file	9 "C:\\Users\\karahulx\\Downloads\\Kernel\\FreeRTOS\\FreeRTOS\\Demo\\CORTEX_MPU_M23_Nuvoton_NuMaker_PFM_M2351_IAR_GCC\\Projects_NTZ\\Keil" "../../../../Source/include\\task.h"
	.section	".note.GNU-stack","",%progbits
	.eabi_attribute	30, 6	@ Tag_ABI_optimization_goals
	.ARM_attribute	16, 1	@ Tag_AV_eba