	.text
	.syntax unified
	.eabi_attribute	67, "2.09"	@ Tag_conformance
	.eabi_attribute	6, 16	@ Tag_CPU_arch
	.eabi_attribute	7, 77	@ Tag_CPU_arch_profile
	.eabi_attribute	8, 0	@ Tag_ARM_ISA_use
	.eabi_attribute	9, 3	@ Tag_THUMB_ISA_use
	.eabi_attribute	34, 0	@ Tag_CPU_unaligned_access
	.eabi_attribute	17, 1	@ Tag_ABI_PCS_GOT_use
	.eabi_attribute	20, 2	@ Tag_ABI_FP_denormal
	.eabi_attribute	21, 0	@ Tag_ABI_FP_exceptions
	.eabi_attribute	23, 1	@ Tag_ABI_FP_number_model
	.eabi_attribute	24, 1	@ Tag_ABI_align_needed
	.eabi_attribute	25, 1	@ Tag_ABI_align_preserved
	.eabi_attribute	38, 1	@ Tag_ABI_FP_16bit_format
	.eabi_attribute	18, 4	@ Tag_ABI_PCS_wchar_t
	.eabi_attribute	26, 2	@ Tag_ABI_enum_size
	.eabi_attribute	14, 0	@ Tag_ABI_PCS_R9_use
	.file	"MessageBufferDemo.c"
	.file	1 "C:\\Keil_v5\\ARM\\ARMCLANG\\Bin\\..\\include" "stdint.h"
	.file	2 "C:\\Users\\karahulx\\Downloads\\Kernel\\FreeRTOS\\FreeRTOS\\Demo\\CORTEX_MPU_M23_Nuvoton_NuMaker_PFM_M2351_IAR_GCC\\Projects_NTZ\\Keil" "../../../../Source/portable/GCC/ARM_CM23_NTZ/non_secure/portmacrocommon.h"
	.file	3 "C:\\Users\\karahulx\\Downloads\\Kernel\\FreeRTOS\\FreeRTOS\\Demo\\CORTEX_MPU_M23_Nuvoton_NuMaker_PFM_M2351_IAR_GCC\\Projects_NTZ\\Keil" "../../../CORTEX_MPU_M3_NUCLEO_L152RE_GCC/Demo/MessageBufferDemo.c"
	.file	4 "C:\\Keil_v5\\ARM\\ARMCLANG\\Bin\\..\\include" "stdio.h"
	.file	5 "C:\\Users\\karahulx\\Downloads\\Kernel\\FreeRTOS\\FreeRTOS\\Demo\\CORTEX_MPU_M23_Nuvoton_NuMaker_PFM_M2351_IAR_GCC\\Projects_NTZ\\Keil" "../../../../Source/include\\FreeRTOS.h"
	.file	6 "C:\\Users\\karahulx\\Downloads\\Kernel\\FreeRTOS\\FreeRTOS\\Demo\\CORTEX_MPU_M23_Nuvoton_NuMaker_PFM_M2351_IAR_GCC\\Projects_NTZ\\Keil" "../../../../Source/include/stream_buffer.h"
	.file	7 "C:\\Users\\karahulx\\Downloads\\Kernel\\FreeRTOS\\FreeRTOS\\Demo\\CORTEX_MPU_M23_Nuvoton_NuMaker_PFM_M2351_IAR_GCC\\Projects_NTZ\\Keil" "../../../../Source/include\\message_buffer.h"
	.file	8 "C:\\Users\\karahulx\\Downloads\\Kernel\\FreeRTOS\\FreeRTOS\\Demo\\CORTEX_MPU_M23_Nuvoton_NuMaker_PFM_M2351_IAR_GCC\\Projects_NTZ\\Keil" "../../../../Source/include\\task.h"
	.section	.text.vStartMessageBufferTasks,"ax",%progbits
	.hidden	vStartMessageBufferTasks        @ -- Begin function vStartMessageBufferTasks
	.globl	vStartMessageBufferTasks
	.p2align	1
	.type	vStartMessageBufferTasks,%function
	.code	16                              @ @vStartMessageBufferTasks
	.thumb_func
vStartMessageBufferTasks:
.Lfunc_begin0:
	.loc	3 156 0                         @ ../../../CORTEX_MPU_M3_NUCLEO_L152RE_GCC/Demo/MessageBufferDemo.c:156:0
	.fnstart
	.cfi_sections .debug_frame
	.cfi_startproc
@ %bb.0:
	.save	{r4, r5, r6, r7, lr}
	push	{r4, r5, r6, r7, lr}
	.cfi_def_cfa_offset 20
	.cfi_offset lr, -4
	.cfi_offset r7, -8
	.cfi_offset r6, -12
	.cfi_offset r5, -16
	.cfi_offset r4, -20
	.pad	#508
	sub	sp, #508
	.pad	#376
	sub	sp, #376
	.cfi_def_cfa_offset 904
                                        @ kill: def $r1 killed $r0
	add	r1, sp, #880
	strh	r0, [r1]
.Ltmp0:
	.loc	3 165 22 prologue_end           @ ../../../CORTEX_MPU_M3_NUCLEO_L152RE_GCC/Demo/MessageBufferDemo.c:165:22
	movw	r1, :lower16:.L__const.vStartMessageBufferTasks.xEchoServerTask1Parameters
	movt	r1, :upper16:.L__const.vStartMessageBufferTasks.xEchoServerTask1Parameters
	add	r0, sp, #812
	ldm	r1!, {r2, r3, r4, r5}
	stm	r0!, {r2, r3, r4, r5}
	ldm	r1!, {r2, r3, r4, r5}
	stm	r0!, {r2, r3, r4, r5}
	ldm	r1!, {r2, r3, r4, r5}
	stm	r0!, {r2, r3, r4, r5}
	ldm	r1!, {r2, r3, r4, r5}
	stm	r0!, {r2, r3, r4, r5}
	.loc	3 187 22                        @ ../../../CORTEX_MPU_M3_NUCLEO_L152RE_GCC/Demo/MessageBufferDemo.c:187:22
	movw	r1, :lower16:.L__const.vStartMessageBufferTasks.xEchoServerTask2Parameters
	movt	r1, :upper16:.L__const.vStartMessageBufferTasks.xEchoServerTask2Parameters
	add	r0, sp, #748
	ldm	r1!, {r2, r3, r4, r5}
	stm	r0!, {r2, r3, r4, r5}
	ldm	r1!, {r2, r3, r4, r5}
	stm	r0!, {r2, r3, r4, r5}
	ldm	r1!, {r2, r3, r4, r5}
	stm	r0!, {r2, r3, r4, r5}
	ldm	r1!, {r2, r3, r4, r5}
	stm	r0!, {r2, r3, r4, r5}
	.loc	3 208 22                        @ ../../../CORTEX_MPU_M3_NUCLEO_L152RE_GCC/Demo/MessageBufferDemo.c:208:22
	movw	r1, :lower16:.L__const.vStartMessageBufferTasks.xNonBlockingReceiverTaskParameters
	movt	r1, :upper16:.L__const.vStartMessageBufferTasks.xNonBlockingReceiverTaskParameters
	add	r0, sp, #684
	ldm	r1!, {r2, r3, r4, r5}
	stm	r0!, {r2, r3, r4, r5}
	ldm	r1!, {r2, r3, r4, r5}
	stm	r0!, {r2, r3, r4, r5}
	ldm	r1!, {r2, r3, r4, r5}
	stm	r0!, {r2, r3, r4, r5}
	ldm	r1!, {r2, r3, r4, r5}
	stm	r0!, {r2, r3, r4, r5}
	.loc	3 225 22                        @ ../../../CORTEX_MPU_M3_NUCLEO_L152RE_GCC/Demo/MessageBufferDemo.c:225:22
	movw	r1, :lower16:.L__const.vStartMessageBufferTasks.xNonBlockingSenderTaskParameters
	movt	r1, :upper16:.L__const.vStartMessageBufferTasks.xNonBlockingSenderTaskParameters
	add	r0, sp, #620
	ldm	r1!, {r2, r3, r4, r5}
	stm	r0!, {r2, r3, r4, r5}
	ldm	r1!, {r2, r3, r4, r5}
	stm	r0!, {r2, r3, r4, r5}
	ldm	r1!, {r2, r3, r4, r5}
	stm	r0!, {r2, r3, r4, r5}
	ldm	r1!, {r2, r3, r4, r5}
	stm	r0!, {r2, r3, r4, r5}
	.loc	3 240 22                        @ ../../../CORTEX_MPU_M3_NUCLEO_L152RE_GCC/Demo/MessageBufferDemo.c:240:22
	movw	r1, :lower16:.L__const.vStartMessageBufferTasks.xEchoClientTask1Parameters
	movt	r1, :upper16:.L__const.vStartMessageBufferTasks.xEchoClientTask1Parameters
	add	r0, sp, #556
	ldm	r1!, {r2, r3, r4, r5}
	stm	r0!, {r2, r3, r4, r5}
	ldm	r1!, {r2, r3, r4, r5}
	stm	r0!, {r2, r3, r4, r5}
	ldm	r1!, {r2, r3, r4, r5}
	stm	r0!, {r2, r3, r4, r5}
	ldm	r1!, {r2, r3, r4, r5}
	stm	r0!, {r2, r3, r4, r5}
	.loc	3 259 22                        @ ../../../CORTEX_MPU_M3_NUCLEO_L152RE_GCC/Demo/MessageBufferDemo.c:259:22
	movw	r1, :lower16:.L__const.vStartMessageBufferTasks.xEchoClientTask2Parameters
	movt	r1, :upper16:.L__const.vStartMessageBufferTasks.xEchoClientTask2Parameters
	add	r0, sp, #492
	ldm	r1!, {r2, r3, r4, r5}
	stm	r0!, {r2, r3, r4, r5}
	ldm	r1!, {r2, r3, r4, r5}
	stm	r0!, {r2, r3, r4, r5}
	ldm	r1!, {r2, r3, r4, r5}
	stm	r0!, {r2, r3, r4, r5}
	ldm	r1!, {r2, r3, r4, r5}
	stm	r0!, {r2, r3, r4, r5}
	.loc	3 281 5                         @ ../../../CORTEX_MPU_M3_NUCLEO_L152RE_GCC/Demo/MessageBufferDemo.c:281:5
	movw	r0, :lower16:pc55ByteString
	movt	r0, :upper16:pc55ByteString
	movw	r1, :lower16:.L.str.5
	movt	r1, :upper16:.L.str.5
	bl	sprintf
	movs	r3, #0
	.loc	3 286 80                        @ ../../../CORTEX_MPU_M3_NUCLEO_L152RE_GCC/Demo/MessageBufferDemo.c:286:80
	str	r3, [sp, #84]                   @ 4-byte Spill
	str	r3, [sp]
	movs	r0, #50
	str	r0, [sp, #88]                   @ 4-byte Spill
	movs	r2, #1
	str	r2, [sp, #80]                   @ 4-byte Spill
	mov	r1, r3
	bl	MPU_xStreamBufferGenericCreate
	ldr	r2, [sp, #80]                   @ 4-byte Reload
	ldr	r3, [sp, #84]                   @ 4-byte Reload
	mov	r1, r0
	.loc	3 286 78 is_stmt 0              @ ../../../CORTEX_MPU_M3_NUCLEO_L152RE_GCC/Demo/MessageBufferDemo.c:286:78
	ldr	r0, [sp, #88]                   @ 4-byte Reload
	movw	r4, :lower16:xEchoMessageBuffersArray
	movt	r4, :upper16:xEchoMessageBuffersArray
	str	r4, [sp, #92]                   @ 4-byte Spill
	str	r1, [r4]
	.loc	3 287 80 is_stmt 1              @ ../../../CORTEX_MPU_M3_NUCLEO_L152RE_GCC/Demo/MessageBufferDemo.c:287:80
	str	r3, [sp]
	mov	r1, r3
	bl	MPU_xStreamBufferGenericCreate
	mov	r1, r0
	.loc	3 287 78 is_stmt 0              @ ../../../CORTEX_MPU_M3_NUCLEO_L152RE_GCC/Demo/MessageBufferDemo.c:287:78
	ldr	r0, [sp, #92]                   @ 4-byte Reload
	str	r1, [r0, #4]
.Ltmp1:
	.loc	3 288 5 is_stmt 1               @ ../../../CORTEX_MPU_M3_NUCLEO_L152RE_GCC/Demo/MessageBufferDemo.c:288:5
	ldr	r0, [r0]
.Ltmp2:
	.loc	3 288 5 is_stmt 0               @ ../../../CORTEX_MPU_M3_NUCLEO_L152RE_GCC/Demo/MessageBufferDemo.c:288:5
	cbnz	r0, .LBB0_3
	b	.LBB0_1
.LBB0_1:
.Ltmp3:
	.loc	3 288 5                         @ ../../../CORTEX_MPU_M3_NUCLEO_L152RE_GCC/Demo/MessageBufferDemo.c:288:5
	@APP
	cpsid i
	@NO_APP
	b	.LBB0_2
.LBB0_2:                                @ =>This Inner Loop Header: Depth=1
.Ltmp4:
	.loc	3 288 5                         @ ../../../CORTEX_MPU_M3_NUCLEO_L152RE_GCC/Demo/MessageBufferDemo.c:288:5
	b	.LBB0_2
.Ltmp5:
.LBB0_3:
	.loc	3 289 5 is_stmt 1               @ ../../../CORTEX_MPU_M3_NUCLEO_L152RE_GCC/Demo/MessageBufferDemo.c:289:5
	movw	r0, :lower16:xEchoMessageBuffersArray
	movt	r0, :upper16:xEchoMessageBuffersArray
	ldr	r0, [r0, #4]
.Ltmp6:
	.loc	3 289 5 is_stmt 0               @ ../../../CORTEX_MPU_M3_NUCLEO_L152RE_GCC/Demo/MessageBufferDemo.c:289:5
	cbnz	r0, .LBB0_6
	b	.LBB0_4
.LBB0_4:
.Ltmp7:
	.loc	3 289 5                         @ ../../../CORTEX_MPU_M3_NUCLEO_L152RE_GCC/Demo/MessageBufferDemo.c:289:5
	@APP
	cpsid i
	@NO_APP
	b	.LBB0_5
.LBB0_5:                                @ =>This Inner Loop Header: Depth=1
.Ltmp8:
	.loc	3 289 5                         @ ../../../CORTEX_MPU_M3_NUCLEO_L152RE_GCC/Demo/MessageBufferDemo.c:289:5
	b	.LBB0_5
.Ltmp9:
.LBB0_6:
	.loc	3 0 5                           @ ../../../CORTEX_MPU_M3_NUCLEO_L152RE_GCC/Demo/MessageBufferDemo.c:0:5
	movs	r3, #0
	.loc	3 291 80 is_stmt 1              @ ../../../CORTEX_MPU_M3_NUCLEO_L152RE_GCC/Demo/MessageBufferDemo.c:291:80
	str	r3, [sp, #68]                   @ 4-byte Spill
	str	r3, [sp]
	movs	r0, #50
	str	r0, [sp, #72]                   @ 4-byte Spill
	movs	r2, #1
	str	r2, [sp, #64]                   @ 4-byte Spill
	mov	r1, r3
	bl	MPU_xStreamBufferGenericCreate
	ldr	r2, [sp, #64]                   @ 4-byte Reload
	ldr	r3, [sp, #68]                   @ 4-byte Reload
	mov	r1, r0
	.loc	3 291 78 is_stmt 0              @ ../../../CORTEX_MPU_M3_NUCLEO_L152RE_GCC/Demo/MessageBufferDemo.c:291:78
	ldr	r0, [sp, #72]                   @ 4-byte Reload
	movw	r4, :lower16:xEchoMessageBuffersArray
	movt	r4, :upper16:xEchoMessageBuffersArray
	str	r4, [sp, #76]                   @ 4-byte Spill
	str	r1, [r4, #8]
	.loc	3 292 80 is_stmt 1              @ ../../../CORTEX_MPU_M3_NUCLEO_L152RE_GCC/Demo/MessageBufferDemo.c:292:80
	str	r3, [sp]
	mov	r1, r3
	bl	MPU_xStreamBufferGenericCreate
	mov	r1, r0
	.loc	3 292 78 is_stmt 0              @ ../../../CORTEX_MPU_M3_NUCLEO_L152RE_GCC/Demo/MessageBufferDemo.c:292:78
	ldr	r0, [sp, #76]                   @ 4-byte Reload
	str	r1, [r0, #12]
.Ltmp10:
	.loc	3 293 5 is_stmt 1               @ ../../../CORTEX_MPU_M3_NUCLEO_L152RE_GCC/Demo/MessageBufferDemo.c:293:5
	ldr	r0, [r0, #8]
.Ltmp11:
	.loc	3 293 5 is_stmt 0               @ ../../../CORTEX_MPU_M3_NUCLEO_L152RE_GCC/Demo/MessageBufferDemo.c:293:5
	cbnz	r0, .LBB0_9
	b	.LBB0_7
.LBB0_7:
.Ltmp12:
	.loc	3 293 5                         @ ../../../CORTEX_MPU_M3_NUCLEO_L152RE_GCC/Demo/MessageBufferDemo.c:293:5
	@APP
	cpsid i
	@NO_APP
	b	.LBB0_8
.LBB0_8:                                @ =>This Inner Loop Header: Depth=1
.Ltmp13:
	.loc	3 293 5                         @ ../../../CORTEX_MPU_M3_NUCLEO_L152RE_GCC/Demo/MessageBufferDemo.c:293:5
	b	.LBB0_8
.Ltmp14:
.LBB0_9:
	.loc	3 294 5 is_stmt 1               @ ../../../CORTEX_MPU_M3_NUCLEO_L152RE_GCC/Demo/MessageBufferDemo.c:294:5
	movw	r0, :lower16:xEchoMessageBuffersArray
	movt	r0, :upper16:xEchoMessageBuffersArray
	ldr	r0, [r0, #12]
.Ltmp15:
	.loc	3 294 5 is_stmt 0               @ ../../../CORTEX_MPU_M3_NUCLEO_L152RE_GCC/Demo/MessageBufferDemo.c:294:5
	cbnz	r0, .LBB0_12
	b	.LBB0_10
.LBB0_10:
.Ltmp16:
	.loc	3 294 5                         @ ../../../CORTEX_MPU_M3_NUCLEO_L152RE_GCC/Demo/MessageBufferDemo.c:294:5
	@APP
	cpsid i
	@NO_APP
	b	.LBB0_11
.LBB0_11:                               @ =>This Inner Loop Header: Depth=1
.Ltmp17:
	.loc	3 294 5                         @ ../../../CORTEX_MPU_M3_NUCLEO_L152RE_GCC/Demo/MessageBufferDemo.c:294:5
	b	.LBB0_11
.Ltmp18:
.LBB0_12:
	.loc	3 299 45 is_stmt 1              @ ../../../CORTEX_MPU_M3_NUCLEO_L152RE_GCC/Demo/MessageBufferDemo.c:299:45
	movw	r0, :lower16:xEchoMessageBuffersArray
	movt	r0, :upper16:xEchoMessageBuffersArray
	str	r0, [sp, #16]                   @ 4-byte Spill
	str	r0, [sp, #824]
	.loc	3 300 45                        @ ../../../CORTEX_MPU_M3_NUCLEO_L152RE_GCC/Demo/MessageBufferDemo.c:300:45
	adds	r0, #8
	str	r0, [sp, #20]                   @ 4-byte Spill
	str	r0, [sp, #760]
	add	r0, sp, #812
	movs	r1, #0
	.loc	3 301 5                         @ ../../../CORTEX_MPU_M3_NUCLEO_L152RE_GCC/Demo/MessageBufferDemo.c:301:5
	str	r1, [sp, #60]                   @ 4-byte Spill
	bl	xTaskCreateRestricted
	ldr	r1, [sp, #60]                   @ 4-byte Reload
	add	r0, sp, #748
	.loc	3 302 5                         @ ../../../CORTEX_MPU_M3_NUCLEO_L152RE_GCC/Demo/MessageBufferDemo.c:302:5
	bl	xTaskCreateRestricted
	ldr	r3, [sp, #60]                   @ 4-byte Reload
	.loc	3 307 22                        @ ../../../CORTEX_MPU_M3_NUCLEO_L152RE_GCC/Demo/MessageBufferDemo.c:307:22
	str	r3, [sp]
	movs	r0, #50
	movs	r2, #1
	str	r2, [sp, #56]                   @ 4-byte Spill
	mov	r1, r3
	bl	MPU_xStreamBufferGenericCreate
	ldr	r1, [sp, #60]                   @ 4-byte Reload
	.loc	3 307 20 is_stmt 0              @ ../../../CORTEX_MPU_M3_NUCLEO_L152RE_GCC/Demo/MessageBufferDemo.c:307:20
	str	r0, [sp, #876]
	.loc	3 308 66 is_stmt 1              @ ../../../CORTEX_MPU_M3_NUCLEO_L152RE_GCC/Demo/MessageBufferDemo.c:308:66
	ldr	r0, [sp, #876]
	.loc	3 308 53 is_stmt 0              @ ../../../CORTEX_MPU_M3_NUCLEO_L152RE_GCC/Demo/MessageBufferDemo.c:308:53
	str	r0, [sp, #696]
	.loc	3 309 64 is_stmt 1              @ ../../../CORTEX_MPU_M3_NUCLEO_L152RE_GCC/Demo/MessageBufferDemo.c:309:64
	ldr	r0, [sp, #876]
	.loc	3 309 51 is_stmt 0              @ ../../../CORTEX_MPU_M3_NUCLEO_L152RE_GCC/Demo/MessageBufferDemo.c:309:51
	str	r0, [sp, #632]
	add	r0, sp, #684
	.loc	3 310 5 is_stmt 1               @ ../../../CORTEX_MPU_M3_NUCLEO_L152RE_GCC/Demo/MessageBufferDemo.c:310:5
	bl	xTaskCreateRestricted
	ldr	r1, [sp, #60]                   @ 4-byte Reload
	add	r0, sp, #620
	.loc	3 311 5                         @ ../../../CORTEX_MPU_M3_NUCLEO_L152RE_GCC/Demo/MessageBufferDemo.c:311:5
	bl	xTaskCreateRestricted
	ldr	r1, [sp, #16]                   @ 4-byte Reload
                                        @ kill: def $r2 killed $r0
	.loc	3 314 45                        @ ../../../CORTEX_MPU_M3_NUCLEO_L152RE_GCC/Demo/MessageBufferDemo.c:314:45
	ldr	r0, [sp, #20]                   @ 4-byte Reload
	str	r1, [sp, #568]
	.loc	3 315 45                        @ ../../../CORTEX_MPU_M3_NUCLEO_L152RE_GCC/Demo/MessageBufferDemo.c:315:45
	str	r0, [sp, #504]
	.loc	3 316 5                         @ ../../../CORTEX_MPU_M3_NUCLEO_L152RE_GCC/Demo/MessageBufferDemo.c:316:5
	movw	r1, :lower16:xEchoClientTaskHandles
	movt	r1, :upper16:xEchoClientTaskHandles
	str	r1, [sp, #24]                   @ 4-byte Spill
	add	r0, sp, #556
	bl	xTaskCreateRestricted
                                        @ kill: def $r1 killed $r0
	.loc	3 317 5                         @ ../../../CORTEX_MPU_M3_NUCLEO_L152RE_GCC/Demo/MessageBufferDemo.c:317:5
	ldr	r0, [sp, #24]                   @ 4-byte Reload
	adds	r1, r0, #4
	add	r0, sp, #492
	bl	xTaskCreateRestricted
                                        @ kill: def $r1 killed $r0
	.loc	3 318 19                        @ ../../../CORTEX_MPU_M3_NUCLEO_L152RE_GCC/Demo/MessageBufferDemo.c:318:19
	ldr	r0, [sp, #24]                   @ 4-byte Reload
	ldr	r0, [r0]
	.loc	3 318 5 is_stmt 0               @ ../../../CORTEX_MPU_M3_NUCLEO_L152RE_GCC/Demo/MessageBufferDemo.c:318:5
	bl	MPU_vTaskSuspend
	ldr	r0, [sp, #24]                   @ 4-byte Reload
	.loc	3 319 19 is_stmt 1              @ ../../../CORTEX_MPU_M3_NUCLEO_L152RE_GCC/Demo/MessageBufferDemo.c:319:19
	ldr	r0, [r0, #4]
	.loc	3 319 5 is_stmt 0               @ ../../../CORTEX_MPU_M3_NUCLEO_L152RE_GCC/Demo/MessageBufferDemo.c:319:5
	bl	MPU_vTaskSuspend
	ldr	r2, [sp, #56]                   @ 4-byte Reload
	ldr	r1, [sp, #60]                   @ 4-byte Reload
.Ltmp19:
	.loc	3 328 26 is_stmt 1              @ ../../../CORTEX_MPU_M3_NUCLEO_L152RE_GCC/Demo/MessageBufferDemo.c:328:26
	movw	r3, :lower16:.L__const.vStartMessageBufferTasks.xSenderTask1Parameters
	movt	r3, :upper16:.L__const.vStartMessageBufferTasks.xSenderTask1Parameters
	add	r0, sp, #420
	str	r0, [sp, #36]                   @ 4-byte Spill
	ldm	r3!, {r4, r5, r6, r7}
	stm	r0!, {r4, r5, r6, r7}
	ldm	r3!, {r4, r5, r6, r7}
	stm	r0!, {r4, r5, r6, r7}
	ldm	r3!, {r4, r5, r6, r7}
	stm	r0!, {r4, r5, r6, r7}
	ldm	r3!, {r4, r5, r6, r7}
	stm	r0!, {r4, r5, r6, r7}
	.loc	3 348 26                        @ ../../../CORTEX_MPU_M3_NUCLEO_L152RE_GCC/Demo/MessageBufferDemo.c:348:26
	movw	r3, :lower16:.L__const.vStartMessageBufferTasks.xSenderTask2Parameters
	movt	r3, :upper16:.L__const.vStartMessageBufferTasks.xSenderTask2Parameters
	add	r0, sp, #356
	str	r0, [sp, #40]                   @ 4-byte Spill
	ldm	r3!, {r4, r5, r6, r7}
	stm	r0!, {r4, r5, r6, r7}
	ldm	r3!, {r4, r5, r6, r7}
	stm	r0!, {r4, r5, r6, r7}
	ldm	r3!, {r4, r5, r6, r7}
	stm	r0!, {r4, r5, r6, r7}
	ldm	r3!, {r4, r5, r6, r7}
	stm	r0!, {r4, r5, r6, r7}
	.loc	3 369 26                        @ ../../../CORTEX_MPU_M3_NUCLEO_L152RE_GCC/Demo/MessageBufferDemo.c:369:26
	movw	r3, :lower16:.L__const.vStartMessageBufferTasks.xReceivingTask1Parameters
	movt	r3, :upper16:.L__const.vStartMessageBufferTasks.xReceivingTask1Parameters
	add	r0, sp, #292
	str	r0, [sp, #44]                   @ 4-byte Spill
	ldm	r3!, {r4, r5, r6, r7}
	stm	r0!, {r4, r5, r6, r7}
	ldm	r3!, {r4, r5, r6, r7}
	stm	r0!, {r4, r5, r6, r7}
	ldm	r3!, {r4, r5, r6, r7}
	stm	r0!, {r4, r5, r6, r7}
	ldm	r3!, {r4, r5, r6, r7}
	stm	r0!, {r4, r5, r6, r7}
	.loc	3 383 26                        @ ../../../CORTEX_MPU_M3_NUCLEO_L152RE_GCC/Demo/MessageBufferDemo.c:383:26
	movw	r3, :lower16:.L__const.vStartMessageBufferTasks.xReceivingTask2Parameters
	movt	r3, :upper16:.L__const.vStartMessageBufferTasks.xReceivingTask2Parameters
	add	r0, sp, #228
	str	r0, [sp, #48]                   @ 4-byte Spill
	ldm	r3!, {r4, r5, r6, r7}
	stm	r0!, {r4, r5, r6, r7}
	ldm	r3!, {r4, r5, r6, r7}
	stm	r0!, {r4, r5, r6, r7}
	ldm	r3!, {r4, r5, r6, r7}
	stm	r0!, {r4, r5, r6, r7}
	ldm	r3!, {r4, r5, r6, r7}
	stm	r0!, {r4, r5, r6, r7}
	.loc	3 398 41                        @ ../../../CORTEX_MPU_M3_NUCLEO_L152RE_GCC/Demo/MessageBufferDemo.c:398:41
	str	r1, [sp, #8]
	str	r1, [sp, #4]
	movw	r4, :lower16:xStaticMessageBuffers
	movt	r4, :upper16:xStaticMessageBuffers
	mov	r0, r4
	adds	r0, #36
	str	r0, [sp]
	movw	r3, :lower16:ucBufferStorage
	movt	r3, :upper16:ucBufferStorage
	str	r3, [sp, #28]                   @ 4-byte Spill
	adds	r3, #51
	movs	r0, #51
	str	r0, [sp, #32]                   @ 4-byte Spill
	bl	MPU_xStreamBufferGenericCreateStatic
	ldr	r3, [sp, #28]                   @ 4-byte Reload
	ldr	r2, [sp, #56]                   @ 4-byte Reload
	ldr	r1, [sp, #60]                   @ 4-byte Reload
	mov	r5, r0
	.loc	3 398 39 is_stmt 0              @ ../../../CORTEX_MPU_M3_NUCLEO_L152RE_GCC/Demo/MessageBufferDemo.c:398:39
	ldr	r0, [sp, #32]                   @ 4-byte Reload
	str	r5, [sp, #488]
	.loc	3 401 41 is_stmt 1              @ ../../../CORTEX_MPU_M3_NUCLEO_L152RE_GCC/Demo/MessageBufferDemo.c:401:41
	str	r1, [sp, #8]
	str	r1, [sp, #4]
	str	r4, [sp]
	bl	MPU_xStreamBufferGenericCreateStatic
	ldr	r1, [sp, #60]                   @ 4-byte Reload
	mov	r2, r0
	.loc	3 401 39 is_stmt 0              @ ../../../CORTEX_MPU_M3_NUCLEO_L152RE_GCC/Demo/MessageBufferDemo.c:401:39
	ldr	r0, [sp, #36]                   @ 4-byte Reload
	str	r2, [sp, #484]
	.loc	3 409 58 is_stmt 1              @ ../../../CORTEX_MPU_M3_NUCLEO_L152RE_GCC/Demo/MessageBufferDemo.c:409:58
	ldr	r2, [sp, #488]
	.loc	3 409 45 is_stmt 0              @ ../../../CORTEX_MPU_M3_NUCLEO_L152RE_GCC/Demo/MessageBufferDemo.c:409:45
	str	r2, [sp, #432]
	.loc	3 410 58 is_stmt 1              @ ../../../CORTEX_MPU_M3_NUCLEO_L152RE_GCC/Demo/MessageBufferDemo.c:410:58
	ldr	r2, [sp, #484]
	.loc	3 410 45 is_stmt 0              @ ../../../CORTEX_MPU_M3_NUCLEO_L152RE_GCC/Demo/MessageBufferDemo.c:410:45
	str	r2, [sp, #368]
	.loc	3 411 9 is_stmt 1               @ ../../../CORTEX_MPU_M3_NUCLEO_L152RE_GCC/Demo/MessageBufferDemo.c:411:9
	bl	xTaskCreateRestricted
	ldr	r1, [sp, #60]                   @ 4-byte Reload
                                        @ kill: def $r2 killed $r0
	.loc	3 412 9                         @ ../../../CORTEX_MPU_M3_NUCLEO_L152RE_GCC/Demo/MessageBufferDemo.c:412:9
	ldr	r0, [sp, #40]                   @ 4-byte Reload
	bl	xTaskCreateRestricted
                                        @ kill: def $r1 killed $r0
	.loc	3 414 61                        @ ../../../CORTEX_MPU_M3_NUCLEO_L152RE_GCC/Demo/MessageBufferDemo.c:414:61
	ldr	r0, [sp, #44]                   @ 4-byte Reload
	ldr	r1, [sp, #488]
	.loc	3 414 48 is_stmt 0              @ ../../../CORTEX_MPU_M3_NUCLEO_L152RE_GCC/Demo/MessageBufferDemo.c:414:48
	str	r1, [sp, #304]
	.loc	3 415 61 is_stmt 1              @ ../../../CORTEX_MPU_M3_NUCLEO_L152RE_GCC/Demo/MessageBufferDemo.c:415:61
	ldr	r1, [sp, #484]
	.loc	3 415 48 is_stmt 0              @ ../../../CORTEX_MPU_M3_NUCLEO_L152RE_GCC/Demo/MessageBufferDemo.c:415:48
	str	r1, [sp, #240]
	.loc	3 416 9 is_stmt 1               @ ../../../CORTEX_MPU_M3_NUCLEO_L152RE_GCC/Demo/MessageBufferDemo.c:416:9
	movw	r1, :lower16:xReceiverTaskHandles
	movt	r1, :upper16:xReceiverTaskHandles
	str	r1, [sp, #52]                   @ 4-byte Spill
	bl	xTaskCreateRestricted
	ldr	r1, [sp, #52]                   @ 4-byte Reload
                                        @ kill: def $r2 killed $r0
	.loc	3 417 9                         @ ../../../CORTEX_MPU_M3_NUCLEO_L152RE_GCC/Demo/MessageBufferDemo.c:417:9
	ldr	r0, [sp, #48]                   @ 4-byte Reload
	adds	r1, r1, #4
	bl	xTaskCreateRestricted
                                        @ kill: def $r1 killed $r0
	.loc	3 419 23                        @ ../../../CORTEX_MPU_M3_NUCLEO_L152RE_GCC/Demo/MessageBufferDemo.c:419:23
	ldr	r0, [sp, #52]                   @ 4-byte Reload
	ldr	r0, [r0]
	.loc	3 419 9 is_stmt 0               @ ../../../CORTEX_MPU_M3_NUCLEO_L152RE_GCC/Demo/MessageBufferDemo.c:419:9
	bl	MPU_vTaskSuspend
	ldr	r0, [sp, #52]                   @ 4-byte Reload
	.loc	3 420 23 is_stmt 1              @ ../../../CORTEX_MPU_M3_NUCLEO_L152RE_GCC/Demo/MessageBufferDemo.c:420:23
	ldr	r0, [r0, #4]
	.loc	3 420 9 is_stmt 0               @ ../../../CORTEX_MPU_M3_NUCLEO_L152RE_GCC/Demo/MessageBufferDemo.c:420:9
	bl	MPU_vTaskSuspend
	ldr	r2, [sp, #56]                   @ 4-byte Reload
	ldr	r3, [sp, #60]                   @ 4-byte Reload
.Ltmp20:
	.loc	3 429 26 is_stmt 1              @ ../../../CORTEX_MPU_M3_NUCLEO_L152RE_GCC/Demo/MessageBufferDemo.c:429:26
	movw	r1, :lower16:.L__const.vStartMessageBufferTasks.xCoherenceActorTaskParameters
	movt	r1, :upper16:.L__const.vStartMessageBufferTasks.xCoherenceActorTaskParameters
	add	r0, sp, #164
	ldm	r1!, {r4, r5, r6, r7}
	stm	r0!, {r4, r5, r6, r7}
	ldm	r1!, {r4, r5, r6, r7}
	stm	r0!, {r4, r5, r6, r7}
	ldm	r1!, {r4, r5, r6, r7}
	stm	r0!, {r4, r5, r6, r7}
	ldm	r1!, {r4, r5, r6, r7}
	stm	r0!, {r4, r5, r6, r7}
	.loc	3 443 26                        @ ../../../CORTEX_MPU_M3_NUCLEO_L152RE_GCC/Demo/MessageBufferDemo.c:443:26
	movw	r1, :lower16:.L__const.vStartMessageBufferTasks.xCoherenceTesterTaskParameters
	movt	r1, :upper16:.L__const.vStartMessageBufferTasks.xCoherenceTesterTaskParameters
	add	r0, sp, #100
	ldm	r1!, {r4, r5, r6, r7}
	stm	r0!, {r4, r5, r6, r7}
	ldm	r1!, {r4, r5, r6, r7}
	stm	r0!, {r4, r5, r6, r7}
	ldm	r1!, {r4, r5, r6, r7}
	stm	r0!, {r4, r5, r6, r7}
	ldm	r1!, {r4, r5, r6, r7}
	stm	r0!, {r4, r5, r6, r7}
	.loc	3 460 61                        @ ../../../CORTEX_MPU_M3_NUCLEO_L152RE_GCC/Demo/MessageBufferDemo.c:460:61
	str	r3, [sp]
	movs	r0, #20
	mov	r1, r3
	bl	MPU_xStreamBufferGenericCreate
	.loc	3 460 31 is_stmt 0              @ ../../../CORTEX_MPU_M3_NUCLEO_L152RE_GCC/Demo/MessageBufferDemo.c:460:31
	str	r0, [sp, #96]
.Ltmp21:
	.loc	3 461 9 is_stmt 1               @ ../../../CORTEX_MPU_M3_NUCLEO_L152RE_GCC/Demo/MessageBufferDemo.c:461:9
	ldr	r0, [sp, #96]
.Ltmp22:
	.loc	3 461 9 is_stmt 0               @ ../../../CORTEX_MPU_M3_NUCLEO_L152RE_GCC/Demo/MessageBufferDemo.c:461:9
	cbnz	r0, .LBB0_15
	b	.LBB0_13
.LBB0_13:
.Ltmp23:
	.loc	3 461 9                         @ ../../../CORTEX_MPU_M3_NUCLEO_L152RE_GCC/Demo/MessageBufferDemo.c:461:9
	@APP
	cpsid i
	@NO_APP
	b	.LBB0_14
.LBB0_14:                               @ =>This Inner Loop Header: Depth=1
.Ltmp24:
	.loc	3 461 9                         @ ../../../CORTEX_MPU_M3_NUCLEO_L152RE_GCC/Demo/MessageBufferDemo.c:461:9
	b	.LBB0_14
.Ltmp25:
.LBB0_15:
	.loc	3 462 65 is_stmt 1              @ ../../../CORTEX_MPU_M3_NUCLEO_L152RE_GCC/Demo/MessageBufferDemo.c:462:65
	ldr	r0, [sp, #96]
	.loc	3 462 52 is_stmt 0              @ ../../../CORTEX_MPU_M3_NUCLEO_L152RE_GCC/Demo/MessageBufferDemo.c:462:52
	str	r0, [sp, #176]
	.loc	3 463 66 is_stmt 1              @ ../../../CORTEX_MPU_M3_NUCLEO_L152RE_GCC/Demo/MessageBufferDemo.c:463:66
	ldr	r0, [sp, #96]
	.loc	3 463 53 is_stmt 0              @ ../../../CORTEX_MPU_M3_NUCLEO_L152RE_GCC/Demo/MessageBufferDemo.c:463:53
	str	r0, [sp, #112]
	add	r0, sp, #164
	movs	r1, #0
	.loc	3 464 9 is_stmt 1               @ ../../../CORTEX_MPU_M3_NUCLEO_L152RE_GCC/Demo/MessageBufferDemo.c:464:9
	str	r1, [sp, #12]                   @ 4-byte Spill
	bl	xTaskCreateRestricted
	ldr	r1, [sp, #12]                   @ 4-byte Reload
	add	r0, sp, #100
	.loc	3 465 9                         @ ../../../CORTEX_MPU_M3_NUCLEO_L152RE_GCC/Demo/MessageBufferDemo.c:465:9
	bl	xTaskCreateRestricted
.Ltmp26:
	.loc	3 468 1                         @ ../../../CORTEX_MPU_M3_NUCLEO_L152RE_GCC/Demo/MessageBufferDemo.c:468:1
	add	sp, #508
	add	sp, #376
	pop	{r4, r5, r6, r7, pc}
.Ltmp27:
.Lfunc_end0:
	.size	vStartMessageBufferTasks, .Lfunc_end0-vStartMessageBufferTasks
	.cfi_endproc
	.cantunwind
	.fnend
                                        @ -- End function
	.section	.text.prvEchoServer,"ax",%progbits
	.p2align	1                               @ -- Begin function prvEchoServer
	.type	prvEchoServer,%function
	.code	16                              @ @prvEchoServer
	.thumb_func
prvEchoServer:
.Lfunc_begin1:
	.loc	3 1066 0                        @ ../../../CORTEX_MPU_M3_NUCLEO_L152RE_GCC/Demo/MessageBufferDemo.c:1066:0
	.fnstart
	.cfi_startproc
@ %bb.0:
	.save	{r7, lr}
	push	{r7, lr}
	.cfi_def_cfa_offset 8
	.cfi_offset lr, -4
	.cfi_offset r7, -8
	.pad	#96
	sub	sp, #96
	.cfi_def_cfa_offset 104
	str	r0, [sp, #92]
	movs	r0, #25
.Ltmp28:
	.loc	3 1071 22 prologue_end          @ ../../../CORTEX_MPU_M3_NUCLEO_L152RE_GCC/Demo/MessageBufferDemo.c:1071:22
	str	r0, [sp, #16]                   @ 4-byte Spill
	str	r0, [sp, #24]
	.loc	3 1072 74                       @ ../../../CORTEX_MPU_M3_NUCLEO_L152RE_GCC/Demo/MessageBufferDemo.c:1072:74
	ldr	r0, [sp, #92]
	.loc	3 1072 28 is_stmt 0             @ ../../../CORTEX_MPU_M3_NUCLEO_L152RE_GCC/Demo/MessageBufferDemo.c:1072:28
	str	r0, [sp, #20]
	.loc	3 1075 23 is_stmt 1             @ ../../../CORTEX_MPU_M3_NUCLEO_L152RE_GCC/Demo/MessageBufferDemo.c:1075:23
	bl	MPU_xTaskGetTickCount
	ldr	r3, [sp, #16]                   @ 4-byte Reload
	.loc	3 1075 21 is_stmt 0             @ ../../../CORTEX_MPU_M3_NUCLEO_L152RE_GCC/Demo/MessageBufferDemo.c:1075:21
	str	r0, [sp, #28]
	.loc	3 1076 23 is_stmt 1             @ ../../../CORTEX_MPU_M3_NUCLEO_L152RE_GCC/Demo/MessageBufferDemo.c:1076:23
	ldr	r0, [sp, #20]
	ldr	r0, [r0]
	add	r1, sp, #32
	movs	r2, #50
	bl	MPU_xStreamBufferReceive
	.loc	3 1076 21 is_stmt 0             @ ../../../CORTEX_MPU_M3_NUCLEO_L152RE_GCC/Demo/MessageBufferDemo.c:1076:21
	str	r0, [sp, #84]
.Ltmp29:
	.loc	3 1077 5 is_stmt 1              @ ../../../CORTEX_MPU_M3_NUCLEO_L152RE_GCC/Demo/MessageBufferDemo.c:1077:5
	bl	MPU_xTaskGetTickCount
	ldr	r1, [sp, #28]
	subs	r0, r0, r1
.Ltmp30:
	.loc	3 1077 5 is_stmt 0              @ ../../../CORTEX_MPU_M3_NUCLEO_L152RE_GCC/Demo/MessageBufferDemo.c:1077:5
	cmp	r0, #24
	bhi	.LBB1_3
	b	.LBB1_1
.LBB1_1:
.Ltmp31:
	.loc	3 1077 5                        @ ../../../CORTEX_MPU_M3_NUCLEO_L152RE_GCC/Demo/MessageBufferDemo.c:1077:5
	@APP
	cpsid i
	@NO_APP
	b	.LBB1_2
.LBB1_2:                                @ =>This Inner Loop Header: Depth=1
.Ltmp32:
	.loc	3 1077 5                        @ ../../../CORTEX_MPU_M3_NUCLEO_L152RE_GCC/Demo/MessageBufferDemo.c:1077:5
	b	.LBB1_2
.Ltmp33:
.LBB1_3:
	.loc	3 1078 5 is_stmt 1              @ ../../../CORTEX_MPU_M3_NUCLEO_L152RE_GCC/Demo/MessageBufferDemo.c:1078:5
	ldr	r0, [sp, #84]
.Ltmp34:
	.loc	3 1078 5 is_stmt 0              @ ../../../CORTEX_MPU_M3_NUCLEO_L152RE_GCC/Demo/MessageBufferDemo.c:1078:5
	cbz	r0, .LBB1_6
	b	.LBB1_4
.LBB1_4:
.Ltmp35:
	.loc	3 1078 5                        @ ../../../CORTEX_MPU_M3_NUCLEO_L152RE_GCC/Demo/MessageBufferDemo.c:1078:5
	@APP
	cpsid i
	@NO_APP
	b	.LBB1_5
.LBB1_5:                                @ =>This Inner Loop Header: Depth=1
.Ltmp36:
	.loc	3 1078 5                        @ ../../../CORTEX_MPU_M3_NUCLEO_L152RE_GCC/Demo/MessageBufferDemo.c:1078:5
	b	.LBB1_5
.Ltmp37:
.LBB1_6:
	.loc	3 0 5                           @ ../../../CORTEX_MPU_M3_NUCLEO_L152RE_GCC/Demo/MessageBufferDemo.c:0:5
	movs	r0, #0
.Ltmp38:
	.loc	3 1085 9 is_stmt 1              @ ../../../CORTEX_MPU_M3_NUCLEO_L152RE_GCC/Demo/MessageBufferDemo.c:1085:9
	bl	MPU_uxTaskPriorityGet
.Ltmp39:
	.loc	3 1085 9 is_stmt 0              @ ../../../CORTEX_MPU_M3_NUCLEO_L152RE_GCC/Demo/MessageBufferDemo.c:1085:9
	cbnz	r0, .LBB1_8
	b	.LBB1_7
.LBB1_7:
.Ltmp40:
	.loc	3 1087 22 is_stmt 1             @ ../../../CORTEX_MPU_M3_NUCLEO_L152RE_GCC/Demo/MessageBufferDemo.c:1087:22
	movw	r0, :lower16:xEchoClientTaskHandles
	movt	r0, :upper16:xEchoClientTaskHandles
	ldr	r0, [r0, #4]
	.loc	3 1087 9 is_stmt 0              @ ../../../CORTEX_MPU_M3_NUCLEO_L152RE_GCC/Demo/MessageBufferDemo.c:1087:9
	bl	MPU_vTaskResume
	.loc	3 1088 5 is_stmt 1              @ ../../../CORTEX_MPU_M3_NUCLEO_L152RE_GCC/Demo/MessageBufferDemo.c:1088:5
	b	.LBB1_9
.Ltmp41:
.LBB1_8:
	.loc	3 1093 29                       @ ../../../CORTEX_MPU_M3_NUCLEO_L152RE_GCC/Demo/MessageBufferDemo.c:1093:29
	ldr	r0, [sp, #20]
	.loc	3 1093 47 is_stmt 0             @ ../../../CORTEX_MPU_M3_NUCLEO_L152RE_GCC/Demo/MessageBufferDemo.c:1093:47
	ldr	r0, [r0]
	.loc	3 1093 9                        @ ../../../CORTEX_MPU_M3_NUCLEO_L152RE_GCC/Demo/MessageBufferDemo.c:1093:9
	bl	prvSingleTaskTests
	.loc	3 1094 22 is_stmt 1             @ ../../../CORTEX_MPU_M3_NUCLEO_L152RE_GCC/Demo/MessageBufferDemo.c:1094:22
	movw	r0, :lower16:xEchoClientTaskHandles
	movt	r0, :upper16:xEchoClientTaskHandles
	ldr	r0, [r0]
	.loc	3 1094 9 is_stmt 0              @ ../../../CORTEX_MPU_M3_NUCLEO_L152RE_GCC/Demo/MessageBufferDemo.c:1094:9
	bl	MPU_vTaskResume
	b	.LBB1_9
.Ltmp42:
.LBB1_9:
	.loc	3 1097 5 is_stmt 1              @ ../../../CORTEX_MPU_M3_NUCLEO_L152RE_GCC/Demo/MessageBufferDemo.c:1097:5
	b	.LBB1_10
.LBB1_10:                               @ =>This Inner Loop Header: Depth=1
	.loc	3 0 5 is_stmt 0                 @ ../../../CORTEX_MPU_M3_NUCLEO_L152RE_GCC/Demo/MessageBufferDemo.c:0:5
	add	r0, sp, #32
	str	r0, [sp, #8]                    @ 4-byte Spill
	movs	r1, #50
.Ltmp43:
	.loc	3 1099 9 is_stmt 1              @ ../../../CORTEX_MPU_M3_NUCLEO_L152RE_GCC/Demo/MessageBufferDemo.c:1099:9
	str	r1, [sp, #12]                   @ 4-byte Spill
	bl	__aeabi_memclr
	ldr	r1, [sp, #8]                    @ 4-byte Reload
	ldr	r2, [sp, #12]                   @ 4-byte Reload
	.loc	3 1102 27                       @ ../../../CORTEX_MPU_M3_NUCLEO_L152RE_GCC/Demo/MessageBufferDemo.c:1102:27
	ldr	r0, [sp, #20]
	ldr	r0, [r0]
	movs	r3, #0
	mvns	r3, r3
	bl	MPU_xStreamBufferReceive
	.loc	3 1102 25 is_stmt 0             @ ../../../CORTEX_MPU_M3_NUCLEO_L152RE_GCC/Demo/MessageBufferDemo.c:1102:25
	str	r0, [sp, #84]
.Ltmp44:
	.loc	3 1105 9 is_stmt 1              @ ../../../CORTEX_MPU_M3_NUCLEO_L152RE_GCC/Demo/MessageBufferDemo.c:1105:9
	ldr	r0, [sp, #84]
.Ltmp45:
	.loc	3 1105 9 is_stmt 0              @ ../../../CORTEX_MPU_M3_NUCLEO_L152RE_GCC/Demo/MessageBufferDemo.c:1105:9
	cbnz	r0, .LBB1_13
	b	.LBB1_11
.LBB1_11:
.Ltmp46:
	.loc	3 1105 9                        @ ../../../CORTEX_MPU_M3_NUCLEO_L152RE_GCC/Demo/MessageBufferDemo.c:1105:9
	@APP
	cpsid i
	@NO_APP
	b	.LBB1_12
.LBB1_12:                               @ =>This Inner Loop Header: Depth=1
.Ltmp47:
	.loc	3 1105 9                        @ ../../../CORTEX_MPU_M3_NUCLEO_L152RE_GCC/Demo/MessageBufferDemo.c:1105:9
	b	.LBB1_12
.Ltmp48:
.LBB1_13:                               @   in Loop: Header=BB1_10 Depth=1
	.loc	3 1108 9 is_stmt 1              @ ../../../CORTEX_MPU_M3_NUCLEO_L152RE_GCC/Demo/MessageBufferDemo.c:1108:9
	ldr	r0, [sp, #20]
	ldr	r0, [r0, #4]
	ldr	r2, [sp, #84]
	movs	r1, #0
	str	r1, [sp, #4]                    @ 4-byte Spill
	mvns	r3, r1
	add	r1, sp, #32
	bl	MPU_xStreamBufferSend
	ldr	r3, [sp, #4]                    @ 4-byte Reload
	.loc	3 1112 30                       @ ../../../CORTEX_MPU_M3_NUCLEO_L152RE_GCC/Demo/MessageBufferDemo.c:1112:30
	str	r3, [sp]
	movs	r0, #50
	movs	r2, #1
	mov	r1, r3
	bl	MPU_xStreamBufferGenericCreate
	.loc	3 1112 28 is_stmt 0             @ ../../../CORTEX_MPU_M3_NUCLEO_L152RE_GCC/Demo/MessageBufferDemo.c:1112:28
	str	r0, [sp, #88]
	.loc	3 1113 9 is_stmt 1              @ ../../../CORTEX_MPU_M3_NUCLEO_L152RE_GCC/Demo/MessageBufferDemo.c:1113:9
	ldr	r0, [sp, #88]
	bl	MPU_vStreamBufferDelete
.Ltmp49:
	.loc	3 1097 5                        @ ../../../CORTEX_MPU_M3_NUCLEO_L152RE_GCC/Demo/MessageBufferDemo.c:1097:5
	b	.LBB1_10
.Ltmp50:
.Lfunc_end1:
	.size	prvEchoServer, .Lfunc_end1-prvEchoServer
	.cfi_endproc
	.cantunwind
	.fnend
                                        @ -- End function
	.section	.text.prvNonBlockingReceiverTask,"ax",%progbits
	.p2align	1                               @ -- Begin function prvNonBlockingReceiverTask
	.type	prvNonBlockingReceiverTask,%function
	.code	16                              @ @prvNonBlockingReceiverTask
	.thumb_func
prvNonBlockingReceiverTask:
.Lfunc_begin2:
	.loc	3 795 0                         @ ../../../CORTEX_MPU_M3_NUCLEO_L152RE_GCC/Demo/MessageBufferDemo.c:795:0
	.fnstart
	.cfi_startproc
@ %bb.0:
	.save	{r7, lr}
	push	{r7, lr}
	.cfi_def_cfa_offset 8
	.cfi_offset lr, -4
	.cfi_offset r7, -8
	.pad	#64
	sub	sp, #64
	.cfi_def_cfa_offset 72
	str	r0, [sp, #60]
	movs	r0, #0
.Ltmp51:
	.loc	3 797 16 prologue_end           @ ../../../CORTEX_MPU_M3_NUCLEO_L152RE_GCC/Demo/MessageBufferDemo.c:797:16
	str	r0, [sp, #4]                    @ 4-byte Spill
	str	r0, [sp, #52]
	.loc	3 798 13                        @ ../../../CORTEX_MPU_M3_NUCLEO_L152RE_GCC/Demo/MessageBufferDemo.c:798:13
	str	r0, [sp, #48]
	movw	r1, #1500
	.loc	3 800 19                        @ ../../../CORTEX_MPU_M3_NUCLEO_L152RE_GCC/Demo/MessageBufferDemo.c:800:19
	str	r1, [sp, #36]
	.loc	3 806 48                        @ ../../../CORTEX_MPU_M3_NUCLEO_L152RE_GCC/Demo/MessageBufferDemo.c:806:48
	ldr	r1, [sp, #60]
	.loc	3 806 20 is_stmt 0              @ ../../../CORTEX_MPU_M3_NUCLEO_L152RE_GCC/Demo/MessageBufferDemo.c:806:20
	str	r1, [sp, #56]
	.loc	3 812 5 is_stmt 1               @ ../../../CORTEX_MPU_M3_NUCLEO_L152RE_GCC/Demo/MessageBufferDemo.c:812:5
	str	r0, [sp, #32]
	str	r0, [sp, #28]
	str	r0, [sp, #24]
	.loc	3 813 5                         @ ../../../CORTEX_MPU_M3_NUCLEO_L152RE_GCC/Demo/MessageBufferDemo.c:813:5
	str	r0, [sp, #20]
	str	r0, [sp, #16]
	str	r0, [sp, #12]
	.loc	3 815 37                        @ ../../../CORTEX_MPU_M3_NUCLEO_L152RE_GCC/Demo/MessageBufferDemo.c:815:37
	ldr	r2, [sp, #48]
	.loc	3 815 5 is_stmt 0               @ ../../../CORTEX_MPU_M3_NUCLEO_L152RE_GCC/Demo/MessageBufferDemo.c:815:5
	movw	r1, :lower16:.L.str.11
	movt	r1, :upper16:.L.str.11
	add	r0, sp, #24
	str	r0, [sp, #8]                    @ 4-byte Spill
	bl	sprintf
                                        @ kill: def $r1 killed $r0
	.loc	3 819 21 is_stmt 1              @ ../../../CORTEX_MPU_M3_NUCLEO_L152RE_GCC/Demo/MessageBufferDemo.c:819:21
	ldr	r0, [sp, #8]                    @ 4-byte Reload
	bl	strlen
	.loc	3 819 19 is_stmt 0              @ ../../../CORTEX_MPU_M3_NUCLEO_L152RE_GCC/Demo/MessageBufferDemo.c:819:19
	str	r0, [sp, #44]
	.loc	3 821 5 is_stmt 1               @ ../../../CORTEX_MPU_M3_NUCLEO_L152RE_GCC/Demo/MessageBufferDemo.c:821:5
	b	.LBB2_1
.LBB2_1:                                @ =>This Inner Loop Header: Depth=1
.Ltmp52:
	.loc	3 825 26                        @ ../../../CORTEX_MPU_M3_NUCLEO_L152RE_GCC/Demo/MessageBufferDemo.c:825:26
	ldr	r0, [sp, #56]
	add	r1, sp, #12
	movs	r2, #12
	movs	r3, #0
	bl	MPU_xStreamBufferReceive
	.loc	3 825 24 is_stmt 0              @ ../../../CORTEX_MPU_M3_NUCLEO_L152RE_GCC/Demo/MessageBufferDemo.c:825:24
	str	r0, [sp, #40]
.Ltmp53:
	.loc	3 829 15 is_stmt 1              @ ../../../CORTEX_MPU_M3_NUCLEO_L152RE_GCC/Demo/MessageBufferDemo.c:829:15
	ldr	r0, [sp, #40]
	.loc	3 829 37 is_stmt 0              @ ../../../CORTEX_MPU_M3_NUCLEO_L152RE_GCC/Demo/MessageBufferDemo.c:829:37
	cbz	r0, .LBB2_4
	b	.LBB2_2
.LBB2_2:                                @   in Loop: Header=BB2_1 Depth=1
	.loc	3 829 42                        @ ../../../CORTEX_MPU_M3_NUCLEO_L152RE_GCC/Demo/MessageBufferDemo.c:829:42
	ldr	r0, [sp, #40]
	.loc	3 829 60                        @ ../../../CORTEX_MPU_M3_NUCLEO_L152RE_GCC/Demo/MessageBufferDemo.c:829:60
	ldr	r1, [sp, #44]
.Ltmp54:
	.loc	3 829 13                        @ ../../../CORTEX_MPU_M3_NUCLEO_L152RE_GCC/Demo/MessageBufferDemo.c:829:13
	cmp	r0, r1
	beq	.LBB2_4
	b	.LBB2_3
.LBB2_3:                                @   in Loop: Header=BB2_1 Depth=1
	.loc	3 0 13                          @ ../../../CORTEX_MPU_M3_NUCLEO_L152RE_GCC/Demo/MessageBufferDemo.c:0:13
	movs	r0, #1
.Ltmp55:
	.loc	3 831 38 is_stmt 1              @ ../../../CORTEX_MPU_M3_NUCLEO_L152RE_GCC/Demo/MessageBufferDemo.c:831:38
	str	r0, [sp, #52]
	.loc	3 832 9                         @ ../../../CORTEX_MPU_M3_NUCLEO_L152RE_GCC/Demo/MessageBufferDemo.c:832:9
	b	.LBB2_4
.Ltmp56:
.LBB2_4:                                @   in Loop: Header=BB2_1 Depth=1
	.loc	3 834 13                        @ ../../../CORTEX_MPU_M3_NUCLEO_L152RE_GCC/Demo/MessageBufferDemo.c:834:13
	ldr	r0, [sp, #40]
	.loc	3 834 31 is_stmt 0              @ ../../../CORTEX_MPU_M3_NUCLEO_L152RE_GCC/Demo/MessageBufferDemo.c:834:31
	ldr	r1, [sp, #44]
.Ltmp57:
	.loc	3 834 13                        @ ../../../CORTEX_MPU_M3_NUCLEO_L152RE_GCC/Demo/MessageBufferDemo.c:834:13
	cmp	r0, r1
	bne	.LBB2_12
	b	.LBB2_5
.LBB2_5:                                @   in Loop: Header=BB2_1 Depth=1
	.loc	3 0 13                          @ ../../../CORTEX_MPU_M3_NUCLEO_L152RE_GCC/Demo/MessageBufferDemo.c:0:13
	add	r0, sp, #12
	add	r1, sp, #24
.Ltmp58:
	.loc	3 838 17 is_stmt 1              @ ../../../CORTEX_MPU_M3_NUCLEO_L152RE_GCC/Demo/MessageBufferDemo.c:838:17
	bl	strcmp
.Ltmp59:
	.loc	3 838 17 is_stmt 0              @ ../../../CORTEX_MPU_M3_NUCLEO_L152RE_GCC/Demo/MessageBufferDemo.c:838:17
	cbz	r0, .LBB2_7
	b	.LBB2_6
.LBB2_6:                                @   in Loop: Header=BB2_1 Depth=1
	.loc	3 0 17                          @ ../../../CORTEX_MPU_M3_NUCLEO_L152RE_GCC/Demo/MessageBufferDemo.c:0:17
	movs	r0, #1
.Ltmp60:
	.loc	3 840 42 is_stmt 1              @ ../../../CORTEX_MPU_M3_NUCLEO_L152RE_GCC/Demo/MessageBufferDemo.c:840:42
	str	r0, [sp, #52]
	.loc	3 841 13                        @ ../../../CORTEX_MPU_M3_NUCLEO_L152RE_GCC/Demo/MessageBufferDemo.c:841:13
	b	.LBB2_7
.Ltmp61:
.LBB2_7:                                @   in Loop: Header=BB2_1 Depth=1
	.loc	3 843 24                        @ ../../../CORTEX_MPU_M3_NUCLEO_L152RE_GCC/Demo/MessageBufferDemo.c:843:24
	ldr	r0, [sp, #48]
	adds	r0, r0, #1
	str	r0, [sp, #48]
.Ltmp62:
	.loc	3 845 17                        @ ../../../CORTEX_MPU_M3_NUCLEO_L152RE_GCC/Demo/MessageBufferDemo.c:845:17
	ldr	r0, [sp, #48]
	movw	r1, #1501
.Ltmp63:
	.loc	3 845 17 is_stmt 0              @ ../../../CORTEX_MPU_M3_NUCLEO_L152RE_GCC/Demo/MessageBufferDemo.c:845:17
	cmp	r0, r1
	blt	.LBB2_9
	b	.LBB2_8
.LBB2_8:                                @   in Loop: Header=BB2_1 Depth=1
	.loc	3 0 17                          @ ../../../CORTEX_MPU_M3_NUCLEO_L152RE_GCC/Demo/MessageBufferDemo.c:0:17
	movs	r0, #0
.Ltmp64:
	.loc	3 849 29 is_stmt 1              @ ../../../CORTEX_MPU_M3_NUCLEO_L152RE_GCC/Demo/MessageBufferDemo.c:849:29
	str	r0, [sp, #48]
	.loc	3 850 13                        @ ../../../CORTEX_MPU_M3_NUCLEO_L152RE_GCC/Demo/MessageBufferDemo.c:850:13
	b	.LBB2_9
.Ltmp65:
.LBB2_9:                                @   in Loop: Header=BB2_1 Depth=1
	.loc	3 0 13 is_stmt 0                @ ../../../CORTEX_MPU_M3_NUCLEO_L152RE_GCC/Demo/MessageBufferDemo.c:0:13
	movs	r0, #0
	.loc	3 852 13 is_stmt 1              @ ../../../CORTEX_MPU_M3_NUCLEO_L152RE_GCC/Demo/MessageBufferDemo.c:852:13
	str	r0, [sp, #32]
	str	r0, [sp, #28]
	str	r0, [sp, #24]
	.loc	3 853 13                        @ ../../../CORTEX_MPU_M3_NUCLEO_L152RE_GCC/Demo/MessageBufferDemo.c:853:13
	str	r0, [sp, #20]
	str	r0, [sp, #16]
	str	r0, [sp, #12]
	.loc	3 855 45                        @ ../../../CORTEX_MPU_M3_NUCLEO_L152RE_GCC/Demo/MessageBufferDemo.c:855:45
	ldr	r2, [sp, #48]
	.loc	3 855 13 is_stmt 0              @ ../../../CORTEX_MPU_M3_NUCLEO_L152RE_GCC/Demo/MessageBufferDemo.c:855:13
	movw	r1, :lower16:.L.str.11
	movt	r1, :upper16:.L.str.11
	add	r0, sp, #24
	str	r0, [sp]                        @ 4-byte Spill
	bl	sprintf
                                        @ kill: def $r1 killed $r0
	.loc	3 859 29 is_stmt 1              @ ../../../CORTEX_MPU_M3_NUCLEO_L152RE_GCC/Demo/MessageBufferDemo.c:859:29
	ldr	r0, [sp]                        @ 4-byte Reload
	bl	strlen
	.loc	3 859 27 is_stmt 0              @ ../../../CORTEX_MPU_M3_NUCLEO_L152RE_GCC/Demo/MessageBufferDemo.c:859:27
	str	r0, [sp, #44]
.Ltmp66:
	.loc	3 861 17 is_stmt 1              @ ../../../CORTEX_MPU_M3_NUCLEO_L152RE_GCC/Demo/MessageBufferDemo.c:861:17
	ldr	r0, [sp, #52]
.Ltmp67:
	.loc	3 861 17 is_stmt 0              @ ../../../CORTEX_MPU_M3_NUCLEO_L152RE_GCC/Demo/MessageBufferDemo.c:861:17
	cbnz	r0, .LBB2_11
	b	.LBB2_10
.LBB2_10:                               @   in Loop: Header=BB2_1 Depth=1
.Ltmp68:
	.loc	3 865 44 is_stmt 1              @ ../../../CORTEX_MPU_M3_NUCLEO_L152RE_GCC/Demo/MessageBufferDemo.c:865:44
	movw	r1, :lower16:ulNonBlockingRxCounter
	movt	r1, :upper16:ulNonBlockingRxCounter
	ldr	r0, [r1]
	adds	r0, r0, #1
	str	r0, [r1]
	.loc	3 866 13                        @ ../../../CORTEX_MPU_M3_NUCLEO_L152RE_GCC/Demo/MessageBufferDemo.c:866:13
	b	.LBB2_11
.Ltmp69:
.LBB2_11:                               @   in Loop: Header=BB2_1 Depth=1
	.loc	3 867 9                         @ ../../../CORTEX_MPU_M3_NUCLEO_L152RE_GCC/Demo/MessageBufferDemo.c:867:9
	b	.LBB2_12
.Ltmp70:
.LBB2_12:                               @   in Loop: Header=BB2_1 Depth=1
	.loc	3 821 5                         @ ../../../CORTEX_MPU_M3_NUCLEO_L152RE_GCC/Demo/MessageBufferDemo.c:821:5
	b	.LBB2_1
.Ltmp71:
.Lfunc_end2:
	.size	prvNonBlockingReceiverTask, .Lfunc_end2-prvNonBlockingReceiverTask
	.cfi_endproc
	.cantunwind
	.fnend
                                        @ -- End function
	.section	.text.prvNonBlockingSenderTask,"ax",%progbits
	.p2align	1                               @ -- Begin function prvNonBlockingSenderTask
	.type	prvNonBlockingSenderTask,%function
	.code	16                              @ @prvNonBlockingSenderTask
	.thumb_func
prvNonBlockingSenderTask:
.Lfunc_begin3:
	.loc	3 743 0                         @ ../../../CORTEX_MPU_M3_NUCLEO_L152RE_GCC/Demo/MessageBufferDemo.c:743:0
	.fnstart
	.cfi_startproc
@ %bb.0:
	.save	{r7, lr}
	push	{r7, lr}
	.cfi_def_cfa_offset 8
	.cfi_offset lr, -4
	.cfi_offset r7, -8
	.pad	#48
	sub	sp, #48
	.cfi_def_cfa_offset 56
	str	r0, [sp, #44]
	movs	r0, #0
.Ltmp72:
	.loc	3 745 13 prologue_end           @ ../../../CORTEX_MPU_M3_NUCLEO_L152RE_GCC/Demo/MessageBufferDemo.c:745:13
	str	r0, [sp, #36]
	movw	r1, #1500
	.loc	3 747 19                        @ ../../../CORTEX_MPU_M3_NUCLEO_L152RE_GCC/Demo/MessageBufferDemo.c:747:19
	str	r1, [sp, #28]
	.loc	3 753 48                        @ ../../../CORTEX_MPU_M3_NUCLEO_L152RE_GCC/Demo/MessageBufferDemo.c:753:48
	ldr	r1, [sp, #44]
	.loc	3 753 20 is_stmt 0              @ ../../../CORTEX_MPU_M3_NUCLEO_L152RE_GCC/Demo/MessageBufferDemo.c:753:20
	str	r1, [sp, #40]
	.loc	3 758 5 is_stmt 1               @ ../../../CORTEX_MPU_M3_NUCLEO_L152RE_GCC/Demo/MessageBufferDemo.c:758:5
	str	r0, [sp, #24]
	str	r0, [sp, #20]
	str	r0, [sp, #16]
	.loc	3 760 31                        @ ../../../CORTEX_MPU_M3_NUCLEO_L152RE_GCC/Demo/MessageBufferDemo.c:760:31
	ldr	r2, [sp, #36]
	.loc	3 760 5 is_stmt 0               @ ../../../CORTEX_MPU_M3_NUCLEO_L152RE_GCC/Demo/MessageBufferDemo.c:760:5
	movw	r1, :lower16:.L.str.11
	movt	r1, :upper16:.L.str.11
	add	r0, sp, #16
	str	r0, [sp, #12]                   @ 4-byte Spill
	bl	sprintf
                                        @ kill: def $r1 killed $r0
	.loc	3 764 21 is_stmt 1              @ ../../../CORTEX_MPU_M3_NUCLEO_L152RE_GCC/Demo/MessageBufferDemo.c:764:21
	ldr	r0, [sp, #12]                   @ 4-byte Reload
	bl	strlen
	.loc	3 764 19 is_stmt 0              @ ../../../CORTEX_MPU_M3_NUCLEO_L152RE_GCC/Demo/MessageBufferDemo.c:764:19
	str	r0, [sp, #32]
	.loc	3 766 5 is_stmt 1               @ ../../../CORTEX_MPU_M3_NUCLEO_L152RE_GCC/Demo/MessageBufferDemo.c:766:5
	b	.LBB3_1
.LBB3_1:                                @ =>This Inner Loop Header: Depth=1
.Ltmp73:
	.loc	3 770 13                        @ ../../../CORTEX_MPU_M3_NUCLEO_L152RE_GCC/Demo/MessageBufferDemo.c:770:13
	ldr	r0, [sp, #40]
	str	r0, [sp, #8]                    @ 4-byte Spill
	add	r0, sp, #16
	str	r0, [sp, #4]                    @ 4-byte Spill
	bl	strlen
	ldr	r1, [sp, #4]                    @ 4-byte Reload
	mov	r2, r0
	ldr	r0, [sp, #8]                    @ 4-byte Reload
	movs	r3, #0
	bl	MPU_xStreamBufferSend
	.loc	3 770 110 is_stmt 0             @ ../../../CORTEX_MPU_M3_NUCLEO_L152RE_GCC/Demo/MessageBufferDemo.c:770:110
	ldr	r1, [sp, #32]
.Ltmp74:
	.loc	3 770 13                        @ ../../../CORTEX_MPU_M3_NUCLEO_L152RE_GCC/Demo/MessageBufferDemo.c:770:13
	cmp	r0, r1
	bne	.LBB3_5
	b	.LBB3_2
.LBB3_2:                                @   in Loop: Header=BB3_1 Depth=1
.Ltmp75:
	.loc	3 772 24 is_stmt 1              @ ../../../CORTEX_MPU_M3_NUCLEO_L152RE_GCC/Demo/MessageBufferDemo.c:772:24
	ldr	r0, [sp, #36]
	adds	r0, r0, #1
	str	r0, [sp, #36]
.Ltmp76:
	.loc	3 774 17                        @ ../../../CORTEX_MPU_M3_NUCLEO_L152RE_GCC/Demo/MessageBufferDemo.c:774:17
	ldr	r0, [sp, #36]
	movw	r1, #1501
.Ltmp77:
	.loc	3 774 17 is_stmt 0              @ ../../../CORTEX_MPU_M3_NUCLEO_L152RE_GCC/Demo/MessageBufferDemo.c:774:17
	cmp	r0, r1
	blt	.LBB3_4
	b	.LBB3_3
.LBB3_3:                                @   in Loop: Header=BB3_1 Depth=1
	.loc	3 0 17                          @ ../../../CORTEX_MPU_M3_NUCLEO_L152RE_GCC/Demo/MessageBufferDemo.c:0:17
	movs	r0, #0
.Ltmp78:
	.loc	3 778 29 is_stmt 1              @ ../../../CORTEX_MPU_M3_NUCLEO_L152RE_GCC/Demo/MessageBufferDemo.c:778:29
	str	r0, [sp, #36]
	.loc	3 779 13                        @ ../../../CORTEX_MPU_M3_NUCLEO_L152RE_GCC/Demo/MessageBufferDemo.c:779:13
	b	.LBB3_4
.Ltmp79:
.LBB3_4:                                @   in Loop: Header=BB3_1 Depth=1
	.loc	3 0 13 is_stmt 0                @ ../../../CORTEX_MPU_M3_NUCLEO_L152RE_GCC/Demo/MessageBufferDemo.c:0:13
	movs	r0, #0
	.loc	3 782 13 is_stmt 1              @ ../../../CORTEX_MPU_M3_NUCLEO_L152RE_GCC/Demo/MessageBufferDemo.c:782:13
	str	r0, [sp, #24]
	str	r0, [sp, #20]
	str	r0, [sp, #16]
	.loc	3 784 39                        @ ../../../CORTEX_MPU_M3_NUCLEO_L152RE_GCC/Demo/MessageBufferDemo.c:784:39
	ldr	r2, [sp, #36]
	.loc	3 784 13 is_stmt 0              @ ../../../CORTEX_MPU_M3_NUCLEO_L152RE_GCC/Demo/MessageBufferDemo.c:784:13
	movw	r1, :lower16:.L.str.11
	movt	r1, :upper16:.L.str.11
	add	r0, sp, #16
	str	r0, [sp]                        @ 4-byte Spill
	bl	sprintf
                                        @ kill: def $r1 killed $r0
	.loc	3 788 29 is_stmt 1              @ ../../../CORTEX_MPU_M3_NUCLEO_L152RE_GCC/Demo/MessageBufferDemo.c:788:29
	ldr	r0, [sp]                        @ 4-byte Reload
	bl	strlen
	.loc	3 788 27 is_stmt 0              @ ../../../CORTEX_MPU_M3_NUCLEO_L152RE_GCC/Demo/MessageBufferDemo.c:788:27
	str	r0, [sp, #32]
	.loc	3 789 9 is_stmt 1               @ ../../../CORTEX_MPU_M3_NUCLEO_L152RE_GCC/Demo/MessageBufferDemo.c:789:9
	b	.LBB3_5
.Ltmp80:
.LBB3_5:                                @   in Loop: Header=BB3_1 Depth=1
	.loc	3 766 5                         @ ../../../CORTEX_MPU_M3_NUCLEO_L152RE_GCC/Demo/MessageBufferDemo.c:766:5
	b	.LBB3_1
.Ltmp81:
.Lfunc_end3:
	.size	prvNonBlockingSenderTask, .Lfunc_end3-prvNonBlockingSenderTask
	.cfi_endproc
	.cantunwind
	.fnend
                                        @ -- End function
	.section	.text.prvEchoClient,"ax",%progbits
	.p2align	1                               @ -- Begin function prvEchoClient
	.type	prvEchoClient,%function
	.code	16                              @ @prvEchoClient
	.thumb_func
prvEchoClient:
.Lfunc_begin4:
	.loc	3 995 0                         @ ../../../CORTEX_MPU_M3_NUCLEO_L152RE_GCC/Demo/MessageBufferDemo.c:995:0
	.fnstart
	.cfi_startproc
@ %bb.0:
	.save	{r7, lr}
	push	{r7, lr}
	.cfi_def_cfa_offset 8
	.cfi_offset lr, -4
	.cfi_offset r7, -8
	.pad	#136
	sub	sp, #136
	.cfi_def_cfa_offset 144
	str	r0, [sp, #132]
	movs	r0, #0
.Ltmp82:
	.loc	3 996 12 prologue_end           @ ../../../CORTEX_MPU_M3_NUCLEO_L152RE_GCC/Demo/MessageBufferDemo.c:996:12
	str	r0, [sp, #128]
	add	r2, sp, #16
	movs	r1, #32
	.loc	3 999 10                        @ ../../../CORTEX_MPU_M3_NUCLEO_L152RE_GCC/Demo/MessageBufferDemo.c:999:10
	strb	r1, [r2]
	movs	r1, #5
	.loc	3 1000 22                       @ ../../../CORTEX_MPU_M3_NUCLEO_L152RE_GCC/Demo/MessageBufferDemo.c:1000:22
	str	r1, [sp, #12]
	.loc	3 1004 27                       @ ../../../CORTEX_MPU_M3_NUCLEO_L152RE_GCC/Demo/MessageBufferDemo.c:1004:27
	bl	MPU_uxTaskPriorityGet
	.loc	3 1004 17 is_stmt 0             @ ../../../CORTEX_MPU_M3_NUCLEO_L152RE_GCC/Demo/MessageBufferDemo.c:1004:17
	str	r0, [sp, #8]
	.loc	3 1008 74 is_stmt 1             @ ../../../CORTEX_MPU_M3_NUCLEO_L152RE_GCC/Demo/MessageBufferDemo.c:1008:74
	ldr	r0, [sp, #132]
	.loc	3 1008 28 is_stmt 0             @ ../../../CORTEX_MPU_M3_NUCLEO_L152RE_GCC/Demo/MessageBufferDemo.c:1008:28
	str	r0, [sp, #4]
	.loc	3 1010 5 is_stmt 1              @ ../../../CORTEX_MPU_M3_NUCLEO_L152RE_GCC/Demo/MessageBufferDemo.c:1010:5
	b	.LBB4_1
.LBB4_1:                                @ =>This Loop Header: Depth=1
                                        @     Child Loop BB4_4 Depth 2
                                        @     Child Loop BB4_10 Depth 2
.Ltmp83:
	.loc	3 1013 20                       @ ../../../CORTEX_MPU_M3_NUCLEO_L152RE_GCC/Demo/MessageBufferDemo.c:1013:20
	ldr	r0, [sp, #128]
	adds	r0, r0, #1
	str	r0, [sp, #128]
.Ltmp84:
	.loc	3 1018 13                       @ ../../../CORTEX_MPU_M3_NUCLEO_L152RE_GCC/Demo/MessageBufferDemo.c:1018:13
	ldr	r0, [sp, #128]
.Ltmp85:
	.loc	3 1018 13 is_stmt 0             @ ../../../CORTEX_MPU_M3_NUCLEO_L152RE_GCC/Demo/MessageBufferDemo.c:1018:13
	cmp	r0, #47
	blo	.LBB4_3
	b	.LBB4_2
.LBB4_2:                                @   in Loop: Header=BB4_1 Depth=1
	.loc	3 0 13                          @ ../../../CORTEX_MPU_M3_NUCLEO_L152RE_GCC/Demo/MessageBufferDemo.c:0:13
	movs	r0, #1
.Ltmp86:
	.loc	3 1021 25 is_stmt 1             @ ../../../CORTEX_MPU_M3_NUCLEO_L152RE_GCC/Demo/MessageBufferDemo.c:1021:25
	str	r0, [sp, #128]
	.loc	3 1028 33                       @ ../../../CORTEX_MPU_M3_NUCLEO_L152RE_GCC/Demo/MessageBufferDemo.c:1028:33
	ldr	r0, [sp, #8]
	.loc	3 1028 13 is_stmt 0             @ ../../../CORTEX_MPU_M3_NUCLEO_L152RE_GCC/Demo/MessageBufferDemo.c:1028:13
	lsls	r2, r0, #2
	movw	r1, :lower16:ulEchoLoopCounters
	movt	r1, :upper16:ulEchoLoopCounters
	.loc	3 1028 42                       @ ../../../CORTEX_MPU_M3_NUCLEO_L152RE_GCC/Demo/MessageBufferDemo.c:1028:42
	ldr	r0, [r1, r2]
	adds	r0, r0, #1
	str	r0, [r1, r2]
	.loc	3 1029 9 is_stmt 1              @ ../../../CORTEX_MPU_M3_NUCLEO_L152RE_GCC/Demo/MessageBufferDemo.c:1029:9
	b	.LBB4_3
.Ltmp87:
.LBB4_3:                                @   in Loop: Header=BB4_1 Depth=1
	.loc	3 0 9 is_stmt 0                 @ ../../../CORTEX_MPU_M3_NUCLEO_L152RE_GCC/Demo/MessageBufferDemo.c:0:9
	add	r0, sp, #72
	movs	r1, #50
	.loc	3 1031 9 is_stmt 1              @ ../../../CORTEX_MPU_M3_NUCLEO_L152RE_GCC/Demo/MessageBufferDemo.c:1031:9
	bl	__aeabi_memclr
	movs	r0, #0
.Ltmp88:
	.loc	3 1033 17                       @ ../../../CORTEX_MPU_M3_NUCLEO_L152RE_GCC/Demo/MessageBufferDemo.c:1033:17
	str	r0, [sp, #124]
	.loc	3 1033 14 is_stmt 0             @ ../../../CORTEX_MPU_M3_NUCLEO_L152RE_GCC/Demo/MessageBufferDemo.c:1033:14
	b	.LBB4_4
.LBB4_4:                                @   Parent Loop BB4_1 Depth=1
                                        @ =>  This Inner Loop Header: Depth=2
.Ltmp89:
	.loc	3 1033 22                       @ ../../../CORTEX_MPU_M3_NUCLEO_L152RE_GCC/Demo/MessageBufferDemo.c:1033:22
	ldr	r0, [sp, #124]
	.loc	3 1033 27                       @ ../../../CORTEX_MPU_M3_NUCLEO_L152RE_GCC/Demo/MessageBufferDemo.c:1033:27
	ldr	r1, [sp, #128]
.Ltmp90:
	.loc	3 1033 9                        @ ../../../CORTEX_MPU_M3_NUCLEO_L152RE_GCC/Demo/MessageBufferDemo.c:1033:9
	cmp	r0, r1
	bhs	.LBB4_9
	b	.LBB4_5
.LBB4_5:                                @   in Loop: Header=BB4_4 Depth=2
.Ltmp91:
	.loc	3 1035 36 is_stmt 1             @ ../../../CORTEX_MPU_M3_NUCLEO_L152RE_GCC/Demo/MessageBufferDemo.c:1035:36
	ldr	r0, [sp, #16]
	.loc	3 1035 29 is_stmt 0             @ ../../../CORTEX_MPU_M3_NUCLEO_L152RE_GCC/Demo/MessageBufferDemo.c:1035:29
	ldr	r2, [sp, #124]
	add	r1, sp, #72
	.loc	3 1035 34                       @ ../../../CORTEX_MPU_M3_NUCLEO_L152RE_GCC/Demo/MessageBufferDemo.c:1035:34
	strb	r0, [r1, r2]
	.loc	3 1037 22 is_stmt 1             @ ../../../CORTEX_MPU_M3_NUCLEO_L152RE_GCC/Demo/MessageBufferDemo.c:1037:22
	ldr	r0, [sp, #16]
	adds	r1, r0, #1
	add	r0, sp, #16
	strb	r1, [r0]
.Ltmp92:
	.loc	3 1039 17                       @ ../../../CORTEX_MPU_M3_NUCLEO_L152RE_GCC/Demo/MessageBufferDemo.c:1039:17
	ldrb	r0, [r0]
.Ltmp93:
	.loc	3 1039 17 is_stmt 0             @ ../../../CORTEX_MPU_M3_NUCLEO_L152RE_GCC/Demo/MessageBufferDemo.c:1039:17
	cmp	r0, #127
	blt	.LBB4_7
	b	.LBB4_6
.LBB4_6:                                @   in Loop: Header=BB4_4 Depth=2
	.loc	3 0 17                          @ ../../../CORTEX_MPU_M3_NUCLEO_L152RE_GCC/Demo/MessageBufferDemo.c:0:17
	add	r1, sp, #16
	movs	r0, #32
.Ltmp94:
	.loc	3 1041 27 is_stmt 1             @ ../../../CORTEX_MPU_M3_NUCLEO_L152RE_GCC/Demo/MessageBufferDemo.c:1041:27
	strb	r0, [r1]
	.loc	3 1042 13                       @ ../../../CORTEX_MPU_M3_NUCLEO_L152RE_GCC/Demo/MessageBufferDemo.c:1042:13
	b	.LBB4_7
.Ltmp95:
.LBB4_7:                                @   in Loop: Header=BB4_4 Depth=2
	.loc	3 1043 9                        @ ../../../CORTEX_MPU_M3_NUCLEO_L152RE_GCC/Demo/MessageBufferDemo.c:1043:9
	b	.LBB4_8
.Ltmp96:
.LBB4_8:                                @   in Loop: Header=BB4_4 Depth=2
	.loc	3 1033 42                       @ ../../../CORTEX_MPU_M3_NUCLEO_L152RE_GCC/Demo/MessageBufferDemo.c:1033:42
	ldr	r0, [sp, #124]
	adds	r0, r0, #1
	str	r0, [sp, #124]
	.loc	3 1033 9 is_stmt 0              @ ../../../CORTEX_MPU_M3_NUCLEO_L152RE_GCC/Demo/MessageBufferDemo.c:1033:9
	b	.LBB4_4
.Ltmp97:
.LBB4_9:                                @   in Loop: Header=BB4_1 Depth=1
	.loc	3 1046 9 is_stmt 1              @ ../../../CORTEX_MPU_M3_NUCLEO_L152RE_GCC/Demo/MessageBufferDemo.c:1046:9
	b	.LBB4_10
.LBB4_10:                               @   Parent Loop BB4_1 Depth=1
                                        @ =>  This Inner Loop Header: Depth=2
.Ltmp98:
	.loc	3 1048 18                       @ ../../../CORTEX_MPU_M3_NUCLEO_L152RE_GCC/Demo/MessageBufferDemo.c:1048:18
	ldr	r0, [sp, #4]
	ldr	r0, [r0]
	ldr	r2, [sp, #128]
	add	r1, sp, #72
	movs	r3, #5
	bl	MPU_xStreamBufferSend
	.loc	3 1048 16 is_stmt 0             @ ../../../CORTEX_MPU_M3_NUCLEO_L152RE_GCC/Demo/MessageBufferDemo.c:1048:16
	str	r0, [sp, #124]
.Ltmp99:
	.loc	3 1050 17 is_stmt 1             @ ../../../CORTEX_MPU_M3_NUCLEO_L152RE_GCC/Demo/MessageBufferDemo.c:1050:17
	ldr	r0, [sp, #124]
.Ltmp100:
	.loc	3 1050 17 is_stmt 0             @ ../../../CORTEX_MPU_M3_NUCLEO_L152RE_GCC/Demo/MessageBufferDemo.c:1050:17
	cbnz	r0, .LBB4_12
	b	.LBB4_11
.LBB4_11:                               @   in Loop: Header=BB4_10 Depth=2
.Ltmp101:
	.loc	3 1053 13 is_stmt 1             @ ../../../CORTEX_MPU_M3_NUCLEO_L152RE_GCC/Demo/MessageBufferDemo.c:1053:13
	b	.LBB4_12
.Ltmp102:
.LBB4_12:                               @   in Loop: Header=BB4_10 Depth=2
	.loc	3 1054 9                        @ ../../../CORTEX_MPU_M3_NUCLEO_L152RE_GCC/Demo/MessageBufferDemo.c:1054:9
	b	.LBB4_13
.Ltmp103:
.LBB4_13:                               @   in Loop: Header=BB4_10 Depth=2
	.loc	3 1054 18 is_stmt 0             @ ../../../CORTEX_MPU_M3_NUCLEO_L152RE_GCC/Demo/MessageBufferDemo.c:1054:18
	ldr	r0, [sp, #124]
.Ltmp104:
	.loc	3 1054 9                        @ ../../../CORTEX_MPU_M3_NUCLEO_L152RE_GCC/Demo/MessageBufferDemo.c:1054:9
	cmp	r0, #0
	beq	.LBB4_10
	b	.LBB4_14
.Ltmp105:
.LBB4_14:                               @   in Loop: Header=BB4_1 Depth=1
	.loc	3 0 9                           @ ../../../CORTEX_MPU_M3_NUCLEO_L152RE_GCC/Demo/MessageBufferDemo.c:0:9
	add	r0, sp, #20
	str	r0, [sp]                        @ 4-byte Spill
	movs	r1, #50
	.loc	3 1057 9 is_stmt 1              @ ../../../CORTEX_MPU_M3_NUCLEO_L152RE_GCC/Demo/MessageBufferDemo.c:1057:9
	bl	__aeabi_memclr
	ldr	r1, [sp]                        @ 4-byte Reload
	.loc	3 1058 9                        @ ../../../CORTEX_MPU_M3_NUCLEO_L152RE_GCC/Demo/MessageBufferDemo.c:1058:9
	ldr	r0, [sp, #4]
	ldr	r0, [r0, #4]
	ldr	r2, [sp, #128]
	movs	r3, #0
	mvns	r3, r3
	bl	MPU_xStreamBufferReceive
	ldr	r1, [sp]                        @ 4-byte Reload
	add	r0, sp, #72
.Ltmp106:
	.loc	3 1060 9                        @ ../../../CORTEX_MPU_M3_NUCLEO_L152RE_GCC/Demo/MessageBufferDemo.c:1060:9
	bl	strcmp
.Ltmp107:
	.loc	3 1060 9 is_stmt 0              @ ../../../CORTEX_MPU_M3_NUCLEO_L152RE_GCC/Demo/MessageBufferDemo.c:1060:9
	cbz	r0, .LBB4_17
	b	.LBB4_15
.LBB4_15:
.Ltmp108:
	.loc	3 1060 9                        @ ../../../CORTEX_MPU_M3_NUCLEO_L152RE_GCC/Demo/MessageBufferDemo.c:1060:9
	@APP
	cpsid i
	@NO_APP
	b	.LBB4_16
.LBB4_16:                               @ =>This Inner Loop Header: Depth=1
.Ltmp109:
	.loc	3 1060 9                        @ ../../../CORTEX_MPU_M3_NUCLEO_L152RE_GCC/Demo/MessageBufferDemo.c:1060:9
	b	.LBB4_16
.Ltmp110:
.LBB4_17:                               @   in Loop: Header=BB4_1 Depth=1
	.loc	3 1010 5 is_stmt 1              @ ../../../CORTEX_MPU_M3_NUCLEO_L152RE_GCC/Demo/MessageBufferDemo.c:1010:5
	b	.LBB4_1
.Ltmp111:
.Lfunc_end4:
	.size	prvEchoClient, .Lfunc_end4-prvEchoClient
	.cfi_endproc
	.cantunwind
	.fnend
                                        @ -- End function
	.section	.text.prvSenderTask,"ax",%progbits
	.p2align	1                               @ -- Begin function prvSenderTask
	.type	prvSenderTask,%function
	.code	16                              @ @prvSenderTask
	.thumb_func
prvSenderTask:
.Lfunc_begin5:
	.loc	3 875 0                         @ ../../../CORTEX_MPU_M3_NUCLEO_L152RE_GCC/Demo/MessageBufferDemo.c:875:0
	.fnstart
	.cfi_startproc
@ %bb.0:
	.save	{r7, lr}
	push	{r7, lr}
	.cfi_def_cfa_offset 8
	.cfi_offset lr, -4
	.cfi_offset r7, -8
	.pad	#104
	sub	sp, #104
	.cfi_def_cfa_offset 112
	str	r0, [sp, #100]
	movs	r0, #0
.Ltmp112:
	.loc	3 877 17 prologue_end           @ ../../../CORTEX_MPU_M3_NUCLEO_L152RE_GCC/Demo/MessageBufferDemo.c:877:17
	str	r0, [sp, #88]
	movs	r1, #100
	.loc	3 878 23                        @ ../../../CORTEX_MPU_M3_NUCLEO_L152RE_GCC/Demo/MessageBufferDemo.c:878:23
	str	r1, [sp, #84]
	movs	r1, #17
	.loc	3 880 26                        @ ../../../CORTEX_MPU_M3_NUCLEO_L152RE_GCC/Demo/MessageBufferDemo.c:880:26
	str	r1, [sp, #68]
	movs	r1, #5
	.loc	3 880 61 is_stmt 0              @ ../../../CORTEX_MPU_M3_NUCLEO_L152RE_GCC/Demo/MessageBufferDemo.c:880:61
	str	r1, [sp, #64]
	.loc	3 886 31 is_stmt 1              @ ../../../CORTEX_MPU_M3_NUCLEO_L152RE_GCC/Demo/MessageBufferDemo.c:886:31
	bl	MPU_uxTaskPriorityGet
	.loc	3 886 21 is_stmt 0              @ ../../../CORTEX_MPU_M3_NUCLEO_L152RE_GCC/Demo/MessageBufferDemo.c:886:21
	str	r0, [sp, #20]
.Ltmp113:
	.loc	3 890 9 is_stmt 1               @ ../../../CORTEX_MPU_M3_NUCLEO_L152RE_GCC/Demo/MessageBufferDemo.c:890:9
	ldr	r0, [sp, #20]
.Ltmp114:
	.loc	3 890 9 is_stmt 0               @ ../../../CORTEX_MPU_M3_NUCLEO_L152RE_GCC/Demo/MessageBufferDemo.c:890:9
	cmp	r0, #2
	blo	.LBB5_3
	b	.LBB5_1
.LBB5_1:
.Ltmp115:
	.loc	3 890 9                         @ ../../../CORTEX_MPU_M3_NUCLEO_L152RE_GCC/Demo/MessageBufferDemo.c:890:9
	@APP
	cpsid i
	@NO_APP
	b	.LBB5_2
.LBB5_2:                                @ =>This Inner Loop Header: Depth=1
.Ltmp116:
	.loc	3 890 9                         @ ../../../CORTEX_MPU_M3_NUCLEO_L152RE_GCC/Demo/MessageBufferDemo.c:890:9
	b	.LBB5_2
.Ltmp117:
.LBB5_3:
	.loc	3 892 52 is_stmt 1              @ ../../../CORTEX_MPU_M3_NUCLEO_L152RE_GCC/Demo/MessageBufferDemo.c:892:52
	ldr	r0, [sp, #100]
	.loc	3 892 24 is_stmt 0              @ ../../../CORTEX_MPU_M3_NUCLEO_L152RE_GCC/Demo/MessageBufferDemo.c:892:24
	str	r0, [sp, #96]
	movs	r0, #0
.Ltmp118:
	.loc	3 898 13 is_stmt 1              @ ../../../CORTEX_MPU_M3_NUCLEO_L152RE_GCC/Demo/MessageBufferDemo.c:898:13
	bl	MPU_uxTaskPriorityGet
.Ltmp119:
	.loc	3 898 13 is_stmt 0              @ ../../../CORTEX_MPU_M3_NUCLEO_L152RE_GCC/Demo/MessageBufferDemo.c:898:13
	cbnz	r0, .LBB5_5
	b	.LBB5_4
.LBB5_4:
.Ltmp120:
	.loc	3 902 33 is_stmt 1              @ ../../../CORTEX_MPU_M3_NUCLEO_L152RE_GCC/Demo/MessageBufferDemo.c:902:33
	ldr	r0, [sp, #96]
	.loc	3 902 13 is_stmt 0              @ ../../../CORTEX_MPU_M3_NUCLEO_L152RE_GCC/Demo/MessageBufferDemo.c:902:13
	bl	prvSingleTaskTests
	.loc	3 903 26 is_stmt 1              @ ../../../CORTEX_MPU_M3_NUCLEO_L152RE_GCC/Demo/MessageBufferDemo.c:903:26
	movw	r0, :lower16:xReceiverTaskHandles
	movt	r0, :upper16:xReceiverTaskHandles
	ldr	r0, [r0, #4]
	.loc	3 903 13 is_stmt 0              @ ../../../CORTEX_MPU_M3_NUCLEO_L152RE_GCC/Demo/MessageBufferDemo.c:903:13
	bl	MPU_vTaskResume
	.loc	3 904 9 is_stmt 1               @ ../../../CORTEX_MPU_M3_NUCLEO_L152RE_GCC/Demo/MessageBufferDemo.c:904:9
	b	.LBB5_6
.Ltmp121:
.LBB5_5:
	.loc	3 907 26                        @ ../../../CORTEX_MPU_M3_NUCLEO_L152RE_GCC/Demo/MessageBufferDemo.c:907:26
	movw	r0, :lower16:xReceiverTaskHandles
	movt	r0, :upper16:xReceiverTaskHandles
	ldr	r0, [r0]
	.loc	3 907 13 is_stmt 0              @ ../../../CORTEX_MPU_M3_NUCLEO_L152RE_GCC/Demo/MessageBufferDemo.c:907:13
	bl	MPU_vTaskResume
	b	.LBB5_6
.Ltmp122:
.LBB5_6:
	.loc	3 910 9 is_stmt 1               @ ../../../CORTEX_MPU_M3_NUCLEO_L152RE_GCC/Demo/MessageBufferDemo.c:910:9
	b	.LBB5_7
.LBB5_7:                                @ =>This Loop Header: Depth=1
                                        @     Child Loop BB5_8 Depth 2
	.loc	3 0 9 is_stmt 0                 @ ../../../CORTEX_MPU_M3_NUCLEO_L152RE_GCC/Demo/MessageBufferDemo.c:0:9
	movs	r0, #0
.Ltmp123:
	.loc	3 915 13 is_stmt 1              @ ../../../CORTEX_MPU_M3_NUCLEO_L152RE_GCC/Demo/MessageBufferDemo.c:915:13
	str	r0, [sp, #80]
	str	r0, [sp, #76]
	str	r0, [sp, #72]
	.loc	3 917 39                        @ ../../../CORTEX_MPU_M3_NUCLEO_L152RE_GCC/Demo/MessageBufferDemo.c:917:39
	ldr	r2, [sp, #88]
	.loc	3 917 13 is_stmt 0              @ ../../../CORTEX_MPU_M3_NUCLEO_L152RE_GCC/Demo/MessageBufferDemo.c:917:13
	movw	r1, :lower16:.L.str.11
	movt	r1, :upper16:.L.str.11
	add	r0, sp, #72
	bl	sprintf
	.loc	3 922 13 is_stmt 1              @ ../../../CORTEX_MPU_M3_NUCLEO_L152RE_GCC/Demo/MessageBufferDemo.c:922:13
	b	.LBB5_8
.LBB5_8:                                @   Parent Loop BB5_7 Depth=1
                                        @ =>  This Inner Loop Header: Depth=2
.Ltmp124:
	.loc	3 924 30                        @ ../../../CORTEX_MPU_M3_NUCLEO_L152RE_GCC/Demo/MessageBufferDemo.c:924:30
	ldr	r0, [sp, #96]
	str	r0, [sp, #16]                   @ 4-byte Spill
	add	r0, sp, #72
	str	r0, [sp, #12]                   @ 4-byte Spill
	bl	strlen
	ldr	r1, [sp, #12]                   @ 4-byte Reload
	mov	r2, r0
	ldr	r0, [sp, #16]                   @ 4-byte Reload
	movs	r3, #17
	bl	MPU_xStreamBufferSend
	.loc	3 924 28 is_stmt 0              @ ../../../CORTEX_MPU_M3_NUCLEO_L152RE_GCC/Demo/MessageBufferDemo.c:924:28
	str	r0, [sp, #24]
	.loc	3 925 13 is_stmt 1              @ ../../../CORTEX_MPU_M3_NUCLEO_L152RE_GCC/Demo/MessageBufferDemo.c:925:13
	b	.LBB5_9
.Ltmp125:
.LBB5_9:                                @   in Loop: Header=BB5_8 Depth=2
	.loc	3 925 22 is_stmt 0              @ ../../../CORTEX_MPU_M3_NUCLEO_L152RE_GCC/Demo/MessageBufferDemo.c:925:22
	ldr	r0, [sp, #24]
.Ltmp126:
	.loc	3 925 13                        @ ../../../CORTEX_MPU_M3_NUCLEO_L152RE_GCC/Demo/MessageBufferDemo.c:925:13
	cmp	r0, #0
	beq	.LBB5_8
	b	.LBB5_10
.Ltmp127:
.LBB5_10:                               @   in Loop: Header=BB5_7 Depth=1
	.loc	3 927 24 is_stmt 1              @ ../../../CORTEX_MPU_M3_NUCLEO_L152RE_GCC/Demo/MessageBufferDemo.c:927:24
	ldr	r0, [sp, #88]
	adds	r0, r0, #1
	str	r0, [sp, #88]
.Ltmp128:
	.loc	3 929 19                        @ ../../../CORTEX_MPU_M3_NUCLEO_L152RE_GCC/Demo/MessageBufferDemo.c:929:19
	ldr	r1, [sp, #88]
	movw	r0, #23593
	movt	r0, #49807
.Ltmp129:
	.loc	3 929 17 is_stmt 0              @ ../../../CORTEX_MPU_M3_NUCLEO_L152RE_GCC/Demo/MessageBufferDemo.c:929:17
	muls	r0, r1, r0
	movw	r1, #47184
	movt	r1, #1310
	adds	r0, r0, r1
	movs	r1, #2
	rors	r0, r1
	movw	r1, #23592
	movt	r1, #655
	cmp	r0, r1
	bhi	.LBB5_14
	b	.LBB5_11
.LBB5_11:                               @   in Loop: Header=BB5_7 Depth=1
.Ltmp130:
	.loc	3 933 39 is_stmt 1              @ ../../../CORTEX_MPU_M3_NUCLEO_L152RE_GCC/Demo/MessageBufferDemo.c:933:39
	ldr	r0, [sp, #20]
	.loc	3 933 17 is_stmt 0              @ ../../../CORTEX_MPU_M3_NUCLEO_L152RE_GCC/Demo/MessageBufferDemo.c:933:17
	lsls	r2, r0, #2
	movw	r1, :lower16:ulSenderLoopCounters
	movt	r1, :upper16:ulSenderLoopCounters
	.loc	3 933 48                        @ ../../../CORTEX_MPU_M3_NUCLEO_L152RE_GCC/Demo/MessageBufferDemo.c:933:48
	ldr	r0, [r1, r2]
	adds	r0, r0, #1
	str	r0, [r1, r2]
	movs	r0, #0
.Ltmp131:
	.loc	3 935 21 is_stmt 1              @ ../../../CORTEX_MPU_M3_NUCLEO_L152RE_GCC/Demo/MessageBufferDemo.c:935:21
	bl	MPU_uxTaskPriorityGet
.Ltmp132:
	.loc	3 935 21 is_stmt 0              @ ../../../CORTEX_MPU_M3_NUCLEO_L152RE_GCC/Demo/MessageBufferDemo.c:935:21
	cmp	r0, #1
	bne	.LBB5_13
	b	.LBB5_12
.LBB5_12:                               @   in Loop: Header=BB5_7 Depth=1
	.loc	3 0 21                          @ ../../../CORTEX_MPU_M3_NUCLEO_L152RE_GCC/Demo/MessageBufferDemo.c:0:21
	movs	r0, #5
.Ltmp133:
	.loc	3 938 21 is_stmt 1              @ ../../../CORTEX_MPU_M3_NUCLEO_L152RE_GCC/Demo/MessageBufferDemo.c:938:21
	bl	MPU_vTaskDelay
	.loc	3 939 17                        @ ../../../CORTEX_MPU_M3_NUCLEO_L152RE_GCC/Demo/MessageBufferDemo.c:939:17
	b	.LBB5_13
.Ltmp134:
.LBB5_13:                               @   in Loop: Header=BB5_7 Depth=1
	.loc	3 0 17 is_stmt 0                @ ../../../CORTEX_MPU_M3_NUCLEO_L152RE_GCC/Demo/MessageBufferDemo.c:0:17
	movs	r1, #0
	.loc	3 946 38 is_stmt 1              @ ../../../CORTEX_MPU_M3_NUCLEO_L152RE_GCC/Demo/MessageBufferDemo.c:946:38
	str	r1, [sp, #8]
	str	r1, [sp, #4]
	add	r0, sp, #28
	str	r0, [sp]
	movs	r0, #12
	movs	r2, #1
	add	r3, sp, #72
	bl	MPU_xStreamBufferGenericCreateStatic
	.loc	3 946 36 is_stmt 0              @ ../../../CORTEX_MPU_M3_NUCLEO_L152RE_GCC/Demo/MessageBufferDemo.c:946:36
	str	r0, [sp, #92]
	.loc	3 947 17 is_stmt 1              @ ../../../CORTEX_MPU_M3_NUCLEO_L152RE_GCC/Demo/MessageBufferDemo.c:947:17
	ldr	r0, [sp, #92]
	bl	MPU_vStreamBufferDelete
	.loc	3 948 13                        @ ../../../CORTEX_MPU_M3_NUCLEO_L152RE_GCC/Demo/MessageBufferDemo.c:948:13
	b	.LBB5_14
.Ltmp135:
.LBB5_14:                               @   in Loop: Header=BB5_7 Depth=1
	.loc	3 910 9                         @ ../../../CORTEX_MPU_M3_NUCLEO_L152RE_GCC/Demo/MessageBufferDemo.c:910:9
	b	.LBB5_7
.Ltmp136:
.Lfunc_end5:
	.size	prvSenderTask, .Lfunc_end5-prvSenderTask
	.cfi_endproc
	.cantunwind
	.fnend
                                        @ -- End function
	.section	.text.prvReceiverTask,"ax",%progbits
	.p2align	1                               @ -- Begin function prvReceiverTask
	.type	prvReceiverTask,%function
	.code	16                              @ @prvReceiverTask
	.thumb_func
prvReceiverTask:
.Lfunc_begin6:
	.loc	3 958 0                         @ ../../../CORTEX_MPU_M3_NUCLEO_L152RE_GCC/Demo/MessageBufferDemo.c:958:0
	.fnstart
	.cfi_startproc
@ %bb.0:
	.save	{r7, lr}
	push	{r7, lr}
	.cfi_def_cfa_offset 8
	.cfi_offset lr, -4
	.cfi_offset r7, -8
	.pad	#48
	sub	sp, #48
	.cfi_def_cfa_offset 56
	str	r0, [sp, #44]
.Ltmp137:
	.loc	3 959 81 prologue_end           @ ../../../CORTEX_MPU_M3_NUCLEO_L152RE_GCC/Demo/MessageBufferDemo.c:959:81
	ldr	r0, [sp, #44]
	.loc	3 959 37 is_stmt 0              @ ../../../CORTEX_MPU_M3_NUCLEO_L152RE_GCC/Demo/MessageBufferDemo.c:959:37
	str	r0, [sp, #40]
	movs	r0, #0
	.loc	3 962 17 is_stmt 1              @ ../../../CORTEX_MPU_M3_NUCLEO_L152RE_GCC/Demo/MessageBufferDemo.c:962:17
	str	r0, [sp, #12]
	.loc	3 963 26                        @ ../../../CORTEX_MPU_M3_NUCLEO_L152RE_GCC/Demo/MessageBufferDemo.c:963:26
	str	r0, [sp, #8]
	.loc	3 966 9                         @ ../../../CORTEX_MPU_M3_NUCLEO_L152RE_GCC/Demo/MessageBufferDemo.c:966:9
	b	.LBB6_1
.LBB6_1:                                @ =>This Loop Header: Depth=1
                                        @     Child Loop BB6_2 Depth 2
	.loc	3 0 9 is_stmt 0                 @ ../../../CORTEX_MPU_M3_NUCLEO_L152RE_GCC/Demo/MessageBufferDemo.c:0:9
	movs	r0, #0
.Ltmp138:
	.loc	3 969 13 is_stmt 1              @ ../../../CORTEX_MPU_M3_NUCLEO_L152RE_GCC/Demo/MessageBufferDemo.c:969:13
	str	r0, [sp]                        @ 4-byte Spill
	str	r0, [sp, #36]
	str	r0, [sp, #32]
	str	r0, [sp, #28]
	.loc	3 971 45                        @ ../../../CORTEX_MPU_M3_NUCLEO_L152RE_GCC/Demo/MessageBufferDemo.c:971:45
	ldr	r2, [sp, #12]
	.loc	3 971 13 is_stmt 0              @ ../../../CORTEX_MPU_M3_NUCLEO_L152RE_GCC/Demo/MessageBufferDemo.c:971:13
	movw	r1, :lower16:.L.str.11
	movt	r1, :upper16:.L.str.11
	add	r0, sp, #28
	bl	sprintf
                                        @ kill: def $r1 killed $r0
	.loc	3 977 13 is_stmt 1              @ ../../../CORTEX_MPU_M3_NUCLEO_L152RE_GCC/Demo/MessageBufferDemo.c:977:13
	ldr	r0, [sp]                        @ 4-byte Reload
	str	r0, [sp, #24]
	str	r0, [sp, #20]
	str	r0, [sp, #16]
	.loc	3 979 13                        @ ../../../CORTEX_MPU_M3_NUCLEO_L152RE_GCC/Demo/MessageBufferDemo.c:979:13
	b	.LBB6_2
.LBB6_2:                                @   Parent Loop BB6_1 Depth=1
                                        @ =>  This Inner Loop Header: Depth=2
.Ltmp139:
	.loc	3 981 34                        @ ../../../CORTEX_MPU_M3_NUCLEO_L152RE_GCC/Demo/MessageBufferDemo.c:981:34
	ldr	r0, [sp, #40]
	add	r1, sp, #16
	movs	r2, #12
	movs	r3, #0
	bl	MPU_xStreamBufferReceive
	.loc	3 981 32 is_stmt 0              @ ../../../CORTEX_MPU_M3_NUCLEO_L152RE_GCC/Demo/MessageBufferDemo.c:981:32
	str	r0, [sp, #4]
	.loc	3 982 13 is_stmt 1              @ ../../../CORTEX_MPU_M3_NUCLEO_L152RE_GCC/Demo/MessageBufferDemo.c:982:13
	b	.LBB6_3
.Ltmp140:
.LBB6_3:                                @   in Loop: Header=BB6_2 Depth=2
	.loc	3 982 22 is_stmt 0              @ ../../../CORTEX_MPU_M3_NUCLEO_L152RE_GCC/Demo/MessageBufferDemo.c:982:22
	ldr	r0, [sp, #4]
.Ltmp141:
	.loc	3 982 13                        @ ../../../CORTEX_MPU_M3_NUCLEO_L152RE_GCC/Demo/MessageBufferDemo.c:982:13
	cmp	r0, #0
	beq	.LBB6_2
	b	.LBB6_4
.Ltmp142:
.LBB6_4:                                @   in Loop: Header=BB6_1 Depth=1
	.loc	3 0 13                          @ ../../../CORTEX_MPU_M3_NUCLEO_L152RE_GCC/Demo/MessageBufferDemo.c:0:13
	add	r0, sp, #28
	add	r1, sp, #16
.Ltmp143:
	.loc	3 985 13 is_stmt 1              @ ../../../CORTEX_MPU_M3_NUCLEO_L152RE_GCC/Demo/MessageBufferDemo.c:985:13
	bl	strcmp
.Ltmp144:
	.loc	3 985 13 is_stmt 0              @ ../../../CORTEX_MPU_M3_NUCLEO_L152RE_GCC/Demo/MessageBufferDemo.c:985:13
	cbz	r0, .LBB6_7
	b	.LBB6_5
.LBB6_5:
.Ltmp145:
	.loc	3 985 13                        @ ../../../CORTEX_MPU_M3_NUCLEO_L152RE_GCC/Demo/MessageBufferDemo.c:985:13
	@APP
	cpsid i
	@NO_APP
	b	.LBB6_6
.LBB6_6:                                @ =>This Inner Loop Header: Depth=1
.Ltmp146:
	.loc	3 985 13                        @ ../../../CORTEX_MPU_M3_NUCLEO_L152RE_GCC/Demo/MessageBufferDemo.c:985:13
	b	.LBB6_6
.Ltmp147:
.LBB6_7:                                @   in Loop: Header=BB6_1 Depth=1
	.loc	3 987 26 is_stmt 1              @ ../../../CORTEX_MPU_M3_NUCLEO_L152RE_GCC/Demo/MessageBufferDemo.c:987:26
	ldr	r0, [sp, #12]
	adds	r0, r0, #1
	str	r0, [sp, #12]
.Ltmp148:
	.loc	3 966 9                         @ ../../../CORTEX_MPU_M3_NUCLEO_L152RE_GCC/Demo/MessageBufferDemo.c:966:9
	b	.LBB6_1
.Ltmp149:
.Lfunc_end6:
	.size	prvReceiverTask, .Lfunc_end6-prvReceiverTask
	.cfi_endproc
	.cantunwind
	.fnend
                                        @ -- End function
	.section	.text.prvSpaceAvailableCoherenceActor,"ax",%progbits
	.p2align	1                               @ -- Begin function prvSpaceAvailableCoherenceActor
	.type	prvSpaceAvailableCoherenceActor,%function
	.code	16                              @ @prvSpaceAvailableCoherenceActor
	.thumb_func
prvSpaceAvailableCoherenceActor:
.Lfunc_begin7:
	.loc	3 1125 0                        @ ../../../CORTEX_MPU_M3_NUCLEO_L152RE_GCC/Demo/MessageBufferDemo.c:1125:0
	.fnstart
	.cfi_startproc
@ %bb.0:
	.save	{r7, lr}
	push	{r7, lr}
	.cfi_def_cfa_offset 8
	.cfi_offset lr, -4
	.cfi_offset r7, -8
	.pad	#40
	sub	sp, #40
	.cfi_def_cfa_offset 48
	str	r0, [sp, #36]
	add	r1, sp, #28
	movs	r0, #53
.Ltmp150:
	.loc	3 1126 14 prologue_end          @ ../../../CORTEX_MPU_M3_NUCLEO_L152RE_GCC/Demo/MessageBufferDemo.c:1126:14
	strh	r0, [r1, #4]
	movw	r0, #12849
	movt	r0, #13363
	str	r0, [sp, #28]
	.loc	3 1129 87                       @ ../../../CORTEX_MPU_M3_NUCLEO_L152RE_GCC/Demo/MessageBufferDemo.c:1129:87
	ldr	r0, [sp, #36]
	.loc	3 1129 31 is_stmt 0             @ ../../../CORTEX_MPU_M3_NUCLEO_L152RE_GCC/Demo/MessageBufferDemo.c:1129:31
	str	r0, [sp, #16]
	.loc	3 1131 9 is_stmt 1              @ ../../../CORTEX_MPU_M3_NUCLEO_L152RE_GCC/Demo/MessageBufferDemo.c:1131:9
	b	.LBB7_1
.LBB7_1:                                @ =>This Inner Loop Header: Depth=1
.Ltmp151:
	.loc	3 1135 13                       @ ../../../CORTEX_MPU_M3_NUCLEO_L152RE_GCC/Demo/MessageBufferDemo.c:1135:13
	ldr	r0, [sp, #16]
	str	r0, [sp, #12]                   @ 4-byte Spill
	add	r0, sp, #28
	str	r0, [sp, #8]                    @ 4-byte Spill
	bl	strlen
	ldr	r1, [sp, #8]                    @ 4-byte Reload
	mov	r2, r0
	ldr	r0, [sp, #12]                   @ 4-byte Reload
	movs	r3, #0
	bl	MPU_xStreamBufferSend
.Ltmp152:
	.loc	3 1136 13                       @ ../../../CORTEX_MPU_M3_NUCLEO_L152RE_GCC/Demo/MessageBufferDemo.c:1136:13
	ldr	r0, [sp, #16]
	bl	MPU_xStreamBufferSpacesAvailable
.Ltmp153:
	.loc	3 1136 13 is_stmt 0             @ ../../../CORTEX_MPU_M3_NUCLEO_L152RE_GCC/Demo/MessageBufferDemo.c:1136:13
	cmp	r0, #11
	beq	.LBB7_4
	b	.LBB7_2
.LBB7_2:
.Ltmp154:
	.loc	3 1136 13                       @ ../../../CORTEX_MPU_M3_NUCLEO_L152RE_GCC/Demo/MessageBufferDemo.c:1136:13
	@APP
	cpsid i
	@NO_APP
	b	.LBB7_3
.LBB7_3:                                @ =>This Inner Loop Header: Depth=1
.Ltmp155:
	.loc	3 1136 13                       @ ../../../CORTEX_MPU_M3_NUCLEO_L152RE_GCC/Demo/MessageBufferDemo.c:1136:13
	b	.LBB7_3
.Ltmp156:
.LBB7_4:                                @   in Loop: Header=BB7_1 Depth=1
	.loc	3 0 13                          @ ../../../CORTEX_MPU_M3_NUCLEO_L152RE_GCC/Demo/MessageBufferDemo.c:0:13
	add	r1, sp, #20
	str	r1, [sp, #4]                    @ 4-byte Spill
	movs	r3, #0
	.loc	3 1140 13 is_stmt 1             @ ../../../CORTEX_MPU_M3_NUCLEO_L152RE_GCC/Demo/MessageBufferDemo.c:1140:13
	strh	r3, [r1, #4]
	str	r3, [sp, #20]
	.loc	3 1141 13                       @ ../../../CORTEX_MPU_M3_NUCLEO_L152RE_GCC/Demo/MessageBufferDemo.c:1141:13
	ldr	r0, [sp, #16]
	movs	r2, #5
	bl	MPU_xStreamBufferReceive
	ldr	r1, [sp, #4]                    @ 4-byte Reload
	add	r0, sp, #28
.Ltmp157:
	.loc	3 1142 13                       @ ../../../CORTEX_MPU_M3_NUCLEO_L152RE_GCC/Demo/MessageBufferDemo.c:1142:13
	bl	strcmp
.Ltmp158:
	.loc	3 1142 13 is_stmt 0             @ ../../../CORTEX_MPU_M3_NUCLEO_L152RE_GCC/Demo/MessageBufferDemo.c:1142:13
	cbz	r0, .LBB7_7
	b	.LBB7_5
.LBB7_5:
.Ltmp159:
	.loc	3 1142 13                       @ ../../../CORTEX_MPU_M3_NUCLEO_L152RE_GCC/Demo/MessageBufferDemo.c:1142:13
	@APP
	cpsid i
	@NO_APP
	b	.LBB7_6
.LBB7_6:                                @ =>This Inner Loop Header: Depth=1
.Ltmp160:
	.loc	3 1142 13                       @ ../../../CORTEX_MPU_M3_NUCLEO_L152RE_GCC/Demo/MessageBufferDemo.c:1142:13
	b	.LBB7_6
.Ltmp161:
.LBB7_7:                                @   in Loop: Header=BB7_1 Depth=1
	.loc	3 1131 9 is_stmt 1              @ ../../../CORTEX_MPU_M3_NUCLEO_L152RE_GCC/Demo/MessageBufferDemo.c:1131:9
	b	.LBB7_1
.Ltmp162:
.Lfunc_end7:
	.size	prvSpaceAvailableCoherenceActor, .Lfunc_end7-prvSpaceAvailableCoherenceActor
	.cfi_endproc
	.cantunwind
	.fnend
                                        @ -- End function
	.section	.text.prvSpaceAvailableCoherenceTester,"ax",%progbits
	.p2align	1                               @ -- Begin function prvSpaceAvailableCoherenceTester
	.type	prvSpaceAvailableCoherenceTester,%function
	.code	16                              @ @prvSpaceAvailableCoherenceTester
	.thumb_func
prvSpaceAvailableCoherenceTester:
.Lfunc_begin8:
	.loc	3 1148 0                        @ ../../../CORTEX_MPU_M3_NUCLEO_L152RE_GCC/Demo/MessageBufferDemo.c:1148:0
	.fnstart
	.cfi_startproc
@ %bb.0:
	.save	{r7, lr}
	push	{r7, lr}
	.cfi_def_cfa_offset 8
	.cfi_offset lr, -4
	.cfi_offset r7, -8
	.pad	#16
	sub	sp, #16
	.cfi_def_cfa_offset 24
	str	r0, [sp, #12]
	movs	r0, #0
.Ltmp163:
	.loc	3 1150 20 prologue_end          @ ../../../CORTEX_MPU_M3_NUCLEO_L152RE_GCC/Demo/MessageBufferDemo.c:1150:20
	str	r0, [sp, #4]
	.loc	3 1152 87                       @ ../../../CORTEX_MPU_M3_NUCLEO_L152RE_GCC/Demo/MessageBufferDemo.c:1152:87
	ldr	r0, [sp, #12]
	.loc	3 1152 31 is_stmt 0             @ ../../../CORTEX_MPU_M3_NUCLEO_L152RE_GCC/Demo/MessageBufferDemo.c:1152:31
	str	r0, [sp]
	.loc	3 1154 9 is_stmt 1              @ ../../../CORTEX_MPU_M3_NUCLEO_L152RE_GCC/Demo/MessageBufferDemo.c:1154:9
	b	.LBB8_1
.LBB8_1:                                @ =>This Inner Loop Header: Depth=1
.Ltmp164:
	.loc	3 1159 31                       @ ../../../CORTEX_MPU_M3_NUCLEO_L152RE_GCC/Demo/MessageBufferDemo.c:1159:31
	ldr	r0, [sp]
	bl	MPU_xStreamBufferSpacesAvailable
	.loc	3 1159 29 is_stmt 0             @ ../../../CORTEX_MPU_M3_NUCLEO_L152RE_GCC/Demo/MessageBufferDemo.c:1159:29
	str	r0, [sp, #8]
.Ltmp165:
	.loc	3 1161 19 is_stmt 1             @ ../../../CORTEX_MPU_M3_NUCLEO_L152RE_GCC/Demo/MessageBufferDemo.c:1161:19
	ldr	r0, [sp, #8]
	.loc	3 1161 69 is_stmt 0             @ ../../../CORTEX_MPU_M3_NUCLEO_L152RE_GCC/Demo/MessageBufferDemo.c:1161:69
	cmp	r0, #20
	beq	.LBB8_3
	b	.LBB8_2
.LBB8_2:                                @   in Loop: Header=BB8_1 Depth=1
	.loc	3 1162 19 is_stmt 1             @ ../../../CORTEX_MPU_M3_NUCLEO_L152RE_GCC/Demo/MessageBufferDemo.c:1162:19
	ldr	r0, [sp, #8]
.Ltmp166:
	.loc	3 1161 17                       @ ../../../CORTEX_MPU_M3_NUCLEO_L152RE_GCC/Demo/MessageBufferDemo.c:1161:17
	cmp	r0, #11
	bne	.LBB8_6
	b	.LBB8_3
.LBB8_3:                                @   in Loop: Header=BB8_1 Depth=1
.Ltmp167:
	.loc	3 1166 21                       @ ../../../CORTEX_MPU_M3_NUCLEO_L152RE_GCC/Demo/MessageBufferDemo.c:1166:21
	ldr	r0, [sp, #4]
.Ltmp168:
	.loc	3 1166 21 is_stmt 0             @ ../../../CORTEX_MPU_M3_NUCLEO_L152RE_GCC/Demo/MessageBufferDemo.c:1166:21
	cbnz	r0, .LBB8_5
	b	.LBB8_4
.LBB8_4:                                @   in Loop: Header=BB8_1 Depth=1
.Ltmp169:
	.loc	3 1168 51 is_stmt 1             @ ../../../CORTEX_MPU_M3_NUCLEO_L152RE_GCC/Demo/MessageBufferDemo.c:1168:51
	movw	r1, :lower16:ulSizeCoherencyTestCycles
	movt	r1, :upper16:ulSizeCoherencyTestCycles
	ldr	r0, [r1]
	adds	r0, r0, #1
	str	r0, [r1]
	.loc	3 1169 17                       @ ../../../CORTEX_MPU_M3_NUCLEO_L152RE_GCC/Demo/MessageBufferDemo.c:1169:17
	b	.LBB8_5
.Ltmp170:
.LBB8_5:                                @   in Loop: Header=BB8_1 Depth=1
	.loc	3 1170 13                       @ ../../../CORTEX_MPU_M3_NUCLEO_L152RE_GCC/Demo/MessageBufferDemo.c:1170:13
	b	.LBB8_7
.Ltmp171:
.LBB8_6:                                @   in Loop: Header=BB8_1 Depth=1
	.loc	3 0 13 is_stmt 0                @ ../../../CORTEX_MPU_M3_NUCLEO_L152RE_GCC/Demo/MessageBufferDemo.c:0:13
	movs	r0, #1
.Ltmp172:
	.loc	3 1173 29 is_stmt 1             @ ../../../CORTEX_MPU_M3_NUCLEO_L152RE_GCC/Demo/MessageBufferDemo.c:1173:29
	str	r0, [sp, #4]
	b	.LBB8_7
.Ltmp173:
.LBB8_7:                                @   in Loop: Header=BB8_1 Depth=1
	.loc	3 1176 13                       @ ../../../CORTEX_MPU_M3_NUCLEO_L152RE_GCC/Demo/MessageBufferDemo.c:1176:13
	ldr	r0, [sp, #4]
.Ltmp174:
	.loc	3 1176 13 is_stmt 0             @ ../../../CORTEX_MPU_M3_NUCLEO_L152RE_GCC/Demo/MessageBufferDemo.c:1176:13
	cbz	r0, .LBB8_10
	b	.LBB8_8
.LBB8_8:
.Ltmp175:
	.loc	3 1176 13                       @ ../../../CORTEX_MPU_M3_NUCLEO_L152RE_GCC/Demo/MessageBufferDemo.c:1176:13
	@APP
	cpsid i
	@NO_APP
	b	.LBB8_9
.LBB8_9:                                @ =>This Inner Loop Header: Depth=1
.Ltmp176:
	.loc	3 1176 13                       @ ../../../CORTEX_MPU_M3_NUCLEO_L152RE_GCC/Demo/MessageBufferDemo.c:1176:13
	b	.LBB8_9
.Ltmp177:
.LBB8_10:                               @   in Loop: Header=BB8_1 Depth=1
	.loc	3 1154 9 is_stmt 1              @ ../../../CORTEX_MPU_M3_NUCLEO_L152RE_GCC/Demo/MessageBufferDemo.c:1154:9
	b	.LBB8_1
.Ltmp178:
.Lfunc_end8:
	.size	prvSpaceAvailableCoherenceTester, .Lfunc_end8-prvSpaceAvailableCoherenceTester
	.cfi_endproc
	.cantunwind
	.fnend
                                        @ -- End function
	.section	.text.xAreMessageBufferTasksStillRunning,"ax",%progbits
	.hidden	xAreMessageBufferTasksStillRunning @ -- Begin function xAreMessageBufferTasksStillRunning
	.globl	xAreMessageBufferTasksStillRunning
	.p2align	1
	.type	xAreMessageBufferTasksStillRunning,%function
	.code	16                              @ @xAreMessageBufferTasksStillRunning
	.thumb_func
xAreMessageBufferTasksStillRunning:
.Lfunc_begin9:
	.loc	3 1184 0                        @ ../../../CORTEX_MPU_M3_NUCLEO_L152RE_GCC/Demo/MessageBufferDemo.c:1184:0
	.fnstart
	.cfi_startproc
@ %bb.0:
	.pad	#8
	sub	sp, #8
	.cfi_def_cfa_offset 8
	movs	r0, #1
.Ltmp179:
	.loc	3 1187 16 prologue_end          @ ../../../CORTEX_MPU_M3_NUCLEO_L152RE_GCC/Demo/MessageBufferDemo.c:1187:16
	str	r0, [sp, #4]
	movs	r0, #0
.Ltmp180:
	.loc	3 1189 12                       @ ../../../CORTEX_MPU_M3_NUCLEO_L152RE_GCC/Demo/MessageBufferDemo.c:1189:12
	str	r0, [sp]
	.loc	3 1189 10 is_stmt 0             @ ../../../CORTEX_MPU_M3_NUCLEO_L152RE_GCC/Demo/MessageBufferDemo.c:1189:10
	b	.LBB9_1
.LBB9_1:                                @ =>This Inner Loop Header: Depth=1
.Ltmp181:
	.loc	3 1189 17                       @ ../../../CORTEX_MPU_M3_NUCLEO_L152RE_GCC/Demo/MessageBufferDemo.c:1189:17
	ldr	r0, [sp]
.Ltmp182:
	.loc	3 1189 5                        @ ../../../CORTEX_MPU_M3_NUCLEO_L152RE_GCC/Demo/MessageBufferDemo.c:1189:5
	cmp	r0, #1
	bgt	.LBB9_7
	b	.LBB9_2
.LBB9_2:                                @   in Loop: Header=BB9_1 Depth=1
.Ltmp183:
	.loc	3 1191 37 is_stmt 1             @ ../../../CORTEX_MPU_M3_NUCLEO_L152RE_GCC/Demo/MessageBufferDemo.c:1191:37
	ldr	r0, [sp]
	.loc	3 1191 13 is_stmt 0             @ ../../../CORTEX_MPU_M3_NUCLEO_L152RE_GCC/Demo/MessageBufferDemo.c:1191:13
	lsls	r2, r0, #2
	movw	r0, :lower16:xAreMessageBufferTasksStillRunning.ulLastEchoLoopCounters
	movt	r0, :upper16:xAreMessageBufferTasksStillRunning.ulLastEchoLoopCounters
	ldr	r0, [r0, r2]
	.loc	3 1191 44                       @ ../../../CORTEX_MPU_M3_NUCLEO_L152RE_GCC/Demo/MessageBufferDemo.c:1191:44
	movw	r1, :lower16:ulEchoLoopCounters
	movt	r1, :upper16:ulEchoLoopCounters
	ldr	r1, [r1, r2]
.Ltmp184:
	.loc	3 1191 13                       @ ../../../CORTEX_MPU_M3_NUCLEO_L152RE_GCC/Demo/MessageBufferDemo.c:1191:13
	cmp	r0, r1
	bne	.LBB9_4
	b	.LBB9_3
.LBB9_3:                                @   in Loop: Header=BB9_1 Depth=1
	.loc	3 0 13                          @ ../../../CORTEX_MPU_M3_NUCLEO_L152RE_GCC/Demo/MessageBufferDemo.c:0:13
	movs	r0, #0
.Ltmp185:
	.loc	3 1193 21 is_stmt 1             @ ../../../CORTEX_MPU_M3_NUCLEO_L152RE_GCC/Demo/MessageBufferDemo.c:1193:21
	str	r0, [sp, #4]
	.loc	3 1194 9                        @ ../../../CORTEX_MPU_M3_NUCLEO_L152RE_GCC/Demo/MessageBufferDemo.c:1194:9
	b	.LBB9_5
.Ltmp186:
.LBB9_4:                                @   in Loop: Header=BB9_1 Depth=1
	.loc	3 1197 63                       @ ../../../CORTEX_MPU_M3_NUCLEO_L152RE_GCC/Demo/MessageBufferDemo.c:1197:63
	ldr	r0, [sp]
	.loc	3 1197 43 is_stmt 0             @ ../../../CORTEX_MPU_M3_NUCLEO_L152RE_GCC/Demo/MessageBufferDemo.c:1197:43
	lsls	r2, r0, #2
	movw	r0, :lower16:ulEchoLoopCounters
	movt	r0, :upper16:ulEchoLoopCounters
	ldr	r0, [r0, r2]
	.loc	3 1197 13                       @ ../../../CORTEX_MPU_M3_NUCLEO_L152RE_GCC/Demo/MessageBufferDemo.c:1197:13
	movw	r1, :lower16:xAreMessageBufferTasksStillRunning.ulLastEchoLoopCounters
	movt	r1, :upper16:xAreMessageBufferTasksStillRunning.ulLastEchoLoopCounters
	.loc	3 1197 41                       @ ../../../CORTEX_MPU_M3_NUCLEO_L152RE_GCC/Demo/MessageBufferDemo.c:1197:41
	str	r0, [r1, r2]
	b	.LBB9_5
.Ltmp187:
.LBB9_5:                                @   in Loop: Header=BB9_1 Depth=1
	.loc	3 1199 5 is_stmt 1              @ ../../../CORTEX_MPU_M3_NUCLEO_L152RE_GCC/Demo/MessageBufferDemo.c:1199:5
	b	.LBB9_6
.Ltmp188:
.LBB9_6:                                @   in Loop: Header=BB9_1 Depth=1
	.loc	3 1189 48                       @ ../../../CORTEX_MPU_M3_NUCLEO_L152RE_GCC/Demo/MessageBufferDemo.c:1189:48
	ldr	r0, [sp]
	adds	r0, r0, #1
	str	r0, [sp]
	.loc	3 1189 5 is_stmt 0              @ ../../../CORTEX_MPU_M3_NUCLEO_L152RE_GCC/Demo/MessageBufferDemo.c:1189:5
	b	.LBB9_1
.Ltmp189:
.LBB9_7:
	.loc	3 1201 9 is_stmt 1              @ ../../../CORTEX_MPU_M3_NUCLEO_L152RE_GCC/Demo/MessageBufferDemo.c:1201:9
	movw	r0, :lower16:ulNonBlockingRxCounter
	movt	r0, :upper16:ulNonBlockingRxCounter
	ldr	r0, [r0]
	.loc	3 1201 40 is_stmt 0             @ ../../../CORTEX_MPU_M3_NUCLEO_L152RE_GCC/Demo/MessageBufferDemo.c:1201:40
	movw	r1, :lower16:xAreMessageBufferTasksStillRunning.ulLastNonBlockingRxCounter
	movt	r1, :upper16:xAreMessageBufferTasksStillRunning.ulLastNonBlockingRxCounter
	ldr	r1, [r1]
.Ltmp190:
	.loc	3 1201 9                        @ ../../../CORTEX_MPU_M3_NUCLEO_L152RE_GCC/Demo/MessageBufferDemo.c:1201:9
	cmp	r0, r1
	bne	.LBB9_9
	b	.LBB9_8
.LBB9_8:
	.loc	3 0 9                           @ ../../../CORTEX_MPU_M3_NUCLEO_L152RE_GCC/Demo/MessageBufferDemo.c:0:9
	movs	r0, #0
.Ltmp191:
	.loc	3 1203 17 is_stmt 1             @ ../../../CORTEX_MPU_M3_NUCLEO_L152RE_GCC/Demo/MessageBufferDemo.c:1203:17
	str	r0, [sp, #4]
	.loc	3 1204 5                        @ ../../../CORTEX_MPU_M3_NUCLEO_L152RE_GCC/Demo/MessageBufferDemo.c:1204:5
	b	.LBB9_10
.Ltmp192:
.LBB9_9:
	.loc	3 1207 38                       @ ../../../CORTEX_MPU_M3_NUCLEO_L152RE_GCC/Demo/MessageBufferDemo.c:1207:38
	movw	r0, :lower16:ulNonBlockingRxCounter
	movt	r0, :upper16:ulNonBlockingRxCounter
	ldr	r0, [r0]
	.loc	3 1207 36 is_stmt 0             @ ../../../CORTEX_MPU_M3_NUCLEO_L152RE_GCC/Demo/MessageBufferDemo.c:1207:36
	movw	r1, :lower16:xAreMessageBufferTasksStillRunning.ulLastNonBlockingRxCounter
	movt	r1, :upper16:xAreMessageBufferTasksStillRunning.ulLastNonBlockingRxCounter
	str	r0, [r1]
	b	.LBB9_10
.Ltmp193:
.LBB9_10:
	.loc	3 0 36                          @ ../../../CORTEX_MPU_M3_NUCLEO_L152RE_GCC/Demo/MessageBufferDemo.c:0:36
	movs	r0, #0
.Ltmp194:
	.loc	3 1214 16 is_stmt 1             @ ../../../CORTEX_MPU_M3_NUCLEO_L152RE_GCC/Demo/MessageBufferDemo.c:1214:16
	str	r0, [sp]
	.loc	3 1214 14 is_stmt 0             @ ../../../CORTEX_MPU_M3_NUCLEO_L152RE_GCC/Demo/MessageBufferDemo.c:1214:14
	b	.LBB9_11
.LBB9_11:                               @ =>This Inner Loop Header: Depth=1
.Ltmp195:
	.loc	3 1214 21                       @ ../../../CORTEX_MPU_M3_NUCLEO_L152RE_GCC/Demo/MessageBufferDemo.c:1214:21
	ldr	r0, [sp]
.Ltmp196:
	.loc	3 1214 9                        @ ../../../CORTEX_MPU_M3_NUCLEO_L152RE_GCC/Demo/MessageBufferDemo.c:1214:9
	cmp	r0, #1
	bgt	.LBB9_17
	b	.LBB9_12
.LBB9_12:                               @   in Loop: Header=BB9_11 Depth=1
.Ltmp197:
	.loc	3 1216 43 is_stmt 1             @ ../../../CORTEX_MPU_M3_NUCLEO_L152RE_GCC/Demo/MessageBufferDemo.c:1216:43
	ldr	r0, [sp]
	.loc	3 1216 17 is_stmt 0             @ ../../../CORTEX_MPU_M3_NUCLEO_L152RE_GCC/Demo/MessageBufferDemo.c:1216:17
	lsls	r2, r0, #2
	movw	r0, :lower16:xAreMessageBufferTasksStillRunning.ulLastSenderLoopCounters
	movt	r0, :upper16:xAreMessageBufferTasksStillRunning.ulLastSenderLoopCounters
	ldr	r0, [r0, r2]
	.loc	3 1216 50                       @ ../../../CORTEX_MPU_M3_NUCLEO_L152RE_GCC/Demo/MessageBufferDemo.c:1216:50
	movw	r1, :lower16:ulSenderLoopCounters
	movt	r1, :upper16:ulSenderLoopCounters
	ldr	r1, [r1, r2]
.Ltmp198:
	.loc	3 1216 17                       @ ../../../CORTEX_MPU_M3_NUCLEO_L152RE_GCC/Demo/MessageBufferDemo.c:1216:17
	cmp	r0, r1
	bne	.LBB9_14
	b	.LBB9_13
.LBB9_13:                               @   in Loop: Header=BB9_11 Depth=1
	.loc	3 0 17                          @ ../../../CORTEX_MPU_M3_NUCLEO_L152RE_GCC/Demo/MessageBufferDemo.c:0:17
	movs	r0, #0
.Ltmp199:
	.loc	3 1218 25 is_stmt 1             @ ../../../CORTEX_MPU_M3_NUCLEO_L152RE_GCC/Demo/MessageBufferDemo.c:1218:25
	str	r0, [sp, #4]
	.loc	3 1219 13                       @ ../../../CORTEX_MPU_M3_NUCLEO_L152RE_GCC/Demo/MessageBufferDemo.c:1219:13
	b	.LBB9_15
.Ltmp200:
.LBB9_14:                               @   in Loop: Header=BB9_11 Depth=1
	.loc	3 1222 71                       @ ../../../CORTEX_MPU_M3_NUCLEO_L152RE_GCC/Demo/MessageBufferDemo.c:1222:71
	ldr	r0, [sp]
	.loc	3 1222 49 is_stmt 0             @ ../../../CORTEX_MPU_M3_NUCLEO_L152RE_GCC/Demo/MessageBufferDemo.c:1222:49
	lsls	r2, r0, #2
	movw	r0, :lower16:ulSenderLoopCounters
	movt	r0, :upper16:ulSenderLoopCounters
	ldr	r0, [r0, r2]
	.loc	3 1222 17                       @ ../../../CORTEX_MPU_M3_NUCLEO_L152RE_GCC/Demo/MessageBufferDemo.c:1222:17
	movw	r1, :lower16:xAreMessageBufferTasksStillRunning.ulLastSenderLoopCounters
	movt	r1, :upper16:xAreMessageBufferTasksStillRunning.ulLastSenderLoopCounters
	.loc	3 1222 47                       @ ../../../CORTEX_MPU_M3_NUCLEO_L152RE_GCC/Demo/MessageBufferDemo.c:1222:47
	str	r0, [r1, r2]
	b	.LBB9_15
.Ltmp201:
.LBB9_15:                               @   in Loop: Header=BB9_11 Depth=1
	.loc	3 1224 9 is_stmt 1              @ ../../../CORTEX_MPU_M3_NUCLEO_L152RE_GCC/Demo/MessageBufferDemo.c:1224:9
	b	.LBB9_16
.Ltmp202:
.LBB9_16:                               @   in Loop: Header=BB9_11 Depth=1
	.loc	3 1214 52                       @ ../../../CORTEX_MPU_M3_NUCLEO_L152RE_GCC/Demo/MessageBufferDemo.c:1214:52
	ldr	r0, [sp]
	adds	r0, r0, #1
	str	r0, [sp]
	.loc	3 1214 9 is_stmt 0              @ ../../../CORTEX_MPU_M3_NUCLEO_L152RE_GCC/Demo/MessageBufferDemo.c:1214:9
	b	.LBB9_11
.Ltmp203:
.LBB9_17:
	.loc	3 1232 13 is_stmt 1             @ ../../../CORTEX_MPU_M3_NUCLEO_L152RE_GCC/Demo/MessageBufferDemo.c:1232:13
	movw	r0, :lower16:xAreMessageBufferTasksStillRunning.ullastSizeCoherencyTestCycles
	movt	r0, :upper16:xAreMessageBufferTasksStillRunning.ullastSizeCoherencyTestCycles
	ldr	r0, [r0]
	.loc	3 1232 46 is_stmt 0             @ ../../../CORTEX_MPU_M3_NUCLEO_L152RE_GCC/Demo/MessageBufferDemo.c:1232:46
	movw	r1, :lower16:ulSizeCoherencyTestCycles
	movt	r1, :upper16:ulSizeCoherencyTestCycles
	ldr	r1, [r1]
.Ltmp204:
	.loc	3 1232 13                       @ ../../../CORTEX_MPU_M3_NUCLEO_L152RE_GCC/Demo/MessageBufferDemo.c:1232:13
	cmp	r0, r1
	bne	.LBB9_19
	b	.LBB9_18
.LBB9_18:
	.loc	3 0 13                          @ ../../../CORTEX_MPU_M3_NUCLEO_L152RE_GCC/Demo/MessageBufferDemo.c:0:13
	movs	r0, #0
.Ltmp205:
	.loc	3 1234 21 is_stmt 1             @ ../../../CORTEX_MPU_M3_NUCLEO_L152RE_GCC/Demo/MessageBufferDemo.c:1234:21
	str	r0, [sp, #4]
	.loc	3 1235 9                        @ ../../../CORTEX_MPU_M3_NUCLEO_L152RE_GCC/Demo/MessageBufferDemo.c:1235:9
	b	.LBB9_20
.Ltmp206:
.LBB9_19:
	.loc	3 1238 45                       @ ../../../CORTEX_MPU_M3_NUCLEO_L152RE_GCC/Demo/MessageBufferDemo.c:1238:45
	movw	r0, :lower16:ulSizeCoherencyTestCycles
	movt	r0, :upper16:ulSizeCoherencyTestCycles
	ldr	r0, [r0]
	.loc	3 1238 43 is_stmt 0             @ ../../../CORTEX_MPU_M3_NUCLEO_L152RE_GCC/Demo/MessageBufferDemo.c:1238:43
	movw	r1, :lower16:xAreMessageBufferTasksStillRunning.ullastSizeCoherencyTestCycles
	movt	r1, :upper16:xAreMessageBufferTasksStillRunning.ullastSizeCoherencyTestCycles
	str	r0, [r1]
	b	.LBB9_20
.Ltmp207:
.LBB9_20:
	.loc	3 1243 12 is_stmt 1             @ ../../../CORTEX_MPU_M3_NUCLEO_L152RE_GCC/Demo/MessageBufferDemo.c:1243:12
	ldr	r0, [sp, #4]
	.loc	3 1243 5 is_stmt 0              @ ../../../CORTEX_MPU_M3_NUCLEO_L152RE_GCC/Demo/MessageBufferDemo.c:1243:5
	add	sp, #8
	bx	lr
.Ltmp208:
.Lfunc_end9:
	.size	xAreMessageBufferTasksStillRunning, .Lfunc_end9-xAreMessageBufferTasksStillRunning
	.cfi_endproc
	.cantunwind
	.fnend
                                        @ -- End function
	.section	.text.prvSingleTaskTests,"ax",%progbits
	.p2align	1                               @ -- Begin function prvSingleTaskTests
	.type	prvSingleTaskTests,%function
	.code	16                              @ @prvSingleTaskTests
	.thumb_func
prvSingleTaskTests:
.Lfunc_begin10:
	.loc	3 472 0 is_stmt 1               @ ../../../CORTEX_MPU_M3_NUCLEO_L152RE_GCC/Demo/MessageBufferDemo.c:472:0
	.fnstart
	.cfi_startproc
@ %bb.0:
	.save	{r7, lr}
	push	{r7, lr}
	.cfi_def_cfa_offset 8
	.cfi_offset lr, -4
	.cfi_offset r7, -8
	.pad	#128
	sub	sp, #128
	.cfi_def_cfa_offset 136
	str	r0, [sp, #124]
	movs	r0, #5
.Ltmp209:
	.loc	3 474 18 prologue_end           @ ../../../CORTEX_MPU_M3_NUCLEO_L152RE_GCC/Demo/MessageBufferDemo.c:474:18
	str	r0, [sp, #104]
	movs	r0, #6
	.loc	3 475 18                        @ ../../../CORTEX_MPU_M3_NUCLEO_L152RE_GCC/Demo/MessageBufferDemo.c:475:18
	str	r0, [sp, #100]
	movs	r0, #17
	.loc	3 475 36 is_stmt 0              @ ../../../CORTEX_MPU_M3_NUCLEO_L152RE_GCC/Demo/MessageBufferDemo.c:475:36
	str	r0, [sp, #96]
	movs	r0, #2
	.loc	3 479 22 is_stmt 1              @ ../../../CORTEX_MPU_M3_NUCLEO_L152RE_GCC/Demo/MessageBufferDemo.c:479:22
	str	r0, [sp, #20]
	movs	r0, #0
	.loc	3 479 56 is_stmt 0              @ ../../../CORTEX_MPU_M3_NUCLEO_L152RE_GCC/Demo/MessageBufferDemo.c:479:56
	str	r0, [sp, #16]
	add	r0, sp, #44
	.loc	3 485 19 is_stmt 1              @ ../../../CORTEX_MPU_M3_NUCLEO_L152RE_GCC/Demo/MessageBufferDemo.c:485:19
	str	r0, [sp, #40]
.Ltmp210:
	.loc	3 486 5                         @ ../../../CORTEX_MPU_M3_NUCLEO_L152RE_GCC/Demo/MessageBufferDemo.c:486:5
	ldr	r0, [sp, #40]
.Ltmp211:
	.loc	3 486 5 is_stmt 0               @ ../../../CORTEX_MPU_M3_NUCLEO_L152RE_GCC/Demo/MessageBufferDemo.c:486:5
	cbnz	r0, .LBB10_3
	b	.LBB10_1
.LBB10_1:
.Ltmp212:
	.loc	3 486 5                         @ ../../../CORTEX_MPU_M3_NUCLEO_L152RE_GCC/Demo/MessageBufferDemo.c:486:5
	@APP
	cpsid i
	@NO_APP
	b	.LBB10_2
.LBB10_2:                               @ =>This Inner Loop Header: Depth=1
.Ltmp213:
	.loc	3 486 5                         @ ../../../CORTEX_MPU_M3_NUCLEO_L152RE_GCC/Demo/MessageBufferDemo.c:486:5
	b	.LBB10_2
.Ltmp214:
.LBB10_3:
	.loc	3 488 15 is_stmt 1              @ ../../../CORTEX_MPU_M3_NUCLEO_L152RE_GCC/Demo/MessageBufferDemo.c:488:15
	ldr	r0, [sp, #40]
	.loc	3 488 13 is_stmt 0              @ ../../../CORTEX_MPU_M3_NUCLEO_L152RE_GCC/Demo/MessageBufferDemo.c:488:13
	str	r0, [sp, #36]
	.loc	3 489 19 is_stmt 1              @ ../../../CORTEX_MPU_M3_NUCLEO_L152RE_GCC/Demo/MessageBufferDemo.c:489:19
	ldr	r0, [sp, #36]
	.loc	3 489 27 is_stmt 0              @ ../../../CORTEX_MPU_M3_NUCLEO_L152RE_GCC/Demo/MessageBufferDemo.c:489:27
	adds	r0, #17
	.loc	3 489 17                        @ ../../../CORTEX_MPU_M3_NUCLEO_L152RE_GCC/Demo/MessageBufferDemo.c:489:17
	str	r0, [sp, #32]
	.loc	3 493 22 is_stmt 1              @ ../../../CORTEX_MPU_M3_NUCLEO_L152RE_GCC/Demo/MessageBufferDemo.c:493:22
	ldr	r0, [sp, #124]
	bl	MPU_xStreamBufferSpacesAvailable
	.loc	3 493 20 is_stmt 0              @ ../../../CORTEX_MPU_M3_NUCLEO_L152RE_GCC/Demo/MessageBufferDemo.c:493:20
	str	r0, [sp, #112]
.Ltmp215:
	.loc	3 494 5 is_stmt 1               @ ../../../CORTEX_MPU_M3_NUCLEO_L152RE_GCC/Demo/MessageBufferDemo.c:494:5
	ldr	r0, [sp, #112]
.Ltmp216:
	.loc	3 494 5 is_stmt 0               @ ../../../CORTEX_MPU_M3_NUCLEO_L152RE_GCC/Demo/MessageBufferDemo.c:494:5
	cmp	r0, #50
	beq	.LBB10_6
	b	.LBB10_4
.LBB10_4:
.Ltmp217:
	.loc	3 494 5                         @ ../../../CORTEX_MPU_M3_NUCLEO_L152RE_GCC/Demo/MessageBufferDemo.c:494:5
	@APP
	cpsid i
	@NO_APP
	b	.LBB10_5
.LBB10_5:                               @ =>This Inner Loop Header: Depth=1
.Ltmp218:
	.loc	3 494 5                         @ ../../../CORTEX_MPU_M3_NUCLEO_L152RE_GCC/Demo/MessageBufferDemo.c:494:5
	b	.LBB10_5
.Ltmp219:
.LBB10_6:
	.loc	3 495 5 is_stmt 1               @ ../../../CORTEX_MPU_M3_NUCLEO_L152RE_GCC/Demo/MessageBufferDemo.c:495:5
	ldr	r0, [sp, #124]
	bl	MPU_xStreamBufferIsEmpty
.Ltmp220:
	.loc	3 495 5 is_stmt 0               @ ../../../CORTEX_MPU_M3_NUCLEO_L152RE_GCC/Demo/MessageBufferDemo.c:495:5
	cmp	r0, #1
	beq	.LBB10_9
	b	.LBB10_7
.LBB10_7:
.Ltmp221:
	.loc	3 495 5                         @ ../../../CORTEX_MPU_M3_NUCLEO_L152RE_GCC/Demo/MessageBufferDemo.c:495:5
	@APP
	cpsid i
	@NO_APP
	b	.LBB10_8
.LBB10_8:                               @ =>This Inner Loop Header: Depth=1
.Ltmp222:
	.loc	3 495 5                         @ ../../../CORTEX_MPU_M3_NUCLEO_L152RE_GCC/Demo/MessageBufferDemo.c:495:5
	b	.LBB10_8
.Ltmp223:
.LBB10_9:
	.loc	3 496 19 is_stmt 1              @ ../../../CORTEX_MPU_M3_NUCLEO_L152RE_GCC/Demo/MessageBufferDemo.c:496:19
	ldr	r0, [sp, #124]
	bl	MPU_xStreamBufferNextMessageLengthBytes
	.loc	3 496 17 is_stmt 0              @ ../../../CORTEX_MPU_M3_NUCLEO_L152RE_GCC/Demo/MessageBufferDemo.c:496:17
	str	r0, [sp, #108]
.Ltmp224:
	.loc	3 497 5 is_stmt 1               @ ../../../CORTEX_MPU_M3_NUCLEO_L152RE_GCC/Demo/MessageBufferDemo.c:497:5
	ldr	r0, [sp, #108]
.Ltmp225:
	.loc	3 497 5 is_stmt 0               @ ../../../CORTEX_MPU_M3_NUCLEO_L152RE_GCC/Demo/MessageBufferDemo.c:497:5
	cbz	r0, .LBB10_12
	b	.LBB10_10
.LBB10_10:
.Ltmp226:
	.loc	3 497 5                         @ ../../../CORTEX_MPU_M3_NUCLEO_L152RE_GCC/Demo/MessageBufferDemo.c:497:5
	@APP
	cpsid i
	@NO_APP
	b	.LBB10_11
.LBB10_11:                              @ =>This Inner Loop Header: Depth=1
.Ltmp227:
	.loc	3 497 5                         @ ../../../CORTEX_MPU_M3_NUCLEO_L152RE_GCC/Demo/MessageBufferDemo.c:497:5
	b	.LBB10_11
.Ltmp228:
.LBB10_12:
	.loc	3 504 17 is_stmt 1              @ ../../../CORTEX_MPU_M3_NUCLEO_L152RE_GCC/Demo/MessageBufferDemo.c:504:17
	ldr	r0, [sp, #124]
	ldr	r1, [sp, #36]
	movs	r2, #54
	movs	r3, #0
	bl	xStreamBufferSendFromISR
	.loc	3 504 15 is_stmt 0              @ ../../../CORTEX_MPU_M3_NUCLEO_L152RE_GCC/Demo/MessageBufferDemo.c:504:15
	str	r0, [sp, #120]
.Ltmp229:
	.loc	3 505 5 is_stmt 1               @ ../../../CORTEX_MPU_M3_NUCLEO_L152RE_GCC/Demo/MessageBufferDemo.c:505:5
	ldr	r0, [sp, #120]
.Ltmp230:
	.loc	3 505 5 is_stmt 0               @ ../../../CORTEX_MPU_M3_NUCLEO_L152RE_GCC/Demo/MessageBufferDemo.c:505:5
	cbz	r0, .LBB10_15
	b	.LBB10_13
.LBB10_13:
.Ltmp231:
	.loc	3 505 5                         @ ../../../CORTEX_MPU_M3_NUCLEO_L152RE_GCC/Demo/MessageBufferDemo.c:505:5
	@APP
	cpsid i
	@NO_APP
	b	.LBB10_14
.LBB10_14:                              @ =>This Inner Loop Header: Depth=1
.Ltmp232:
	.loc	3 505 5                         @ ../../../CORTEX_MPU_M3_NUCLEO_L152RE_GCC/Demo/MessageBufferDemo.c:505:5
	b	.LBB10_14
.Ltmp233:
.LBB10_15:
	.loc	3 508 17 is_stmt 1              @ ../../../CORTEX_MPU_M3_NUCLEO_L152RE_GCC/Demo/MessageBufferDemo.c:508:17
	ldr	r0, [sp, #124]
	ldr	r1, [sp, #36]
	movs	r2, #0
	mvns	r3, r2
	movs	r2, #54
	bl	MPU_xStreamBufferSend
	.loc	3 508 15 is_stmt 0              @ ../../../CORTEX_MPU_M3_NUCLEO_L152RE_GCC/Demo/MessageBufferDemo.c:508:15
	str	r0, [sp, #120]
.Ltmp234:
	.loc	3 509 5 is_stmt 1               @ ../../../CORTEX_MPU_M3_NUCLEO_L152RE_GCC/Demo/MessageBufferDemo.c:509:5
	ldr	r0, [sp, #120]
.Ltmp235:
	.loc	3 509 5 is_stmt 0               @ ../../../CORTEX_MPU_M3_NUCLEO_L152RE_GCC/Demo/MessageBufferDemo.c:509:5
	cbz	r0, .LBB10_18
	b	.LBB10_16
.LBB10_16:
.Ltmp236:
	.loc	3 509 5                         @ ../../../CORTEX_MPU_M3_NUCLEO_L152RE_GCC/Demo/MessageBufferDemo.c:509:5
	@APP
	cpsid i
	@NO_APP
	b	.LBB10_17
.LBB10_17:                              @ =>This Inner Loop Header: Depth=1
.Ltmp237:
	.loc	3 509 5                         @ ../../../CORTEX_MPU_M3_NUCLEO_L152RE_GCC/Demo/MessageBufferDemo.c:509:5
	b	.LBB10_17
.Ltmp238:
.LBB10_18:
	.loc	3 0 5                           @ ../../../CORTEX_MPU_M3_NUCLEO_L152RE_GCC/Demo/MessageBufferDemo.c:0:5
	movs	r0, #0
.Ltmp239:
	.loc	3 519 16 is_stmt 1              @ ../../../CORTEX_MPU_M3_NUCLEO_L152RE_GCC/Demo/MessageBufferDemo.c:519:16
	str	r0, [sp, #116]
	.loc	3 519 10 is_stmt 0              @ ../../../CORTEX_MPU_M3_NUCLEO_L152RE_GCC/Demo/MessageBufferDemo.c:519:10
	b	.LBB10_19
.LBB10_19:                              @ =>This Inner Loop Header: Depth=1
.Ltmp240:
	.loc	3 519 21                        @ ../../../CORTEX_MPU_M3_NUCLEO_L152RE_GCC/Demo/MessageBufferDemo.c:519:21
	ldr	r0, [sp, #116]
.Ltmp241:
	.loc	3 519 5                         @ ../../../CORTEX_MPU_M3_NUCLEO_L152RE_GCC/Demo/MessageBufferDemo.c:519:5
	cmp	r0, #4
	bhi	.LBB10_34
	b	.LBB10_20
.LBB10_20:                              @   in Loop: Header=BB10_19 Depth=1
.Ltmp242:
	.loc	3 521 9 is_stmt 1               @ ../../../CORTEX_MPU_M3_NUCLEO_L152RE_GCC/Demo/MessageBufferDemo.c:521:9
	ldr	r0, [sp, #124]
	bl	MPU_xStreamBufferIsFull
.Ltmp243:
	.loc	3 521 9 is_stmt 0               @ ../../../CORTEX_MPU_M3_NUCLEO_L152RE_GCC/Demo/MessageBufferDemo.c:521:9
	cbz	r0, .LBB10_23
	b	.LBB10_21
.LBB10_21:
.Ltmp244:
	.loc	3 521 9                         @ ../../../CORTEX_MPU_M3_NUCLEO_L152RE_GCC/Demo/MessageBufferDemo.c:521:9
	@APP
	cpsid i
	@NO_APP
	b	.LBB10_22
.LBB10_22:                              @ =>This Inner Loop Header: Depth=1
.Ltmp245:
	.loc	3 521 9                         @ ../../../CORTEX_MPU_M3_NUCLEO_L152RE_GCC/Demo/MessageBufferDemo.c:521:9
	b	.LBB10_22
.Ltmp246:
.LBB10_23:                              @   in Loop: Header=BB10_19 Depth=1
	.loc	3 530 28 is_stmt 1              @ ../../../CORTEX_MPU_M3_NUCLEO_L152RE_GCC/Demo/MessageBufferDemo.c:530:28
	ldr	r1, [sp, #36]
	.loc	3 530 63 is_stmt 0              @ ../../../CORTEX_MPU_M3_NUCLEO_L152RE_GCC/Demo/MessageBufferDemo.c:530:63
	ldr	r0, [sp, #116]
	.loc	3 530 9                         @ ../../../CORTEX_MPU_M3_NUCLEO_L152RE_GCC/Demo/MessageBufferDemo.c:530:9
	adds	r0, #48
	strb	r0, [r1, #5]
	strb	r0, [r1, #4]
	strb	r0, [r1, #3]
	strb	r0, [r1, #2]
	strb	r0, [r1, #1]
	strb	r0, [r1]
	.loc	3 531 9 is_stmt 1               @ ../../../CORTEX_MPU_M3_NUCLEO_L152RE_GCC/Demo/MessageBufferDemo.c:531:9
	bl	vPortEnterCritical
.Ltmp247:
	.loc	3 533 25                        @ ../../../CORTEX_MPU_M3_NUCLEO_L152RE_GCC/Demo/MessageBufferDemo.c:533:25
	ldr	r0, [sp, #124]
	ldr	r1, [sp, #36]
	movs	r2, #6
	movs	r3, #0
	bl	xStreamBufferSendFromISR
	.loc	3 533 23 is_stmt 0              @ ../../../CORTEX_MPU_M3_NUCLEO_L152RE_GCC/Demo/MessageBufferDemo.c:533:23
	str	r0, [sp, #120]
.Ltmp248:
	.loc	3 535 9 is_stmt 1               @ ../../../CORTEX_MPU_M3_NUCLEO_L152RE_GCC/Demo/MessageBufferDemo.c:535:9
	bl	vPortExitCritical
.Ltmp249:
	.loc	3 536 9                         @ ../../../CORTEX_MPU_M3_NUCLEO_L152RE_GCC/Demo/MessageBufferDemo.c:536:9
	ldr	r0, [sp, #120]
.Ltmp250:
	.loc	3 536 9 is_stmt 0               @ ../../../CORTEX_MPU_M3_NUCLEO_L152RE_GCC/Demo/MessageBufferDemo.c:536:9
	cmp	r0, #6
	beq	.LBB10_26
	b	.LBB10_24
.LBB10_24:
.Ltmp251:
	.loc	3 536 9                         @ ../../../CORTEX_MPU_M3_NUCLEO_L152RE_GCC/Demo/MessageBufferDemo.c:536:9
	@APP
	cpsid i
	@NO_APP
	b	.LBB10_25
.LBB10_25:                              @ =>This Inner Loop Header: Depth=1
.Ltmp252:
	.loc	3 536 9                         @ ../../../CORTEX_MPU_M3_NUCLEO_L152RE_GCC/Demo/MessageBufferDemo.c:536:9
	b	.LBB10_25
.Ltmp253:
.LBB10_26:                              @   in Loop: Header=BB10_19 Depth=1
	.loc	3 542 24 is_stmt 1              @ ../../../CORTEX_MPU_M3_NUCLEO_L152RE_GCC/Demo/MessageBufferDemo.c:542:24
	ldr	r0, [sp, #112]
	subs	r0, #10
	str	r0, [sp, #112]
	.loc	3 543 21                        @ ../../../CORTEX_MPU_M3_NUCLEO_L152RE_GCC/Demo/MessageBufferDemo.c:543:21
	ldr	r0, [sp, #124]
	bl	MPU_xStreamBufferSpacesAvailable
	.loc	3 543 19 is_stmt 0              @ ../../../CORTEX_MPU_M3_NUCLEO_L152RE_GCC/Demo/MessageBufferDemo.c:543:19
	str	r0, [sp, #120]
.Ltmp254:
	.loc	3 544 9 is_stmt 1               @ ../../../CORTEX_MPU_M3_NUCLEO_L152RE_GCC/Demo/MessageBufferDemo.c:544:9
	ldr	r0, [sp, #120]
	ldr	r1, [sp, #112]
.Ltmp255:
	.loc	3 544 9 is_stmt 0               @ ../../../CORTEX_MPU_M3_NUCLEO_L152RE_GCC/Demo/MessageBufferDemo.c:544:9
	cmp	r0, r1
	beq	.LBB10_29
	b	.LBB10_27
.LBB10_27:
.Ltmp256:
	.loc	3 544 9                         @ ../../../CORTEX_MPU_M3_NUCLEO_L152RE_GCC/Demo/MessageBufferDemo.c:544:9
	@APP
	cpsid i
	@NO_APP
	b	.LBB10_28
.LBB10_28:                              @ =>This Inner Loop Header: Depth=1
.Ltmp257:
	.loc	3 544 9                         @ ../../../CORTEX_MPU_M3_NUCLEO_L152RE_GCC/Demo/MessageBufferDemo.c:544:9
	b	.LBB10_28
.Ltmp258:
.LBB10_29:                              @   in Loop: Header=BB10_19 Depth=1
	.loc	3 548 23 is_stmt 1              @ ../../../CORTEX_MPU_M3_NUCLEO_L152RE_GCC/Demo/MessageBufferDemo.c:548:23
	ldr	r0, [sp, #124]
	bl	MPU_xStreamBufferNextMessageLengthBytes
	.loc	3 548 21 is_stmt 0              @ ../../../CORTEX_MPU_M3_NUCLEO_L152RE_GCC/Demo/MessageBufferDemo.c:548:21
	str	r0, [sp, #108]
.Ltmp259:
	.loc	3 549 9 is_stmt 1               @ ../../../CORTEX_MPU_M3_NUCLEO_L152RE_GCC/Demo/MessageBufferDemo.c:549:9
	ldr	r0, [sp, #108]
.Ltmp260:
	.loc	3 549 9 is_stmt 0               @ ../../../CORTEX_MPU_M3_NUCLEO_L152RE_GCC/Demo/MessageBufferDemo.c:549:9
	cmp	r0, #6
	beq	.LBB10_32
	b	.LBB10_30
.LBB10_30:
.Ltmp261:
	.loc	3 549 9                         @ ../../../CORTEX_MPU_M3_NUCLEO_L152RE_GCC/Demo/MessageBufferDemo.c:549:9
	@APP
	cpsid i
	@NO_APP
	b	.LBB10_31
.LBB10_31:                              @ =>This Inner Loop Header: Depth=1
.Ltmp262:
	.loc	3 549 9                         @ ../../../CORTEX_MPU_M3_NUCLEO_L152RE_GCC/Demo/MessageBufferDemo.c:549:9
	b	.LBB10_31
.Ltmp263:
.LBB10_32:                              @   in Loop: Header=BB10_19 Depth=1
	.loc	3 551 5 is_stmt 1               @ ../../../CORTEX_MPU_M3_NUCLEO_L152RE_GCC/Demo/MessageBufferDemo.c:551:5
	b	.LBB10_33
.Ltmp264:
.LBB10_33:                              @   in Loop: Header=BB10_19 Depth=1
	.loc	3 519 53                        @ ../../../CORTEX_MPU_M3_NUCLEO_L152RE_GCC/Demo/MessageBufferDemo.c:519:53
	ldr	r0, [sp, #116]
	adds	r0, r0, #1
	str	r0, [sp, #116]
	.loc	3 519 5 is_stmt 0               @ ../../../CORTEX_MPU_M3_NUCLEO_L152RE_GCC/Demo/MessageBufferDemo.c:519:5
	b	.LBB10_19
.Ltmp265:
.LBB10_34:
	.loc	3 555 5 is_stmt 1               @ ../../../CORTEX_MPU_M3_NUCLEO_L152RE_GCC/Demo/MessageBufferDemo.c:555:5
	ldr	r0, [sp, #124]
	bl	MPU_xStreamBufferIsFull
.Ltmp266:
	.loc	3 555 5 is_stmt 0               @ ../../../CORTEX_MPU_M3_NUCLEO_L152RE_GCC/Demo/MessageBufferDemo.c:555:5
	cmp	r0, #1
	beq	.LBB10_37
	b	.LBB10_35
.LBB10_35:
.Ltmp267:
	.loc	3 555 5                         @ ../../../CORTEX_MPU_M3_NUCLEO_L152RE_GCC/Demo/MessageBufferDemo.c:555:5
	@APP
	cpsid i
	@NO_APP
	b	.LBB10_36
.LBB10_36:                              @ =>This Inner Loop Header: Depth=1
.Ltmp268:
	.loc	3 555 5                         @ ../../../CORTEX_MPU_M3_NUCLEO_L152RE_GCC/Demo/MessageBufferDemo.c:555:5
	b	.LBB10_36
.Ltmp269:
.LBB10_37:
	.loc	3 556 17 is_stmt 1              @ ../../../CORTEX_MPU_M3_NUCLEO_L152RE_GCC/Demo/MessageBufferDemo.c:556:17
	ldr	r0, [sp, #124]
	ldr	r1, [sp, #36]
	movs	r2, #1
	movs	r3, #0
	bl	MPU_xStreamBufferSend
	.loc	3 556 15 is_stmt 0              @ ../../../CORTEX_MPU_M3_NUCLEO_L152RE_GCC/Demo/MessageBufferDemo.c:556:15
	str	r0, [sp, #120]
.Ltmp270:
	.loc	3 557 5 is_stmt 1               @ ../../../CORTEX_MPU_M3_NUCLEO_L152RE_GCC/Demo/MessageBufferDemo.c:557:5
	ldr	r0, [sp, #120]
.Ltmp271:
	.loc	3 557 5 is_stmt 0               @ ../../../CORTEX_MPU_M3_NUCLEO_L152RE_GCC/Demo/MessageBufferDemo.c:557:5
	cbz	r0, .LBB10_40
	b	.LBB10_38
.LBB10_38:
.Ltmp272:
	.loc	3 557 5                         @ ../../../CORTEX_MPU_M3_NUCLEO_L152RE_GCC/Demo/MessageBufferDemo.c:557:5
	@APP
	cpsid i
	@NO_APP
	b	.LBB10_39
.LBB10_39:                              @ =>This Inner Loop Header: Depth=1
.Ltmp273:
	.loc	3 557 5                         @ ../../../CORTEX_MPU_M3_NUCLEO_L152RE_GCC/Demo/MessageBufferDemo.c:557:5
	b	.LBB10_39
.Ltmp274:
.LBB10_40:
	.loc	3 0 5                           @ ../../../CORTEX_MPU_M3_NUCLEO_L152RE_GCC/Demo/MessageBufferDemo.c:0:5
	movs	r0, #0
	.loc	3 563 26 is_stmt 1              @ ../../../CORTEX_MPU_M3_NUCLEO_L152RE_GCC/Demo/MessageBufferDemo.c:563:26
	str	r0, [sp, #8]                    @ 4-byte Spill
	bl	MPU_uxTaskPriorityGet
	mov	r1, r0
	.loc	3 563 24 is_stmt 0              @ ../../../CORTEX_MPU_M3_NUCLEO_L152RE_GCC/Demo/MessageBufferDemo.c:563:24
	ldr	r0, [sp, #8]                    @ 4-byte Reload
	str	r1, [sp, #12]
	movs	r1, #4
	.loc	3 564 5 is_stmt 1               @ ../../../CORTEX_MPU_M3_NUCLEO_L152RE_GCC/Demo/MessageBufferDemo.c:564:5
	bl	MPU_vTaskPrioritySet
	.loc	3 565 23                        @ ../../../CORTEX_MPU_M3_NUCLEO_L152RE_GCC/Demo/MessageBufferDemo.c:565:23
	bl	MPU_xTaskGetTickCount
	.loc	3 565 21 is_stmt 0              @ ../../../CORTEX_MPU_M3_NUCLEO_L152RE_GCC/Demo/MessageBufferDemo.c:565:21
	str	r0, [sp, #28]
	.loc	3 566 17 is_stmt 1              @ ../../../CORTEX_MPU_M3_NUCLEO_L152RE_GCC/Demo/MessageBufferDemo.c:566:17
	ldr	r0, [sp, #124]
	ldr	r1, [sp, #36]
	movs	r2, #1
	movs	r3, #2
	bl	MPU_xStreamBufferSend
	.loc	3 566 15 is_stmt 0              @ ../../../CORTEX_MPU_M3_NUCLEO_L152RE_GCC/Demo/MessageBufferDemo.c:566:15
	str	r0, [sp, #120]
	.loc	3 567 22 is_stmt 1              @ ../../../CORTEX_MPU_M3_NUCLEO_L152RE_GCC/Demo/MessageBufferDemo.c:567:22
	bl	MPU_xTaskGetTickCount
	mov	r1, r0
	.loc	3 567 20 is_stmt 0              @ ../../../CORTEX_MPU_M3_NUCLEO_L152RE_GCC/Demo/MessageBufferDemo.c:567:20
	ldr	r0, [sp, #8]                    @ 4-byte Reload
	str	r1, [sp, #24]
	.loc	3 568 29 is_stmt 1              @ ../../../CORTEX_MPU_M3_NUCLEO_L152RE_GCC/Demo/MessageBufferDemo.c:568:29
	ldr	r1, [sp, #12]
	.loc	3 568 5 is_stmt 0               @ ../../../CORTEX_MPU_M3_NUCLEO_L152RE_GCC/Demo/MessageBufferDemo.c:568:5
	bl	MPU_vTaskPrioritySet
.Ltmp275:
	.loc	3 569 5 is_stmt 1               @ ../../../CORTEX_MPU_M3_NUCLEO_L152RE_GCC/Demo/MessageBufferDemo.c:569:5
	ldr	r0, [sp, #24]
	ldr	r1, [sp, #28]
	subs	r0, r0, r1
.Ltmp276:
	.loc	3 569 5 is_stmt 0               @ ../../../CORTEX_MPU_M3_NUCLEO_L152RE_GCC/Demo/MessageBufferDemo.c:569:5
	cmp	r0, #1
	bhi	.LBB10_43
	b	.LBB10_41
.LBB10_41:
.Ltmp277:
	.loc	3 569 5                         @ ../../../CORTEX_MPU_M3_NUCLEO_L152RE_GCC/Demo/MessageBufferDemo.c:569:5
	@APP
	cpsid i
	@NO_APP
	b	.LBB10_42
.LBB10_42:                              @ =>This Inner Loop Header: Depth=1
.Ltmp278:
	.loc	3 569 5                         @ ../../../CORTEX_MPU_M3_NUCLEO_L152RE_GCC/Demo/MessageBufferDemo.c:569:5
	b	.LBB10_42
.Ltmp279:
.LBB10_43:
	.loc	3 570 5 is_stmt 1               @ ../../../CORTEX_MPU_M3_NUCLEO_L152RE_GCC/Demo/MessageBufferDemo.c:570:5
	ldr	r0, [sp, #24]
	ldr	r1, [sp, #28]
	subs	r0, r0, r1
.Ltmp280:
	.loc	3 570 5 is_stmt 0               @ ../../../CORTEX_MPU_M3_NUCLEO_L152RE_GCC/Demo/MessageBufferDemo.c:570:5
	cmp	r0, #2
	blo	.LBB10_46
	b	.LBB10_44
.LBB10_44:
.Ltmp281:
	.loc	3 570 5                         @ ../../../CORTEX_MPU_M3_NUCLEO_L152RE_GCC/Demo/MessageBufferDemo.c:570:5
	@APP
	cpsid i
	@NO_APP
	b	.LBB10_45
.LBB10_45:                              @ =>This Inner Loop Header: Depth=1
.Ltmp282:
	.loc	3 570 5                         @ ../../../CORTEX_MPU_M3_NUCLEO_L152RE_GCC/Demo/MessageBufferDemo.c:570:5
	b	.LBB10_45
.Ltmp283:
.LBB10_46:
	.loc	3 571 5 is_stmt 1               @ ../../../CORTEX_MPU_M3_NUCLEO_L152RE_GCC/Demo/MessageBufferDemo.c:571:5
	ldr	r0, [sp, #120]
.Ltmp284:
	.loc	3 571 5 is_stmt 0               @ ../../../CORTEX_MPU_M3_NUCLEO_L152RE_GCC/Demo/MessageBufferDemo.c:571:5
	cbz	r0, .LBB10_49
	b	.LBB10_47
.LBB10_47:
.Ltmp285:
	.loc	3 571 5                         @ ../../../CORTEX_MPU_M3_NUCLEO_L152RE_GCC/Demo/MessageBufferDemo.c:571:5
	@APP
	cpsid i
	@NO_APP
	b	.LBB10_48
.LBB10_48:                              @ =>This Inner Loop Header: Depth=1
.Ltmp286:
	.loc	3 571 5                         @ ../../../CORTEX_MPU_M3_NUCLEO_L152RE_GCC/Demo/MessageBufferDemo.c:571:5
	b	.LBB10_48
.Ltmp287:
.LBB10_49:
	.loc	3 0 5                           @ ../../../CORTEX_MPU_M3_NUCLEO_L152RE_GCC/Demo/MessageBufferDemo.c:0:5
	movs	r0, #0
.Ltmp288:
	.loc	3 578 16 is_stmt 1              @ ../../../CORTEX_MPU_M3_NUCLEO_L152RE_GCC/Demo/MessageBufferDemo.c:578:16
	str	r0, [sp, #116]
	.loc	3 578 10 is_stmt 0              @ ../../../CORTEX_MPU_M3_NUCLEO_L152RE_GCC/Demo/MessageBufferDemo.c:578:10
	b	.LBB10_50
.LBB10_50:                              @ =>This Inner Loop Header: Depth=1
.Ltmp289:
	.loc	3 578 21                        @ ../../../CORTEX_MPU_M3_NUCLEO_L152RE_GCC/Demo/MessageBufferDemo.c:578:21
	ldr	r0, [sp, #116]
.Ltmp290:
	.loc	3 578 5                         @ ../../../CORTEX_MPU_M3_NUCLEO_L152RE_GCC/Demo/MessageBufferDemo.c:578:5
	cmp	r0, #4
	bhi	.LBB10_68
	b	.LBB10_51
.LBB10_51:                              @   in Loop: Header=BB10_50 Depth=1
.Ltmp291:
	.loc	3 582 28 is_stmt 1              @ ../../../CORTEX_MPU_M3_NUCLEO_L152RE_GCC/Demo/MessageBufferDemo.c:582:28
	ldr	r1, [sp, #36]
	.loc	3 582 63 is_stmt 0              @ ../../../CORTEX_MPU_M3_NUCLEO_L152RE_GCC/Demo/MessageBufferDemo.c:582:63
	ldr	r0, [sp, #116]
	.loc	3 582 9                         @ ../../../CORTEX_MPU_M3_NUCLEO_L152RE_GCC/Demo/MessageBufferDemo.c:582:9
	adds	r0, #48
	strb	r0, [r1, #5]
	strb	r0, [r1, #4]
	strb	r0, [r1, #3]
	strb	r0, [r1, #2]
	strb	r0, [r1, #1]
	strb	r0, [r1]
	.loc	3 586 21 is_stmt 1              @ ../../../CORTEX_MPU_M3_NUCLEO_L152RE_GCC/Demo/MessageBufferDemo.c:586:21
	ldr	r0, [sp, #124]
	ldr	r1, [sp, #32]
	movs	r2, #5
	movs	r3, #0
	bl	MPU_xStreamBufferReceive
	.loc	3 586 19 is_stmt 0              @ ../../../CORTEX_MPU_M3_NUCLEO_L152RE_GCC/Demo/MessageBufferDemo.c:586:19
	str	r0, [sp, #120]
.Ltmp292:
	.loc	3 587 9 is_stmt 1               @ ../../../CORTEX_MPU_M3_NUCLEO_L152RE_GCC/Demo/MessageBufferDemo.c:587:9
	ldr	r0, [sp, #120]
.Ltmp293:
	.loc	3 587 9 is_stmt 0               @ ../../../CORTEX_MPU_M3_NUCLEO_L152RE_GCC/Demo/MessageBufferDemo.c:587:9
	cbz	r0, .LBB10_54
	b	.LBB10_52
.LBB10_52:
.Ltmp294:
	.loc	3 587 9                         @ ../../../CORTEX_MPU_M3_NUCLEO_L152RE_GCC/Demo/MessageBufferDemo.c:587:9
	@APP
	cpsid i
	@NO_APP
	b	.LBB10_53
.LBB10_53:                              @ =>This Inner Loop Header: Depth=1
.Ltmp295:
	.loc	3 587 9                         @ ../../../CORTEX_MPU_M3_NUCLEO_L152RE_GCC/Demo/MessageBufferDemo.c:587:9
	b	.LBB10_53
.Ltmp296:
.LBB10_54:                              @   in Loop: Header=BB10_50 Depth=1
	.loc	3 591 23 is_stmt 1              @ ../../../CORTEX_MPU_M3_NUCLEO_L152RE_GCC/Demo/MessageBufferDemo.c:591:23
	ldr	r0, [sp, #124]
	bl	MPU_xStreamBufferNextMessageLengthBytes
	.loc	3 591 21 is_stmt 0              @ ../../../CORTEX_MPU_M3_NUCLEO_L152RE_GCC/Demo/MessageBufferDemo.c:591:21
	str	r0, [sp, #108]
.Ltmp297:
	.loc	3 592 9 is_stmt 1               @ ../../../CORTEX_MPU_M3_NUCLEO_L152RE_GCC/Demo/MessageBufferDemo.c:592:9
	ldr	r0, [sp, #108]
.Ltmp298:
	.loc	3 592 9 is_stmt 0               @ ../../../CORTEX_MPU_M3_NUCLEO_L152RE_GCC/Demo/MessageBufferDemo.c:592:9
	cmp	r0, #6
	beq	.LBB10_57
	b	.LBB10_55
.LBB10_55:
.Ltmp299:
	.loc	3 592 9                         @ ../../../CORTEX_MPU_M3_NUCLEO_L152RE_GCC/Demo/MessageBufferDemo.c:592:9
	@APP
	cpsid i
	@NO_APP
	b	.LBB10_56
.LBB10_56:                              @ =>This Inner Loop Header: Depth=1
.Ltmp300:
	.loc	3 592 9                         @ ../../../CORTEX_MPU_M3_NUCLEO_L152RE_GCC/Demo/MessageBufferDemo.c:592:9
	b	.LBB10_56
.Ltmp301:
.LBB10_57:                              @   in Loop: Header=BB10_50 Depth=1
	.loc	3 600 9 is_stmt 1               @ ../../../CORTEX_MPU_M3_NUCLEO_L152RE_GCC/Demo/MessageBufferDemo.c:600:9
	bl	vPortEnterCritical
.Ltmp302:
	.loc	3 602 25                        @ ../../../CORTEX_MPU_M3_NUCLEO_L152RE_GCC/Demo/MessageBufferDemo.c:602:25
	ldr	r0, [sp, #124]
	ldr	r1, [sp, #32]
	movs	r2, #6
	movs	r3, #0
	bl	xStreamBufferReceiveFromISR
	.loc	3 602 23 is_stmt 0              @ ../../../CORTEX_MPU_M3_NUCLEO_L152RE_GCC/Demo/MessageBufferDemo.c:602:23
	str	r0, [sp, #120]
.Ltmp303:
	.loc	3 604 9 is_stmt 1               @ ../../../CORTEX_MPU_M3_NUCLEO_L152RE_GCC/Demo/MessageBufferDemo.c:604:9
	bl	vPortExitCritical
.Ltmp304:
	.loc	3 605 9                         @ ../../../CORTEX_MPU_M3_NUCLEO_L152RE_GCC/Demo/MessageBufferDemo.c:605:9
	ldr	r0, [sp, #120]
.Ltmp305:
	.loc	3 605 9 is_stmt 0               @ ../../../CORTEX_MPU_M3_NUCLEO_L152RE_GCC/Demo/MessageBufferDemo.c:605:9
	cmp	r0, #6
	beq	.LBB10_60
	b	.LBB10_58
.LBB10_58:
.Ltmp306:
	.loc	3 605 9                         @ ../../../CORTEX_MPU_M3_NUCLEO_L152RE_GCC/Demo/MessageBufferDemo.c:605:9
	@APP
	cpsid i
	@NO_APP
	b	.LBB10_59
.LBB10_59:                              @ =>This Inner Loop Header: Depth=1
.Ltmp307:
	.loc	3 605 9                         @ ../../../CORTEX_MPU_M3_NUCLEO_L152RE_GCC/Demo/MessageBufferDemo.c:605:9
	b	.LBB10_59
.Ltmp308:
.LBB10_60:                              @   in Loop: Header=BB10_50 Depth=1
	.loc	3 609 9 is_stmt 1               @ ../../../CORTEX_MPU_M3_NUCLEO_L152RE_GCC/Demo/MessageBufferDemo.c:609:9
	ldr	r0, [sp, #36]
	ldr	r1, [sp, #32]
	movs	r2, #6
	bl	memcmp
.Ltmp309:
	.loc	3 609 9 is_stmt 0               @ ../../../CORTEX_MPU_M3_NUCLEO_L152RE_GCC/Demo/MessageBufferDemo.c:609:9
	cbz	r0, .LBB10_63
	b	.LBB10_61
.LBB10_61:
.Ltmp310:
	.loc	3 609 9                         @ ../../../CORTEX_MPU_M3_NUCLEO_L152RE_GCC/Demo/MessageBufferDemo.c:609:9
	@APP
	cpsid i
	@NO_APP
	b	.LBB10_62
.LBB10_62:                              @ =>This Inner Loop Header: Depth=1
.Ltmp311:
	.loc	3 609 9                         @ ../../../CORTEX_MPU_M3_NUCLEO_L152RE_GCC/Demo/MessageBufferDemo.c:609:9
	b	.LBB10_62
.Ltmp312:
.LBB10_63:                              @   in Loop: Header=BB10_50 Depth=1
	.loc	3 614 24 is_stmt 1              @ ../../../CORTEX_MPU_M3_NUCLEO_L152RE_GCC/Demo/MessageBufferDemo.c:614:24
	ldr	r0, [sp, #112]
	adds	r0, #10
	str	r0, [sp, #112]
	.loc	3 615 21                        @ ../../../CORTEX_MPU_M3_NUCLEO_L152RE_GCC/Demo/MessageBufferDemo.c:615:21
	ldr	r0, [sp, #124]
	bl	MPU_xStreamBufferSpacesAvailable
	.loc	3 615 19 is_stmt 0              @ ../../../CORTEX_MPU_M3_NUCLEO_L152RE_GCC/Demo/MessageBufferDemo.c:615:19
	str	r0, [sp, #120]
.Ltmp313:
	.loc	3 616 9 is_stmt 1               @ ../../../CORTEX_MPU_M3_NUCLEO_L152RE_GCC/Demo/MessageBufferDemo.c:616:9
	ldr	r0, [sp, #120]
	ldr	r1, [sp, #112]
.Ltmp314:
	.loc	3 616 9 is_stmt 0               @ ../../../CORTEX_MPU_M3_NUCLEO_L152RE_GCC/Demo/MessageBufferDemo.c:616:9
	cmp	r0, r1
	beq	.LBB10_66
	b	.LBB10_64
.LBB10_64:
.Ltmp315:
	.loc	3 616 9                         @ ../../../CORTEX_MPU_M3_NUCLEO_L152RE_GCC/Demo/MessageBufferDemo.c:616:9
	@APP
	cpsid i
	@NO_APP
	b	.LBB10_65
.LBB10_65:                              @ =>This Inner Loop Header: Depth=1
.Ltmp316:
	.loc	3 616 9                         @ ../../../CORTEX_MPU_M3_NUCLEO_L152RE_GCC/Demo/MessageBufferDemo.c:616:9
	b	.LBB10_65
.Ltmp317:
.LBB10_66:                              @   in Loop: Header=BB10_50 Depth=1
	.loc	3 618 5 is_stmt 1               @ ../../../CORTEX_MPU_M3_NUCLEO_L152RE_GCC/Demo/MessageBufferDemo.c:618:5
	b	.LBB10_67
.Ltmp318:
.LBB10_67:                              @   in Loop: Header=BB10_50 Depth=1
	.loc	3 578 53                        @ ../../../CORTEX_MPU_M3_NUCLEO_L152RE_GCC/Demo/MessageBufferDemo.c:578:53
	ldr	r0, [sp, #116]
	adds	r0, r0, #1
	str	r0, [sp, #116]
	.loc	3 578 5 is_stmt 0               @ ../../../CORTEX_MPU_M3_NUCLEO_L152RE_GCC/Demo/MessageBufferDemo.c:578:5
	b	.LBB10_50
.Ltmp319:
.LBB10_68:
	.loc	3 621 5 is_stmt 1               @ ../../../CORTEX_MPU_M3_NUCLEO_L152RE_GCC/Demo/MessageBufferDemo.c:621:5
	ldr	r0, [sp, #124]
	bl	MPU_xStreamBufferIsEmpty
.Ltmp320:
	.loc	3 621 5 is_stmt 0               @ ../../../CORTEX_MPU_M3_NUCLEO_L152RE_GCC/Demo/MessageBufferDemo.c:621:5
	cmp	r0, #1
	beq	.LBB10_71
	b	.LBB10_69
.LBB10_69:
.Ltmp321:
	.loc	3 621 5                         @ ../../../CORTEX_MPU_M3_NUCLEO_L152RE_GCC/Demo/MessageBufferDemo.c:621:5
	@APP
	cpsid i
	@NO_APP
	b	.LBB10_70
.LBB10_70:                              @ =>This Inner Loop Header: Depth=1
.Ltmp322:
	.loc	3 621 5                         @ ../../../CORTEX_MPU_M3_NUCLEO_L152RE_GCC/Demo/MessageBufferDemo.c:621:5
	b	.LBB10_70
.Ltmp323:
.LBB10_71:
	.loc	3 622 22 is_stmt 1              @ ../../../CORTEX_MPU_M3_NUCLEO_L152RE_GCC/Demo/MessageBufferDemo.c:622:22
	ldr	r0, [sp, #124]
	bl	MPU_xStreamBufferSpacesAvailable
	.loc	3 622 20 is_stmt 0              @ ../../../CORTEX_MPU_M3_NUCLEO_L152RE_GCC/Demo/MessageBufferDemo.c:622:20
	str	r0, [sp, #112]
.Ltmp324:
	.loc	3 623 5 is_stmt 1               @ ../../../CORTEX_MPU_M3_NUCLEO_L152RE_GCC/Demo/MessageBufferDemo.c:623:5
	ldr	r0, [sp, #112]
.Ltmp325:
	.loc	3 623 5 is_stmt 0               @ ../../../CORTEX_MPU_M3_NUCLEO_L152RE_GCC/Demo/MessageBufferDemo.c:623:5
	cmp	r0, #50
	beq	.LBB10_74
	b	.LBB10_72
.LBB10_72:
.Ltmp326:
	.loc	3 623 5                         @ ../../../CORTEX_MPU_M3_NUCLEO_L152RE_GCC/Demo/MessageBufferDemo.c:623:5
	@APP
	cpsid i
	@NO_APP
	b	.LBB10_73
.LBB10_73:                              @ =>This Inner Loop Header: Depth=1
.Ltmp327:
	.loc	3 623 5                         @ ../../../CORTEX_MPU_M3_NUCLEO_L152RE_GCC/Demo/MessageBufferDemo.c:623:5
	b	.LBB10_73
.Ltmp328:
.LBB10_74:
	.loc	3 625 19 is_stmt 1              @ ../../../CORTEX_MPU_M3_NUCLEO_L152RE_GCC/Demo/MessageBufferDemo.c:625:19
	ldr	r0, [sp, #124]
	bl	MPU_xStreamBufferNextMessageLengthBytes
	.loc	3 625 17 is_stmt 0              @ ../../../CORTEX_MPU_M3_NUCLEO_L152RE_GCC/Demo/MessageBufferDemo.c:625:17
	str	r0, [sp, #108]
.Ltmp329:
	.loc	3 626 5 is_stmt 1               @ ../../../CORTEX_MPU_M3_NUCLEO_L152RE_GCC/Demo/MessageBufferDemo.c:626:5
	ldr	r0, [sp, #108]
.Ltmp330:
	.loc	3 626 5 is_stmt 0               @ ../../../CORTEX_MPU_M3_NUCLEO_L152RE_GCC/Demo/MessageBufferDemo.c:626:5
	cbz	r0, .LBB10_77
	b	.LBB10_75
.LBB10_75:
.Ltmp331:
	.loc	3 626 5                         @ ../../../CORTEX_MPU_M3_NUCLEO_L152RE_GCC/Demo/MessageBufferDemo.c:626:5
	@APP
	cpsid i
	@NO_APP
	b	.LBB10_76
.LBB10_76:                              @ =>This Inner Loop Header: Depth=1
.Ltmp332:
	.loc	3 626 5                         @ ../../../CORTEX_MPU_M3_NUCLEO_L152RE_GCC/Demo/MessageBufferDemo.c:626:5
	b	.LBB10_76
.Ltmp333:
.LBB10_77:
	.loc	3 0 5                           @ ../../../CORTEX_MPU_M3_NUCLEO_L152RE_GCC/Demo/MessageBufferDemo.c:0:5
	movs	r0, #0
	str	r0, [sp, #4]                    @ 4-byte Spill
	movs	r1, #4
	.loc	3 633 5 is_stmt 1               @ ../../../CORTEX_MPU_M3_NUCLEO_L152RE_GCC/Demo/MessageBufferDemo.c:633:5
	bl	MPU_vTaskPrioritySet
	.loc	3 634 23                        @ ../../../CORTEX_MPU_M3_NUCLEO_L152RE_GCC/Demo/MessageBufferDemo.c:634:23
	bl	MPU_xTaskGetTickCount
	.loc	3 634 21 is_stmt 0              @ ../../../CORTEX_MPU_M3_NUCLEO_L152RE_GCC/Demo/MessageBufferDemo.c:634:21
	str	r0, [sp, #28]
	.loc	3 635 17 is_stmt 1              @ ../../../CORTEX_MPU_M3_NUCLEO_L152RE_GCC/Demo/MessageBufferDemo.c:635:17
	ldr	r0, [sp, #124]
	ldr	r1, [sp, #32]
	movs	r2, #6
	movs	r3, #2
	bl	MPU_xStreamBufferReceive
	.loc	3 635 15 is_stmt 0              @ ../../../CORTEX_MPU_M3_NUCLEO_L152RE_GCC/Demo/MessageBufferDemo.c:635:15
	str	r0, [sp, #120]
	.loc	3 636 22 is_stmt 1              @ ../../../CORTEX_MPU_M3_NUCLEO_L152RE_GCC/Demo/MessageBufferDemo.c:636:22
	bl	MPU_xTaskGetTickCount
	mov	r1, r0
	.loc	3 636 20 is_stmt 0              @ ../../../CORTEX_MPU_M3_NUCLEO_L152RE_GCC/Demo/MessageBufferDemo.c:636:20
	ldr	r0, [sp, #4]                    @ 4-byte Reload
	str	r1, [sp, #24]
	.loc	3 637 29 is_stmt 1              @ ../../../CORTEX_MPU_M3_NUCLEO_L152RE_GCC/Demo/MessageBufferDemo.c:637:29
	ldr	r1, [sp, #12]
	.loc	3 637 5 is_stmt 0               @ ../../../CORTEX_MPU_M3_NUCLEO_L152RE_GCC/Demo/MessageBufferDemo.c:637:5
	bl	MPU_vTaskPrioritySet
.Ltmp334:
	.loc	3 638 5 is_stmt 1               @ ../../../CORTEX_MPU_M3_NUCLEO_L152RE_GCC/Demo/MessageBufferDemo.c:638:5
	ldr	r0, [sp, #24]
	ldr	r1, [sp, #28]
	subs	r0, r0, r1
.Ltmp335:
	.loc	3 638 5 is_stmt 0               @ ../../../CORTEX_MPU_M3_NUCLEO_L152RE_GCC/Demo/MessageBufferDemo.c:638:5
	cmp	r0, #1
	bhi	.LBB10_80
	b	.LBB10_78
.LBB10_78:
.Ltmp336:
	.loc	3 638 5                         @ ../../../CORTEX_MPU_M3_NUCLEO_L152RE_GCC/Demo/MessageBufferDemo.c:638:5
	@APP
	cpsid i
	@NO_APP
	b	.LBB10_79
.LBB10_79:                              @ =>This Inner Loop Header: Depth=1
.Ltmp337:
	.loc	3 638 5                         @ ../../../CORTEX_MPU_M3_NUCLEO_L152RE_GCC/Demo/MessageBufferDemo.c:638:5
	b	.LBB10_79
.Ltmp338:
.LBB10_80:
	.loc	3 639 5 is_stmt 1               @ ../../../CORTEX_MPU_M3_NUCLEO_L152RE_GCC/Demo/MessageBufferDemo.c:639:5
	ldr	r0, [sp, #24]
	ldr	r1, [sp, #28]
	subs	r0, r0, r1
.Ltmp339:
	.loc	3 639 5 is_stmt 0               @ ../../../CORTEX_MPU_M3_NUCLEO_L152RE_GCC/Demo/MessageBufferDemo.c:639:5
	cmp	r0, #2
	blo	.LBB10_83
	b	.LBB10_81
.LBB10_81:
.Ltmp340:
	.loc	3 639 5                         @ ../../../CORTEX_MPU_M3_NUCLEO_L152RE_GCC/Demo/MessageBufferDemo.c:639:5
	@APP
	cpsid i
	@NO_APP
	b	.LBB10_82
.LBB10_82:                              @ =>This Inner Loop Header: Depth=1
.Ltmp341:
	.loc	3 639 5                         @ ../../../CORTEX_MPU_M3_NUCLEO_L152RE_GCC/Demo/MessageBufferDemo.c:639:5
	b	.LBB10_82
.Ltmp342:
.LBB10_83:
	.loc	3 640 5 is_stmt 1               @ ../../../CORTEX_MPU_M3_NUCLEO_L152RE_GCC/Demo/MessageBufferDemo.c:640:5
	ldr	r0, [sp, #120]
.Ltmp343:
	.loc	3 640 5 is_stmt 0               @ ../../../CORTEX_MPU_M3_NUCLEO_L152RE_GCC/Demo/MessageBufferDemo.c:640:5
	cbz	r0, .LBB10_86
	b	.LBB10_84
.LBB10_84:
.Ltmp344:
	.loc	3 640 5                         @ ../../../CORTEX_MPU_M3_NUCLEO_L152RE_GCC/Demo/MessageBufferDemo.c:640:5
	@APP
	cpsid i
	@NO_APP
	b	.LBB10_85
.LBB10_85:                              @ =>This Inner Loop Header: Depth=1
.Ltmp345:
	.loc	3 640 5                         @ ../../../CORTEX_MPU_M3_NUCLEO_L152RE_GCC/Demo/MessageBufferDemo.c:640:5
	b	.LBB10_85
.Ltmp346:
.LBB10_86:
	.loc	3 0 5                           @ ../../../CORTEX_MPU_M3_NUCLEO_L152RE_GCC/Demo/MessageBufferDemo.c:0:5
	movs	r0, #29
	.loc	3 650 20 is_stmt 1              @ ../../../CORTEX_MPU_M3_NUCLEO_L152RE_GCC/Demo/MessageBufferDemo.c:650:20
	str	r0, [sp, #112]
	movs	r0, #0
.Ltmp347:
	.loc	3 655 16                        @ ../../../CORTEX_MPU_M3_NUCLEO_L152RE_GCC/Demo/MessageBufferDemo.c:655:16
	str	r0, [sp, #116]
	.loc	3 655 10 is_stmt 0              @ ../../../CORTEX_MPU_M3_NUCLEO_L152RE_GCC/Demo/MessageBufferDemo.c:655:10
	b	.LBB10_87
.LBB10_87:                              @ =>This Inner Loop Header: Depth=1
.Ltmp348:
	.loc	3 655 21                        @ ../../../CORTEX_MPU_M3_NUCLEO_L152RE_GCC/Demo/MessageBufferDemo.c:655:21
	ldr	r0, [sp, #116]
.Ltmp349:
	.loc	3 655 5                         @ ../../../CORTEX_MPU_M3_NUCLEO_L152RE_GCC/Demo/MessageBufferDemo.c:655:5
	cmp	r0, #99
	bhi	.LBB10_108
	b	.LBB10_88
.LBB10_88:                              @   in Loop: Header=BB10_87 Depth=1
.Ltmp350:
	.loc	3 660 28 is_stmt 1              @ ../../../CORTEX_MPU_M3_NUCLEO_L152RE_GCC/Demo/MessageBufferDemo.c:660:28
	ldr	r0, [sp, #36]
	.loc	3 660 63 is_stmt 0              @ ../../../CORTEX_MPU_M3_NUCLEO_L152RE_GCC/Demo/MessageBufferDemo.c:660:63
	ldr	r1, [sp, #116]
	.loc	3 660 53                        @ ../../../CORTEX_MPU_M3_NUCLEO_L152RE_GCC/Demo/MessageBufferDemo.c:660:53
	adds	r1, #48
	.loc	3 660 9                         @ ../../../CORTEX_MPU_M3_NUCLEO_L152RE_GCC/Demo/MessageBufferDemo.c:660:9
	uxtb	r2, r1
	movs	r1, #17
	str	r1, [sp]                        @ 4-byte Spill
	bl	__aeabi_memset
	ldr	r2, [sp]                        @ 4-byte Reload
	.loc	3 661 21 is_stmt 1              @ ../../../CORTEX_MPU_M3_NUCLEO_L152RE_GCC/Demo/MessageBufferDemo.c:661:21
	ldr	r0, [sp, #124]
	ldr	r1, [sp, #36]
	movs	r3, #0
	bl	MPU_xStreamBufferSend
	.loc	3 661 19 is_stmt 0              @ ../../../CORTEX_MPU_M3_NUCLEO_L152RE_GCC/Demo/MessageBufferDemo.c:661:19
	str	r0, [sp, #120]
.Ltmp351:
	.loc	3 662 9 is_stmt 1               @ ../../../CORTEX_MPU_M3_NUCLEO_L152RE_GCC/Demo/MessageBufferDemo.c:662:9
	ldr	r0, [sp, #120]
.Ltmp352:
	.loc	3 662 9 is_stmt 0               @ ../../../CORTEX_MPU_M3_NUCLEO_L152RE_GCC/Demo/MessageBufferDemo.c:662:9
	cmp	r0, #17
	beq	.LBB10_91
	b	.LBB10_89
.LBB10_89:
.Ltmp353:
	.loc	3 662 9                         @ ../../../CORTEX_MPU_M3_NUCLEO_L152RE_GCC/Demo/MessageBufferDemo.c:662:9
	@APP
	cpsid i
	@NO_APP
	b	.LBB10_90
.LBB10_90:                              @ =>This Inner Loop Header: Depth=1
.Ltmp354:
	.loc	3 662 9                         @ ../../../CORTEX_MPU_M3_NUCLEO_L152RE_GCC/Demo/MessageBufferDemo.c:662:9
	b	.LBB10_90
.Ltmp355:
.LBB10_91:                              @   in Loop: Header=BB10_87 Depth=1
	.loc	3 666 23 is_stmt 1              @ ../../../CORTEX_MPU_M3_NUCLEO_L152RE_GCC/Demo/MessageBufferDemo.c:666:23
	ldr	r0, [sp, #124]
	bl	MPU_xStreamBufferNextMessageLengthBytes
	.loc	3 666 21 is_stmt 0              @ ../../../CORTEX_MPU_M3_NUCLEO_L152RE_GCC/Demo/MessageBufferDemo.c:666:21
	str	r0, [sp, #108]
.Ltmp356:
	.loc	3 667 9 is_stmt 1               @ ../../../CORTEX_MPU_M3_NUCLEO_L152RE_GCC/Demo/MessageBufferDemo.c:667:9
	ldr	r0, [sp, #108]
.Ltmp357:
	.loc	3 667 9 is_stmt 0               @ ../../../CORTEX_MPU_M3_NUCLEO_L152RE_GCC/Demo/MessageBufferDemo.c:667:9
	cmp	r0, #17
	beq	.LBB10_94
	b	.LBB10_92
.LBB10_92:
.Ltmp358:
	.loc	3 667 9                         @ ../../../CORTEX_MPU_M3_NUCLEO_L152RE_GCC/Demo/MessageBufferDemo.c:667:9
	@APP
	cpsid i
	@NO_APP
	b	.LBB10_93
.LBB10_93:                              @ =>This Inner Loop Header: Depth=1
.Ltmp359:
	.loc	3 667 9                         @ ../../../CORTEX_MPU_M3_NUCLEO_L152RE_GCC/Demo/MessageBufferDemo.c:667:9
	b	.LBB10_93
.Ltmp360:
.LBB10_94:                              @   in Loop: Header=BB10_87 Depth=1
	.loc	3 673 21 is_stmt 1              @ ../../../CORTEX_MPU_M3_NUCLEO_L152RE_GCC/Demo/MessageBufferDemo.c:673:21
	ldr	r0, [sp, #124]
	bl	MPU_xStreamBufferSpacesAvailable
	.loc	3 673 19 is_stmt 0              @ ../../../CORTEX_MPU_M3_NUCLEO_L152RE_GCC/Demo/MessageBufferDemo.c:673:19
	str	r0, [sp, #120]
.Ltmp361:
	.loc	3 674 9 is_stmt 1               @ ../../../CORTEX_MPU_M3_NUCLEO_L152RE_GCC/Demo/MessageBufferDemo.c:674:9
	ldr	r0, [sp, #120]
	ldr	r1, [sp, #112]
.Ltmp362:
	.loc	3 674 9 is_stmt 0               @ ../../../CORTEX_MPU_M3_NUCLEO_L152RE_GCC/Demo/MessageBufferDemo.c:674:9
	cmp	r0, r1
	beq	.LBB10_97
	b	.LBB10_95
.LBB10_95:
.Ltmp363:
	.loc	3 674 9                         @ ../../../CORTEX_MPU_M3_NUCLEO_L152RE_GCC/Demo/MessageBufferDemo.c:674:9
	@APP
	cpsid i
	@NO_APP
	b	.LBB10_96
.LBB10_96:                              @ =>This Inner Loop Header: Depth=1
.Ltmp364:
	.loc	3 674 9                         @ ../../../CORTEX_MPU_M3_NUCLEO_L152RE_GCC/Demo/MessageBufferDemo.c:674:9
	b	.LBB10_96
.Ltmp365:
.LBB10_97:                              @   in Loop: Header=BB10_87 Depth=1
	.loc	3 678 21 is_stmt 1              @ ../../../CORTEX_MPU_M3_NUCLEO_L152RE_GCC/Demo/MessageBufferDemo.c:678:21
	ldr	r0, [sp, #124]
	ldr	r1, [sp, #32]
	movs	r2, #17
	movs	r3, #0
	bl	MPU_xStreamBufferReceive
	.loc	3 678 19 is_stmt 0              @ ../../../CORTEX_MPU_M3_NUCLEO_L152RE_GCC/Demo/MessageBufferDemo.c:678:19
	str	r0, [sp, #120]
.Ltmp366:
	.loc	3 679 9 is_stmt 1               @ ../../../CORTEX_MPU_M3_NUCLEO_L152RE_GCC/Demo/MessageBufferDemo.c:679:9
	ldr	r0, [sp, #120]
.Ltmp367:
	.loc	3 679 9 is_stmt 0               @ ../../../CORTEX_MPU_M3_NUCLEO_L152RE_GCC/Demo/MessageBufferDemo.c:679:9
	cmp	r0, #17
	beq	.LBB10_100
	b	.LBB10_98
.LBB10_98:
.Ltmp368:
	.loc	3 679 9                         @ ../../../CORTEX_MPU_M3_NUCLEO_L152RE_GCC/Demo/MessageBufferDemo.c:679:9
	@APP
	cpsid i
	@NO_APP
	b	.LBB10_99
.LBB10_99:                              @ =>This Inner Loop Header: Depth=1
.Ltmp369:
	.loc	3 679 9                         @ ../../../CORTEX_MPU_M3_NUCLEO_L152RE_GCC/Demo/MessageBufferDemo.c:679:9
	b	.LBB10_99
.Ltmp370:
.LBB10_100:                             @   in Loop: Header=BB10_87 Depth=1
	.loc	3 683 9 is_stmt 1               @ ../../../CORTEX_MPU_M3_NUCLEO_L152RE_GCC/Demo/MessageBufferDemo.c:683:9
	ldr	r0, [sp, #36]
	ldr	r1, [sp, #32]
	movs	r2, #17
	bl	memcmp
.Ltmp371:
	.loc	3 683 9 is_stmt 0               @ ../../../CORTEX_MPU_M3_NUCLEO_L152RE_GCC/Demo/MessageBufferDemo.c:683:9
	cbz	r0, .LBB10_103
	b	.LBB10_101
.LBB10_101:
.Ltmp372:
	.loc	3 683 9                         @ ../../../CORTEX_MPU_M3_NUCLEO_L152RE_GCC/Demo/MessageBufferDemo.c:683:9
	@APP
	cpsid i
	@NO_APP
	b	.LBB10_102
.LBB10_102:                             @ =>This Inner Loop Header: Depth=1
.Ltmp373:
	.loc	3 683 9                         @ ../../../CORTEX_MPU_M3_NUCLEO_L152RE_GCC/Demo/MessageBufferDemo.c:683:9
	b	.LBB10_102
.Ltmp374:
.LBB10_103:                             @   in Loop: Header=BB10_87 Depth=1
	.loc	3 687 23 is_stmt 1              @ ../../../CORTEX_MPU_M3_NUCLEO_L152RE_GCC/Demo/MessageBufferDemo.c:687:23
	ldr	r0, [sp, #124]
	bl	MPU_xStreamBufferNextMessageLengthBytes
	.loc	3 687 21 is_stmt 0              @ ../../../CORTEX_MPU_M3_NUCLEO_L152RE_GCC/Demo/MessageBufferDemo.c:687:21
	str	r0, [sp, #108]
.Ltmp375:
	.loc	3 688 9 is_stmt 1               @ ../../../CORTEX_MPU_M3_NUCLEO_L152RE_GCC/Demo/MessageBufferDemo.c:688:9
	ldr	r0, [sp, #108]
.Ltmp376:
	.loc	3 688 9 is_stmt 0               @ ../../../CORTEX_MPU_M3_NUCLEO_L152RE_GCC/Demo/MessageBufferDemo.c:688:9
	cbz	r0, .LBB10_106
	b	.LBB10_104
.LBB10_104:
.Ltmp377:
	.loc	3 688 9                         @ ../../../CORTEX_MPU_M3_NUCLEO_L152RE_GCC/Demo/MessageBufferDemo.c:688:9
	@APP
	cpsid i
	@NO_APP
	b	.LBB10_105
.LBB10_105:                             @ =>This Inner Loop Header: Depth=1
.Ltmp378:
	.loc	3 688 9                         @ ../../../CORTEX_MPU_M3_NUCLEO_L152RE_GCC/Demo/MessageBufferDemo.c:688:9
	b	.LBB10_105
.Ltmp379:
.LBB10_106:                             @   in Loop: Header=BB10_87 Depth=1
	.loc	3 690 5 is_stmt 1               @ ../../../CORTEX_MPU_M3_NUCLEO_L152RE_GCC/Demo/MessageBufferDemo.c:690:5
	b	.LBB10_107
.Ltmp380:
.LBB10_107:                             @   in Loop: Header=BB10_87 Depth=1
	.loc	3 655 39                        @ ../../../CORTEX_MPU_M3_NUCLEO_L152RE_GCC/Demo/MessageBufferDemo.c:655:39
	ldr	r0, [sp, #116]
	adds	r0, r0, #1
	str	r0, [sp, #116]
	.loc	3 655 5 is_stmt 0               @ ../../../CORTEX_MPU_M3_NUCLEO_L152RE_GCC/Demo/MessageBufferDemo.c:655:5
	b	.LBB10_87
.Ltmp381:
.LBB10_108:
	.loc	3 693 5 is_stmt 1               @ ../../../CORTEX_MPU_M3_NUCLEO_L152RE_GCC/Demo/MessageBufferDemo.c:693:5
	ldr	r0, [sp, #124]
	bl	MPU_xStreamBufferIsEmpty
.Ltmp382:
	.loc	3 693 5 is_stmt 0               @ ../../../CORTEX_MPU_M3_NUCLEO_L152RE_GCC/Demo/MessageBufferDemo.c:693:5
	cmp	r0, #1
	beq	.LBB10_111
	b	.LBB10_109
.LBB10_109:
.Ltmp383:
	.loc	3 693 5                         @ ../../../CORTEX_MPU_M3_NUCLEO_L152RE_GCC/Demo/MessageBufferDemo.c:693:5
	@APP
	cpsid i
	@NO_APP
	b	.LBB10_110
.LBB10_110:                             @ =>This Inner Loop Header: Depth=1
.Ltmp384:
	.loc	3 693 5                         @ ../../../CORTEX_MPU_M3_NUCLEO_L152RE_GCC/Demo/MessageBufferDemo.c:693:5
	b	.LBB10_110
.Ltmp385:
.LBB10_111:
	.loc	3 694 22 is_stmt 1              @ ../../../CORTEX_MPU_M3_NUCLEO_L152RE_GCC/Demo/MessageBufferDemo.c:694:22
	ldr	r0, [sp, #124]
	bl	MPU_xStreamBufferSpacesAvailable
	.loc	3 694 20 is_stmt 0              @ ../../../CORTEX_MPU_M3_NUCLEO_L152RE_GCC/Demo/MessageBufferDemo.c:694:20
	str	r0, [sp, #112]
.Ltmp386:
	.loc	3 695 5 is_stmt 1               @ ../../../CORTEX_MPU_M3_NUCLEO_L152RE_GCC/Demo/MessageBufferDemo.c:695:5
	ldr	r0, [sp, #112]
.Ltmp387:
	.loc	3 695 5 is_stmt 0               @ ../../../CORTEX_MPU_M3_NUCLEO_L152RE_GCC/Demo/MessageBufferDemo.c:695:5
	cmp	r0, #50
	beq	.LBB10_114
	b	.LBB10_112
.LBB10_112:
.Ltmp388:
	.loc	3 695 5                         @ ../../../CORTEX_MPU_M3_NUCLEO_L152RE_GCC/Demo/MessageBufferDemo.c:695:5
	@APP
	cpsid i
	@NO_APP
	b	.LBB10_113
.LBB10_113:                             @ =>This Inner Loop Header: Depth=1
.Ltmp389:
	.loc	3 695 5                         @ ../../../CORTEX_MPU_M3_NUCLEO_L152RE_GCC/Demo/MessageBufferDemo.c:695:5
	b	.LBB10_113
.Ltmp390:
.LBB10_114:
	.loc	3 700 17 is_stmt 1              @ ../../../CORTEX_MPU_M3_NUCLEO_L152RE_GCC/Demo/MessageBufferDemo.c:700:17
	ldr	r0, [sp, #124]
	movw	r1, :lower16:pc55ByteString
	movt	r1, :upper16:pc55ByteString
	movs	r2, #50
	movs	r3, #0
	bl	MPU_xStreamBufferSend
	.loc	3 700 15 is_stmt 0              @ ../../../CORTEX_MPU_M3_NUCLEO_L152RE_GCC/Demo/MessageBufferDemo.c:700:15
	str	r0, [sp, #120]
.Ltmp391:
	.loc	3 701 5 is_stmt 1               @ ../../../CORTEX_MPU_M3_NUCLEO_L152RE_GCC/Demo/MessageBufferDemo.c:701:5
	ldr	r0, [sp, #120]
.Ltmp392:
	.loc	3 701 5 is_stmt 0               @ ../../../CORTEX_MPU_M3_NUCLEO_L152RE_GCC/Demo/MessageBufferDemo.c:701:5
	cbz	r0, .LBB10_117
	b	.LBB10_115
.LBB10_115:
.Ltmp393:
	.loc	3 701 5                         @ ../../../CORTEX_MPU_M3_NUCLEO_L152RE_GCC/Demo/MessageBufferDemo.c:701:5
	@APP
	cpsid i
	@NO_APP
	b	.LBB10_116
.LBB10_116:                             @ =>This Inner Loop Header: Depth=1
.Ltmp394:
	.loc	3 701 5                         @ ../../../CORTEX_MPU_M3_NUCLEO_L152RE_GCC/Demo/MessageBufferDemo.c:701:5
	b	.LBB10_116
.Ltmp395:
.LBB10_117:
	.loc	3 721 19 is_stmt 1              @ ../../../CORTEX_MPU_M3_NUCLEO_L152RE_GCC/Demo/MessageBufferDemo.c:721:19
	ldr	r0, [sp, #124]
	bl	MPU_xStreamBufferNextMessageLengthBytes
	.loc	3 721 17 is_stmt 0              @ ../../../CORTEX_MPU_M3_NUCLEO_L152RE_GCC/Demo/MessageBufferDemo.c:721:17
	str	r0, [sp, #108]
.Ltmp396:
	.loc	3 722 5 is_stmt 1               @ ../../../CORTEX_MPU_M3_NUCLEO_L152RE_GCC/Demo/MessageBufferDemo.c:722:5
	ldr	r0, [sp, #108]
.Ltmp397:
	.loc	3 722 5 is_stmt 0               @ ../../../CORTEX_MPU_M3_NUCLEO_L152RE_GCC/Demo/MessageBufferDemo.c:722:5
	cbz	r0, .LBB10_120
	b	.LBB10_118
.LBB10_118:
.Ltmp398:
	.loc	3 722 5                         @ ../../../CORTEX_MPU_M3_NUCLEO_L152RE_GCC/Demo/MessageBufferDemo.c:722:5
	@APP
	cpsid i
	@NO_APP
	b	.LBB10_119
.LBB10_119:                             @ =>This Inner Loop Header: Depth=1
.Ltmp399:
	.loc	3 722 5                         @ ../../../CORTEX_MPU_M3_NUCLEO_L152RE_GCC/Demo/MessageBufferDemo.c:722:5
	b	.LBB10_119
.Ltmp400:
.LBB10_120:
	.loc	3 726 17 is_stmt 1              @ ../../../CORTEX_MPU_M3_NUCLEO_L152RE_GCC/Demo/MessageBufferDemo.c:726:17
	ldr	r0, [sp, #124]
	movw	r1, :lower16:pc55ByteString
	movt	r1, :upper16:pc55ByteString
	movs	r2, #46
	movs	r3, #0
	bl	MPU_xStreamBufferSend
	.loc	3 726 15 is_stmt 0              @ ../../../CORTEX_MPU_M3_NUCLEO_L152RE_GCC/Demo/MessageBufferDemo.c:726:15
	str	r0, [sp, #120]
.Ltmp401:
	.loc	3 727 5 is_stmt 1               @ ../../../CORTEX_MPU_M3_NUCLEO_L152RE_GCC/Demo/MessageBufferDemo.c:727:5
	ldr	r0, [sp, #120]
.Ltmp402:
	.loc	3 727 5 is_stmt 0               @ ../../../CORTEX_MPU_M3_NUCLEO_L152RE_GCC/Demo/MessageBufferDemo.c:727:5
	cmp	r0, #46
	beq	.LBB10_123
	b	.LBB10_121
.LBB10_121:
.Ltmp403:
	.loc	3 727 5                         @ ../../../CORTEX_MPU_M3_NUCLEO_L152RE_GCC/Demo/MessageBufferDemo.c:727:5
	@APP
	cpsid i
	@NO_APP
	b	.LBB10_122
.LBB10_122:                             @ =>This Inner Loop Header: Depth=1
.Ltmp404:
	.loc	3 727 5                         @ ../../../CORTEX_MPU_M3_NUCLEO_L152RE_GCC/Demo/MessageBufferDemo.c:727:5
	b	.LBB10_122
.Ltmp405:
.LBB10_123:
	.loc	3 729 19 is_stmt 1              @ ../../../CORTEX_MPU_M3_NUCLEO_L152RE_GCC/Demo/MessageBufferDemo.c:729:19
	ldr	r0, [sp, #124]
	bl	MPU_xStreamBufferNextMessageLengthBytes
	.loc	3 729 17 is_stmt 0              @ ../../../CORTEX_MPU_M3_NUCLEO_L152RE_GCC/Demo/MessageBufferDemo.c:729:17
	str	r0, [sp, #108]
.Ltmp406:
	.loc	3 730 5 is_stmt 1               @ ../../../CORTEX_MPU_M3_NUCLEO_L152RE_GCC/Demo/MessageBufferDemo.c:730:5
	ldr	r0, [sp, #108]
.Ltmp407:
	.loc	3 730 5 is_stmt 0               @ ../../../CORTEX_MPU_M3_NUCLEO_L152RE_GCC/Demo/MessageBufferDemo.c:730:5
	cmp	r0, #46
	beq	.LBB10_126
	b	.LBB10_124
.LBB10_124:
.Ltmp408:
	.loc	3 730 5                         @ ../../../CORTEX_MPU_M3_NUCLEO_L152RE_GCC/Demo/MessageBufferDemo.c:730:5
	@APP
	cpsid i
	@NO_APP
	b	.LBB10_125
.LBB10_125:                             @ =>This Inner Loop Header: Depth=1
.Ltmp409:
	.loc	3 730 5                         @ ../../../CORTEX_MPU_M3_NUCLEO_L152RE_GCC/Demo/MessageBufferDemo.c:730:5
	b	.LBB10_125
.Ltmp410:
.LBB10_126:
	.loc	3 732 17 is_stmt 1              @ ../../../CORTEX_MPU_M3_NUCLEO_L152RE_GCC/Demo/MessageBufferDemo.c:732:17
	ldr	r0, [sp, #124]
	ldr	r1, [sp, #40]
	movs	r2, #46
	movs	r3, #0
	bl	MPU_xStreamBufferReceive
	.loc	3 732 15 is_stmt 0              @ ../../../CORTEX_MPU_M3_NUCLEO_L152RE_GCC/Demo/MessageBufferDemo.c:732:15
	str	r0, [sp, #120]
.Ltmp411:
	.loc	3 733 5 is_stmt 1               @ ../../../CORTEX_MPU_M3_NUCLEO_L152RE_GCC/Demo/MessageBufferDemo.c:733:5
	ldr	r0, [sp, #120]
.Ltmp412:
	.loc	3 733 5 is_stmt 0               @ ../../../CORTEX_MPU_M3_NUCLEO_L152RE_GCC/Demo/MessageBufferDemo.c:733:5
	cmp	r0, #46
	beq	.LBB10_129
	b	.LBB10_127
.LBB10_127:
.Ltmp413:
	.loc	3 733 5                         @ ../../../CORTEX_MPU_M3_NUCLEO_L152RE_GCC/Demo/MessageBufferDemo.c:733:5
	@APP
	cpsid i
	@NO_APP
	b	.LBB10_128
.LBB10_128:                             @ =>This Inner Loop Header: Depth=1
.Ltmp414:
	.loc	3 733 5                         @ ../../../CORTEX_MPU_M3_NUCLEO_L152RE_GCC/Demo/MessageBufferDemo.c:733:5
	b	.LBB10_128
.Ltmp415:
.LBB10_129:
	.loc	3 735 5 is_stmt 1               @ ../../../CORTEX_MPU_M3_NUCLEO_L152RE_GCC/Demo/MessageBufferDemo.c:735:5
	ldr	r0, [sp, #40]
	movw	r1, :lower16:pc55ByteString
	movt	r1, :upper16:pc55ByteString
	movs	r2, #46
	bl	memcmp
.Ltmp416:
	.loc	3 735 5 is_stmt 0               @ ../../../CORTEX_MPU_M3_NUCLEO_L152RE_GCC/Demo/MessageBufferDemo.c:735:5
	cbz	r0, .LBB10_132
	b	.LBB10_130
.LBB10_130:
.Ltmp417:
	.loc	3 735 5                         @ ../../../CORTEX_MPU_M3_NUCLEO_L152RE_GCC/Demo/MessageBufferDemo.c:735:5
	@APP
	cpsid i
	@NO_APP
	b	.LBB10_131
.LBB10_131:                             @ =>This Inner Loop Header: Depth=1
.Ltmp418:
	.loc	3 735 5                         @ ../../../CORTEX_MPU_M3_NUCLEO_L152RE_GCC/Demo/MessageBufferDemo.c:735:5
	b	.LBB10_131
.Ltmp419:
.LBB10_132:
	.loc	3 738 5 is_stmt 1               @ ../../../CORTEX_MPU_M3_NUCLEO_L152RE_GCC/Demo/MessageBufferDemo.c:738:5
	ldr	r0, [sp, #124]
	bl	MPU_xStreamBufferReset
	.loc	3 739 1                         @ ../../../CORTEX_MPU_M3_NUCLEO_L152RE_GCC/Demo/MessageBufferDemo.c:739:1
	add	sp, #128
	pop	{r7, pc}
.Ltmp420:
.Lfunc_end10:
	.size	prvSingleTaskTests, .Lfunc_end10-prvSingleTaskTests
	.cfi_endproc
	.cantunwind
	.fnend
                                        @ -- End function
	.type	vStartMessageBufferTasks.xEchoServerTask1Stack,%object @ @vStartMessageBufferTasks.xEchoServerTask1Stack
	.section	.bss.vStartMessageBufferTasks.xEchoServerTask1Stack,"aw",%nobits
	.p2align	10, 0x0
vStartMessageBufferTasks.xEchoServerTask1Stack:
	.zero	1024
	.size	vStartMessageBufferTasks.xEchoServerTask1Stack, 1024

	.type	vStartMessageBufferTasks.xEchoServerTask2Stack,%object @ @vStartMessageBufferTasks.xEchoServerTask2Stack
	.section	.bss.vStartMessageBufferTasks.xEchoServerTask2Stack,"aw",%nobits
	.p2align	10, 0x0
vStartMessageBufferTasks.xEchoServerTask2Stack:
	.zero	1024
	.size	vStartMessageBufferTasks.xEchoServerTask2Stack, 1024

	.type	vStartMessageBufferTasks.xNonBlockingReceiverTaskStack,%object @ @vStartMessageBufferTasks.xNonBlockingReceiverTaskStack
	.section	.bss.vStartMessageBufferTasks.xNonBlockingReceiverTaskStack,"aw",%nobits
	.p2align	9, 0x0
vStartMessageBufferTasks.xNonBlockingReceiverTaskStack:
	.zero	512
	.size	vStartMessageBufferTasks.xNonBlockingReceiverTaskStack, 512

	.type	vStartMessageBufferTasks.xNonBlockingSenderTaskStack,%object @ @vStartMessageBufferTasks.xNonBlockingSenderTaskStack
	.section	.bss.vStartMessageBufferTasks.xNonBlockingSenderTaskStack,"aw",%nobits
	.p2align	9, 0x0
vStartMessageBufferTasks.xNonBlockingSenderTaskStack:
	.zero	512
	.size	vStartMessageBufferTasks.xNonBlockingSenderTaskStack, 512

	.type	vStartMessageBufferTasks.xEchoClientTask1Stack,%object @ @vStartMessageBufferTasks.xEchoClientTask1Stack
	.section	.bss.vStartMessageBufferTasks.xEchoClientTask1Stack,"aw",%nobits
	.p2align	9, 0x0
vStartMessageBufferTasks.xEchoClientTask1Stack:
	.zero	512
	.size	vStartMessageBufferTasks.xEchoClientTask1Stack, 512

	.type	vStartMessageBufferTasks.xEchoClientTask2Stack,%object @ @vStartMessageBufferTasks.xEchoClientTask2Stack
	.section	.bss.vStartMessageBufferTasks.xEchoClientTask2Stack,"aw",%nobits
	.p2align	9, 0x0
vStartMessageBufferTasks.xEchoClientTask2Stack:
	.zero	512
	.size	vStartMessageBufferTasks.xEchoClientTask2Stack, 512

	.type	.L.str,%object                  @ @.str
	.section	.rodata.str1.1,"aMS",%progbits,1
.L.str:
	.asciz	"1EchoServer"
	.size	.L.str, 12

	.type	xEchoMessageBuffersArray,%object @ @xEchoMessageBuffersArray
	.section	.bss.xEchoMessageBuffersArray,"aw",%nobits
	.p2align	5, 0x0
xEchoMessageBuffersArray:
	.zero	32
	.size	xEchoMessageBuffersArray, 32

	.type	xEchoClientTaskHandles,%object  @ @xEchoClientTaskHandles
	.section	.bss.xEchoClientTaskHandles,"aw",%nobits
	.p2align	5, 0x0
xEchoClientTaskHandles:
	.zero	16
	.size	xEchoClientTaskHandles, 16

	.type	pc55ByteString,%object          @ @pc55ByteString
	.section	.bss.pc55ByteString,"aw",%nobits
	.p2align	7, 0x0
pc55ByteString:
	.zero	128
	.size	pc55ByteString, 128

	.type	.L__const.vStartMessageBufferTasks.xEchoServerTask1Parameters,%object @ @__const.vStartMessageBufferTasks.xEchoServerTask1Parameters
	.section	.rodata..L__const.vStartMessageBufferTasks.xEchoServerTask1Parameters,"a",%progbits
	.p2align	2, 0x0
.L__const.vStartMessageBufferTasks.xEchoServerTask1Parameters:
	.long	prvEchoServer
	.long	.L.str
	.short	256                             @ 0x100
	.zero	2
	.long	0
	.long	2147483649                      @ 0x80000001
	.long	vStartMessageBufferTasks.xEchoServerTask1Stack
	.long	xEchoMessageBuffersArray
	.long	32                              @ 0x20
	.long	3                               @ 0x3
	.long	xEchoClientTaskHandles
	.long	32                              @ 0x20
	.long	3                               @ 0x3
	.long	pc55ByteString
	.long	128                             @ 0x80
	.long	3                               @ 0x3
	.long	0
	.size	.L__const.vStartMessageBufferTasks.xEchoServerTask1Parameters, 64

	.type	.L.str.1,%object                @ @.str.1
	.section	.rodata.str1.1,"aMS",%progbits,1
.L.str.1:
	.asciz	"2EchoServer"
	.size	.L.str.1, 12

	.type	.L__const.vStartMessageBufferTasks.xEchoServerTask2Parameters,%object @ @__const.vStartMessageBufferTasks.xEchoServerTask2Parameters
	.section	.rodata..L__const.vStartMessageBufferTasks.xEchoServerTask2Parameters,"a",%progbits
	.p2align	2, 0x0
.L__const.vStartMessageBufferTasks.xEchoServerTask2Parameters:
	.long	prvEchoServer
	.long	.L.str.1
	.short	256                             @ 0x100
	.zero	2
	.long	0
	.long	2147483648                      @ 0x80000000
	.long	vStartMessageBufferTasks.xEchoServerTask2Stack
	.long	xEchoMessageBuffersArray
	.long	32                              @ 0x20
	.long	3                               @ 0x3
	.long	xEchoClientTaskHandles
	.long	32                              @ 0x20
	.long	3                               @ 0x3
	.long	pc55ByteString
	.long	128                             @ 0x80
	.long	3                               @ 0x3
	.long	0
	.size	.L__const.vStartMessageBufferTasks.xEchoServerTask2Parameters, 64

	.type	.L.str.2,%object                @ @.str.2
	.section	.rodata.str1.1,"aMS",%progbits,1
.L.str.2:
	.asciz	"NonBlkRx"
	.size	.L.str.2, 9

	.type	ulNonBlockingRxCounter,%object  @ @ulNonBlockingRxCounter
	.section	.bss.ulNonBlockingRxCounter,"aw",%nobits
	.p2align	5, 0x0
ulNonBlockingRxCounter:
	.zero	32
	.size	ulNonBlockingRxCounter, 32

	.type	.L__const.vStartMessageBufferTasks.xNonBlockingReceiverTaskParameters,%object @ @__const.vStartMessageBufferTasks.xNonBlockingReceiverTaskParameters
	.section	.rodata..L__const.vStartMessageBufferTasks.xNonBlockingReceiverTaskParameters,"a",%progbits
	.p2align	2, 0x0
.L__const.vStartMessageBufferTasks.xNonBlockingReceiverTaskParameters:
	.long	prvNonBlockingReceiverTask
	.long	.L.str.2
	.short	128                             @ 0x80
	.zero	2
	.long	0
	.long	2147483648                      @ 0x80000000
	.long	vStartMessageBufferTasks.xNonBlockingReceiverTaskStack
	.long	ulNonBlockingRxCounter
	.long	32                              @ 0x20
	.long	3                               @ 0x3
	.zero	12
	.zero	12
	.long	0
	.size	.L__const.vStartMessageBufferTasks.xNonBlockingReceiverTaskParameters, 64

	.type	.L.str.3,%object                @ @.str.3
	.section	.rodata.str1.1,"aMS",%progbits,1
.L.str.3:
	.asciz	"NonBlkTx"
	.size	.L.str.3, 9

	.type	.L__const.vStartMessageBufferTasks.xNonBlockingSenderTaskParameters,%object @ @__const.vStartMessageBufferTasks.xNonBlockingSenderTaskParameters
	.section	.rodata..L__const.vStartMessageBufferTasks.xNonBlockingSenderTaskParameters,"a",%progbits
	.p2align	2, 0x0
.L__const.vStartMessageBufferTasks.xNonBlockingSenderTaskParameters:
	.long	prvNonBlockingSenderTask
	.long	.L.str.3
	.short	128                             @ 0x80
	.zero	2
	.long	0
	.long	2147483648                      @ 0x80000000
	.long	vStartMessageBufferTasks.xNonBlockingSenderTaskStack
	.zero	36
	.long	0
	.size	.L__const.vStartMessageBufferTasks.xNonBlockingSenderTaskParameters, 64

	.type	.L.str.4,%object                @ @.str.4
	.section	.rodata.str1.1,"aMS",%progbits,1
.L.str.4:
	.asciz	"EchoClient"
	.size	.L.str.4, 11

	.type	ulEchoLoopCounters,%object      @ @ulEchoLoopCounters
	.section	.bss.ulEchoLoopCounters,"aw",%nobits
	.p2align	5, 0x0
ulEchoLoopCounters:
	.zero	32
	.size	ulEchoLoopCounters, 32

	.type	.L__const.vStartMessageBufferTasks.xEchoClientTask1Parameters,%object @ @__const.vStartMessageBufferTasks.xEchoClientTask1Parameters
	.section	.rodata..L__const.vStartMessageBufferTasks.xEchoClientTask1Parameters,"a",%progbits
	.p2align	2, 0x0
.L__const.vStartMessageBufferTasks.xEchoClientTask1Parameters:
	.long	prvEchoClient
	.long	.L.str.4
	.short	128                             @ 0x80
	.zero	2
	.long	0
	.long	0                               @ 0x0
	.long	vStartMessageBufferTasks.xEchoClientTask1Stack
	.long	xEchoMessageBuffersArray
	.long	32                              @ 0x20
	.long	3                               @ 0x3
	.long	ulEchoLoopCounters
	.long	32                              @ 0x20
	.long	3                               @ 0x3
	.zero	12
	.long	0
	.size	.L__const.vStartMessageBufferTasks.xEchoClientTask1Parameters, 64

	.type	.L__const.vStartMessageBufferTasks.xEchoClientTask2Parameters,%object @ @__const.vStartMessageBufferTasks.xEchoClientTask2Parameters
	.section	.rodata..L__const.vStartMessageBufferTasks.xEchoClientTask2Parameters,"a",%progbits
	.p2align	2, 0x0
.L__const.vStartMessageBufferTasks.xEchoClientTask2Parameters:
	.long	prvEchoClient
	.long	.L.str.4
	.short	128                             @ 0x80
	.zero	2
	.long	0
	.long	1                               @ 0x1
	.long	vStartMessageBufferTasks.xEchoClientTask2Stack
	.long	xEchoMessageBuffersArray
	.long	32                              @ 0x20
	.long	3                               @ 0x3
	.long	ulEchoLoopCounters
	.long	32                              @ 0x20
	.long	3                               @ 0x3
	.zero	12
	.long	0
	.size	.L__const.vStartMessageBufferTasks.xEchoClientTask2Parameters, 64

	.type	.L.str.5,%object                @ @.str.5
	.section	.rodata.str1.1,"aMS",%progbits,1
.L.str.5:
	.asciz	"One two three four five six seven eight nine ten eleve"
	.size	.L.str.5, 55

	.type	vStartMessageBufferTasks.xSenderTask1Stack,%object @ @vStartMessageBufferTasks.xSenderTask1Stack
	.section	.bss.vStartMessageBufferTasks.xSenderTask1Stack,"aw",%nobits
	.p2align	10, 0x0
vStartMessageBufferTasks.xSenderTask1Stack:
	.zero	1024
	.size	vStartMessageBufferTasks.xSenderTask1Stack, 1024

	.type	vStartMessageBufferTasks.xSenderTask2Stack,%object @ @vStartMessageBufferTasks.xSenderTask2Stack
	.section	.bss.vStartMessageBufferTasks.xSenderTask2Stack,"aw",%nobits
	.p2align	10, 0x0
vStartMessageBufferTasks.xSenderTask2Stack:
	.zero	1024
	.size	vStartMessageBufferTasks.xSenderTask2Stack, 1024

	.type	vStartMessageBufferTasks.xReceivingTask1Stack,%object @ @vStartMessageBufferTasks.xReceivingTask1Stack
	.section	.bss.vStartMessageBufferTasks.xReceivingTask1Stack,"aw",%nobits
	.p2align	10, 0x0
vStartMessageBufferTasks.xReceivingTask1Stack:
	.zero	1024
	.size	vStartMessageBufferTasks.xReceivingTask1Stack, 1024

	.type	vStartMessageBufferTasks.xReceivingTask2Stack,%object @ @vStartMessageBufferTasks.xReceivingTask2Stack
	.section	.bss.vStartMessageBufferTasks.xReceivingTask2Stack,"aw",%nobits
	.p2align	10, 0x0
vStartMessageBufferTasks.xReceivingTask2Stack:
	.zero	1024
	.size	vStartMessageBufferTasks.xReceivingTask2Stack, 1024

	.type	.L.str.6,%object                @ @.str.6
	.section	.rodata.str1.1,"aMS",%progbits,1
.L.str.6:
	.asciz	"1Sender"
	.size	.L.str.6, 8

	.type	xReceiverTaskHandles,%object    @ @xReceiverTaskHandles
	.section	.bss.xReceiverTaskHandles,"aw",%nobits
	.p2align	5, 0x0
xReceiverTaskHandles:
	.zero	32
	.size	xReceiverTaskHandles, 32

	.type	ulSenderLoopCounters,%object    @ @ulSenderLoopCounters
	.section	.bss.ulSenderLoopCounters,"aw",%nobits
	.p2align	5, 0x0
ulSenderLoopCounters:
	.zero	32
	.size	ulSenderLoopCounters, 32

	.type	.L__const.vStartMessageBufferTasks.xSenderTask1Parameters,%object @ @__const.vStartMessageBufferTasks.xSenderTask1Parameters
	.section	.rodata..L__const.vStartMessageBufferTasks.xSenderTask1Parameters,"a",%progbits
	.p2align	2, 0x0
.L__const.vStartMessageBufferTasks.xSenderTask1Parameters:
	.long	prvSenderTask
	.long	.L.str.6
	.short	256                             @ 0x100
	.zero	2
	.long	0
	.long	2147483649                      @ 0x80000001
	.long	vStartMessageBufferTasks.xSenderTask1Stack
	.long	xReceiverTaskHandles
	.long	32                              @ 0x20
	.long	3                               @ 0x3
	.long	ulSenderLoopCounters
	.long	32                              @ 0x20
	.long	3                               @ 0x3
	.long	pc55ByteString
	.long	128                             @ 0x80
	.long	3                               @ 0x3
	.long	0
	.size	.L__const.vStartMessageBufferTasks.xSenderTask1Parameters, 64

	.type	.L.str.7,%object                @ @.str.7
	.section	.rodata.str1.1,"aMS",%progbits,1
.L.str.7:
	.asciz	"2Sender"
	.size	.L.str.7, 8

	.type	.L__const.vStartMessageBufferTasks.xSenderTask2Parameters,%object @ @__const.vStartMessageBufferTasks.xSenderTask2Parameters
	.section	.rodata..L__const.vStartMessageBufferTasks.xSenderTask2Parameters,"a",%progbits
	.p2align	2, 0x0
.L__const.vStartMessageBufferTasks.xSenderTask2Parameters:
	.long	prvSenderTask
	.long	.L.str.7
	.short	256                             @ 0x100
	.zero	2
	.long	0
	.long	2147483648                      @ 0x80000000
	.long	vStartMessageBufferTasks.xSenderTask2Stack
	.long	xReceiverTaskHandles
	.long	32                              @ 0x20
	.long	3                               @ 0x3
	.long	ulSenderLoopCounters
	.long	32                              @ 0x20
	.long	3                               @ 0x3
	.long	pc55ByteString
	.long	128                             @ 0x80
	.long	3                               @ 0x3
	.long	0
	.size	.L__const.vStartMessageBufferTasks.xSenderTask2Parameters, 64

	.type	.L.str.8,%object                @ @.str.8
	.section	.rodata.str1.1,"aMS",%progbits,1
.L.str.8:
	.asciz	"MsgReceiver"
	.size	.L.str.8, 12

	.type	.L__const.vStartMessageBufferTasks.xReceivingTask1Parameters,%object @ @__const.vStartMessageBufferTasks.xReceivingTask1Parameters
	.section	.rodata..L__const.vStartMessageBufferTasks.xReceivingTask1Parameters,"a",%progbits
	.p2align	2, 0x0
.L__const.vStartMessageBufferTasks.xReceivingTask1Parameters:
	.long	prvReceiverTask
	.long	.L.str.8
	.short	256                             @ 0x100
	.zero	2
	.long	0
	.long	2147483648                      @ 0x80000000
	.long	vStartMessageBufferTasks.xReceivingTask1Stack
	.zero	36
	.long	0
	.size	.L__const.vStartMessageBufferTasks.xReceivingTask1Parameters, 64

	.type	.L__const.vStartMessageBufferTasks.xReceivingTask2Parameters,%object @ @__const.vStartMessageBufferTasks.xReceivingTask2Parameters
	.section	.rodata..L__const.vStartMessageBufferTasks.xReceivingTask2Parameters,"a",%progbits
	.p2align	2, 0x0
.L__const.vStartMessageBufferTasks.xReceivingTask2Parameters:
	.long	prvReceiverTask
	.long	.L.str.8
	.short	256                             @ 0x100
	.zero	2
	.long	0
	.long	2147483649                      @ 0x80000001
	.long	vStartMessageBufferTasks.xReceivingTask2Stack
	.zero	36
	.long	0
	.size	.L__const.vStartMessageBufferTasks.xReceivingTask2Parameters, 64

	.type	ucBufferStorage,%object         @ @ucBufferStorage
	.section	.bss.ucBufferStorage,"aw",%nobits
ucBufferStorage:
	.zero	102
	.size	ucBufferStorage, 102

	.type	xStaticMessageBuffers,%object   @ @xStaticMessageBuffers
	.section	.bss.xStaticMessageBuffers,"aw",%nobits
	.p2align	2, 0x0
xStaticMessageBuffers:
	.zero	72
	.size	xStaticMessageBuffers, 72

	.type	vStartMessageBufferTasks.xCoherenceActorTaskStack,%object @ @vStartMessageBufferTasks.xCoherenceActorTaskStack
	.section	.bss.vStartMessageBufferTasks.xCoherenceActorTaskStack,"aw",%nobits
	.p2align	9, 0x0
vStartMessageBufferTasks.xCoherenceActorTaskStack:
	.zero	512
	.size	vStartMessageBufferTasks.xCoherenceActorTaskStack, 512

	.type	vStartMessageBufferTasks.xCoherenceTesterTaskStack,%object @ @vStartMessageBufferTasks.xCoherenceTesterTaskStack
	.section	.bss.vStartMessageBufferTasks.xCoherenceTesterTaskStack,"aw",%nobits
	.p2align	9, 0x0
vStartMessageBufferTasks.xCoherenceTesterTaskStack:
	.zero	512
	.size	vStartMessageBufferTasks.xCoherenceTesterTaskStack, 512

	.type	.L.str.9,%object                @ @.str.9
	.section	.rodata.str1.1,"aMS",%progbits,1
.L.str.9:
	.asciz	"mbsanity1"
	.size	.L.str.9, 10

	.type	.L__const.vStartMessageBufferTasks.xCoherenceActorTaskParameters,%object @ @__const.vStartMessageBufferTasks.xCoherenceActorTaskParameters
	.section	.rodata..L__const.vStartMessageBufferTasks.xCoherenceActorTaskParameters,"a",%progbits
	.p2align	2, 0x0
.L__const.vStartMessageBufferTasks.xCoherenceActorTaskParameters:
	.long	prvSpaceAvailableCoherenceActor
	.long	.L.str.9
	.short	128                             @ 0x80
	.zero	2
	.long	0
	.long	0                               @ 0x0
	.long	vStartMessageBufferTasks.xCoherenceActorTaskStack
	.zero	36
	.long	0
	.size	.L__const.vStartMessageBufferTasks.xCoherenceActorTaskParameters, 64

	.type	.L.str.10,%object               @ @.str.10
	.section	.rodata.str1.1,"aMS",%progbits,1
.L.str.10:
	.asciz	"mbsanity2"
	.size	.L.str.10, 10

	.type	ulSizeCoherencyTestCycles,%object @ @ulSizeCoherencyTestCycles
	.section	.bss.ulSizeCoherencyTestCycles,"aw",%nobits
	.p2align	5, 0x0
ulSizeCoherencyTestCycles:
	.zero	32
	.size	ulSizeCoherencyTestCycles, 32

	.type	.L__const.vStartMessageBufferTasks.xCoherenceTesterTaskParameters,%object @ @__const.vStartMessageBufferTasks.xCoherenceTesterTaskParameters
	.section	.rodata..L__const.vStartMessageBufferTasks.xCoherenceTesterTaskParameters,"a",%progbits
	.p2align	2, 0x0
.L__const.vStartMessageBufferTasks.xCoherenceTesterTaskParameters:
	.long	prvSpaceAvailableCoherenceTester
	.long	.L.str.10
	.short	128                             @ 0x80
	.zero	2
	.long	0
	.long	0                               @ 0x0
	.long	vStartMessageBufferTasks.xCoherenceTesterTaskStack
	.long	ulSizeCoherencyTestCycles
	.long	32                              @ 0x20
	.long	3                               @ 0x3
	.zero	12
	.zero	12
	.long	0
	.size	.L__const.vStartMessageBufferTasks.xCoherenceTesterTaskParameters, 64

	.type	xAreMessageBufferTasksStillRunning.ulLastEchoLoopCounters,%object @ @xAreMessageBufferTasksStillRunning.ulLastEchoLoopCounters
	.section	.bss.xAreMessageBufferTasksStillRunning.ulLastEchoLoopCounters,"aw",%nobits
	.p2align	2, 0x0
xAreMessageBufferTasksStillRunning.ulLastEchoLoopCounters:
	.zero	8
	.size	xAreMessageBufferTasksStillRunning.ulLastEchoLoopCounters, 8

	.type	xAreMessageBufferTasksStillRunning.ulLastNonBlockingRxCounter,%object @ @xAreMessageBufferTasksStillRunning.ulLastNonBlockingRxCounter
	.section	.bss.xAreMessageBufferTasksStillRunning.ulLastNonBlockingRxCounter,"aw",%nobits
	.p2align	2, 0x0
xAreMessageBufferTasksStillRunning.ulLastNonBlockingRxCounter:
	.long	0                               @ 0x0
	.size	xAreMessageBufferTasksStillRunning.ulLastNonBlockingRxCounter, 4

	.type	xAreMessageBufferTasksStillRunning.ulLastSenderLoopCounters,%object @ @xAreMessageBufferTasksStillRunning.ulLastSenderLoopCounters
	.section	.bss.xAreMessageBufferTasksStillRunning.ulLastSenderLoopCounters,"aw",%nobits
	.p2align	2, 0x0
xAreMessageBufferTasksStillRunning.ulLastSenderLoopCounters:
	.zero	8
	.size	xAreMessageBufferTasksStillRunning.ulLastSenderLoopCounters, 8

	.type	xAreMessageBufferTasksStillRunning.ullastSizeCoherencyTestCycles,%object @ @xAreMessageBufferTasksStillRunning.ullastSizeCoherencyTestCycles
	.section	.bss.xAreMessageBufferTasksStillRunning.ullastSizeCoherencyTestCycles,"aw",%nobits
	.p2align	2, 0x0
xAreMessageBufferTasksStillRunning.ullastSizeCoherencyTestCycles:
	.long	0                               @ 0x0
	.size	xAreMessageBufferTasksStillRunning.ullastSizeCoherencyTestCycles, 4

	.type	.L.str.11,%object               @ @.str.11
	.section	.rodata.str1.1,"aMS",%progbits,1
.L.str.11:
	.asciz	"%d"
	.size	.L.str.11, 3

	.type	.L__const.prvSpaceAvailableCoherenceActor.cTxString,%object @ @__const.prvSpaceAvailableCoherenceActor.cTxString
.L__const.prvSpaceAvailableCoherenceActor.cTxString:
	.asciz	"12345"
	.size	.L__const.prvSpaceAvailableCoherenceActor.cTxString, 6

	.file	9 "C:\\Users\\karahulx\\Downloads\\Kernel\\FreeRTOS\\FreeRTOS\\Demo\\CORTEX_MPU_M23_Nuvoton_NuMaker_PFM_M2351_IAR_GCC\\Projects_NTZ\\Keil" "../../../../Source/include/projdefs.h"
	.section	".note.GNU-stack","",%progbits
	.eabi_attribute	30, 6	@ Tag_ABI_optimization_goals
	.ARM_attribute	16, 1	@ Tag_AV_eba