	.text
	.syntax unified
	.eabi_attribute	67, "2.09"	@ Tag_conformance
	.eabi_attribute	6, 16	@ Tag_CPU_arch
	.eabi_attribute	7, 77	@ Tag_CPU_arch_profile
	.eabi_attribute	8, 0	@ Tag_ARM_ISA_use
	.eabi_attribute	9, 3	@ Tag_THUMB_ISA_use
	.eabi_attribute	34, 0	@ Tag_CPU_unaligned_access
	.eabi_attribute	17, 1	@ Tag_ABI_PCS_GOT_use
	.eabi_attribute	20, 2	@ Tag_ABI_FP_denormal
	.eabi_attribute	21, 0	@ Tag_ABI_FP_exceptions
	.eabi_attribute	23, 1	@ Tag_ABI_FP_number_model
	.eabi_attribute	24, 1	@ Tag_ABI_align_needed
	.eabi_attribute	25, 1	@ Tag_ABI_align_preserved
	.eabi_attribute	38, 1	@ Tag_ABI_FP_16bit_format
	.eabi_attribute	18, 4	@ Tag_ABI_PCS_wchar_t
	.eabi_attribute	26, 2	@ Tag_ABI_enum_size
	.eabi_attribute	14, 0	@ Tag_ABI_PCS_R9_use
	.file	"mpu_demo.c"
	.file	1 "C:\\Keil_v5\\ARM\\ARMCLANG\\Bin\\..\\include" "stdint.h"
	.file	2 "C:\\Users\\karahulx\\Downloads\\Kernel\\FreeRTOS\\FreeRTOS\\Demo\\CORTEX_MPU_M23_Nuvoton_NuMaker_PFM_M2351_IAR_GCC\\Projects_NTZ\\Keil" "../../../../Source/portable/GCC/ARM_CM23_NTZ/non_secure/portmacrocommon.h"
	.file	3 "C:\\Users\\karahulx\\Downloads\\Kernel\\FreeRTOS\\FreeRTOS\\Demo\\CORTEX_MPU_M23_Nuvoton_NuMaker_PFM_M2351_IAR_GCC\\Projects_NTZ\\Keil" "../../../Common/ARMv8M/mpu_demo/mpu_demo.c"
	.section	.text.vStartMPUDemo,"ax",%progbits
	.hidden	vStartMPUDemo                   @ -- Begin function vStartMPUDemo
	.globl	vStartMPUDemo
	.p2align	1
	.type	vStartMPUDemo,%function
	.code	16                              @ @vStartMPUDemo
	.thumb_func
vStartMPUDemo:
.Lfunc_begin0:
	.loc	3 224 0                         @ ../../../Common/ARMv8M/mpu_demo/mpu_demo.c:224:0
	.fnstart
	.cfi_sections .debug_frame
	.cfi_startproc
@ %bb.0:
	.save	{r4, r5, r6, lr}
	push	{r4, r5, r6, lr}
	.cfi_def_cfa_offset 16
	.cfi_offset lr, -4
	.cfi_offset r6, -8
	.cfi_offset r5, -12
	.cfi_offset r4, -16
	.pad	#136
	sub	sp, #136
	.cfi_def_cfa_offset 152
.Ltmp0:
	.loc	3 227 22 prologue_end           @ ../../../Common/ARMv8M/mpu_demo/mpu_demo.c:227:22
	movw	r2, :lower16:.L__const.vStartMPUDemo.xROAccessTaskParameters
	movt	r2, :upper16:.L__const.vStartMPUDemo.xROAccessTaskParameters
	add	r0, sp, #72
	mov	r1, r0
	ldm	r2!, {r3, r4, r5, r6}
	stm	r1!, {r3, r4, r5, r6}
	ldm	r2!, {r3, r4, r5, r6}
	stm	r1!, {r3, r4, r5, r6}
	ldm	r2!, {r3, r4, r5, r6}
	stm	r1!, {r3, r4, r5, r6}
	ldm	r2!, {r3, r4, r5, r6}
	stm	r1!, {r3, r4, r5, r6}
	.loc	3 252 22                        @ ../../../Common/ARMv8M/mpu_demo/mpu_demo.c:252:22
	movw	r2, :lower16:.L__const.vStartMPUDemo.xRWAccessTaskParameters
	movt	r2, :upper16:.L__const.vStartMPUDemo.xRWAccessTaskParameters
	add	r1, sp, #8
	str	r1, [sp, #4]                    @ 4-byte Spill
	ldm	r2!, {r3, r4, r5, r6}
	stm	r1!, {r3, r4, r5, r6}
	ldm	r2!, {r3, r4, r5, r6}
	stm	r1!, {r3, r4, r5, r6}
	ldm	r2!, {r3, r4, r5, r6}
	stm	r1!, {r3, r4, r5, r6}
	ldm	r2!, {r3, r4, r5, r6}
	stm	r1!, {r3, r4, r5, r6}
	movs	r1, #0
	.loc	3 279 5                         @ ../../../Common/ARMv8M/mpu_demo/mpu_demo.c:279:5
	str	r1, [sp]                        @ 4-byte Spill
	bl	xTaskCreateRestricted
	ldr	r1, [sp]                        @ 4-byte Reload
                                        @ kill: def $r2 killed $r0
	.loc	3 282 5                         @ ../../../Common/ARMv8M/mpu_demo/mpu_demo.c:282:5
	ldr	r0, [sp, #4]                    @ 4-byte Reload
	bl	xTaskCreateRestricted
	.loc	3 283 1                         @ ../../../Common/ARMv8M/mpu_demo/mpu_demo.c:283:1
	add	sp, #136
	pop	{r4, r5, r6, pc}
.Ltmp1:
.Lfunc_end0:
	.size	vStartMPUDemo, .Lfunc_end0-vStartMPUDemo
	.cfi_endproc
	.cantunwind
	.fnend
                                        @ -- End function
	.section	.text.prvROAccessTask,"ax",%progbits
	.p2align	1                               @ -- Begin function prvROAccessTask
	.type	prvROAccessTask,%function
	.code	16                              @ @prvROAccessTask
	.thumb_func
prvROAccessTask:
.Lfunc_begin1:
	.loc	3 85 0                          @ ../../../Common/ARMv8M/mpu_demo/mpu_demo.c:85:0
	.fnstart
	.cfi_startproc
@ %bb.0:
	.save	{r7, lr}
	push	{r7, lr}
	.cfi_def_cfa_offset 8
	.cfi_offset lr, -4
	.cfi_offset r7, -8
	.pad	#8
	sub	sp, #8
	.cfi_def_cfa_offset 16
	str	r0, [sp, #4]
.Ltmp2:
	.loc	3 91 5 prologue_end             @ ../../../Common/ARMv8M/mpu_demo/mpu_demo.c:91:5
	b	.LBB1_1
.LBB1_1:                                @ =>This Inner Loop Header: Depth=1
.Ltmp3:
	.loc	3 112 17                        @ ../../../Common/ARMv8M/mpu_demo/mpu_demo.c:112:17
	movw	r2, :lower16:ucSharedMemory
	movt	r2, :upper16:ucSharedMemory
	ldrb	r0, [r2]
	mov	r1, sp
	.loc	3 112 15 is_stmt 0              @ ../../../Common/ARMv8M/mpu_demo/mpu_demo.c:112:15
	strb	r0, [r1]
	.loc	3 115 35 is_stmt 1              @ ../../../Common/ARMv8M/mpu_demo/mpu_demo.c:115:35
	movw	r0, :lower16:ucROTaskFaultTracker
	movt	r0, :upper16:ucROTaskFaultTracker
	movs	r1, #1
	strb	r1, [r0]
	movs	r1, #0
	.loc	3 116 29                        @ ../../../Common/ARMv8M/mpu_demo/mpu_demo.c:116:29
	strb	r1, [r2]
.Ltmp4:
	.loc	3 117 9                         @ ../../../Common/ARMv8M/mpu_demo/mpu_demo.c:117:9
	ldrb	r0, [r0]
.Ltmp5:
	.loc	3 117 9 is_stmt 0               @ ../../../Common/ARMv8M/mpu_demo/mpu_demo.c:117:9
	cbz	r0, .LBB1_4
	b	.LBB1_2
.LBB1_2:
.Ltmp6:
	.loc	3 117 9                         @ ../../../Common/ARMv8M/mpu_demo/mpu_demo.c:117:9
	@APP
	cpsid i
	@NO_APP
	b	.LBB1_3
.LBB1_3:                                @ =>This Inner Loop Header: Depth=1
.Ltmp7:
	.loc	3 117 9                         @ ../../../Common/ARMv8M/mpu_demo/mpu_demo.c:117:9
	b	.LBB1_3
.Ltmp8:
.LBB1_4:                                @   in Loop: Header=BB1_1 Depth=1
	.loc	3 0 9                           @ ../../../Common/ARMv8M/mpu_demo/mpu_demo.c:0:9
	movs	r0, #100
	.loc	3 188 9 is_stmt 1               @ ../../../Common/ARMv8M/mpu_demo/mpu_demo.c:188:9
	bl	MPU_vTaskDelay
.Ltmp9:
	.loc	3 91 5                          @ ../../../Common/ARMv8M/mpu_demo/mpu_demo.c:91:5
	b	.LBB1_1
.Ltmp10:
.Lfunc_end1:
	.size	prvROAccessTask, .Lfunc_end1-prvROAccessTask
	.cfi_endproc
	.cantunwind
	.fnend
                                        @ -- End function
	.section	.text.prvRWAccessTask,"ax",%progbits
	.p2align	1                               @ -- Begin function prvRWAccessTask
	.type	prvRWAccessTask,%function
	.code	16                              @ @prvRWAccessTask
	.thumb_func
prvRWAccessTask:
.Lfunc_begin2:
	.loc	3 194 0                         @ ../../../Common/ARMv8M/mpu_demo/mpu_demo.c:194:0
	.fnstart
	.cfi_startproc
@ %bb.0:
	.save	{r7, lr}
	push	{r7, lr}
	.cfi_def_cfa_offset 8
	.cfi_offset lr, -4
	.cfi_offset r7, -8
	.pad	#8
	sub	sp, #8
	.cfi_def_cfa_offset 16
	str	r0, [sp, #4]
.Ltmp11:
	.loc	3 198 5 prologue_end            @ ../../../Common/ARMv8M/mpu_demo/mpu_demo.c:198:5
	b	.LBB2_1
.LBB2_1:                                @ =>This Inner Loop Header: Depth=1
.Ltmp12:
	.loc	3 202 29                        @ ../../../Common/ARMv8M/mpu_demo/mpu_demo.c:202:29
	movw	r1, :lower16:ucSharedMemory
	movt	r1, :upper16:ucSharedMemory
	movs	r0, #0
	strb	r0, [r1]
	movs	r0, #100
	.loc	3 218 9                         @ ../../../Common/ARMv8M/mpu_demo/mpu_demo.c:218:9
	bl	MPU_vTaskDelay
.Ltmp13:
	.loc	3 198 5                         @ ../../../Common/ARMv8M/mpu_demo/mpu_demo.c:198:5
	b	.LBB2_1
.Ltmp14:
.Lfunc_end2:
	.size	prvRWAccessTask, .Lfunc_end2-prvRWAccessTask
	.cfi_endproc
	.cantunwind
	.fnend
                                        @ -- End function
	.section	.text.vHandleMemoryFault,"axR",%progbits
	.hidden	vHandleMemoryFault              @ -- Begin function vHandleMemoryFault
	.globl	vHandleMemoryFault
	.p2align	1
	.type	vHandleMemoryFault,%function
	.code	16                              @ @vHandleMemoryFault
	.thumb_func
vHandleMemoryFault:
__tagsym$$used.0:
.Lfunc_begin3:
	.loc	3 287 0                         @ ../../../Common/ARMv8M/mpu_demo/mpu_demo.c:287:0
	.fnstart
	.cfi_startproc
@ %bb.0:
	.pad	#12
	sub	sp, #12
	.cfi_def_cfa_offset 12
	str	r0, [sp, #8]
.Ltmp15:
	.loc	3 292 9 prologue_end            @ ../../../Common/ARMv8M/mpu_demo/mpu_demo.c:292:9
	movw	r0, :lower16:ucROTaskFaultTracker
	movt	r0, :upper16:ucROTaskFaultTracker
	ldrb	r0, [r0]
.Ltmp16:
	.loc	3 292 9 is_stmt 0               @ ../../../Common/ARMv8M/mpu_demo/mpu_demo.c:292:9
	cmp	r0, #1
	bne	.LBB3_7
	b	.LBB3_1
.LBB3_1:
.Ltmp17:
	.loc	3 295 16 is_stmt 1              @ ../../../Common/ARMv8M/mpu_demo/mpu_demo.c:295:16
	ldr	r0, [sp, #8]
	ldr	r0, [r0, #24]
	.loc	3 295 14 is_stmt 0              @ ../../../Common/ARMv8M/mpu_demo/mpu_demo.c:295:14
	str	r0, [sp, #4]
	.loc	3 298 50 is_stmt 1              @ ../../../Common/ARMv8M/mpu_demo/mpu_demo.c:298:50
	ldr	r0, [sp, #4]
	.loc	3 298 34 is_stmt 0              @ ../../../Common/ARMv8M/mpu_demo/mpu_demo.c:298:34
	ldrh	r1, [r0]
	mov	r0, sp
	.loc	3 298 32                        @ ../../../Common/ARMv8M/mpu_demo/mpu_demo.c:298:32
	strh	r1, [r0]
	.loc	3 311 34 is_stmt 1              @ ../../../Common/ARMv8M/mpu_demo/mpu_demo.c:311:34
	ldrh	r1, [r0]
	movw	r2, #63488
	.loc	3 311 57 is_stmt 0              @ ../../../Common/ARMv8M/mpu_demo/mpu_demo.c:311:57
	ands	r1, r2
	.loc	3 311 32                        @ ../../../Common/ARMv8M/mpu_demo/mpu_demo.c:311:32
	strh	r1, [r0]
	.loc	3 312 36 is_stmt 1              @ ../../../Common/ARMv8M/mpu_demo/mpu_demo.c:312:36
	ldrh	r1, [r0]
	.loc	3 312 59 is_stmt 0              @ ../../../Common/ARMv8M/mpu_demo/mpu_demo.c:312:59
	lsrs	r1, r1, #11
	.loc	3 312 32                        @ ../../../Common/ARMv8M/mpu_demo/mpu_demo.c:312:32
	strh	r1, [r0]
.Ltmp18:
	.loc	3 316 15 is_stmt 1              @ ../../../Common/ARMv8M/mpu_demo/mpu_demo.c:316:15
	ldrh	r0, [r0]
	.loc	3 316 50 is_stmt 0              @ ../../../Common/ARMv8M/mpu_demo/mpu_demo.c:316:50
	cmp	r0, #31
	beq	.LBB3_4
	b	.LBB3_2
.LBB3_2:
	.loc	3 0 50                          @ ../../../Common/ARMv8M/mpu_demo/mpu_demo.c:0:50
	mov	r0, sp
	.loc	3 317 15 is_stmt 1              @ ../../../Common/ARMv8M/mpu_demo/mpu_demo.c:317:15
	ldrh	r0, [r0]
	.loc	3 317 50 is_stmt 0              @ ../../../Common/ARMv8M/mpu_demo/mpu_demo.c:317:50
	cmp	r0, #30
	beq	.LBB3_4
	b	.LBB3_3
.LBB3_3:
	.loc	3 0 50                          @ ../../../Common/ARMv8M/mpu_demo/mpu_demo.c:0:50
	mov	r0, sp
	.loc	3 318 15 is_stmt 1              @ ../../../Common/ARMv8M/mpu_demo/mpu_demo.c:318:15
	ldrh	r0, [r0]
.Ltmp19:
	.loc	3 316 13                        @ ../../../Common/ARMv8M/mpu_demo/mpu_demo.c:316:13
	cmp	r0, #29
	bne	.LBB3_5
	b	.LBB3_4
.LBB3_4:
.Ltmp20:
	.loc	3 323 18                        @ ../../../Common/ARMv8M/mpu_demo/mpu_demo.c:323:18
	ldr	r0, [sp, #4]
	adds	r0, r0, #4
	str	r0, [sp, #4]
	.loc	3 324 9                         @ ../../../Common/ARMv8M/mpu_demo/mpu_demo.c:324:9
	b	.LBB3_6
.Ltmp21:
.LBB3_5:
	.loc	3 330 18                        @ ../../../Common/ARMv8M/mpu_demo/mpu_demo.c:330:18
	ldr	r0, [sp, #4]
	adds	r0, r0, #2
	str	r0, [sp, #4]
	b	.LBB3_6
.Ltmp22:
.LBB3_6:
	.loc	3 334 37                        @ ../../../Common/ARMv8M/mpu_demo/mpu_demo.c:334:37
	ldr	r0, [sp, #4]
	.loc	3 334 9 is_stmt 0               @ ../../../Common/ARMv8M/mpu_demo/mpu_demo.c:334:9
	ldr	r1, [sp, #8]
	.loc	3 334 35                        @ ../../../Common/ARMv8M/mpu_demo/mpu_demo.c:334:35
	str	r0, [r1, #24]
	.loc	3 337 35 is_stmt 1              @ ../../../Common/ARMv8M/mpu_demo/mpu_demo.c:337:35
	movw	r1, :lower16:ucROTaskFaultTracker
	movt	r1, :upper16:ucROTaskFaultTracker
	movs	r0, #0
	strb	r0, [r1]
	.loc	3 338 5                         @ ../../../Common/ARMv8M/mpu_demo/mpu_demo.c:338:5
	b	.LBB3_9
.Ltmp23:
.LBB3_7:
	.loc	3 342 9                         @ ../../../Common/ARMv8M/mpu_demo/mpu_demo.c:342:9
	b	.LBB3_8
.LBB3_8:                                @ =>This Inner Loop Header: Depth=1
.Ltmp24:
	.loc	3 342 9 is_stmt 0               @ ../../../Common/ARMv8M/mpu_demo/mpu_demo.c:342:9
	b	.LBB3_8
.Ltmp25:
.LBB3_9:
	.loc	3 346 1 is_stmt 1               @ ../../../Common/ARMv8M/mpu_demo/mpu_demo.c:346:1
	add	sp, #12
	bx	lr
.Ltmp26:
.Lfunc_end3:
	.size	vHandleMemoryFault, .Lfunc_end3-vHandleMemoryFault
	.cfi_endproc
	.cantunwind
	.fnend
                                        @ -- End function
	.type	vStartMPUDemo.xROAccessTaskStack,%object @ @vStartMPUDemo.xROAccessTaskStack
	.section	.bss.vStartMPUDemo.xROAccessTaskStack,"aw",%nobits
	.p2align	5, 0x0
vStartMPUDemo.xROAccessTaskStack:
	.zero	512
	.size	vStartMPUDemo.xROAccessTaskStack, 512

	.type	vStartMPUDemo.xRWAccessTaskStack,%object @ @vStartMPUDemo.xRWAccessTaskStack
	.section	.bss.vStartMPUDemo.xRWAccessTaskStack,"aw",%nobits
	.p2align	5, 0x0
vStartMPUDemo.xRWAccessTaskStack:
	.zero	512
	.size	vStartMPUDemo.xRWAccessTaskStack, 512

	.type	.L.str,%object                  @ @.str
	.section	.rodata.str1.1,"aMS",%progbits,1
.L.str:
	.asciz	"ROAccess"
	.size	.L.str, 9

	.type	ucSharedMemory,%object          @ @ucSharedMemory
	.section	.bss.ucSharedMemory,"aw",%nobits
	.p2align	5, 0x0
ucSharedMemory:
	.zero	32
	.size	ucSharedMemory, 32

	.type	ucROTaskFaultTracker,%object    @ @ucROTaskFaultTracker
	.section	.bss.ucROTaskFaultTracker,"aw",%nobits
	.p2align	5, 0x0
ucROTaskFaultTracker:
	.zero	32
	.size	ucROTaskFaultTracker, 32

	.type	.L__const.vStartMPUDemo.xROAccessTaskParameters,%object @ @__const.vStartMPUDemo.xROAccessTaskParameters
	.section	.rodata..L__const.vStartMPUDemo.xROAccessTaskParameters,"a",%progbits
	.p2align	2, 0x0
.L__const.vStartMPUDemo.xROAccessTaskParameters:
	.long	prvROAccessTask
	.long	.L.str
	.short	128                             @ 0x80
	.zero	2
	.long	0
	.long	0                               @ 0x0
	.long	vStartMPUDemo.xROAccessTaskStack
	.long	ucSharedMemory
	.long	32                              @ 0x20
	.long	5                               @ 0x5
	.long	ucROTaskFaultTracker
	.long	32                              @ 0x20
	.long	6                               @ 0x6
	.zero	12
	.long	0
	.size	.L__const.vStartMPUDemo.xROAccessTaskParameters, 64

	.type	.L.str.1,%object                @ @.str.1
	.section	.rodata.str1.1,"aMS",%progbits,1
.L.str.1:
	.asciz	"RWAccess"
	.size	.L.str.1, 9

	.type	.L__const.vStartMPUDemo.xRWAccessTaskParameters,%object @ @__const.vStartMPUDemo.xRWAccessTaskParameters
	.section	.rodata..L__const.vStartMPUDemo.xRWAccessTaskParameters,"a",%progbits
	.p2align	2, 0x0
.L__const.vStartMPUDemo.xRWAccessTaskParameters:
	.long	prvRWAccessTask
	.long	.L.str.1
	.short	128                             @ 0x80
	.zero	2
	.long	0
	.long	0                               @ 0x0
	.long	vStartMPUDemo.xRWAccessTaskStack
	.long	ucSharedMemory
	.long	32                              @ 0x20
	.long	6                               @ 0x6
	.zero	12
	.zero	12
	.long	0
	.size	.L__const.vStartMPUDemo.xRWAccessTaskParameters, 64

	.file	4 "C:\\Users\\karahulx\\Downloads\\Kernel\\FreeRTOS\\FreeRTOS\\Demo\\CORTEX_MPU_M23_Nuvoton_NuMaker_PFM_M2351_IAR_GCC\\Projects_NTZ\\Keil" "../../../../Source/include/projdefs.h"
	.file	5 "C:\\Users\\karahulx\\Downloads\\Kernel\\FreeRTOS\\FreeRTOS\\Demo\\CORTEX_MPU_M23_Nuvoton_NuMaker_PFM_M2351_IAR_GCC\\Projects_NTZ\\Keil" "../../../../Source/include\\task.h"
	.file	6 "C:\\Users\\karahulx\\Downloads\\Kernel\\FreeRTOS\\FreeRTOS\\Demo\\CORTEX_MPU_M23_Nuvoton_NuMaker_PFM_M2351_IAR_GCC\\Projects_NTZ\\Keil" "../../../../Source/include\\FreeRTOS.h"
	.section	".note.GNU-stack","",%progbits
	.eabi_attribute	30, 6	@ Tag_ABI_optimization_goals
	.ARM_attribute	16, 1	@ Tag_AV_eba