	.text
	.syntax unified
	.eabi_attribute	67, "2.09"	@ Tag_conformance
	.eabi_attribute	6, 16	@ Tag_CPU_arch
	.eabi_attribute	7, 77	@ Tag_CPU_arch_profile
	.eabi_attribute	8, 0	@ Tag_ARM_ISA_use
	.eabi_attribute	9, 3	@ Tag_THUMB_ISA_use
	.eabi_attribute	34, 0	@ Tag_CPU_unaligned_access
	.eabi_attribute	17, 1	@ Tag_ABI_PCS_GOT_use
	.eabi_attribute	20, 2	@ Tag_ABI_FP_denormal
	.eabi_attribute	21, 0	@ Tag_ABI_FP_exceptions
	.eabi_attribute	23, 1	@ Tag_ABI_FP_number_model
	.eabi_attribute	24, 1	@ Tag_ABI_align_needed
	.eabi_attribute	25, 1	@ Tag_ABI_align_preserved
	.eabi_attribute	38, 1	@ Tag_ABI_FP_16bit_format
	.eabi_attribute	18, 4	@ Tag_ABI_PCS_wchar_t
	.eabi_attribute	26, 2	@ Tag_ABI_enum_size
	.eabi_attribute	14, 0	@ Tag_ABI_PCS_R9_use
	.file	"mpu_wrappers.c"
	.file	1 "C:\\Users\\karahulx\\Downloads\\Kernel\\FreeRTOS\\FreeRTOS\\Demo\\CORTEX_MPU_M23_Nuvoton_NuMaker_PFM_M2351_IAR_GCC\\Projects_NTZ\\Keil" "../../../../Source/include/task.h"
	.file	2 "C:\\Users\\karahulx\\Downloads\\Kernel\\FreeRTOS\\FreeRTOS\\Demo\\CORTEX_MPU_M23_Nuvoton_NuMaker_PFM_M2351_IAR_GCC\\Projects_NTZ\\Keil" "../../../../Source/portable/GCC/ARM_CM23_NTZ/non_secure/portmacrocommon.h"
	.section	privileged_functions,"ax",%progbits
	.hidden	MPU_xTaskCreate                 @ -- Begin function MPU_xTaskCreate
	.globl	MPU_xTaskCreate
	.p2align	1
	.type	MPU_xTaskCreate,%function
	.code	16                              @ @MPU_xTaskCreate
	.thumb_func
MPU_xTaskCreate:
.Lfunc_begin0:
	.file	3 "C:\\Users\\karahulx\\Downloads\\Kernel\\FreeRTOS\\FreeRTOS\\Demo\\CORTEX_MPU_M23_Nuvoton_NuMaker_PFM_M2351_IAR_GCC\\Projects_NTZ\\Keil" "../../../../Source/portable/Common/mpu_wrappers.c"
	.loc	3 64 0                          @ ../../../../Source/portable/Common/mpu_wrappers.c:64:0
	.fnstart
	.cfi_sections .debug_frame
	.cfi_startproc
@ %bb.0:
	.save	{r4, r5, r7, lr}
	push	{r4, r5, r7, lr}
	.cfi_def_cfa_offset 16
	.cfi_offset lr, -4
	.cfi_offset r7, -8
	.cfi_offset r5, -12
	.cfi_offset r4, -16
	.pad	#32
	sub	sp, #32
	.cfi_def_cfa_offset 48
	ldr	r4, [sp, #52]
	ldr	r4, [sp, #48]
                                        @ kill: def $r4 killed $r2
	str	r0, [sp, #28]
	str	r1, [sp, #24]
	add	r0, sp, #20
	strh	r2, [r0]
	str	r3, [sp, #16]
.Ltmp0:
	.loc	3 67 17 prologue_end            @ ../../../../Source/portable/Common/mpu_wrappers.c:67:17
	bl	xIsPrivileged
.Ltmp1:
	.loc	3 67 17 is_stmt 0               @ ../../../../Source/portable/Common/mpu_wrappers.c:67:17
	cbnz	r0, .LBB0_2
	b	.LBB0_1
.LBB0_1:
.Ltmp2:
	.loc	3 69 17 is_stmt 1               @ ../../../../Source/portable/Common/mpu_wrappers.c:69:17
	@APP
	svc	#3

	@NO_APP
	.loc	3 70 17                         @ ../../../../Source/portable/Common/mpu_wrappers.c:70:17
	@APP
	@NO_APP
	.loc	3 72 30                         @ ../../../../Source/portable/Common/mpu_wrappers.c:72:30
	ldr	r0, [sp, #48]
	movw	r1, #65535
	movt	r1, #32767
	.loc	3 72 41 is_stmt 0               @ ../../../../Source/portable/Common/mpu_wrappers.c:72:41
	ands	r0, r1
	.loc	3 72 28                         @ ../../../../Source/portable/Common/mpu_wrappers.c:72:28
	str	r0, [sp, #48]
	.loc	3 73 17 is_stmt 1               @ ../../../../Source/portable/Common/mpu_wrappers.c:73:17
	@APP
	@NO_APP
	.loc	3 75 40                         @ ../../../../Source/portable/Common/mpu_wrappers.c:75:40
	ldr	r0, [sp, #28]
	.loc	3 75 52 is_stmt 0               @ ../../../../Source/portable/Common/mpu_wrappers.c:75:52
	ldr	r1, [sp, #24]
	add	r2, sp, #20
	.loc	3 75 60                         @ ../../../../Source/portable/Common/mpu_wrappers.c:75:60
	ldrh	r2, [r2]
	.loc	3 75 74                         @ ../../../../Source/portable/Common/mpu_wrappers.c:75:74
	ldr	r3, [sp, #16]
	.loc	3 75 88                         @ ../../../../Source/portable/Common/mpu_wrappers.c:75:88
	ldr	r4, [sp, #48]
	.loc	3 75 100                        @ ../../../../Source/portable/Common/mpu_wrappers.c:75:100
	ldr	r5, [sp, #52]
	.loc	3 75 27                         @ ../../../../Source/portable/Common/mpu_wrappers.c:75:27
	str	r5, [sp, #4]
	str	r4, [sp]
	bl	xTaskCreate
	.loc	3 75 25                         @ ../../../../Source/portable/Common/mpu_wrappers.c:75:25
	str	r0, [sp, #12]
	.loc	3 76 17 is_stmt 1               @ ../../../../Source/portable/Common/mpu_wrappers.c:76:17
	@APP
	@NO_APP
	.loc	3 78 17                         @ ../../../../Source/portable/Common/mpu_wrappers.c:78:17
	bl	vResetPrivilege
	.loc	3 79 17                         @ ../../../../Source/portable/Common/mpu_wrappers.c:79:17
	@APP
	@NO_APP
	.loc	3 80 13                         @ ../../../../Source/portable/Common/mpu_wrappers.c:80:13
	b	.LBB0_3
.Ltmp3:
.LBB0_2:
	.loc	3 83 40                         @ ../../../../Source/portable/Common/mpu_wrappers.c:83:40
	ldr	r0, [sp, #28]
	.loc	3 83 52 is_stmt 0               @ ../../../../Source/portable/Common/mpu_wrappers.c:83:52
	ldr	r1, [sp, #24]
	add	r2, sp, #20
	.loc	3 83 60                         @ ../../../../Source/portable/Common/mpu_wrappers.c:83:60
	ldrh	r2, [r2]
	.loc	3 83 74                         @ ../../../../Source/portable/Common/mpu_wrappers.c:83:74
	ldr	r3, [sp, #16]
	.loc	3 83 88                         @ ../../../../Source/portable/Common/mpu_wrappers.c:83:88
	ldr	r4, [sp, #48]
	.loc	3 83 100                        @ ../../../../Source/portable/Common/mpu_wrappers.c:83:100
	ldr	r5, [sp, #52]
	.loc	3 83 27                         @ ../../../../Source/portable/Common/mpu_wrappers.c:83:27
	str	r5, [sp, #4]
	str	r4, [sp]
	bl	xTaskCreate
	.loc	3 83 25                         @ ../../../../Source/portable/Common/mpu_wrappers.c:83:25
	str	r0, [sp, #12]
	b	.LBB0_3
.Ltmp4:
.LBB0_3:
	.loc	3 86 20 is_stmt 1               @ ../../../../Source/portable/Common/mpu_wrappers.c:86:20
	ldr	r0, [sp, #12]
	.loc	3 86 13 is_stmt 0               @ ../../../../Source/portable/Common/mpu_wrappers.c:86:13
	add	sp, #32
	pop	{r4, r5, r7, pc}
.Ltmp5:
.Lfunc_end0:
	.size	MPU_xTaskCreate, .Lfunc_end0-MPU_xTaskCreate
	.cfi_endproc
	.cantunwind
	.fnend
                                        @ -- End function
	.hidden	MPU_xTaskCreateStatic           @ -- Begin function MPU_xTaskCreateStatic
	.globl	MPU_xTaskCreateStatic
	.p2align	1
	.type	MPU_xTaskCreateStatic,%function
	.code	16                              @ @MPU_xTaskCreateStatic
	.thumb_func
MPU_xTaskCreateStatic:
.Lfunc_begin1:
	.loc	3 99 0 is_stmt 1                @ ../../../../Source/portable/Common/mpu_wrappers.c:99:0
	.fnstart
	.cfi_startproc
@ %bb.0:
	.save	{r4, r5, r6, lr}
	push	{r4, r5, r6, lr}
	.cfi_def_cfa_offset 16
	.cfi_offset lr, -4
	.cfi_offset r6, -8
	.cfi_offset r5, -12
	.cfi_offset r4, -16
	.pad	#32
	sub	sp, #32
	.cfi_def_cfa_offset 48
	ldr	r4, [sp, #56]
	ldr	r4, [sp, #52]
	ldr	r4, [sp, #48]
	str	r0, [sp, #28]
	str	r1, [sp, #24]
	str	r2, [sp, #20]
	str	r3, [sp, #16]
.Ltmp6:
	.loc	3 102 17 prologue_end           @ ../../../../Source/portable/Common/mpu_wrappers.c:102:17
	bl	xIsPrivileged
.Ltmp7:
	.loc	3 102 17 is_stmt 0              @ ../../../../Source/portable/Common/mpu_wrappers.c:102:17
	cbnz	r0, .LBB1_2
	b	.LBB1_1
.LBB1_1:
.Ltmp8:
	.loc	3 104 17 is_stmt 1              @ ../../../../Source/portable/Common/mpu_wrappers.c:104:17
	@APP
	svc	#3

	@NO_APP
	.loc	3 105 17                        @ ../../../../Source/portable/Common/mpu_wrappers.c:105:17
	@APP
	@NO_APP
	.loc	3 107 30                        @ ../../../../Source/portable/Common/mpu_wrappers.c:107:30
	ldr	r0, [sp, #48]
	movw	r1, #65535
	movt	r1, #32767
	.loc	3 107 41 is_stmt 0              @ ../../../../Source/portable/Common/mpu_wrappers.c:107:41
	ands	r0, r1
	.loc	3 107 28                        @ ../../../../Source/portable/Common/mpu_wrappers.c:107:28
	str	r0, [sp, #48]
	.loc	3 108 17 is_stmt 1              @ ../../../../Source/portable/Common/mpu_wrappers.c:108:17
	@APP
	@NO_APP
	.loc	3 110 46                        @ ../../../../Source/portable/Common/mpu_wrappers.c:110:46
	ldr	r0, [sp, #28]
	.loc	3 110 58 is_stmt 0              @ ../../../../Source/portable/Common/mpu_wrappers.c:110:58
	ldr	r1, [sp, #24]
	.loc	3 110 66                        @ ../../../../Source/portable/Common/mpu_wrappers.c:110:66
	ldr	r2, [sp, #20]
	.loc	3 110 80                        @ ../../../../Source/portable/Common/mpu_wrappers.c:110:80
	ldr	r3, [sp, #16]
	.loc	3 110 94                        @ ../../../../Source/portable/Common/mpu_wrappers.c:110:94
	ldr	r4, [sp, #48]
	.loc	3 110 106                       @ ../../../../Source/portable/Common/mpu_wrappers.c:110:106
	ldr	r5, [sp, #52]
	.loc	3 110 122                       @ ../../../../Source/portable/Common/mpu_wrappers.c:110:122
	ldr	r6, [sp, #56]
	.loc	3 110 27                        @ ../../../../Source/portable/Common/mpu_wrappers.c:110:27
	str	r6, [sp, #8]
	str	r5, [sp, #4]
	str	r4, [sp]
	bl	xTaskCreateStatic
	.loc	3 110 25                        @ ../../../../Source/portable/Common/mpu_wrappers.c:110:25
	str	r0, [sp, #12]
	.loc	3 111 17 is_stmt 1              @ ../../../../Source/portable/Common/mpu_wrappers.c:111:17
	@APP
	@NO_APP
	.loc	3 113 17                        @ ../../../../Source/portable/Common/mpu_wrappers.c:113:17
	bl	vResetPrivilege
	.loc	3 114 17                        @ ../../../../Source/portable/Common/mpu_wrappers.c:114:17
	@APP
	@NO_APP
	.loc	3 115 13                        @ ../../../../Source/portable/Common/mpu_wrappers.c:115:13
	b	.LBB1_3
.Ltmp9:
.LBB1_2:
	.loc	3 118 46                        @ ../../../../Source/portable/Common/mpu_wrappers.c:118:46
	ldr	r0, [sp, #28]
	.loc	3 118 58 is_stmt 0              @ ../../../../Source/portable/Common/mpu_wrappers.c:118:58
	ldr	r1, [sp, #24]
	.loc	3 118 66                        @ ../../../../Source/portable/Common/mpu_wrappers.c:118:66
	ldr	r2, [sp, #20]
	.loc	3 118 80                        @ ../../../../Source/portable/Common/mpu_wrappers.c:118:80
	ldr	r3, [sp, #16]
	.loc	3 118 94                        @ ../../../../Source/portable/Common/mpu_wrappers.c:118:94
	ldr	r4, [sp, #48]
	.loc	3 118 106                       @ ../../../../Source/portable/Common/mpu_wrappers.c:118:106
	ldr	r5, [sp, #52]
	.loc	3 118 122                       @ ../../../../Source/portable/Common/mpu_wrappers.c:118:122
	ldr	r6, [sp, #56]
	.loc	3 118 27                        @ ../../../../Source/portable/Common/mpu_wrappers.c:118:27
	str	r6, [sp, #8]
	str	r5, [sp, #4]
	str	r4, [sp]
	bl	xTaskCreateStatic
	.loc	3 118 25                        @ ../../../../Source/portable/Common/mpu_wrappers.c:118:25
	str	r0, [sp, #12]
	b	.LBB1_3
.Ltmp10:
.LBB1_3:
	.loc	3 121 20 is_stmt 1              @ ../../../../Source/portable/Common/mpu_wrappers.c:121:20
	ldr	r0, [sp, #12]
	.loc	3 121 13 is_stmt 0              @ ../../../../Source/portable/Common/mpu_wrappers.c:121:13
	add	sp, #32
	pop	{r4, r5, r6, pc}
.Ltmp11:
.Lfunc_end1:
	.size	MPU_xTaskCreateStatic, .Lfunc_end1-MPU_xTaskCreateStatic
	.cfi_endproc
	.cantunwind
	.fnend
                                        @ -- End function
	.hidden	MPU_vTaskDelete                 @ -- Begin function MPU_vTaskDelete
	.globl	MPU_vTaskDelete
	.p2align	1
	.type	MPU_vTaskDelete,%function
	.code	16                              @ @MPU_vTaskDelete
	.thumb_func
MPU_vTaskDelete:
.Lfunc_begin2:
	.loc	3 128 0 is_stmt 1               @ ../../../../Source/portable/Common/mpu_wrappers.c:128:0
	.fnstart
	.cfi_startproc
@ %bb.0:
	.save	{r7, lr}
	push	{r7, lr}
	.cfi_def_cfa_offset 8
	.cfi_offset lr, -4
	.cfi_offset r7, -8
	.pad	#8
	sub	sp, #8
	.cfi_def_cfa_offset 16
	str	r0, [sp, #4]
.Ltmp12:
	.loc	3 129 17 prologue_end           @ ../../../../Source/portable/Common/mpu_wrappers.c:129:17
	bl	xIsPrivileged
.Ltmp13:
	.loc	3 129 17 is_stmt 0              @ ../../../../Source/portable/Common/mpu_wrappers.c:129:17
	cbnz	r0, .LBB2_2
	b	.LBB2_1
.LBB2_1:
.Ltmp14:
	.loc	3 131 17 is_stmt 1              @ ../../../../Source/portable/Common/mpu_wrappers.c:131:17
	@APP
	svc	#3

	@NO_APP
	.loc	3 132 17                        @ ../../../../Source/portable/Common/mpu_wrappers.c:132:17
	@APP
	@NO_APP
	.loc	3 134 30                        @ ../../../../Source/portable/Common/mpu_wrappers.c:134:30
	ldr	r0, [sp, #4]
	.loc	3 134 17 is_stmt 0              @ ../../../../Source/portable/Common/mpu_wrappers.c:134:17
	bl	vTaskDelete
	.loc	3 135 17 is_stmt 1              @ ../../../../Source/portable/Common/mpu_wrappers.c:135:17
	@APP
	@NO_APP
	.loc	3 137 17                        @ ../../../../Source/portable/Common/mpu_wrappers.c:137:17
	bl	vResetPrivilege
	.loc	3 138 17                        @ ../../../../Source/portable/Common/mpu_wrappers.c:138:17
	@APP
	@NO_APP
	.loc	3 139 13                        @ ../../../../Source/portable/Common/mpu_wrappers.c:139:13
	b	.LBB2_3
.Ltmp15:
.LBB2_2:
	.loc	3 142 30                        @ ../../../../Source/portable/Common/mpu_wrappers.c:142:30
	ldr	r0, [sp, #4]
	.loc	3 142 17 is_stmt 0              @ ../../../../Source/portable/Common/mpu_wrappers.c:142:17
	bl	vTaskDelete
	b	.LBB2_3
.Ltmp16:
.LBB2_3:
	.loc	3 144 9 is_stmt 1               @ ../../../../Source/portable/Common/mpu_wrappers.c:144:9
	add	sp, #8
	pop	{r7, pc}
.Ltmp17:
.Lfunc_end2:
	.size	MPU_vTaskDelete, .Lfunc_end2-MPU_vTaskDelete
	.cfi_endproc
	.cantunwind
	.fnend
                                        @ -- End function
	.section	freertos_system_calls,"ax",%progbits
	.hidden	MPU_xTaskDelayUntil             @ -- Begin function MPU_xTaskDelayUntil
	.globl	MPU_xTaskDelayUntil
	.p2align	1
	.type	MPU_xTaskDelayUntil,%function
	.code	16                              @ @MPU_xTaskDelayUntil
	.thumb_func
MPU_xTaskDelayUntil:
.Lfunc_begin3:
	.loc	3 151 0                         @ ../../../../Source/portable/Common/mpu_wrappers.c:151:0
	.fnstart
	.cfi_startproc
@ %bb.0:
	.save	{r7, lr}
	push	{r7, lr}
	.cfi_def_cfa_offset 8
	.cfi_offset lr, -4
	.cfi_offset r7, -8
	.pad	#16
	sub	sp, #16
	.cfi_def_cfa_offset 24
	str	r0, [sp, #12]
	str	r1, [sp, #8]
.Ltmp18:
	.loc	3 154 17 prologue_end           @ ../../../../Source/portable/Common/mpu_wrappers.c:154:17
	bl	xIsPrivileged
.Ltmp19:
	.loc	3 154 17 is_stmt 0              @ ../../../../Source/portable/Common/mpu_wrappers.c:154:17
	cbnz	r0, .LBB3_2
	b	.LBB3_1
.LBB3_1:
.Ltmp20:
	.loc	3 156 17 is_stmt 1              @ ../../../../Source/portable/Common/mpu_wrappers.c:156:17
	@APP
	svc	#3

	@NO_APP
	.loc	3 157 17                        @ ../../../../Source/portable/Common/mpu_wrappers.c:157:17
	@APP
	@NO_APP
	.loc	3 159 44                        @ ../../../../Source/portable/Common/mpu_wrappers.c:159:44
	ldr	r0, [sp, #12]
	.loc	3 159 64 is_stmt 0              @ ../../../../Source/portable/Common/mpu_wrappers.c:159:64
	ldr	r1, [sp, #8]
	.loc	3 159 27                        @ ../../../../Source/portable/Common/mpu_wrappers.c:159:27
	bl	xTaskDelayUntil
	.loc	3 159 25                        @ ../../../../Source/portable/Common/mpu_wrappers.c:159:25
	str	r0, [sp, #4]
	.loc	3 160 17 is_stmt 1              @ ../../../../Source/portable/Common/mpu_wrappers.c:160:17
	@APP
	@NO_APP
	.loc	3 162 17                        @ ../../../../Source/portable/Common/mpu_wrappers.c:162:17
	bl	vResetPrivilege
	.loc	3 163 17                        @ ../../../../Source/portable/Common/mpu_wrappers.c:163:17
	@APP
	@NO_APP
	.loc	3 164 13                        @ ../../../../Source/portable/Common/mpu_wrappers.c:164:13
	b	.LBB3_3
.Ltmp21:
.LBB3_2:
	.loc	3 167 44                        @ ../../../../Source/portable/Common/mpu_wrappers.c:167:44
	ldr	r0, [sp, #12]
	.loc	3 167 64 is_stmt 0              @ ../../../../Source/portable/Common/mpu_wrappers.c:167:64
	ldr	r1, [sp, #8]
	.loc	3 167 27                        @ ../../../../Source/portable/Common/mpu_wrappers.c:167:27
	bl	xTaskDelayUntil
	.loc	3 167 25                        @ ../../../../Source/portable/Common/mpu_wrappers.c:167:25
	str	r0, [sp, #4]
	b	.LBB3_3
.Ltmp22:
.LBB3_3:
	.loc	3 170 20 is_stmt 1              @ ../../../../Source/portable/Common/mpu_wrappers.c:170:20
	ldr	r0, [sp, #4]
	.loc	3 170 13 is_stmt 0              @ ../../../../Source/portable/Common/mpu_wrappers.c:170:13
	add	sp, #16
	pop	{r7, pc}
.Ltmp23:
.Lfunc_end3:
	.size	MPU_xTaskDelayUntil, .Lfunc_end3-MPU_xTaskDelayUntil
	.cfi_endproc
	.cantunwind
	.fnend
                                        @ -- End function
	.hidden	MPU_xTaskAbortDelay             @ -- Begin function MPU_xTaskAbortDelay
	.globl	MPU_xTaskAbortDelay
	.p2align	1
	.type	MPU_xTaskAbortDelay,%function
	.code	16                              @ @MPU_xTaskAbortDelay
	.thumb_func
MPU_xTaskAbortDelay:
.Lfunc_begin4:
	.loc	3 177 0 is_stmt 1               @ ../../../../Source/portable/Common/mpu_wrappers.c:177:0
	.fnstart
	.cfi_startproc
@ %bb.0:
	.save	{r7, lr}
	push	{r7, lr}
	.cfi_def_cfa_offset 8
	.cfi_offset lr, -4
	.cfi_offset r7, -8
	.pad	#8
	sub	sp, #8
	.cfi_def_cfa_offset 16
	str	r0, [sp, #4]
.Ltmp24:
	.loc	3 180 17 prologue_end           @ ../../../../Source/portable/Common/mpu_wrappers.c:180:17
	bl	xIsPrivileged
.Ltmp25:
	.loc	3 180 17 is_stmt 0              @ ../../../../Source/portable/Common/mpu_wrappers.c:180:17
	cbnz	r0, .LBB4_2
	b	.LBB4_1
.LBB4_1:
.Ltmp26:
	.loc	3 182 17 is_stmt 1              @ ../../../../Source/portable/Common/mpu_wrappers.c:182:17
	@APP
	svc	#3

	@NO_APP
	.loc	3 183 17                        @ ../../../../Source/portable/Common/mpu_wrappers.c:183:17
	@APP
	@NO_APP
	.loc	3 185 44                        @ ../../../../Source/portable/Common/mpu_wrappers.c:185:44
	ldr	r0, [sp, #4]
	.loc	3 185 27 is_stmt 0              @ ../../../../Source/portable/Common/mpu_wrappers.c:185:27
	bl	xTaskAbortDelay
	.loc	3 185 25                        @ ../../../../Source/portable/Common/mpu_wrappers.c:185:25
	str	r0, [sp]
	.loc	3 186 17 is_stmt 1              @ ../../../../Source/portable/Common/mpu_wrappers.c:186:17
	@APP
	@NO_APP
	.loc	3 188 17                        @ ../../../../Source/portable/Common/mpu_wrappers.c:188:17
	bl	vResetPrivilege
	.loc	3 189 17                        @ ../../../../Source/portable/Common/mpu_wrappers.c:189:17
	@APP
	@NO_APP
	.loc	3 190 13                        @ ../../../../Source/portable/Common/mpu_wrappers.c:190:13
	b	.LBB4_3
.Ltmp27:
.LBB4_2:
	.loc	3 193 44                        @ ../../../../Source/portable/Common/mpu_wrappers.c:193:44
	ldr	r0, [sp, #4]
	.loc	3 193 27 is_stmt 0              @ ../../../../Source/portable/Common/mpu_wrappers.c:193:27
	bl	xTaskAbortDelay
	.loc	3 193 25                        @ ../../../../Source/portable/Common/mpu_wrappers.c:193:25
	str	r0, [sp]
	b	.LBB4_3
.Ltmp28:
.LBB4_3:
	.loc	3 196 20 is_stmt 1              @ ../../../../Source/portable/Common/mpu_wrappers.c:196:20
	ldr	r0, [sp]
	.loc	3 196 13 is_stmt 0              @ ../../../../Source/portable/Common/mpu_wrappers.c:196:13
	add	sp, #8
	pop	{r7, pc}
.Ltmp29:
.Lfunc_end4:
	.size	MPU_xTaskAbortDelay, .Lfunc_end4-MPU_xTaskAbortDelay
	.cfi_endproc
	.cantunwind
	.fnend
                                        @ -- End function
	.hidden	MPU_vTaskDelay                  @ -- Begin function MPU_vTaskDelay
	.globl	MPU_vTaskDelay
	.p2align	1
	.type	MPU_vTaskDelay,%function
	.code	16                              @ @MPU_vTaskDelay
	.thumb_func
MPU_vTaskDelay:
.Lfunc_begin5:
	.loc	3 203 0 is_stmt 1               @ ../../../../Source/portable/Common/mpu_wrappers.c:203:0
	.fnstart
	.cfi_startproc
@ %bb.0:
	.save	{r7, lr}
	push	{r7, lr}
	.cfi_def_cfa_offset 8
	.cfi_offset lr, -4
	.cfi_offset r7, -8
	.pad	#8
	sub	sp, #8
	.cfi_def_cfa_offset 16
	str	r0, [sp, #4]
.Ltmp30:
	.loc	3 204 17 prologue_end           @ ../../../../Source/portable/Common/mpu_wrappers.c:204:17
	bl	xIsPrivileged
.Ltmp31:
	.loc	3 204 17 is_stmt 0              @ ../../../../Source/portable/Common/mpu_wrappers.c:204:17
	cbnz	r0, .LBB5_2
	b	.LBB5_1
.LBB5_1:
.Ltmp32:
	.loc	3 206 17 is_stmt 1              @ ../../../../Source/portable/Common/mpu_wrappers.c:206:17
	@APP
	svc	#3

	@NO_APP
	.loc	3 207 17                        @ ../../../../Source/portable/Common/mpu_wrappers.c:207:17
	@APP
	@NO_APP
	.loc	3 209 29                        @ ../../../../Source/portable/Common/mpu_wrappers.c:209:29
	ldr	r0, [sp, #4]
	.loc	3 209 17 is_stmt 0              @ ../../../../Source/portable/Common/mpu_wrappers.c:209:17
	bl	vTaskDelay
	.loc	3 210 17 is_stmt 1              @ ../../../../Source/portable/Common/mpu_wrappers.c:210:17
	@APP
	@NO_APP
	.loc	3 212 17                        @ ../../../../Source/portable/Common/mpu_wrappers.c:212:17
	bl	vResetPrivilege
	.loc	3 213 17                        @ ../../../../Source/portable/Common/mpu_wrappers.c:213:17
	@APP
	@NO_APP
	.loc	3 214 13                        @ ../../../../Source/portable/Common/mpu_wrappers.c:214:13
	b	.LBB5_3
.Ltmp33:
.LBB5_2:
	.loc	3 217 29                        @ ../../../../Source/portable/Common/mpu_wrappers.c:217:29
	ldr	r0, [sp, #4]
	.loc	3 217 17 is_stmt 0              @ ../../../../Source/portable/Common/mpu_wrappers.c:217:17
	bl	vTaskDelay
	b	.LBB5_3
.Ltmp34:
.LBB5_3:
	.loc	3 219 9 is_stmt 1               @ ../../../../Source/portable/Common/mpu_wrappers.c:219:9
	add	sp, #8
	pop	{r7, pc}
.Ltmp35:
.Lfunc_end5:
	.size	MPU_vTaskDelay, .Lfunc_end5-MPU_vTaskDelay
	.cfi_endproc
	.cantunwind
	.fnend
                                        @ -- End function
	.hidden	MPU_uxTaskPriorityGet           @ -- Begin function MPU_uxTaskPriorityGet
	.globl	MPU_uxTaskPriorityGet
	.p2align	1
	.type	MPU_uxTaskPriorityGet,%function
	.code	16                              @ @MPU_uxTaskPriorityGet
	.thumb_func
MPU_uxTaskPriorityGet:
.Lfunc_begin6:
	.loc	3 225 0                         @ ../../../../Source/portable/Common/mpu_wrappers.c:225:0
	.fnstart
	.cfi_startproc
@ %bb.0:
	.save	{r7, lr}
	push	{r7, lr}
	.cfi_def_cfa_offset 8
	.cfi_offset lr, -4
	.cfi_offset r7, -8
	.pad	#8
	sub	sp, #8
	.cfi_def_cfa_offset 16
	str	r0, [sp, #4]
.Ltmp36:
	.loc	3 228 17 prologue_end           @ ../../../../Source/portable/Common/mpu_wrappers.c:228:17
	bl	xIsPrivileged
.Ltmp37:
	.loc	3 228 17 is_stmt 0              @ ../../../../Source/portable/Common/mpu_wrappers.c:228:17
	cbnz	r0, .LBB6_2
	b	.LBB6_1
.LBB6_1:
.Ltmp38:
	.loc	3 230 17 is_stmt 1              @ ../../../../Source/portable/Common/mpu_wrappers.c:230:17
	@APP
	svc	#3

	@NO_APP
	.loc	3 231 17                        @ ../../../../Source/portable/Common/mpu_wrappers.c:231:17
	@APP
	@NO_APP
	.loc	3 233 47                        @ ../../../../Source/portable/Common/mpu_wrappers.c:233:47
	ldr	r0, [sp, #4]
	.loc	3 233 28 is_stmt 0              @ ../../../../Source/portable/Common/mpu_wrappers.c:233:28
	bl	uxTaskPriorityGet
	.loc	3 233 26                        @ ../../../../Source/portable/Common/mpu_wrappers.c:233:26
	str	r0, [sp]
	.loc	3 234 17 is_stmt 1              @ ../../../../Source/portable/Common/mpu_wrappers.c:234:17
	@APP
	@NO_APP
	.loc	3 236 17                        @ ../../../../Source/portable/Common/mpu_wrappers.c:236:17
	bl	vResetPrivilege
	.loc	3 237 17                        @ ../../../../Source/portable/Common/mpu_wrappers.c:237:17
	@APP
	@NO_APP
	.loc	3 238 13                        @ ../../../../Source/portable/Common/mpu_wrappers.c:238:13
	b	.LBB6_3
.Ltmp39:
.LBB6_2:
	.loc	3 241 47                        @ ../../../../Source/portable/Common/mpu_wrappers.c:241:47
	ldr	r0, [sp, #4]
	.loc	3 241 28 is_stmt 0              @ ../../../../Source/portable/Common/mpu_wrappers.c:241:28
	bl	uxTaskPriorityGet
	.loc	3 241 26                        @ ../../../../Source/portable/Common/mpu_wrappers.c:241:26
	str	r0, [sp]
	b	.LBB6_3
.Ltmp40:
.LBB6_3:
	.loc	3 244 20 is_stmt 1              @ ../../../../Source/portable/Common/mpu_wrappers.c:244:20
	ldr	r0, [sp]
	.loc	3 244 13 is_stmt 0              @ ../../../../Source/portable/Common/mpu_wrappers.c:244:13
	add	sp, #8
	pop	{r7, pc}
.Ltmp41:
.Lfunc_end6:
	.size	MPU_uxTaskPriorityGet, .Lfunc_end6-MPU_uxTaskPriorityGet
	.cfi_endproc
	.cantunwind
	.fnend
                                        @ -- End function
	.section	privileged_functions,"ax",%progbits
	.hidden	MPU_vTaskPrioritySet            @ -- Begin function MPU_vTaskPrioritySet
	.globl	MPU_vTaskPrioritySet
	.p2align	1
	.type	MPU_vTaskPrioritySet,%function
	.code	16                              @ @MPU_vTaskPrioritySet
	.thumb_func
MPU_vTaskPrioritySet:
.Lfunc_begin7:
	.loc	3 252 0 is_stmt 1               @ ../../../../Source/portable/Common/mpu_wrappers.c:252:0
	.fnstart
	.cfi_startproc
@ %bb.0:
	.save	{r7, lr}
	push	{r7, lr}
	.cfi_def_cfa_offset 8
	.cfi_offset lr, -4
	.cfi_offset r7, -8
	.pad	#8
	sub	sp, #8
	.cfi_def_cfa_offset 16
	str	r0, [sp, #4]
	str	r1, [sp]
.Ltmp42:
	.loc	3 253 17 prologue_end           @ ../../../../Source/portable/Common/mpu_wrappers.c:253:17
	bl	xIsPrivileged
.Ltmp43:
	.loc	3 253 17 is_stmt 0              @ ../../../../Source/portable/Common/mpu_wrappers.c:253:17
	cbnz	r0, .LBB7_2
	b	.LBB7_1
.LBB7_1:
.Ltmp44:
	.loc	3 255 17 is_stmt 1              @ ../../../../Source/portable/Common/mpu_wrappers.c:255:17
	@APP
	svc	#3

	@NO_APP
	.loc	3 256 17                        @ ../../../../Source/portable/Common/mpu_wrappers.c:256:17
	@APP
	@NO_APP
	.loc	3 258 35                        @ ../../../../Source/portable/Common/mpu_wrappers.c:258:35
	ldr	r0, [sp, #4]
	.loc	3 258 43 is_stmt 0              @ ../../../../Source/portable/Common/mpu_wrappers.c:258:43
	ldr	r1, [sp]
	.loc	3 258 17                        @ ../../../../Source/portable/Common/mpu_wrappers.c:258:17
	bl	vTaskPrioritySet
	.loc	3 259 17 is_stmt 1              @ ../../../../Source/portable/Common/mpu_wrappers.c:259:17
	@APP
	@NO_APP
	.loc	3 261 17                        @ ../../../../Source/portable/Common/mpu_wrappers.c:261:17
	bl	vResetPrivilege
	.loc	3 262 17                        @ ../../../../Source/portable/Common/mpu_wrappers.c:262:17
	@APP
	@NO_APP
	.loc	3 263 13                        @ ../../../../Source/portable/Common/mpu_wrappers.c:263:13
	b	.LBB7_3
.Ltmp45:
.LBB7_2:
	.loc	3 266 35                        @ ../../../../Source/portable/Common/mpu_wrappers.c:266:35
	ldr	r0, [sp, #4]
	.loc	3 266 43 is_stmt 0              @ ../../../../Source/portable/Common/mpu_wrappers.c:266:43
	ldr	r1, [sp]
	.loc	3 266 17                        @ ../../../../Source/portable/Common/mpu_wrappers.c:266:17
	bl	vTaskPrioritySet
	b	.LBB7_3
.Ltmp46:
.LBB7_3:
	.loc	3 268 9 is_stmt 1               @ ../../../../Source/portable/Common/mpu_wrappers.c:268:9
	add	sp, #8
	pop	{r7, pc}
.Ltmp47:
.Lfunc_end7:
	.size	MPU_vTaskPrioritySet, .Lfunc_end7-MPU_vTaskPrioritySet
	.cfi_endproc
	.cantunwind
	.fnend
                                        @ -- End function
	.section	freertos_system_calls,"ax",%progbits
	.hidden	MPU_eTaskGetState               @ -- Begin function MPU_eTaskGetState
	.globl	MPU_eTaskGetState
	.p2align	1
	.type	MPU_eTaskGetState,%function
	.code	16                              @ @MPU_eTaskGetState
	.thumb_func
MPU_eTaskGetState:
.Lfunc_begin8:
	.loc	3 274 0                         @ ../../../../Source/portable/Common/mpu_wrappers.c:274:0
	.fnstart
	.cfi_startproc
@ %bb.0:
	.save	{r7, lr}
	push	{r7, lr}
	.cfi_def_cfa_offset 8
	.cfi_offset lr, -4
	.cfi_offset r7, -8
	.pad	#8
	sub	sp, #8
	.cfi_def_cfa_offset 16
	str	r0, [sp, #4]
.Ltmp48:
	.loc	3 277 17 prologue_end           @ ../../../../Source/portable/Common/mpu_wrappers.c:277:17
	bl	xIsPrivileged
.Ltmp49:
	.loc	3 277 17 is_stmt 0              @ ../../../../Source/portable/Common/mpu_wrappers.c:277:17
	cbnz	r0, .LBB8_2
	b	.LBB8_1
.LBB8_1:
.Ltmp50:
	.loc	3 279 17 is_stmt 1              @ ../../../../Source/portable/Common/mpu_wrappers.c:279:17
	@APP
	svc	#3

	@NO_APP
	.loc	3 280 17                        @ ../../../../Source/portable/Common/mpu_wrappers.c:280:17
	@APP
	@NO_APP
	.loc	3 282 42                        @ ../../../../Source/portable/Common/mpu_wrappers.c:282:42
	ldr	r0, [sp, #4]
	.loc	3 282 27 is_stmt 0              @ ../../../../Source/portable/Common/mpu_wrappers.c:282:27
	bl	eTaskGetState
	.loc	3 282 25                        @ ../../../../Source/portable/Common/mpu_wrappers.c:282:25
	str	r0, [sp]
	.loc	3 283 17 is_stmt 1              @ ../../../../Source/portable/Common/mpu_wrappers.c:283:17
	@APP
	@NO_APP
	.loc	3 285 17                        @ ../../../../Source/portable/Common/mpu_wrappers.c:285:17
	bl	vResetPrivilege
	.loc	3 286 17                        @ ../../../../Source/portable/Common/mpu_wrappers.c:286:17
	@APP
	@NO_APP
	.loc	3 287 13                        @ ../../../../Source/portable/Common/mpu_wrappers.c:287:13
	b	.LBB8_3
.Ltmp51:
.LBB8_2:
	.loc	3 290 42                        @ ../../../../Source/portable/Common/mpu_wrappers.c:290:42
	ldr	r0, [sp, #4]
	.loc	3 290 27 is_stmt 0              @ ../../../../Source/portable/Common/mpu_wrappers.c:290:27
	bl	eTaskGetState
	.loc	3 290 25                        @ ../../../../Source/portable/Common/mpu_wrappers.c:290:25
	str	r0, [sp]
	b	.LBB8_3
.Ltmp52:
.LBB8_3:
	.loc	3 293 20 is_stmt 1              @ ../../../../Source/portable/Common/mpu_wrappers.c:293:20
	ldr	r0, [sp]
	.loc	3 293 13 is_stmt 0              @ ../../../../Source/portable/Common/mpu_wrappers.c:293:13
	add	sp, #8
	pop	{r7, pc}
.Ltmp53:
.Lfunc_end8:
	.size	MPU_eTaskGetState, .Lfunc_end8-MPU_eTaskGetState
	.cfi_endproc
	.cantunwind
	.fnend
                                        @ -- End function
	.hidden	MPU_vTaskGetInfo                @ -- Begin function MPU_vTaskGetInfo
	.globl	MPU_vTaskGetInfo
	.p2align	1
	.type	MPU_vTaskGetInfo,%function
	.code	16                              @ @MPU_vTaskGetInfo
	.thumb_func
MPU_vTaskGetInfo:
.Lfunc_begin9:
	.loc	3 303 0 is_stmt 1               @ ../../../../Source/portable/Common/mpu_wrappers.c:303:0
	.fnstart
	.cfi_startproc
@ %bb.0:
	.save	{r7, lr}
	push	{r7, lr}
	.cfi_def_cfa_offset 8
	.cfi_offset lr, -4
	.cfi_offset r7, -8
	.pad	#16
	sub	sp, #16
	.cfi_def_cfa_offset 24
	str	r0, [sp, #12]
	str	r1, [sp, #8]
	str	r2, [sp, #4]
	str	r3, [sp]
.Ltmp54:
	.loc	3 304 17 prologue_end           @ ../../../../Source/portable/Common/mpu_wrappers.c:304:17
	bl	xIsPrivileged
.Ltmp55:
	.loc	3 304 17 is_stmt 0              @ ../../../../Source/portable/Common/mpu_wrappers.c:304:17
	cbnz	r0, .LBB9_2
	b	.LBB9_1
.LBB9_1:
.Ltmp56:
	.loc	3 306 17 is_stmt 1              @ ../../../../Source/portable/Common/mpu_wrappers.c:306:17
	@APP
	svc	#3

	@NO_APP
	.loc	3 307 17                        @ ../../../../Source/portable/Common/mpu_wrappers.c:307:17
	@APP
	@NO_APP
	.loc	3 309 31                        @ ../../../../Source/portable/Common/mpu_wrappers.c:309:31
	ldr	r0, [sp, #12]
	.loc	3 309 38 is_stmt 0              @ ../../../../Source/portable/Common/mpu_wrappers.c:309:38
	ldr	r1, [sp, #8]
	.loc	3 309 52                        @ ../../../../Source/portable/Common/mpu_wrappers.c:309:52
	ldr	r2, [sp, #4]
	.loc	3 309 72                        @ ../../../../Source/portable/Common/mpu_wrappers.c:309:72
	ldr	r3, [sp]
	.loc	3 309 17                        @ ../../../../Source/portable/Common/mpu_wrappers.c:309:17
	bl	vTaskGetInfo
	.loc	3 310 17 is_stmt 1              @ ../../../../Source/portable/Common/mpu_wrappers.c:310:17
	@APP
	@NO_APP
	.loc	3 312 17                        @ ../../../../Source/portable/Common/mpu_wrappers.c:312:17
	bl	vResetPrivilege
	.loc	3 313 17                        @ ../../../../Source/portable/Common/mpu_wrappers.c:313:17
	@APP
	@NO_APP
	.loc	3 314 13                        @ ../../../../Source/portable/Common/mpu_wrappers.c:314:13
	b	.LBB9_3
.Ltmp57:
.LBB9_2:
	.loc	3 317 31                        @ ../../../../Source/portable/Common/mpu_wrappers.c:317:31
	ldr	r0, [sp, #12]
	.loc	3 317 38 is_stmt 0              @ ../../../../Source/portable/Common/mpu_wrappers.c:317:38
	ldr	r1, [sp, #8]
	.loc	3 317 52                        @ ../../../../Source/portable/Common/mpu_wrappers.c:317:52
	ldr	r2, [sp, #4]
	.loc	3 317 72                        @ ../../../../Source/portable/Common/mpu_wrappers.c:317:72
	ldr	r3, [sp]
	.loc	3 317 17                        @ ../../../../Source/portable/Common/mpu_wrappers.c:317:17
	bl	vTaskGetInfo
	b	.LBB9_3
.Ltmp58:
.LBB9_3:
	.loc	3 319 9 is_stmt 1               @ ../../../../Source/portable/Common/mpu_wrappers.c:319:9
	add	sp, #16
	pop	{r7, pc}
.Ltmp59:
.Lfunc_end9:
	.size	MPU_vTaskGetInfo, .Lfunc_end9-MPU_vTaskGetInfo
	.cfi_endproc
	.cantunwind
	.fnend
                                        @ -- End function
	.hidden	MPU_vTaskSuspend                @ -- Begin function MPU_vTaskSuspend
	.globl	MPU_vTaskSuspend
	.p2align	1
	.type	MPU_vTaskSuspend,%function
	.code	16                              @ @MPU_vTaskSuspend
	.thumb_func
MPU_vTaskSuspend:
.Lfunc_begin10:
	.loc	3 350 0                         @ ../../../../Source/portable/Common/mpu_wrappers.c:350:0
	.fnstart
	.cfi_startproc
@ %bb.0:
	.save	{r7, lr}
	push	{r7, lr}
	.cfi_def_cfa_offset 8
	.cfi_offset lr, -4
	.cfi_offset r7, -8
	.pad	#8
	sub	sp, #8
	.cfi_def_cfa_offset 16
	str	r0, [sp, #4]
.Ltmp60:
	.loc	3 351 17 prologue_end           @ ../../../../Source/portable/Common/mpu_wrappers.c:351:17
	bl	xIsPrivileged
.Ltmp61:
	.loc	3 351 17 is_stmt 0              @ ../../../../Source/portable/Common/mpu_wrappers.c:351:17
	cbnz	r0, .LBB10_2
	b	.LBB10_1
.LBB10_1:
.Ltmp62:
	.loc	3 353 17 is_stmt 1              @ ../../../../Source/portable/Common/mpu_wrappers.c:353:17
	@APP
	svc	#3

	@NO_APP
	.loc	3 354 17                        @ ../../../../Source/portable/Common/mpu_wrappers.c:354:17
	@APP
	@NO_APP
	.loc	3 356 31                        @ ../../../../Source/portable/Common/mpu_wrappers.c:356:31
	ldr	r0, [sp, #4]
	.loc	3 356 17 is_stmt 0              @ ../../../../Source/portable/Common/mpu_wrappers.c:356:17
	bl	vTaskSuspend
	.loc	3 357 17 is_stmt 1              @ ../../../../Source/portable/Common/mpu_wrappers.c:357:17
	@APP
	@NO_APP
	.loc	3 359 17                        @ ../../../../Source/portable/Common/mpu_wrappers.c:359:17
	bl	vResetPrivilege
	.loc	3 360 17                        @ ../../../../Source/portable/Common/mpu_wrappers.c:360:17
	@APP
	@NO_APP
	.loc	3 361 13                        @ ../../../../Source/portable/Common/mpu_wrappers.c:361:13
	b	.LBB10_3
.Ltmp63:
.LBB10_2:
	.loc	3 364 31                        @ ../../../../Source/portable/Common/mpu_wrappers.c:364:31
	ldr	r0, [sp, #4]
	.loc	3 364 17 is_stmt 0              @ ../../../../Source/portable/Common/mpu_wrappers.c:364:17
	bl	vTaskSuspend
	b	.LBB10_3
.Ltmp64:
.LBB10_3:
	.loc	3 366 9 is_stmt 1               @ ../../../../Source/portable/Common/mpu_wrappers.c:366:9
	add	sp, #8
	pop	{r7, pc}
.Ltmp65:
.Lfunc_end10:
	.size	MPU_vTaskSuspend, .Lfunc_end10-MPU_vTaskSuspend
	.cfi_endproc
	.cantunwind
	.fnend
                                        @ -- End function
	.hidden	MPU_vTaskResume                 @ -- Begin function MPU_vTaskResume
	.globl	MPU_vTaskResume
	.p2align	1
	.type	MPU_vTaskResume,%function
	.code	16                              @ @MPU_vTaskResume
	.thumb_func
MPU_vTaskResume:
.Lfunc_begin11:
	.loc	3 372 0                         @ ../../../../Source/portable/Common/mpu_wrappers.c:372:0
	.fnstart
	.cfi_startproc
@ %bb.0:
	.save	{r7, lr}
	push	{r7, lr}
	.cfi_def_cfa_offset 8
	.cfi_offset lr, -4
	.cfi_offset r7, -8
	.pad	#8
	sub	sp, #8
	.cfi_def_cfa_offset 16
	str	r0, [sp, #4]
.Ltmp66:
	.loc	3 373 17 prologue_end           @ ../../../../Source/portable/Common/mpu_wrappers.c:373:17
	bl	xIsPrivileged
.Ltmp67:
	.loc	3 373 17 is_stmt 0              @ ../../../../Source/portable/Common/mpu_wrappers.c:373:17
	cbnz	r0, .LBB11_2
	b	.LBB11_1
.LBB11_1:
.Ltmp68:
	.loc	3 375 17 is_stmt 1              @ ../../../../Source/portable/Common/mpu_wrappers.c:375:17
	@APP
	svc	#3

	@NO_APP
	.loc	3 376 17                        @ ../../../../Source/portable/Common/mpu_wrappers.c:376:17
	@APP
	@NO_APP
	.loc	3 378 30                        @ ../../../../Source/portable/Common/mpu_wrappers.c:378:30
	ldr	r0, [sp, #4]
	.loc	3 378 17 is_stmt 0              @ ../../../../Source/portable/Common/mpu_wrappers.c:378:17
	bl	vTaskResume
	.loc	3 379 17 is_stmt 1              @ ../../../../Source/portable/Common/mpu_wrappers.c:379:17
	@APP
	@NO_APP
	.loc	3 381 17                        @ ../../../../Source/portable/Common/mpu_wrappers.c:381:17
	bl	vResetPrivilege
	.loc	3 382 17                        @ ../../../../Source/portable/Common/mpu_wrappers.c:382:17
	@APP
	@NO_APP
	.loc	3 383 13                        @ ../../../../Source/portable/Common/mpu_wrappers.c:383:13
	b	.LBB11_3
.Ltmp69:
.LBB11_2:
	.loc	3 386 30                        @ ../../../../Source/portable/Common/mpu_wrappers.c:386:30
	ldr	r0, [sp, #4]
	.loc	3 386 17 is_stmt 0              @ ../../../../Source/portable/Common/mpu_wrappers.c:386:17
	bl	vTaskResume
	b	.LBB11_3
.Ltmp70:
.LBB11_3:
	.loc	3 388 9 is_stmt 1               @ ../../../../Source/portable/Common/mpu_wrappers.c:388:9
	add	sp, #8
	pop	{r7, pc}
.Ltmp71:
.Lfunc_end11:
	.size	MPU_vTaskResume, .Lfunc_end11-MPU_vTaskResume
	.cfi_endproc
	.cantunwind
	.fnend
                                        @ -- End function
	.section	.text.MPU_vTaskSuspendAll,"ax",%progbits
	.hidden	MPU_vTaskSuspendAll             @ -- Begin function MPU_vTaskSuspendAll
	.globl	MPU_vTaskSuspendAll
	.p2align	1
	.type	MPU_vTaskSuspendAll,%function
	.code	16                              @ @MPU_vTaskSuspendAll
	.thumb_func
MPU_vTaskSuspendAll:
.Lfunc_begin12:
	.loc	3 393 0                         @ ../../../../Source/portable/Common/mpu_wrappers.c:393:0
	.fnstart
	.cfi_startproc
@ %bb.0:
	.save	{r7, lr}
	push	{r7, lr}
	.cfi_def_cfa_offset 8
	.cfi_offset lr, -4
	.cfi_offset r7, -8
.Ltmp72:
	.loc	3 394 13 prologue_end           @ ../../../../Source/portable/Common/mpu_wrappers.c:394:13
	bl	xIsPrivileged
.Ltmp73:
	.loc	3 394 13 is_stmt 0              @ ../../../../Source/portable/Common/mpu_wrappers.c:394:13
	cbnz	r0, .LBB12_2
	b	.LBB12_1
.LBB12_1:
.Ltmp74:
	.loc	3 396 13 is_stmt 1              @ ../../../../Source/portable/Common/mpu_wrappers.c:396:13
	@APP
	svc	#3

	@NO_APP
	.loc	3 397 13                        @ ../../../../Source/portable/Common/mpu_wrappers.c:397:13
	@APP
	@NO_APP
	.loc	3 399 13                        @ ../../../../Source/portable/Common/mpu_wrappers.c:399:13
	bl	vTaskSuspendAll
	.loc	3 400 13                        @ ../../../../Source/portable/Common/mpu_wrappers.c:400:13
	@APP
	@NO_APP
	.loc	3 402 13                        @ ../../../../Source/portable/Common/mpu_wrappers.c:402:13
	bl	vResetPrivilege
	.loc	3 403 13                        @ ../../../../Source/portable/Common/mpu_wrappers.c:403:13
	@APP
	@NO_APP
	.loc	3 404 9                         @ ../../../../Source/portable/Common/mpu_wrappers.c:404:9
	b	.LBB12_3
.Ltmp75:
.LBB12_2:
	.loc	3 407 13                        @ ../../../../Source/portable/Common/mpu_wrappers.c:407:13
	bl	vTaskSuspendAll
	b	.LBB12_3
.Ltmp76:
.LBB12_3:
	.loc	3 409 5                         @ ../../../../Source/portable/Common/mpu_wrappers.c:409:5
	pop	{r7, pc}
.Ltmp77:
.Lfunc_end12:
	.size	MPU_vTaskSuspendAll, .Lfunc_end12-MPU_vTaskSuspendAll
	.cfi_endproc
	.cantunwind
	.fnend
                                        @ -- End function
	.section	.text.MPU_xTaskResumeAll,"ax",%progbits
	.hidden	MPU_xTaskResumeAll              @ -- Begin function MPU_xTaskResumeAll
	.globl	MPU_xTaskResumeAll
	.p2align	1
	.type	MPU_xTaskResumeAll,%function
	.code	16                              @ @MPU_xTaskResumeAll
	.thumb_func
MPU_xTaskResumeAll:
.Lfunc_begin13:
	.loc	3 413 0                         @ ../../../../Source/portable/Common/mpu_wrappers.c:413:0
	.fnstart
	.cfi_startproc
@ %bb.0:
	.save	{r7, lr}
	push	{r7, lr}
	.cfi_def_cfa_offset 8
	.cfi_offset lr, -4
	.cfi_offset r7, -8
	.pad	#8
	sub	sp, #8
	.cfi_def_cfa_offset 16
.Ltmp78:
	.loc	3 416 13 prologue_end           @ ../../../../Source/portable/Common/mpu_wrappers.c:416:13
	bl	xIsPrivileged
.Ltmp79:
	.loc	3 416 13 is_stmt 0              @ ../../../../Source/portable/Common/mpu_wrappers.c:416:13
	cbnz	r0, .LBB13_2
	b	.LBB13_1
.LBB13_1:
.Ltmp80:
	.loc	3 418 13 is_stmt 1              @ ../../../../Source/portable/Common/mpu_wrappers.c:418:13
	@APP
	svc	#3

	@NO_APP
	.loc	3 419 13                        @ ../../../../Source/portable/Common/mpu_wrappers.c:419:13
	@APP
	@NO_APP
	.loc	3 421 23                        @ ../../../../Source/portable/Common/mpu_wrappers.c:421:23
	bl	xTaskResumeAll
	.loc	3 421 21 is_stmt 0              @ ../../../../Source/portable/Common/mpu_wrappers.c:421:21
	str	r0, [sp, #4]
	.loc	3 422 13 is_stmt 1              @ ../../../../Source/portable/Common/mpu_wrappers.c:422:13
	@APP
	@NO_APP
	.loc	3 424 13                        @ ../../../../Source/portable/Common/mpu_wrappers.c:424:13
	bl	vResetPrivilege
	.loc	3 425 13                        @ ../../../../Source/portable/Common/mpu_wrappers.c:425:13
	@APP
	@NO_APP
	.loc	3 426 9                         @ ../../../../Source/portable/Common/mpu_wrappers.c:426:9
	b	.LBB13_3
.Ltmp81:
.LBB13_2:
	.loc	3 429 23                        @ ../../../../Source/portable/Common/mpu_wrappers.c:429:23
	bl	xTaskResumeAll
	.loc	3 429 21 is_stmt 0              @ ../../../../Source/portable/Common/mpu_wrappers.c:429:21
	str	r0, [sp, #4]
	b	.LBB13_3
.Ltmp82:
.LBB13_3:
	.loc	3 432 16 is_stmt 1              @ ../../../../Source/portable/Common/mpu_wrappers.c:432:16
	ldr	r0, [sp, #4]
	.loc	3 432 9 is_stmt 0               @ ../../../../Source/portable/Common/mpu_wrappers.c:432:9
	add	sp, #8
	pop	{r7, pc}
.Ltmp83:
.Lfunc_end13:
	.size	MPU_xTaskResumeAll, .Lfunc_end13-MPU_xTaskResumeAll
	.cfi_endproc
	.cantunwind
	.fnend
                                        @ -- End function
	.section	freertos_system_calls,"ax",%progbits
	.hidden	MPU_xTaskGetTickCount           @ -- Begin function MPU_xTaskGetTickCount
	.globl	MPU_xTaskGetTickCount
	.p2align	1
	.type	MPU_xTaskGetTickCount,%function
	.code	16                              @ @MPU_xTaskGetTickCount
	.thumb_func
MPU_xTaskGetTickCount:
.Lfunc_begin14:
	.loc	3 437 0 is_stmt 1               @ ../../../../Source/portable/Common/mpu_wrappers.c:437:0
	.fnstart
	.cfi_startproc
@ %bb.0:
	.save	{r7, lr}
	push	{r7, lr}
	.cfi_def_cfa_offset 8
	.cfi_offset lr, -4
	.cfi_offset r7, -8
	.pad	#8
	sub	sp, #8
	.cfi_def_cfa_offset 16
.Ltmp84:
	.loc	3 440 13 prologue_end           @ ../../../../Source/portable/Common/mpu_wrappers.c:440:13
	bl	xIsPrivileged
.Ltmp85:
	.loc	3 440 13 is_stmt 0              @ ../../../../Source/portable/Common/mpu_wrappers.c:440:13
	cbnz	r0, .LBB14_2
	b	.LBB14_1
.LBB14_1:
.Ltmp86:
	.loc	3 442 13 is_stmt 1              @ ../../../../Source/portable/Common/mpu_wrappers.c:442:13
	@APP
	svc	#3

	@NO_APP
	.loc	3 443 13                        @ ../../../../Source/portable/Common/mpu_wrappers.c:443:13
	@APP
	@NO_APP
	.loc	3 445 23                        @ ../../../../Source/portable/Common/mpu_wrappers.c:445:23
	bl	xTaskGetTickCount
	.loc	3 445 21 is_stmt 0              @ ../../../../Source/portable/Common/mpu_wrappers.c:445:21
	str	r0, [sp, #4]
	.loc	3 446 13 is_stmt 1              @ ../../../../Source/portable/Common/mpu_wrappers.c:446:13
	@APP
	@NO_APP
	.loc	3 448 13                        @ ../../../../Source/portable/Common/mpu_wrappers.c:448:13
	bl	vResetPrivilege
	.loc	3 449 13                        @ ../../../../Source/portable/Common/mpu_wrappers.c:449:13
	@APP
	@NO_APP
	.loc	3 450 9                         @ ../../../../Source/portable/Common/mpu_wrappers.c:450:9
	b	.LBB14_3
.Ltmp87:
.LBB14_2:
	.loc	3 453 23                        @ ../../../../Source/portable/Common/mpu_wrappers.c:453:23
	bl	xTaskGetTickCount
	.loc	3 453 21 is_stmt 0              @ ../../../../Source/portable/Common/mpu_wrappers.c:453:21
	str	r0, [sp, #4]
	b	.LBB14_3
.Ltmp88:
.LBB14_3:
	.loc	3 456 16 is_stmt 1              @ ../../../../Source/portable/Common/mpu_wrappers.c:456:16
	ldr	r0, [sp, #4]
	.loc	3 456 9 is_stmt 0               @ ../../../../Source/portable/Common/mpu_wrappers.c:456:9
	add	sp, #8
	pop	{r7, pc}
.Ltmp89:
.Lfunc_end14:
	.size	MPU_xTaskGetTickCount, .Lfunc_end14-MPU_xTaskGetTickCount
	.cfi_endproc
	.cantunwind
	.fnend
                                        @ -- End function
	.hidden	MPU_uxTaskGetNumberOfTasks      @ -- Begin function MPU_uxTaskGetNumberOfTasks
	.globl	MPU_uxTaskGetNumberOfTasks
	.p2align	1
	.type	MPU_uxTaskGetNumberOfTasks,%function
	.code	16                              @ @MPU_uxTaskGetNumberOfTasks
	.thumb_func
MPU_uxTaskGetNumberOfTasks:
.Lfunc_begin15:
	.loc	3 461 0 is_stmt 1               @ ../../../../Source/portable/Common/mpu_wrappers.c:461:0
	.fnstart
	.cfi_startproc
@ %bb.0:
	.save	{r7, lr}
	push	{r7, lr}
	.cfi_def_cfa_offset 8
	.cfi_offset lr, -4
	.cfi_offset r7, -8
	.pad	#8
	sub	sp, #8
	.cfi_def_cfa_offset 16
.Ltmp90:
	.loc	3 464 13 prologue_end           @ ../../../../Source/portable/Common/mpu_wrappers.c:464:13
	bl	xIsPrivileged
.Ltmp91:
	.loc	3 464 13 is_stmt 0              @ ../../../../Source/portable/Common/mpu_wrappers.c:464:13
	cbnz	r0, .LBB15_2
	b	.LBB15_1
.LBB15_1:
.Ltmp92:
	.loc	3 466 13 is_stmt 1              @ ../../../../Source/portable/Common/mpu_wrappers.c:466:13
	@APP
	svc	#3

	@NO_APP
	.loc	3 467 13                        @ ../../../../Source/portable/Common/mpu_wrappers.c:467:13
	@APP
	@NO_APP
	.loc	3 469 24                        @ ../../../../Source/portable/Common/mpu_wrappers.c:469:24
	bl	uxTaskGetNumberOfTasks
	.loc	3 469 22 is_stmt 0              @ ../../../../Source/portable/Common/mpu_wrappers.c:469:22
	str	r0, [sp, #4]
	.loc	3 470 13 is_stmt 1              @ ../../../../Source/portable/Common/mpu_wrappers.c:470:13
	@APP
	@NO_APP
	.loc	3 472 13                        @ ../../../../Source/portable/Common/mpu_wrappers.c:472:13
	bl	vResetPrivilege
	.loc	3 473 13                        @ ../../../../Source/portable/Common/mpu_wrappers.c:473:13
	@APP
	@NO_APP
	.loc	3 474 9                         @ ../../../../Source/portable/Common/mpu_wrappers.c:474:9
	b	.LBB15_3
.Ltmp93:
.LBB15_2:
	.loc	3 477 24                        @ ../../../../Source/portable/Common/mpu_wrappers.c:477:24
	bl	uxTaskGetNumberOfTasks
	.loc	3 477 22 is_stmt 0              @ ../../../../Source/portable/Common/mpu_wrappers.c:477:22
	str	r0, [sp, #4]
	b	.LBB15_3
.Ltmp94:
.LBB15_3:
	.loc	3 480 16 is_stmt 1              @ ../../../../Source/portable/Common/mpu_wrappers.c:480:16
	ldr	r0, [sp, #4]
	.loc	3 480 9 is_stmt 0               @ ../../../../Source/portable/Common/mpu_wrappers.c:480:9
	add	sp, #8
	pop	{r7, pc}
.Ltmp95:
.Lfunc_end15:
	.size	MPU_uxTaskGetNumberOfTasks, .Lfunc_end15-MPU_uxTaskGetNumberOfTasks
	.cfi_endproc
	.cantunwind
	.fnend
                                        @ -- End function
	.hidden	MPU_pcTaskGetName               @ -- Begin function MPU_pcTaskGetName
	.globl	MPU_pcTaskGetName
	.p2align	1
	.type	MPU_pcTaskGetName,%function
	.code	16                              @ @MPU_pcTaskGetName
	.thumb_func
MPU_pcTaskGetName:
.Lfunc_begin16:
	.loc	3 485 0 is_stmt 1               @ ../../../../Source/portable/Common/mpu_wrappers.c:485:0
	.fnstart
	.cfi_startproc
@ %bb.0:
	.save	{r7, lr}
	push	{r7, lr}
	.cfi_def_cfa_offset 8
	.cfi_offset lr, -4
	.cfi_offset r7, -8
	.pad	#8
	sub	sp, #8
	.cfi_def_cfa_offset 16
	str	r0, [sp, #4]
.Ltmp96:
	.loc	3 488 13 prologue_end           @ ../../../../Source/portable/Common/mpu_wrappers.c:488:13
	bl	xIsPrivileged
.Ltmp97:
	.loc	3 488 13 is_stmt 0              @ ../../../../Source/portable/Common/mpu_wrappers.c:488:13
	cbnz	r0, .LBB16_2
	b	.LBB16_1
.LBB16_1:
.Ltmp98:
	.loc	3 490 13 is_stmt 1              @ ../../../../Source/portable/Common/mpu_wrappers.c:490:13
	@APP
	svc	#3

	@NO_APP
	.loc	3 491 13                        @ ../../../../Source/portable/Common/mpu_wrappers.c:491:13
	@APP
	@NO_APP
	.loc	3 493 39                        @ ../../../../Source/portable/Common/mpu_wrappers.c:493:39
	ldr	r0, [sp, #4]
	.loc	3 493 24 is_stmt 0              @ ../../../../Source/portable/Common/mpu_wrappers.c:493:24
	bl	pcTaskGetName
	.loc	3 493 22                        @ ../../../../Source/portable/Common/mpu_wrappers.c:493:22
	str	r0, [sp]
	.loc	3 494 13 is_stmt 1              @ ../../../../Source/portable/Common/mpu_wrappers.c:494:13
	@APP
	@NO_APP
	.loc	3 496 13                        @ ../../../../Source/portable/Common/mpu_wrappers.c:496:13
	bl	vResetPrivilege
	.loc	3 497 13                        @ ../../../../Source/portable/Common/mpu_wrappers.c:497:13
	@APP
	@NO_APP
	.loc	3 498 9                         @ ../../../../Source/portable/Common/mpu_wrappers.c:498:9
	b	.LBB16_3
.Ltmp99:
.LBB16_2:
	.loc	3 501 39                        @ ../../../../Source/portable/Common/mpu_wrappers.c:501:39
	ldr	r0, [sp, #4]
	.loc	3 501 24 is_stmt 0              @ ../../../../Source/portable/Common/mpu_wrappers.c:501:24
	bl	pcTaskGetName
	.loc	3 501 22                        @ ../../../../Source/portable/Common/mpu_wrappers.c:501:22
	str	r0, [sp]
	b	.LBB16_3
.Ltmp100:
.LBB16_3:
	.loc	3 504 16 is_stmt 1              @ ../../../../Source/portable/Common/mpu_wrappers.c:504:16
	ldr	r0, [sp]
	.loc	3 504 9 is_stmt 0               @ ../../../../Source/portable/Common/mpu_wrappers.c:504:9
	add	sp, #8
	pop	{r7, pc}
.Ltmp101:
.Lfunc_end16:
	.size	MPU_pcTaskGetName, .Lfunc_end16-MPU_pcTaskGetName
	.cfi_endproc
	.cantunwind
	.fnend
                                        @ -- End function
	.section	privileged_functions,"ax",%progbits
	.hidden	MPU_xTaskGetHandle              @ -- Begin function MPU_xTaskGetHandle
	.globl	MPU_xTaskGetHandle
	.p2align	1
	.type	MPU_xTaskGetHandle,%function
	.code	16                              @ @MPU_xTaskGetHandle
	.thumb_func
MPU_xTaskGetHandle:
.Lfunc_begin17:
	.loc	3 510 0 is_stmt 1               @ ../../../../Source/portable/Common/mpu_wrappers.c:510:0
	.fnstart
	.cfi_startproc
@ %bb.0:
	.save	{r7, lr}
	push	{r7, lr}
	.cfi_def_cfa_offset 8
	.cfi_offset lr, -4
	.cfi_offset r7, -8
	.pad	#8
	sub	sp, #8
	.cfi_def_cfa_offset 16
	str	r0, [sp, #4]
.Ltmp102:
	.loc	3 513 17 prologue_end           @ ../../../../Source/portable/Common/mpu_wrappers.c:513:17
	bl	xIsPrivileged
.Ltmp103:
	.loc	3 513 17 is_stmt 0              @ ../../../../Source/portable/Common/mpu_wrappers.c:513:17
	cbnz	r0, .LBB17_2
	b	.LBB17_1
.LBB17_1:
.Ltmp104:
	.loc	3 515 17 is_stmt 1              @ ../../../../Source/portable/Common/mpu_wrappers.c:515:17
	@APP
	svc	#3

	@NO_APP
	.loc	3 516 17                        @ ../../../../Source/portable/Common/mpu_wrappers.c:516:17
	@APP
	@NO_APP
	.loc	3 518 43                        @ ../../../../Source/portable/Common/mpu_wrappers.c:518:43
	ldr	r0, [sp, #4]
	.loc	3 518 27 is_stmt 0              @ ../../../../Source/portable/Common/mpu_wrappers.c:518:27
	bl	xTaskGetHandle
	.loc	3 518 25                        @ ../../../../Source/portable/Common/mpu_wrappers.c:518:25
	str	r0, [sp]
	.loc	3 519 17 is_stmt 1              @ ../../../../Source/portable/Common/mpu_wrappers.c:519:17
	@APP
	@NO_APP
	.loc	3 521 17                        @ ../../../../Source/portable/Common/mpu_wrappers.c:521:17
	bl	vResetPrivilege
	.loc	3 522 17                        @ ../../../../Source/portable/Common/mpu_wrappers.c:522:17
	@APP
	@NO_APP
	.loc	3 523 13                        @ ../../../../Source/portable/Common/mpu_wrappers.c:523:13
	b	.LBB17_3
.Ltmp105:
.LBB17_2:
	.loc	3 526 43                        @ ../../../../Source/portable/Common/mpu_wrappers.c:526:43
	ldr	r0, [sp, #4]
	.loc	3 526 27 is_stmt 0              @ ../../../../Source/portable/Common/mpu_wrappers.c:526:27
	bl	xTaskGetHandle
	.loc	3 526 25                        @ ../../../../Source/portable/Common/mpu_wrappers.c:526:25
	str	r0, [sp]
	b	.LBB17_3
.Ltmp106:
.LBB17_3:
	.loc	3 529 20 is_stmt 1              @ ../../../../Source/portable/Common/mpu_wrappers.c:529:20
	ldr	r0, [sp]
	.loc	3 529 13 is_stmt 0              @ ../../../../Source/portable/Common/mpu_wrappers.c:529:13
	add	sp, #8
	pop	{r7, pc}
.Ltmp107:
.Lfunc_end17:
	.size	MPU_xTaskGetHandle, .Lfunc_end17-MPU_xTaskGetHandle
	.cfi_endproc
	.cantunwind
	.fnend
                                        @ -- End function
	.section	.text.MPU_vTaskList,"ax",%progbits
	.hidden	MPU_vTaskList                   @ -- Begin function MPU_vTaskList
	.globl	MPU_vTaskList
	.p2align	1
	.type	MPU_vTaskList,%function
	.code	16                              @ @MPU_vTaskList
	.thumb_func
MPU_vTaskList:
.Lfunc_begin18:
	.loc	3 536 0 is_stmt 1               @ ../../../../Source/portable/Common/mpu_wrappers.c:536:0
	.fnstart
	.cfi_startproc
@ %bb.0:
	.save	{r7, lr}
	push	{r7, lr}
	.cfi_def_cfa_offset 8
	.cfi_offset lr, -4
	.cfi_offset r7, -8
	.pad	#8
	sub	sp, #8
	.cfi_def_cfa_offset 16
	str	r0, [sp, #4]
.Ltmp108:
	.loc	3 537 17 prologue_end           @ ../../../../Source/portable/Common/mpu_wrappers.c:537:17
	bl	xIsPrivileged
.Ltmp109:
	.loc	3 537 17 is_stmt 0              @ ../../../../Source/portable/Common/mpu_wrappers.c:537:17
	cbnz	r0, .LBB18_2
	b	.LBB18_1
.LBB18_1:
.Ltmp110:
	.loc	3 539 17 is_stmt 1              @ ../../../../Source/portable/Common/mpu_wrappers.c:539:17
	@APP
	svc	#3

	@NO_APP
	.loc	3 540 17                        @ ../../../../Source/portable/Common/mpu_wrappers.c:540:17
	@APP
	@NO_APP
	.loc	3 542 28                        @ ../../../../Source/portable/Common/mpu_wrappers.c:542:28
	ldr	r0, [sp, #4]
	.loc	3 542 17 is_stmt 0              @ ../../../../Source/portable/Common/mpu_wrappers.c:542:17
	bl	vTaskList
	.loc	3 543 17 is_stmt 1              @ ../../../../Source/portable/Common/mpu_wrappers.c:543:17
	@APP
	@NO_APP
	.loc	3 545 17                        @ ../../../../Source/portable/Common/mpu_wrappers.c:545:17
	bl	vResetPrivilege
	.loc	3 546 17                        @ ../../../../Source/portable/Common/mpu_wrappers.c:546:17
	@APP
	@NO_APP
	.loc	3 547 13                        @ ../../../../Source/portable/Common/mpu_wrappers.c:547:13
	b	.LBB18_3
.Ltmp111:
.LBB18_2:
	.loc	3 550 28                        @ ../../../../Source/portable/Common/mpu_wrappers.c:550:28
	ldr	r0, [sp, #4]
	.loc	3 550 17 is_stmt 0              @ ../../../../Source/portable/Common/mpu_wrappers.c:550:17
	bl	vTaskList
	b	.LBB18_3
.Ltmp112:
.LBB18_3:
	.loc	3 552 9 is_stmt 1               @ ../../../../Source/portable/Common/mpu_wrappers.c:552:9
	add	sp, #8
	pop	{r7, pc}
.Ltmp113:
.Lfunc_end18:
	.size	MPU_vTaskList, .Lfunc_end18-MPU_vTaskList
	.cfi_endproc
	.cantunwind
	.fnend
                                        @ -- End function
	.section	freertos_system_calls,"ax",%progbits
	.hidden	MPU_uxTaskGetSystemState        @ -- Begin function MPU_uxTaskGetSystemState
	.globl	MPU_uxTaskGetSystemState
	.p2align	1
	.type	MPU_uxTaskGetSystemState,%function
	.code	16                              @ @MPU_uxTaskGetSystemState
	.thumb_func
MPU_uxTaskGetSystemState:
.Lfunc_begin19:
	.loc	3 761 0                         @ ../../../../Source/portable/Common/mpu_wrappers.c:761:0
	.fnstart
	.cfi_startproc
@ %bb.0:
	.save	{r7, lr}
	push	{r7, lr}
	.cfi_def_cfa_offset 8
	.cfi_offset lr, -4
	.cfi_offset r7, -8
	.pad	#16
	sub	sp, #16
	.cfi_def_cfa_offset 24
	str	r0, [sp, #12]
	str	r1, [sp, #8]
	str	r2, [sp, #4]
.Ltmp114:
	.loc	3 764 17 prologue_end           @ ../../../../Source/portable/Common/mpu_wrappers.c:764:17
	bl	xIsPrivileged
.Ltmp115:
	.loc	3 764 17 is_stmt 0              @ ../../../../Source/portable/Common/mpu_wrappers.c:764:17
	cbnz	r0, .LBB19_2
	b	.LBB19_1
.LBB19_1:
.Ltmp116:
	.loc	3 766 17 is_stmt 1              @ ../../../../Source/portable/Common/mpu_wrappers.c:766:17
	@APP
	svc	#3

	@NO_APP
	.loc	3 767 17                        @ ../../../../Source/portable/Common/mpu_wrappers.c:767:17
	@APP
	@NO_APP
	.loc	3 769 50                        @ ../../../../Source/portable/Common/mpu_wrappers.c:769:50
	ldr	r0, [sp, #12]
	.loc	3 769 69 is_stmt 0              @ ../../../../Source/portable/Common/mpu_wrappers.c:769:69
	ldr	r1, [sp, #8]
	.loc	3 769 82                        @ ../../../../Source/portable/Common/mpu_wrappers.c:769:82
	ldr	r2, [sp, #4]
	.loc	3 769 28                        @ ../../../../Source/portable/Common/mpu_wrappers.c:769:28
	bl	uxTaskGetSystemState
	.loc	3 769 26                        @ ../../../../Source/portable/Common/mpu_wrappers.c:769:26
	str	r0, [sp]
	.loc	3 770 17 is_stmt 1              @ ../../../../Source/portable/Common/mpu_wrappers.c:770:17
	@APP
	@NO_APP
	.loc	3 772 17                        @ ../../../../Source/portable/Common/mpu_wrappers.c:772:17
	bl	vResetPrivilege
	.loc	3 773 17                        @ ../../../../Source/portable/Common/mpu_wrappers.c:773:17
	@APP
	@NO_APP
	.loc	3 774 13                        @ ../../../../Source/portable/Common/mpu_wrappers.c:774:13
	b	.LBB19_3
.Ltmp117:
.LBB19_2:
	.loc	3 777 50                        @ ../../../../Source/portable/Common/mpu_wrappers.c:777:50
	ldr	r0, [sp, #12]
	.loc	3 777 69 is_stmt 0              @ ../../../../Source/portable/Common/mpu_wrappers.c:777:69
	ldr	r1, [sp, #8]
	.loc	3 777 82                        @ ../../../../Source/portable/Common/mpu_wrappers.c:777:82
	ldr	r2, [sp, #4]
	.loc	3 777 28                        @ ../../../../Source/portable/Common/mpu_wrappers.c:777:28
	bl	uxTaskGetSystemState
	.loc	3 777 26                        @ ../../../../Source/portable/Common/mpu_wrappers.c:777:26
	str	r0, [sp]
	b	.LBB19_3
.Ltmp118:
.LBB19_3:
	.loc	3 780 20 is_stmt 1              @ ../../../../Source/portable/Common/mpu_wrappers.c:780:20
	ldr	r0, [sp]
	.loc	3 780 13 is_stmt 0              @ ../../../../Source/portable/Common/mpu_wrappers.c:780:13
	add	sp, #16
	pop	{r7, pc}
.Ltmp119:
.Lfunc_end19:
	.size	MPU_uxTaskGetSystemState, .Lfunc_end19-MPU_uxTaskGetSystemState
	.cfi_endproc
	.cantunwind
	.fnend
                                        @ -- End function
	.section	.text.MPU_xTaskCatchUpTicks,"ax",%progbits
	.hidden	MPU_xTaskCatchUpTicks           @ -- Begin function MPU_xTaskCatchUpTicks
	.globl	MPU_xTaskCatchUpTicks
	.p2align	1
	.type	MPU_xTaskCatchUpTicks,%function
	.code	16                              @ @MPU_xTaskCatchUpTicks
	.thumb_func
MPU_xTaskCatchUpTicks:
.Lfunc_begin20:
	.loc	3 786 0 is_stmt 1               @ ../../../../Source/portable/Common/mpu_wrappers.c:786:0
	.fnstart
	.cfi_startproc
@ %bb.0:
	.save	{r7, lr}
	push	{r7, lr}
	.cfi_def_cfa_offset 8
	.cfi_offset lr, -4
	.cfi_offset r7, -8
	.pad	#8
	sub	sp, #8
	.cfi_def_cfa_offset 16
	str	r0, [sp, #4]
.Ltmp120:
	.loc	3 789 13 prologue_end           @ ../../../../Source/portable/Common/mpu_wrappers.c:789:13
	bl	xIsPrivileged
.Ltmp121:
	.loc	3 789 13 is_stmt 0              @ ../../../../Source/portable/Common/mpu_wrappers.c:789:13
	cbnz	r0, .LBB20_2
	b	.LBB20_1
.LBB20_1:
.Ltmp122:
	.loc	3 791 13 is_stmt 1              @ ../../../../Source/portable/Common/mpu_wrappers.c:791:13
	@APP
	svc	#3

	@NO_APP
	.loc	3 792 13                        @ ../../../../Source/portable/Common/mpu_wrappers.c:792:13
	@APP
	@NO_APP
	.loc	3 794 42                        @ ../../../../Source/portable/Common/mpu_wrappers.c:794:42
	ldr	r0, [sp, #4]
	.loc	3 794 23 is_stmt 0              @ ../../../../Source/portable/Common/mpu_wrappers.c:794:23
	bl	xTaskCatchUpTicks
	.loc	3 794 21                        @ ../../../../Source/portable/Common/mpu_wrappers.c:794:21
	str	r0, [sp]
	.loc	3 795 13 is_stmt 1              @ ../../../../Source/portable/Common/mpu_wrappers.c:795:13
	@APP
	@NO_APP
	.loc	3 797 13                        @ ../../../../Source/portable/Common/mpu_wrappers.c:797:13
	bl	vResetPrivilege
	.loc	3 798 13                        @ ../../../../Source/portable/Common/mpu_wrappers.c:798:13
	@APP
	@NO_APP
	.loc	3 799 9                         @ ../../../../Source/portable/Common/mpu_wrappers.c:799:9
	b	.LBB20_3
.Ltmp123:
.LBB20_2:
	.loc	3 802 42                        @ ../../../../Source/portable/Common/mpu_wrappers.c:802:42
	ldr	r0, [sp, #4]
	.loc	3 802 23 is_stmt 0              @ ../../../../Source/portable/Common/mpu_wrappers.c:802:23
	bl	xTaskCatchUpTicks
	.loc	3 802 21                        @ ../../../../Source/portable/Common/mpu_wrappers.c:802:21
	str	r0, [sp]
	b	.LBB20_3
.Ltmp124:
.LBB20_3:
	.loc	3 805 16 is_stmt 1              @ ../../../../Source/portable/Common/mpu_wrappers.c:805:16
	ldr	r0, [sp]
	.loc	3 805 9 is_stmt 0               @ ../../../../Source/portable/Common/mpu_wrappers.c:805:9
	add	sp, #8
	pop	{r7, pc}
.Ltmp125:
.Lfunc_end20:
	.size	MPU_xTaskCatchUpTicks, .Lfunc_end20-MPU_xTaskCatchUpTicks
	.cfi_endproc
	.cantunwind
	.fnend
                                        @ -- End function
	.section	freertos_system_calls,"ax",%progbits
	.hidden	MPU_uxTaskGetStackHighWaterMark @ -- Begin function MPU_uxTaskGetStackHighWaterMark
	.globl	MPU_uxTaskGetStackHighWaterMark
	.p2align	1
	.type	MPU_uxTaskGetStackHighWaterMark,%function
	.code	16                              @ @MPU_uxTaskGetStackHighWaterMark
	.thumb_func
MPU_uxTaskGetStackHighWaterMark:
.Lfunc_begin21:
	.loc	3 811 0 is_stmt 1               @ ../../../../Source/portable/Common/mpu_wrappers.c:811:0
	.fnstart
	.cfi_startproc
@ %bb.0:
	.save	{r7, lr}
	push	{r7, lr}
	.cfi_def_cfa_offset 8
	.cfi_offset lr, -4
	.cfi_offset r7, -8
	.pad	#8
	sub	sp, #8
	.cfi_def_cfa_offset 16
	str	r0, [sp, #4]
.Ltmp126:
	.loc	3 814 17 prologue_end           @ ../../../../Source/portable/Common/mpu_wrappers.c:814:17
	bl	xIsPrivileged
.Ltmp127:
	.loc	3 814 17 is_stmt 0              @ ../../../../Source/portable/Common/mpu_wrappers.c:814:17
	cbnz	r0, .LBB21_2
	b	.LBB21_1
.LBB21_1:
.Ltmp128:
	.loc	3 816 17 is_stmt 1              @ ../../../../Source/portable/Common/mpu_wrappers.c:816:17
	@APP
	svc	#3

	@NO_APP
	.loc	3 817 17                        @ ../../../../Source/portable/Common/mpu_wrappers.c:817:17
	@APP
	@NO_APP
	.loc	3 819 57                        @ ../../../../Source/portable/Common/mpu_wrappers.c:819:57
	ldr	r0, [sp, #4]
	.loc	3 819 28 is_stmt 0              @ ../../../../Source/portable/Common/mpu_wrappers.c:819:28
	bl	uxTaskGetStackHighWaterMark
	.loc	3 819 26                        @ ../../../../Source/portable/Common/mpu_wrappers.c:819:26
	str	r0, [sp]
	.loc	3 820 17 is_stmt 1              @ ../../../../Source/portable/Common/mpu_wrappers.c:820:17
	@APP
	@NO_APP
	.loc	3 822 17                        @ ../../../../Source/portable/Common/mpu_wrappers.c:822:17
	bl	vResetPrivilege
	.loc	3 823 17                        @ ../../../../Source/portable/Common/mpu_wrappers.c:823:17
	@APP
	@NO_APP
	.loc	3 824 13                        @ ../../../../Source/portable/Common/mpu_wrappers.c:824:13
	b	.LBB21_3
.Ltmp129:
.LBB21_2:
	.loc	3 827 57                        @ ../../../../Source/portable/Common/mpu_wrappers.c:827:57
	ldr	r0, [sp, #4]
	.loc	3 827 28 is_stmt 0              @ ../../../../Source/portable/Common/mpu_wrappers.c:827:28
	bl	uxTaskGetStackHighWaterMark
	.loc	3 827 26                        @ ../../../../Source/portable/Common/mpu_wrappers.c:827:26
	str	r0, [sp]
	b	.LBB21_3
.Ltmp130:
.LBB21_3:
	.loc	3 830 20 is_stmt 1              @ ../../../../Source/portable/Common/mpu_wrappers.c:830:20
	ldr	r0, [sp]
	.loc	3 830 13 is_stmt 0              @ ../../../../Source/portable/Common/mpu_wrappers.c:830:13
	add	sp, #8
	pop	{r7, pc}
.Ltmp131:
.Lfunc_end21:
	.size	MPU_uxTaskGetStackHighWaterMark, .Lfunc_end21-MPU_uxTaskGetStackHighWaterMark
	.cfi_endproc
	.cantunwind
	.fnend
                                        @ -- End function
	.hidden	MPU_xTaskGetCurrentTaskHandle   @ -- Begin function MPU_xTaskGetCurrentTaskHandle
	.globl	MPU_xTaskGetCurrentTaskHandle
	.p2align	1
	.type	MPU_xTaskGetCurrentTaskHandle,%function
	.code	16                              @ @MPU_xTaskGetCurrentTaskHandle
	.thumb_func
MPU_xTaskGetCurrentTaskHandle:
.Lfunc_begin22:
	.loc	3 863 0 is_stmt 1               @ ../../../../Source/portable/Common/mpu_wrappers.c:863:0
	.fnstart
	.cfi_startproc
@ %bb.0:
	.save	{r7, lr}
	push	{r7, lr}
	.cfi_def_cfa_offset 8
	.cfi_offset lr, -4
	.cfi_offset r7, -8
	.pad	#8
	sub	sp, #8
	.cfi_def_cfa_offset 16
.Ltmp132:
	.loc	3 866 17 prologue_end           @ ../../../../Source/portable/Common/mpu_wrappers.c:866:17
	bl	xIsPrivileged
.Ltmp133:
	.loc	3 866 17 is_stmt 0              @ ../../../../Source/portable/Common/mpu_wrappers.c:866:17
	cbnz	r0, .LBB22_2
	b	.LBB22_1
.LBB22_1:
.Ltmp134:
	.loc	3 868 17 is_stmt 1              @ ../../../../Source/portable/Common/mpu_wrappers.c:868:17
	@APP
	svc	#3

	@NO_APP
	.loc	3 869 17                        @ ../../../../Source/portable/Common/mpu_wrappers.c:869:17
	@APP
	@NO_APP
	.loc	3 870 27                        @ ../../../../Source/portable/Common/mpu_wrappers.c:870:27
	bl	xTaskGetCurrentTaskHandle
	.loc	3 870 25 is_stmt 0              @ ../../../../Source/portable/Common/mpu_wrappers.c:870:25
	str	r0, [sp, #4]
	.loc	3 871 17 is_stmt 1              @ ../../../../Source/portable/Common/mpu_wrappers.c:871:17
	@APP
	@NO_APP
	.loc	3 873 17                        @ ../../../../Source/portable/Common/mpu_wrappers.c:873:17
	bl	vResetPrivilege
	.loc	3 874 17                        @ ../../../../Source/portable/Common/mpu_wrappers.c:874:17
	@APP
	@NO_APP
	.loc	3 875 13                        @ ../../../../Source/portable/Common/mpu_wrappers.c:875:13
	b	.LBB22_3
.Ltmp135:
.LBB22_2:
	.loc	3 878 27                        @ ../../../../Source/portable/Common/mpu_wrappers.c:878:27
	bl	xTaskGetCurrentTaskHandle
	.loc	3 878 25 is_stmt 0              @ ../../../../Source/portable/Common/mpu_wrappers.c:878:25
	str	r0, [sp, #4]
	b	.LBB22_3
.Ltmp136:
.LBB22_3:
	.loc	3 881 20 is_stmt 1              @ ../../../../Source/portable/Common/mpu_wrappers.c:881:20
	ldr	r0, [sp, #4]
	.loc	3 881 13 is_stmt 0              @ ../../../../Source/portable/Common/mpu_wrappers.c:881:13
	add	sp, #8
	pop	{r7, pc}
.Ltmp137:
.Lfunc_end22:
	.size	MPU_xTaskGetCurrentTaskHandle, .Lfunc_end22-MPU_xTaskGetCurrentTaskHandle
	.cfi_endproc
	.cantunwind
	.fnend
                                        @ -- End function
	.hidden	MPU_xTaskGetSchedulerState      @ -- Begin function MPU_xTaskGetSchedulerState
	.globl	MPU_xTaskGetSchedulerState
	.p2align	1
	.type	MPU_xTaskGetSchedulerState,%function
	.code	16                              @ @MPU_xTaskGetSchedulerState
	.thumb_func
MPU_xTaskGetSchedulerState:
.Lfunc_begin23:
	.loc	3 888 0 is_stmt 1               @ ../../../../Source/portable/Common/mpu_wrappers.c:888:0
	.fnstart
	.cfi_startproc
@ %bb.0:
	.save	{r7, lr}
	push	{r7, lr}
	.cfi_def_cfa_offset 8
	.cfi_offset lr, -4
	.cfi_offset r7, -8
	.pad	#8
	sub	sp, #8
	.cfi_def_cfa_offset 16
.Ltmp138:
	.loc	3 891 17 prologue_end           @ ../../../../Source/portable/Common/mpu_wrappers.c:891:17
	bl	xIsPrivileged
.Ltmp139:
	.loc	3 891 17 is_stmt 0              @ ../../../../Source/portable/Common/mpu_wrappers.c:891:17
	cbnz	r0, .LBB23_2
	b	.LBB23_1
.LBB23_1:
.Ltmp140:
	.loc	3 893 17 is_stmt 1              @ ../../../../Source/portable/Common/mpu_wrappers.c:893:17
	@APP
	svc	#3

	@NO_APP
	.loc	3 894 17                        @ ../../../../Source/portable/Common/mpu_wrappers.c:894:17
	@APP
	@NO_APP
	.loc	3 896 27                        @ ../../../../Source/portable/Common/mpu_wrappers.c:896:27
	bl	xTaskGetSchedulerState
	.loc	3 896 25 is_stmt 0              @ ../../../../Source/portable/Common/mpu_wrappers.c:896:25
	str	r0, [sp, #4]
	.loc	3 897 17 is_stmt 1              @ ../../../../Source/portable/Common/mpu_wrappers.c:897:17
	@APP
	@NO_APP
	.loc	3 899 17                        @ ../../../../Source/portable/Common/mpu_wrappers.c:899:17
	bl	vResetPrivilege
	.loc	3 900 17                        @ ../../../../Source/portable/Common/mpu_wrappers.c:900:17
	@APP
	@NO_APP
	.loc	3 901 13                        @ ../../../../Source/portable/Common/mpu_wrappers.c:901:13
	b	.LBB23_3
.Ltmp141:
.LBB23_2:
	.loc	3 904 27                        @ ../../../../Source/portable/Common/mpu_wrappers.c:904:27
	bl	xTaskGetSchedulerState
	.loc	3 904 25 is_stmt 0              @ ../../../../Source/portable/Common/mpu_wrappers.c:904:25
	str	r0, [sp, #4]
	b	.LBB23_3
.Ltmp142:
.LBB23_3:
	.loc	3 907 20 is_stmt 1              @ ../../../../Source/portable/Common/mpu_wrappers.c:907:20
	ldr	r0, [sp, #4]
	.loc	3 907 13 is_stmt 0              @ ../../../../Source/portable/Common/mpu_wrappers.c:907:13
	add	sp, #8
	pop	{r7, pc}
.Ltmp143:
.Lfunc_end23:
	.size	MPU_xTaskGetSchedulerState, .Lfunc_end23-MPU_xTaskGetSchedulerState
	.cfi_endproc
	.cantunwind
	.fnend
                                        @ -- End function
	.hidden	MPU_vTaskSetTimeOutState        @ -- Begin function MPU_vTaskSetTimeOutState
	.globl	MPU_vTaskSetTimeOutState
	.p2align	1
	.type	MPU_vTaskSetTimeOutState,%function
	.code	16                              @ @MPU_vTaskSetTimeOutState
	.thumb_func
MPU_vTaskSetTimeOutState:
.Lfunc_begin24:
	.loc	3 913 0 is_stmt 1               @ ../../../../Source/portable/Common/mpu_wrappers.c:913:0
	.fnstart
	.cfi_startproc
@ %bb.0:
	.save	{r7, lr}
	push	{r7, lr}
	.cfi_def_cfa_offset 8
	.cfi_offset lr, -4
	.cfi_offset r7, -8
	.pad	#8
	sub	sp, #8
	.cfi_def_cfa_offset 16
	str	r0, [sp, #4]
.Ltmp144:
	.loc	3 914 13 prologue_end           @ ../../../../Source/portable/Common/mpu_wrappers.c:914:13
	bl	xIsPrivileged
.Ltmp145:
	.loc	3 914 13 is_stmt 0              @ ../../../../Source/portable/Common/mpu_wrappers.c:914:13
	cbnz	r0, .LBB24_2
	b	.LBB24_1
.LBB24_1:
.Ltmp146:
	.loc	3 916 13 is_stmt 1              @ ../../../../Source/portable/Common/mpu_wrappers.c:916:13
	@APP
	svc	#3

	@NO_APP
	.loc	3 917 13                        @ ../../../../Source/portable/Common/mpu_wrappers.c:917:13
	@APP
	@NO_APP
	.loc	3 919 35                        @ ../../../../Source/portable/Common/mpu_wrappers.c:919:35
	ldr	r0, [sp, #4]
	.loc	3 919 13 is_stmt 0              @ ../../../../Source/portable/Common/mpu_wrappers.c:919:13
	bl	vTaskSetTimeOutState
	.loc	3 920 13 is_stmt 1              @ ../../../../Source/portable/Common/mpu_wrappers.c:920:13
	@APP
	@NO_APP
	.loc	3 922 13                        @ ../../../../Source/portable/Common/mpu_wrappers.c:922:13
	bl	vResetPrivilege
	.loc	3 923 13                        @ ../../../../Source/portable/Common/mpu_wrappers.c:923:13
	@APP
	@NO_APP
	.loc	3 924 9                         @ ../../../../Source/portable/Common/mpu_wrappers.c:924:9
	b	.LBB24_3
.Ltmp147:
.LBB24_2:
	.loc	3 927 35                        @ ../../../../Source/portable/Common/mpu_wrappers.c:927:35
	ldr	r0, [sp, #4]
	.loc	3 927 13 is_stmt 0              @ ../../../../Source/portable/Common/mpu_wrappers.c:927:13
	bl	vTaskSetTimeOutState
	b	.LBB24_3
.Ltmp148:
.LBB24_3:
	.loc	3 929 5 is_stmt 1               @ ../../../../Source/portable/Common/mpu_wrappers.c:929:5
	add	sp, #8
	pop	{r7, pc}
.Ltmp149:
.Lfunc_end24:
	.size	MPU_vTaskSetTimeOutState, .Lfunc_end24-MPU_vTaskSetTimeOutState
	.cfi_endproc
	.cantunwind
	.fnend
                                        @ -- End function
	.hidden	MPU_xTaskCheckForTimeOut        @ -- Begin function MPU_xTaskCheckForTimeOut
	.globl	MPU_xTaskCheckForTimeOut
	.p2align	1
	.type	MPU_xTaskCheckForTimeOut,%function
	.code	16                              @ @MPU_xTaskCheckForTimeOut
	.thumb_func
MPU_xTaskCheckForTimeOut:
.Lfunc_begin25:
	.loc	3 934 0                         @ ../../../../Source/portable/Common/mpu_wrappers.c:934:0
	.fnstart
	.cfi_startproc
@ %bb.0:
	.save	{r7, lr}
	push	{r7, lr}
	.cfi_def_cfa_offset 8
	.cfi_offset lr, -4
	.cfi_offset r7, -8
	.pad	#16
	sub	sp, #16
	.cfi_def_cfa_offset 24
	str	r0, [sp, #12]
	str	r1, [sp, #8]
.Ltmp150:
	.loc	3 937 13 prologue_end           @ ../../../../Source/portable/Common/mpu_wrappers.c:937:13
	bl	xIsPrivileged
.Ltmp151:
	.loc	3 937 13 is_stmt 0              @ ../../../../Source/portable/Common/mpu_wrappers.c:937:13
	cbnz	r0, .LBB25_2
	b	.LBB25_1
.LBB25_1:
.Ltmp152:
	.loc	3 939 13 is_stmt 1              @ ../../../../Source/portable/Common/mpu_wrappers.c:939:13
	@APP
	svc	#3

	@NO_APP
	.loc	3 940 13                        @ ../../../../Source/portable/Common/mpu_wrappers.c:940:13
	@APP
	@NO_APP
	.loc	3 942 45                        @ ../../../../Source/portable/Common/mpu_wrappers.c:942:45
	ldr	r0, [sp, #12]
	.loc	3 942 56 is_stmt 0              @ ../../../../Source/portable/Common/mpu_wrappers.c:942:56
	ldr	r1, [sp, #8]
	.loc	3 942 23                        @ ../../../../Source/portable/Common/mpu_wrappers.c:942:23
	bl	xTaskCheckForTimeOut
	.loc	3 942 21                        @ ../../../../Source/portable/Common/mpu_wrappers.c:942:21
	str	r0, [sp, #4]
	.loc	3 943 13 is_stmt 1              @ ../../../../Source/portable/Common/mpu_wrappers.c:943:13
	@APP
	@NO_APP
	.loc	3 945 13                        @ ../../../../Source/portable/Common/mpu_wrappers.c:945:13
	bl	vResetPrivilege
	.loc	3 946 13                        @ ../../../../Source/portable/Common/mpu_wrappers.c:946:13
	@APP
	@NO_APP
	.loc	3 947 9                         @ ../../../../Source/portable/Common/mpu_wrappers.c:947:9
	b	.LBB25_3
.Ltmp153:
.LBB25_2:
	.loc	3 950 45                        @ ../../../../Source/portable/Common/mpu_wrappers.c:950:45
	ldr	r0, [sp, #12]
	.loc	3 950 56 is_stmt 0              @ ../../../../Source/portable/Common/mpu_wrappers.c:950:56
	ldr	r1, [sp, #8]
	.loc	3 950 23                        @ ../../../../Source/portable/Common/mpu_wrappers.c:950:23
	bl	xTaskCheckForTimeOut
	.loc	3 950 21                        @ ../../../../Source/portable/Common/mpu_wrappers.c:950:21
	str	r0, [sp, #4]
	b	.LBB25_3
.Ltmp154:
.LBB25_3:
	.loc	3 953 16 is_stmt 1              @ ../../../../Source/portable/Common/mpu_wrappers.c:953:16
	ldr	r0, [sp, #4]
	.loc	3 953 9 is_stmt 0               @ ../../../../Source/portable/Common/mpu_wrappers.c:953:9
	add	sp, #16
	pop	{r7, pc}
.Ltmp155:
.Lfunc_end25:
	.size	MPU_xTaskCheckForTimeOut, .Lfunc_end25-MPU_xTaskCheckForTimeOut
	.cfi_endproc
	.cantunwind
	.fnend
                                        @ -- End function
	.hidden	MPU_xTaskGenericNotify          @ -- Begin function MPU_xTaskGenericNotify
	.globl	MPU_xTaskGenericNotify
	.p2align	1
	.type	MPU_xTaskGenericNotify,%function
	.code	16                              @ @MPU_xTaskGenericNotify
	.thumb_func
MPU_xTaskGenericNotify:
.Lfunc_begin26:
	.loc	3 963 0 is_stmt 1               @ ../../../../Source/portable/Common/mpu_wrappers.c:963:0
	.fnstart
	.cfi_startproc
@ %bb.0:
	.save	{r4, lr}
	push	{r4, lr}
	.cfi_def_cfa_offset 8
	.cfi_offset lr, -4
	.cfi_offset r4, -8
	.pad	#24
	sub	sp, #24
	.cfi_def_cfa_offset 32
	ldr	r4, [sp, #32]
	str	r0, [sp, #20]
	str	r1, [sp, #16]
	str	r2, [sp, #12]
	str	r3, [sp, #8]
.Ltmp156:
	.loc	3 966 17 prologue_end           @ ../../../../Source/portable/Common/mpu_wrappers.c:966:17
	bl	xIsPrivileged
.Ltmp157:
	.loc	3 966 17 is_stmt 0              @ ../../../../Source/portable/Common/mpu_wrappers.c:966:17
	cbnz	r0, .LBB26_2
	b	.LBB26_1
.LBB26_1:
.Ltmp158:
	.loc	3 968 17 is_stmt 1              @ ../../../../Source/portable/Common/mpu_wrappers.c:968:17
	@APP
	svc	#3

	@NO_APP
	.loc	3 969 17                        @ ../../../../Source/portable/Common/mpu_wrappers.c:969:17
	@APP
	@NO_APP
	.loc	3 971 47                        @ ../../../../Source/portable/Common/mpu_wrappers.c:971:47
	ldr	r0, [sp, #20]
	.loc	3 971 62 is_stmt 0              @ ../../../../Source/portable/Common/mpu_wrappers.c:971:62
	ldr	r1, [sp, #16]
	.loc	3 971 79                        @ ../../../../Source/portable/Common/mpu_wrappers.c:971:79
	ldr	r2, [sp, #12]
	.loc	3 971 88                        @ ../../../../Source/portable/Common/mpu_wrappers.c:971:88
	ldr	r3, [sp, #8]
	.loc	3 971 97                        @ ../../../../Source/portable/Common/mpu_wrappers.c:971:97
	ldr	r4, [sp, #32]
	.loc	3 971 27                        @ ../../../../Source/portable/Common/mpu_wrappers.c:971:27
	str	r4, [sp]
	bl	xTaskGenericNotify
	.loc	3 971 25                        @ ../../../../Source/portable/Common/mpu_wrappers.c:971:25
	str	r0, [sp, #4]
	.loc	3 972 17 is_stmt 1              @ ../../../../Source/portable/Common/mpu_wrappers.c:972:17
	@APP
	@NO_APP
	.loc	3 974 17                        @ ../../../../Source/portable/Common/mpu_wrappers.c:974:17
	bl	vResetPrivilege
	.loc	3 975 17                        @ ../../../../Source/portable/Common/mpu_wrappers.c:975:17
	@APP
	@NO_APP
	.loc	3 976 13                        @ ../../../../Source/portable/Common/mpu_wrappers.c:976:13
	b	.LBB26_3
.Ltmp159:
.LBB26_2:
	.loc	3 979 47                        @ ../../../../Source/portable/Common/mpu_wrappers.c:979:47
	ldr	r0, [sp, #20]
	.loc	3 979 62 is_stmt 0              @ ../../../../Source/portable/Common/mpu_wrappers.c:979:62
	ldr	r1, [sp, #16]
	.loc	3 979 79                        @ ../../../../Source/portable/Common/mpu_wrappers.c:979:79
	ldr	r2, [sp, #12]
	.loc	3 979 88                        @ ../../../../Source/portable/Common/mpu_wrappers.c:979:88
	ldr	r3, [sp, #8]
	.loc	3 979 97                        @ ../../../../Source/portable/Common/mpu_wrappers.c:979:97
	ldr	r4, [sp, #32]
	.loc	3 979 27                        @ ../../../../Source/portable/Common/mpu_wrappers.c:979:27
	str	r4, [sp]
	bl	xTaskGenericNotify
	.loc	3 979 25                        @ ../../../../Source/portable/Common/mpu_wrappers.c:979:25
	str	r0, [sp, #4]
	b	.LBB26_3
.Ltmp160:
.LBB26_3:
	.loc	3 982 20 is_stmt 1              @ ../../../../Source/portable/Common/mpu_wrappers.c:982:20
	ldr	r0, [sp, #4]
	.loc	3 982 13 is_stmt 0              @ ../../../../Source/portable/Common/mpu_wrappers.c:982:13
	add	sp, #24
	pop	{r4, pc}
.Ltmp161:
.Lfunc_end26:
	.size	MPU_xTaskGenericNotify, .Lfunc_end26-MPU_xTaskGenericNotify
	.cfi_endproc
	.cantunwind
	.fnend
                                        @ -- End function
	.hidden	MPU_xTaskGenericNotifyWait      @ -- Begin function MPU_xTaskGenericNotifyWait
	.globl	MPU_xTaskGenericNotifyWait
	.p2align	1
	.type	MPU_xTaskGenericNotifyWait,%function
	.code	16                              @ @MPU_xTaskGenericNotifyWait
	.thumb_func
MPU_xTaskGenericNotifyWait:
.Lfunc_begin27:
	.loc	3 993 0 is_stmt 1               @ ../../../../Source/portable/Common/mpu_wrappers.c:993:0
	.fnstart
	.cfi_startproc
@ %bb.0:
	.save	{r4, lr}
	push	{r4, lr}
	.cfi_def_cfa_offset 8
	.cfi_offset lr, -4
	.cfi_offset r4, -8
	.pad	#24
	sub	sp, #24
	.cfi_def_cfa_offset 32
	ldr	r4, [sp, #32]
	str	r0, [sp, #20]
	str	r1, [sp, #16]
	str	r2, [sp, #12]
	str	r3, [sp, #8]
.Ltmp162:
	.loc	3 996 17 prologue_end           @ ../../../../Source/portable/Common/mpu_wrappers.c:996:17
	bl	xIsPrivileged
.Ltmp163:
	.loc	3 996 17 is_stmt 0              @ ../../../../Source/portable/Common/mpu_wrappers.c:996:17
	cbnz	r0, .LBB27_2
	b	.LBB27_1
.LBB27_1:
.Ltmp164:
	.loc	3 998 17 is_stmt 1              @ ../../../../Source/portable/Common/mpu_wrappers.c:998:17
	@APP
	svc	#3

	@NO_APP
	.loc	3 999 17                        @ ../../../../Source/portable/Common/mpu_wrappers.c:999:17
	@APP
	@NO_APP
	.loc	3 1001 51                       @ ../../../../Source/portable/Common/mpu_wrappers.c:1001:51
	ldr	r0, [sp, #20]
	.loc	3 1001 68 is_stmt 0             @ ../../../../Source/portable/Common/mpu_wrappers.c:1001:68
	ldr	r1, [sp, #16]
	.loc	3 1001 90                       @ ../../../../Source/portable/Common/mpu_wrappers.c:1001:90
	ldr	r2, [sp, #12]
	.loc	3 1001 111                      @ ../../../../Source/portable/Common/mpu_wrappers.c:1001:111
	ldr	r3, [sp, #8]
	.loc	3 1001 133                      @ ../../../../Source/portable/Common/mpu_wrappers.c:1001:133
	ldr	r4, [sp, #32]
	.loc	3 1001 27                       @ ../../../../Source/portable/Common/mpu_wrappers.c:1001:27
	str	r4, [sp]
	bl	xTaskGenericNotifyWait
	.loc	3 1001 25                       @ ../../../../Source/portable/Common/mpu_wrappers.c:1001:25
	str	r0, [sp, #4]
	.loc	3 1002 17 is_stmt 1             @ ../../../../Source/portable/Common/mpu_wrappers.c:1002:17
	@APP
	@NO_APP
	.loc	3 1004 17                       @ ../../../../Source/portable/Common/mpu_wrappers.c:1004:17
	bl	vResetPrivilege
	.loc	3 1005 17                       @ ../../../../Source/portable/Common/mpu_wrappers.c:1005:17
	@APP
	@NO_APP
	.loc	3 1006 13                       @ ../../../../Source/portable/Common/mpu_wrappers.c:1006:13
	b	.LBB27_3
.Ltmp165:
.LBB27_2:
	.loc	3 1009 51                       @ ../../../../Source/portable/Common/mpu_wrappers.c:1009:51
	ldr	r0, [sp, #20]
	.loc	3 1009 68 is_stmt 0             @ ../../../../Source/portable/Common/mpu_wrappers.c:1009:68
	ldr	r1, [sp, #16]
	.loc	3 1009 90                       @ ../../../../Source/portable/Common/mpu_wrappers.c:1009:90
	ldr	r2, [sp, #12]
	.loc	3 1009 111                      @ ../../../../Source/portable/Common/mpu_wrappers.c:1009:111
	ldr	r3, [sp, #8]
	.loc	3 1009 133                      @ ../../../../Source/portable/Common/mpu_wrappers.c:1009:133
	ldr	r4, [sp, #32]
	.loc	3 1009 27                       @ ../../../../Source/portable/Common/mpu_wrappers.c:1009:27
	str	r4, [sp]
	bl	xTaskGenericNotifyWait
	.loc	3 1009 25                       @ ../../../../Source/portable/Common/mpu_wrappers.c:1009:25
	str	r0, [sp, #4]
	b	.LBB27_3
.Ltmp166:
.LBB27_3:
	.loc	3 1012 20 is_stmt 1             @ ../../../../Source/portable/Common/mpu_wrappers.c:1012:20
	ldr	r0, [sp, #4]
	.loc	3 1012 13 is_stmt 0             @ ../../../../Source/portable/Common/mpu_wrappers.c:1012:13
	add	sp, #24
	pop	{r4, pc}
.Ltmp167:
.Lfunc_end27:
	.size	MPU_xTaskGenericNotifyWait, .Lfunc_end27-MPU_xTaskGenericNotifyWait
	.cfi_endproc
	.cantunwind
	.fnend
                                        @ -- End function
	.hidden	MPU_ulTaskGenericNotifyTake     @ -- Begin function MPU_ulTaskGenericNotifyTake
	.globl	MPU_ulTaskGenericNotifyTake
	.p2align	1
	.type	MPU_ulTaskGenericNotifyTake,%function
	.code	16                              @ @MPU_ulTaskGenericNotifyTake
	.thumb_func
MPU_ulTaskGenericNotifyTake:
.Lfunc_begin28:
	.loc	3 1021 0 is_stmt 1              @ ../../../../Source/portable/Common/mpu_wrappers.c:1021:0
	.fnstart
	.cfi_startproc
@ %bb.0:
	.save	{r7, lr}
	push	{r7, lr}
	.cfi_def_cfa_offset 8
	.cfi_offset lr, -4
	.cfi_offset r7, -8
	.pad	#16
	sub	sp, #16
	.cfi_def_cfa_offset 24
	str	r0, [sp, #12]
	str	r1, [sp, #8]
	str	r2, [sp, #4]
.Ltmp168:
	.loc	3 1024 17 prologue_end          @ ../../../../Source/portable/Common/mpu_wrappers.c:1024:17
	bl	xIsPrivileged
.Ltmp169:
	.loc	3 1024 17 is_stmt 0             @ ../../../../Source/portable/Common/mpu_wrappers.c:1024:17
	cbnz	r0, .LBB28_2
	b	.LBB28_1
.LBB28_1:
.Ltmp170:
	.loc	3 1026 17 is_stmt 1             @ ../../../../Source/portable/Common/mpu_wrappers.c:1026:17
	@APP
	svc	#3

	@NO_APP
	.loc	3 1027 17                       @ ../../../../Source/portable/Common/mpu_wrappers.c:1027:17
	@APP
	@NO_APP
	.loc	3 1029 53                       @ ../../../../Source/portable/Common/mpu_wrappers.c:1029:53
	ldr	r0, [sp, #12]
	.loc	3 1029 70 is_stmt 0             @ ../../../../Source/portable/Common/mpu_wrappers.c:1029:70
	ldr	r1, [sp, #8]
	.loc	3 1029 89                       @ ../../../../Source/portable/Common/mpu_wrappers.c:1029:89
	ldr	r2, [sp, #4]
	.loc	3 1029 28                       @ ../../../../Source/portable/Common/mpu_wrappers.c:1029:28
	bl	ulTaskGenericNotifyTake
	.loc	3 1029 26                       @ ../../../../Source/portable/Common/mpu_wrappers.c:1029:26
	str	r0, [sp]
	.loc	3 1030 17 is_stmt 1             @ ../../../../Source/portable/Common/mpu_wrappers.c:1030:17
	@APP
	@NO_APP
	.loc	3 1032 17                       @ ../../../../Source/portable/Common/mpu_wrappers.c:1032:17
	bl	vResetPrivilege
	.loc	3 1033 17                       @ ../../../../Source/portable/Common/mpu_wrappers.c:1033:17
	@APP
	@NO_APP
	.loc	3 1034 13                       @ ../../../../Source/portable/Common/mpu_wrappers.c:1034:13
	b	.LBB28_3
.Ltmp171:
.LBB28_2:
	.loc	3 1037 53                       @ ../../../../Source/portable/Common/mpu_wrappers.c:1037:53
	ldr	r0, [sp, #12]
	.loc	3 1037 70 is_stmt 0             @ ../../../../Source/portable/Common/mpu_wrappers.c:1037:70
	ldr	r1, [sp, #8]
	.loc	3 1037 89                       @ ../../../../Source/portable/Common/mpu_wrappers.c:1037:89
	ldr	r2, [sp, #4]
	.loc	3 1037 28                       @ ../../../../Source/portable/Common/mpu_wrappers.c:1037:28
	bl	ulTaskGenericNotifyTake
	.loc	3 1037 26                       @ ../../../../Source/portable/Common/mpu_wrappers.c:1037:26
	str	r0, [sp]
	b	.LBB28_3
.Ltmp172:
.LBB28_3:
	.loc	3 1040 20 is_stmt 1             @ ../../../../Source/portable/Common/mpu_wrappers.c:1040:20
	ldr	r0, [sp]
	.loc	3 1040 13 is_stmt 0             @ ../../../../Source/portable/Common/mpu_wrappers.c:1040:13
	add	sp, #16
	pop	{r7, pc}
.Ltmp173:
.Lfunc_end28:
	.size	MPU_ulTaskGenericNotifyTake, .Lfunc_end28-MPU_ulTaskGenericNotifyTake
	.cfi_endproc
	.cantunwind
	.fnend
                                        @ -- End function
	.hidden	MPU_xTaskGenericNotifyStateClear @ -- Begin function MPU_xTaskGenericNotifyStateClear
	.globl	MPU_xTaskGenericNotifyStateClear
	.p2align	1
	.type	MPU_xTaskGenericNotifyStateClear,%function
	.code	16                              @ @MPU_xTaskGenericNotifyStateClear
	.thumb_func
MPU_xTaskGenericNotifyStateClear:
.Lfunc_begin29:
	.loc	3 1048 0 is_stmt 1              @ ../../../../Source/portable/Common/mpu_wrappers.c:1048:0
	.fnstart
	.cfi_startproc
@ %bb.0:
	.save	{r7, lr}
	push	{r7, lr}
	.cfi_def_cfa_offset 8
	.cfi_offset lr, -4
	.cfi_offset r7, -8
	.pad	#16
	sub	sp, #16
	.cfi_def_cfa_offset 24
	str	r0, [sp, #12]
	str	r1, [sp, #8]
.Ltmp174:
	.loc	3 1051 17 prologue_end          @ ../../../../Source/portable/Common/mpu_wrappers.c:1051:17
	bl	xIsPrivileged
.Ltmp175:
	.loc	3 1051 17 is_stmt 0             @ ../../../../Source/portable/Common/mpu_wrappers.c:1051:17
	cbnz	r0, .LBB29_2
	b	.LBB29_1
.LBB29_1:
.Ltmp176:
	.loc	3 1053 17 is_stmt 1             @ ../../../../Source/portable/Common/mpu_wrappers.c:1053:17
	@APP
	svc	#3

	@NO_APP
	.loc	3 1054 17                       @ ../../../../Source/portable/Common/mpu_wrappers.c:1054:17
	@APP
	@NO_APP
	.loc	3 1056 57                       @ ../../../../Source/portable/Common/mpu_wrappers.c:1056:57
	ldr	r0, [sp, #12]
	.loc	3 1056 64 is_stmt 0             @ ../../../../Source/portable/Common/mpu_wrappers.c:1056:64
	ldr	r1, [sp, #8]
	.loc	3 1056 27                       @ ../../../../Source/portable/Common/mpu_wrappers.c:1056:27
	bl	xTaskGenericNotifyStateClear
	.loc	3 1056 25                       @ ../../../../Source/portable/Common/mpu_wrappers.c:1056:25
	str	r0, [sp, #4]
	.loc	3 1057 17 is_stmt 1             @ ../../../../Source/portable/Common/mpu_wrappers.c:1057:17
	@APP
	@NO_APP
	.loc	3 1059 17                       @ ../../../../Source/portable/Common/mpu_wrappers.c:1059:17
	bl	vResetPrivilege
	.loc	3 1060 17                       @ ../../../../Source/portable/Common/mpu_wrappers.c:1060:17
	@APP
	@NO_APP
	.loc	3 1061 13                       @ ../../../../Source/portable/Common/mpu_wrappers.c:1061:13
	b	.LBB29_3
.Ltmp177:
.LBB29_2:
	.loc	3 1064 57                       @ ../../../../Source/portable/Common/mpu_wrappers.c:1064:57
	ldr	r0, [sp, #12]
	.loc	3 1064 64 is_stmt 0             @ ../../../../Source/portable/Common/mpu_wrappers.c:1064:64
	ldr	r1, [sp, #8]
	.loc	3 1064 27                       @ ../../../../Source/portable/Common/mpu_wrappers.c:1064:27
	bl	xTaskGenericNotifyStateClear
	.loc	3 1064 25                       @ ../../../../Source/portable/Common/mpu_wrappers.c:1064:25
	str	r0, [sp, #4]
	b	.LBB29_3
.Ltmp178:
.LBB29_3:
	.loc	3 1067 20 is_stmt 1             @ ../../../../Source/portable/Common/mpu_wrappers.c:1067:20
	ldr	r0, [sp, #4]
	.loc	3 1067 13 is_stmt 0             @ ../../../../Source/portable/Common/mpu_wrappers.c:1067:13
	add	sp, #16
	pop	{r7, pc}
.Ltmp179:
.Lfunc_end29:
	.size	MPU_xTaskGenericNotifyStateClear, .Lfunc_end29-MPU_xTaskGenericNotifyStateClear
	.cfi_endproc
	.cantunwind
	.fnend
                                        @ -- End function
	.hidden	MPU_ulTaskGenericNotifyValueClear @ -- Begin function MPU_ulTaskGenericNotifyValueClear
	.globl	MPU_ulTaskGenericNotifyValueClear
	.p2align	1
	.type	MPU_ulTaskGenericNotifyValueClear,%function
	.code	16                              @ @MPU_ulTaskGenericNotifyValueClear
	.thumb_func
MPU_ulTaskGenericNotifyValueClear:
.Lfunc_begin30:
	.loc	3 1076 0 is_stmt 1              @ ../../../../Source/portable/Common/mpu_wrappers.c:1076:0
	.fnstart
	.cfi_startproc
@ %bb.0:
	.save	{r7, lr}
	push	{r7, lr}
	.cfi_def_cfa_offset 8
	.cfi_offset lr, -4
	.cfi_offset r7, -8
	.pad	#16
	sub	sp, #16
	.cfi_def_cfa_offset 24
	str	r0, [sp, #12]
	str	r1, [sp, #8]
	str	r2, [sp, #4]
.Ltmp180:
	.loc	3 1079 17 prologue_end          @ ../../../../Source/portable/Common/mpu_wrappers.c:1079:17
	bl	xIsPrivileged
.Ltmp181:
	.loc	3 1079 17 is_stmt 0             @ ../../../../Source/portable/Common/mpu_wrappers.c:1079:17
	cbnz	r0, .LBB30_2
	b	.LBB30_1
.LBB30_1:
.Ltmp182:
	.loc	3 1081 17 is_stmt 1             @ ../../../../Source/portable/Common/mpu_wrappers.c:1081:17
	@APP
	svc	#3

	@NO_APP
	.loc	3 1082 17                       @ ../../../../Source/portable/Common/mpu_wrappers.c:1082:17
	@APP
	@NO_APP
	.loc	3 1084 59                       @ ../../../../Source/portable/Common/mpu_wrappers.c:1084:59
	ldr	r0, [sp, #12]
	.loc	3 1084 66 is_stmt 0             @ ../../../../Source/portable/Common/mpu_wrappers.c:1084:66
	ldr	r1, [sp, #8]
	.loc	3 1084 82                       @ ../../../../Source/portable/Common/mpu_wrappers.c:1084:82
	ldr	r2, [sp, #4]
	.loc	3 1084 28                       @ ../../../../Source/portable/Common/mpu_wrappers.c:1084:28
	bl	ulTaskGenericNotifyValueClear
	.loc	3 1084 26                       @ ../../../../Source/portable/Common/mpu_wrappers.c:1084:26
	str	r0, [sp]
	.loc	3 1085 17 is_stmt 1             @ ../../../../Source/portable/Common/mpu_wrappers.c:1085:17
	@APP
	@NO_APP
	.loc	3 1087 17                       @ ../../../../Source/portable/Common/mpu_wrappers.c:1087:17
	bl	vResetPrivilege
	.loc	3 1088 17                       @ ../../../../Source/portable/Common/mpu_wrappers.c:1088:17
	@APP
	@NO_APP
	.loc	3 1089 13                       @ ../../../../Source/portable/Common/mpu_wrappers.c:1089:13
	b	.LBB30_3
.Ltmp183:
.LBB30_2:
	.loc	3 1092 59                       @ ../../../../Source/portable/Common/mpu_wrappers.c:1092:59
	ldr	r0, [sp, #12]
	.loc	3 1092 66 is_stmt 0             @ ../../../../Source/portable/Common/mpu_wrappers.c:1092:66
	ldr	r1, [sp, #8]
	.loc	3 1092 82                       @ ../../../../Source/portable/Common/mpu_wrappers.c:1092:82
	ldr	r2, [sp, #4]
	.loc	3 1092 28                       @ ../../../../Source/portable/Common/mpu_wrappers.c:1092:28
	bl	ulTaskGenericNotifyValueClear
	.loc	3 1092 26                       @ ../../../../Source/portable/Common/mpu_wrappers.c:1092:26
	str	r0, [sp]
	b	.LBB30_3
.Ltmp184:
.LBB30_3:
	.loc	3 1095 20 is_stmt 1             @ ../../../../Source/portable/Common/mpu_wrappers.c:1095:20
	ldr	r0, [sp]
	.loc	3 1095 13 is_stmt 0             @ ../../../../Source/portable/Common/mpu_wrappers.c:1095:13
	add	sp, #16
	pop	{r7, pc}
.Ltmp185:
.Lfunc_end30:
	.size	MPU_ulTaskGenericNotifyValueClear, .Lfunc_end30-MPU_ulTaskGenericNotifyValueClear
	.cfi_endproc
	.cantunwind
	.fnend
                                        @ -- End function
	.section	privileged_functions,"ax",%progbits
	.hidden	MPU_xQueueGenericCreate         @ -- Begin function MPU_xQueueGenericCreate
	.globl	MPU_xQueueGenericCreate
	.p2align	1
	.type	MPU_xQueueGenericCreate,%function
	.code	16                              @ @MPU_xQueueGenericCreate
	.thumb_func
MPU_xQueueGenericCreate:
.Lfunc_begin31:
	.loc	3 1104 0 is_stmt 1              @ ../../../../Source/portable/Common/mpu_wrappers.c:1104:0
	.fnstart
	.cfi_startproc
@ %bb.0:
	.save	{r7, lr}
	push	{r7, lr}
	.cfi_def_cfa_offset 8
	.cfi_offset lr, -4
	.cfi_offset r7, -8
	.pad	#16
	sub	sp, #16
	.cfi_def_cfa_offset 24
                                        @ kill: def $r3 killed $r2
	str	r0, [sp, #12]
	str	r1, [sp, #8]
	add	r0, sp, #4
	strb	r2, [r0]
.Ltmp186:
	.loc	3 1107 17 prologue_end          @ ../../../../Source/portable/Common/mpu_wrappers.c:1107:17
	bl	xIsPrivileged
.Ltmp187:
	.loc	3 1107 17 is_stmt 0             @ ../../../../Source/portable/Common/mpu_wrappers.c:1107:17
	cbnz	r0, .LBB31_2
	b	.LBB31_1
.LBB31_1:
.Ltmp188:
	.loc	3 1109 17 is_stmt 1             @ ../../../../Source/portable/Common/mpu_wrappers.c:1109:17
	@APP
	svc	#3

	@NO_APP
	.loc	3 1110 17                       @ ../../../../Source/portable/Common/mpu_wrappers.c:1110:17
	@APP
	@NO_APP
	.loc	3 1112 48                       @ ../../../../Source/portable/Common/mpu_wrappers.c:1112:48
	ldr	r0, [sp, #12]
	.loc	3 1112 63 is_stmt 0             @ ../../../../Source/portable/Common/mpu_wrappers.c:1112:63
	ldr	r1, [sp, #8]
	add	r2, sp, #4
	.loc	3 1112 75                       @ ../../../../Source/portable/Common/mpu_wrappers.c:1112:75
	ldrb	r2, [r2]
	.loc	3 1112 27                       @ ../../../../Source/portable/Common/mpu_wrappers.c:1112:27
	bl	xQueueGenericCreate
	.loc	3 1112 25                       @ ../../../../Source/portable/Common/mpu_wrappers.c:1112:25
	str	r0, [sp]
	.loc	3 1113 17 is_stmt 1             @ ../../../../Source/portable/Common/mpu_wrappers.c:1113:17
	@APP
	@NO_APP
	.loc	3 1115 17                       @ ../../../../Source/portable/Common/mpu_wrappers.c:1115:17
	bl	vResetPrivilege
	.loc	3 1116 17                       @ ../../../../Source/portable/Common/mpu_wrappers.c:1116:17
	@APP
	@NO_APP
	.loc	3 1117 13                       @ ../../../../Source/portable/Common/mpu_wrappers.c:1117:13
	b	.LBB31_3
.Ltmp189:
.LBB31_2:
	.loc	3 1120 48                       @ ../../../../Source/portable/Common/mpu_wrappers.c:1120:48
	ldr	r0, [sp, #12]
	.loc	3 1120 63 is_stmt 0             @ ../../../../Source/portable/Common/mpu_wrappers.c:1120:63
	ldr	r1, [sp, #8]
	add	r2, sp, #4
	.loc	3 1120 75                       @ ../../../../Source/portable/Common/mpu_wrappers.c:1120:75
	ldrb	r2, [r2]
	.loc	3 1120 27                       @ ../../../../Source/portable/Common/mpu_wrappers.c:1120:27
	bl	xQueueGenericCreate
	.loc	3 1120 25                       @ ../../../../Source/portable/Common/mpu_wrappers.c:1120:25
	str	r0, [sp]
	b	.LBB31_3
.Ltmp190:
.LBB31_3:
	.loc	3 1123 20 is_stmt 1             @ ../../../../Source/portable/Common/mpu_wrappers.c:1123:20
	ldr	r0, [sp]
	.loc	3 1123 13 is_stmt 0             @ ../../../../Source/portable/Common/mpu_wrappers.c:1123:13
	add	sp, #16
	pop	{r7, pc}
.Ltmp191:
.Lfunc_end31:
	.size	MPU_xQueueGenericCreate, .Lfunc_end31-MPU_xQueueGenericCreate
	.cfi_endproc
	.cantunwind
	.fnend
                                        @ -- End function
	.hidden	MPU_xQueueGenericCreateStatic   @ -- Begin function MPU_xQueueGenericCreateStatic
	.globl	MPU_xQueueGenericCreateStatic
	.p2align	1
	.type	MPU_xQueueGenericCreateStatic,%function
	.code	16                              @ @MPU_xQueueGenericCreateStatic
	.thumb_func
MPU_xQueueGenericCreateStatic:
.Lfunc_begin32:
	.loc	3 1134 0 is_stmt 1              @ ../../../../Source/portable/Common/mpu_wrappers.c:1134:0
	.fnstart
	.cfi_startproc
@ %bb.0:
	.save	{r4, lr}
	push	{r4, lr}
	.cfi_def_cfa_offset 8
	.cfi_offset lr, -4
	.cfi_offset r4, -8
	.pad	#32
	sub	sp, #32
	.cfi_def_cfa_offset 40
	mov	r4, r0
	ldr	r0, [sp, #40]
	str	r4, [sp, #28]
	str	r1, [sp, #24]
	str	r2, [sp, #20]
	str	r3, [sp, #16]
	add	r1, sp, #12
	strb	r0, [r1]
.Ltmp192:
	.loc	3 1137 17 prologue_end          @ ../../../../Source/portable/Common/mpu_wrappers.c:1137:17
	bl	xIsPrivileged
.Ltmp193:
	.loc	3 1137 17 is_stmt 0             @ ../../../../Source/portable/Common/mpu_wrappers.c:1137:17
	cbnz	r0, .LBB32_2
	b	.LBB32_1
.LBB32_1:
.Ltmp194:
	.loc	3 1139 17 is_stmt 1             @ ../../../../Source/portable/Common/mpu_wrappers.c:1139:17
	@APP
	svc	#3

	@NO_APP
	.loc	3 1140 17                       @ ../../../../Source/portable/Common/mpu_wrappers.c:1140:17
	@APP
	@NO_APP
	.loc	3 1142 54                       @ ../../../../Source/portable/Common/mpu_wrappers.c:1142:54
	ldr	r0, [sp, #28]
	.loc	3 1142 69 is_stmt 0             @ ../../../../Source/portable/Common/mpu_wrappers.c:1142:69
	ldr	r1, [sp, #24]
	.loc	3 1142 81                       @ ../../../../Source/portable/Common/mpu_wrappers.c:1142:81
	ldr	r2, [sp, #20]
	.loc	3 1142 98                       @ ../../../../Source/portable/Common/mpu_wrappers.c:1142:98
	ldr	r3, [sp, #16]
	add	r4, sp, #12
	.loc	3 1142 113                      @ ../../../../Source/portable/Common/mpu_wrappers.c:1142:113
	ldrb	r4, [r4]
	.loc	3 1142 27                       @ ../../../../Source/portable/Common/mpu_wrappers.c:1142:27
	str	r4, [sp]
	bl	xQueueGenericCreateStatic
	.loc	3 1142 25                       @ ../../../../Source/portable/Common/mpu_wrappers.c:1142:25
	str	r0, [sp, #8]
	.loc	3 1143 17 is_stmt 1             @ ../../../../Source/portable/Common/mpu_wrappers.c:1143:17
	@APP
	@NO_APP
	.loc	3 1145 17                       @ ../../../../Source/portable/Common/mpu_wrappers.c:1145:17
	bl	vResetPrivilege
	.loc	3 1146 17                       @ ../../../../Source/portable/Common/mpu_wrappers.c:1146:17
	@APP
	@NO_APP
	.loc	3 1147 13                       @ ../../../../Source/portable/Common/mpu_wrappers.c:1147:13
	b	.LBB32_3
.Ltmp195:
.LBB32_2:
	.loc	3 1150 54                       @ ../../../../Source/portable/Common/mpu_wrappers.c:1150:54
	ldr	r0, [sp, #28]
	.loc	3 1150 69 is_stmt 0             @ ../../../../Source/portable/Common/mpu_wrappers.c:1150:69
	ldr	r1, [sp, #24]
	.loc	3 1150 81                       @ ../../../../Source/portable/Common/mpu_wrappers.c:1150:81
	ldr	r2, [sp, #20]
	.loc	3 1150 98                       @ ../../../../Source/portable/Common/mpu_wrappers.c:1150:98
	ldr	r3, [sp, #16]
	add	r4, sp, #12
	.loc	3 1150 113                      @ ../../../../Source/portable/Common/mpu_wrappers.c:1150:113
	ldrb	r4, [r4]
	.loc	3 1150 27                       @ ../../../../Source/portable/Common/mpu_wrappers.c:1150:27
	str	r4, [sp]
	bl	xQueueGenericCreateStatic
	.loc	3 1150 25                       @ ../../../../Source/portable/Common/mpu_wrappers.c:1150:25
	str	r0, [sp, #8]
	b	.LBB32_3
.Ltmp196:
.LBB32_3:
	.loc	3 1153 20 is_stmt 1             @ ../../../../Source/portable/Common/mpu_wrappers.c:1153:20
	ldr	r0, [sp, #8]
	.loc	3 1153 13 is_stmt 0             @ ../../../../Source/portable/Common/mpu_wrappers.c:1153:13
	add	sp, #32
	pop	{r4, pc}
.Ltmp197:
.Lfunc_end32:
	.size	MPU_xQueueGenericCreateStatic, .Lfunc_end32-MPU_xQueueGenericCreateStatic
	.cfi_endproc
	.cantunwind
	.fnend
                                        @ -- End function
	.hidden	MPU_xQueueGenericReset          @ -- Begin function MPU_xQueueGenericReset
	.globl	MPU_xQueueGenericReset
	.p2align	1
	.type	MPU_xQueueGenericReset,%function
	.code	16                              @ @MPU_xQueueGenericReset
	.thumb_func
MPU_xQueueGenericReset:
.Lfunc_begin33:
	.loc	3 1160 0 is_stmt 1              @ ../../../../Source/portable/Common/mpu_wrappers.c:1160:0
	.fnstart
	.cfi_startproc
@ %bb.0:
	.save	{r7, lr}
	push	{r7, lr}
	.cfi_def_cfa_offset 8
	.cfi_offset lr, -4
	.cfi_offset r7, -8
	.pad	#16
	sub	sp, #16
	.cfi_def_cfa_offset 24
	str	r0, [sp, #12]
	str	r1, [sp, #8]
.Ltmp198:
	.loc	3 1163 13 prologue_end          @ ../../../../Source/portable/Common/mpu_wrappers.c:1163:13
	bl	xIsPrivileged
.Ltmp199:
	.loc	3 1163 13 is_stmt 0             @ ../../../../Source/portable/Common/mpu_wrappers.c:1163:13
	cbnz	r0, .LBB33_2
	b	.LBB33_1
.LBB33_1:
.Ltmp200:
	.loc	3 1165 13 is_stmt 1             @ ../../../../Source/portable/Common/mpu_wrappers.c:1165:13
	@APP
	svc	#3

	@NO_APP
	.loc	3 1166 13                       @ ../../../../Source/portable/Common/mpu_wrappers.c:1166:13
	@APP
	@NO_APP
	.loc	3 1168 43                       @ ../../../../Source/portable/Common/mpu_wrappers.c:1168:43
	ldr	r0, [sp, #12]
	.loc	3 1168 52 is_stmt 0             @ ../../../../Source/portable/Common/mpu_wrappers.c:1168:52
	ldr	r1, [sp, #8]
	.loc	3 1168 23                       @ ../../../../Source/portable/Common/mpu_wrappers.c:1168:23
	bl	xQueueGenericReset
	.loc	3 1168 21                       @ ../../../../Source/portable/Common/mpu_wrappers.c:1168:21
	str	r0, [sp, #4]
	.loc	3 1169 13 is_stmt 1             @ ../../../../Source/portable/Common/mpu_wrappers.c:1169:13
	@APP
	@NO_APP
	.loc	3 1171 13                       @ ../../../../Source/portable/Common/mpu_wrappers.c:1171:13
	bl	vResetPrivilege
	.loc	3 1172 13                       @ ../../../../Source/portable/Common/mpu_wrappers.c:1172:13
	@APP
	@NO_APP
	.loc	3 1173 9                        @ ../../../../Source/portable/Common/mpu_wrappers.c:1173:9
	b	.LBB33_3
.Ltmp201:
.LBB33_2:
	.loc	3 1176 43                       @ ../../../../Source/portable/Common/mpu_wrappers.c:1176:43
	ldr	r0, [sp, #12]
	.loc	3 1176 52 is_stmt 0             @ ../../../../Source/portable/Common/mpu_wrappers.c:1176:52
	ldr	r1, [sp, #8]
	.loc	3 1176 23                       @ ../../../../Source/portable/Common/mpu_wrappers.c:1176:23
	bl	xQueueGenericReset
	.loc	3 1176 21                       @ ../../../../Source/portable/Common/mpu_wrappers.c:1176:21
	str	r0, [sp, #4]
	b	.LBB33_3
.Ltmp202:
.LBB33_3:
	.loc	3 1179 16 is_stmt 1             @ ../../../../Source/portable/Common/mpu_wrappers.c:1179:16
	ldr	r0, [sp, #4]
	.loc	3 1179 9 is_stmt 0              @ ../../../../Source/portable/Common/mpu_wrappers.c:1179:9
	add	sp, #16
	pop	{r7, pc}
.Ltmp203:
.Lfunc_end33:
	.size	MPU_xQueueGenericReset, .Lfunc_end33-MPU_xQueueGenericReset
	.cfi_endproc
	.cantunwind
	.fnend
                                        @ -- End function
	.section	freertos_system_calls,"ax",%progbits
	.hidden	MPU_xQueueGenericSend           @ -- Begin function MPU_xQueueGenericSend
	.globl	MPU_xQueueGenericSend
	.p2align	1
	.type	MPU_xQueueGenericSend,%function
	.code	16                              @ @MPU_xQueueGenericSend
	.thumb_func
MPU_xQueueGenericSend:
.Lfunc_begin34:
	.loc	3 1187 0 is_stmt 1              @ ../../../../Source/portable/Common/mpu_wrappers.c:1187:0
	.fnstart
	.cfi_startproc
@ %bb.0:
	.save	{r7, lr}
	push	{r7, lr}
	.cfi_def_cfa_offset 8
	.cfi_offset lr, -4
	.cfi_offset r7, -8
	.pad	#24
	sub	sp, #24
	.cfi_def_cfa_offset 32
	str	r0, [sp, #20]
	str	r1, [sp, #16]
	str	r2, [sp, #12]
	str	r3, [sp, #8]
.Ltmp204:
	.loc	3 1190 13 prologue_end          @ ../../../../Source/portable/Common/mpu_wrappers.c:1190:13
	bl	xIsPrivileged
.Ltmp205:
	.loc	3 1190 13 is_stmt 0             @ ../../../../Source/portable/Common/mpu_wrappers.c:1190:13
	cbnz	r0, .LBB34_2
	b	.LBB34_1
.LBB34_1:
.Ltmp206:
	.loc	3 1192 13 is_stmt 1             @ ../../../../Source/portable/Common/mpu_wrappers.c:1192:13
	@APP
	svc	#3

	@NO_APP
	.loc	3 1193 13                       @ ../../../../Source/portable/Common/mpu_wrappers.c:1193:13
	@APP
	@NO_APP
	.loc	3 1195 42                       @ ../../../../Source/portable/Common/mpu_wrappers.c:1195:42
	ldr	r0, [sp, #20]
	.loc	3 1195 50 is_stmt 0             @ ../../../../Source/portable/Common/mpu_wrappers.c:1195:50
	ldr	r1, [sp, #16]
	.loc	3 1195 65                       @ ../../../../Source/portable/Common/mpu_wrappers.c:1195:65
	ldr	r2, [sp, #12]
	.loc	3 1195 79                       @ ../../../../Source/portable/Common/mpu_wrappers.c:1195:79
	ldr	r3, [sp, #8]
	.loc	3 1195 23                       @ ../../../../Source/portable/Common/mpu_wrappers.c:1195:23
	bl	xQueueGenericSend
	.loc	3 1195 21                       @ ../../../../Source/portable/Common/mpu_wrappers.c:1195:21
	str	r0, [sp, #4]
	.loc	3 1196 13 is_stmt 1             @ ../../../../Source/portable/Common/mpu_wrappers.c:1196:13
	@APP
	@NO_APP
	.loc	3 1198 13                       @ ../../../../Source/portable/Common/mpu_wrappers.c:1198:13
	bl	vResetPrivilege
	.loc	3 1199 13                       @ ../../../../Source/portable/Common/mpu_wrappers.c:1199:13
	@APP
	@NO_APP
	.loc	3 1200 9                        @ ../../../../Source/portable/Common/mpu_wrappers.c:1200:9
	b	.LBB34_3
.Ltmp207:
.LBB34_2:
	.loc	3 1203 42                       @ ../../../../Source/portable/Common/mpu_wrappers.c:1203:42
	ldr	r0, [sp, #20]
	.loc	3 1203 50 is_stmt 0             @ ../../../../Source/portable/Common/mpu_wrappers.c:1203:50
	ldr	r1, [sp, #16]
	.loc	3 1203 65                       @ ../../../../Source/portable/Common/mpu_wrappers.c:1203:65
	ldr	r2, [sp, #12]
	.loc	3 1203 79                       @ ../../../../Source/portable/Common/mpu_wrappers.c:1203:79
	ldr	r3, [sp, #8]
	.loc	3 1203 23                       @ ../../../../Source/portable/Common/mpu_wrappers.c:1203:23
	bl	xQueueGenericSend
	.loc	3 1203 21                       @ ../../../../Source/portable/Common/mpu_wrappers.c:1203:21
	str	r0, [sp, #4]
	b	.LBB34_3
.Ltmp208:
.LBB34_3:
	.loc	3 1206 16 is_stmt 1             @ ../../../../Source/portable/Common/mpu_wrappers.c:1206:16
	ldr	r0, [sp, #4]
	.loc	3 1206 9 is_stmt 0              @ ../../../../Source/portable/Common/mpu_wrappers.c:1206:9
	add	sp, #24
	pop	{r7, pc}
.Ltmp209:
.Lfunc_end34:
	.size	MPU_xQueueGenericSend, .Lfunc_end34-MPU_xQueueGenericSend
	.cfi_endproc
	.cantunwind
	.fnend
                                        @ -- End function
	.hidden	MPU_uxQueueMessagesWaiting      @ -- Begin function MPU_uxQueueMessagesWaiting
	.globl	MPU_uxQueueMessagesWaiting
	.p2align	1
	.type	MPU_uxQueueMessagesWaiting,%function
	.code	16                              @ @MPU_uxQueueMessagesWaiting
	.thumb_func
MPU_uxQueueMessagesWaiting:
.Lfunc_begin35:
	.loc	3 1211 0 is_stmt 1              @ ../../../../Source/portable/Common/mpu_wrappers.c:1211:0
	.fnstart
	.cfi_startproc
@ %bb.0:
	.save	{r7, lr}
	push	{r7, lr}
	.cfi_def_cfa_offset 8
	.cfi_offset lr, -4
	.cfi_offset r7, -8
	.pad	#8
	sub	sp, #8
	.cfi_def_cfa_offset 16
	str	r0, [sp, #4]
.Ltmp210:
	.loc	3 1214 13 prologue_end          @ ../../../../Source/portable/Common/mpu_wrappers.c:1214:13
	bl	xIsPrivileged
.Ltmp211:
	.loc	3 1214 13 is_stmt 0             @ ../../../../Source/portable/Common/mpu_wrappers.c:1214:13
	cbnz	r0, .LBB35_2
	b	.LBB35_1
.LBB35_1:
.Ltmp212:
	.loc	3 1216 13 is_stmt 1             @ ../../../../Source/portable/Common/mpu_wrappers.c:1216:13
	@APP
	svc	#3

	@NO_APP
	.loc	3 1217 13                       @ ../../../../Source/portable/Common/mpu_wrappers.c:1217:13
	@APP
	@NO_APP
	.loc	3 1219 48                       @ ../../../../Source/portable/Common/mpu_wrappers.c:1219:48
	ldr	r0, [sp, #4]
	.loc	3 1219 24 is_stmt 0             @ ../../../../Source/portable/Common/mpu_wrappers.c:1219:24
	bl	uxQueueMessagesWaiting
	.loc	3 1219 22                       @ ../../../../Source/portable/Common/mpu_wrappers.c:1219:22
	str	r0, [sp]
	.loc	3 1220 13 is_stmt 1             @ ../../../../Source/portable/Common/mpu_wrappers.c:1220:13
	@APP
	@NO_APP
	.loc	3 1222 13                       @ ../../../../Source/portable/Common/mpu_wrappers.c:1222:13
	bl	vResetPrivilege
	.loc	3 1223 13                       @ ../../../../Source/portable/Common/mpu_wrappers.c:1223:13
	@APP
	@NO_APP
	.loc	3 1224 9                        @ ../../../../Source/portable/Common/mpu_wrappers.c:1224:9
	b	.LBB35_3
.Ltmp213:
.LBB35_2:
	.loc	3 1227 48                       @ ../../../../Source/portable/Common/mpu_wrappers.c:1227:48
	ldr	r0, [sp, #4]
	.loc	3 1227 24 is_stmt 0             @ ../../../../Source/portable/Common/mpu_wrappers.c:1227:24
	bl	uxQueueMessagesWaiting
	.loc	3 1227 22                       @ ../../../../Source/portable/Common/mpu_wrappers.c:1227:22
	str	r0, [sp]
	b	.LBB35_3
.Ltmp214:
.LBB35_3:
	.loc	3 1230 16 is_stmt 1             @ ../../../../Source/portable/Common/mpu_wrappers.c:1230:16
	ldr	r0, [sp]
	.loc	3 1230 9 is_stmt 0              @ ../../../../Source/portable/Common/mpu_wrappers.c:1230:9
	add	sp, #8
	pop	{r7, pc}
.Ltmp215:
.Lfunc_end35:
	.size	MPU_uxQueueMessagesWaiting, .Lfunc_end35-MPU_uxQueueMessagesWaiting
	.cfi_endproc
	.cantunwind
	.fnend
                                        @ -- End function
	.hidden	MPU_uxQueueSpacesAvailable      @ -- Begin function MPU_uxQueueSpacesAvailable
	.globl	MPU_uxQueueSpacesAvailable
	.p2align	1
	.type	MPU_uxQueueSpacesAvailable,%function
	.code	16                              @ @MPU_uxQueueSpacesAvailable
	.thumb_func
MPU_uxQueueSpacesAvailable:
.Lfunc_begin36:
	.loc	3 1235 0 is_stmt 1              @ ../../../../Source/portable/Common/mpu_wrappers.c:1235:0
	.fnstart
	.cfi_startproc
@ %bb.0:
	.save	{r7, lr}
	push	{r7, lr}
	.cfi_def_cfa_offset 8
	.cfi_offset lr, -4
	.cfi_offset r7, -8
	.pad	#8
	sub	sp, #8
	.cfi_def_cfa_offset 16
	str	r0, [sp, #4]
.Ltmp216:
	.loc	3 1238 13 prologue_end          @ ../../../../Source/portable/Common/mpu_wrappers.c:1238:13
	bl	xIsPrivileged
.Ltmp217:
	.loc	3 1238 13 is_stmt 0             @ ../../../../Source/portable/Common/mpu_wrappers.c:1238:13
	cbnz	r0, .LBB36_2
	b	.LBB36_1
.LBB36_1:
.Ltmp218:
	.loc	3 1240 13 is_stmt 1             @ ../../../../Source/portable/Common/mpu_wrappers.c:1240:13
	@APP
	svc	#3

	@NO_APP
	.loc	3 1241 13                       @ ../../../../Source/portable/Common/mpu_wrappers.c:1241:13
	@APP
	@NO_APP
	.loc	3 1243 48                       @ ../../../../Source/portable/Common/mpu_wrappers.c:1243:48
	ldr	r0, [sp, #4]
	.loc	3 1243 24 is_stmt 0             @ ../../../../Source/portable/Common/mpu_wrappers.c:1243:24
	bl	uxQueueSpacesAvailable
	.loc	3 1243 22                       @ ../../../../Source/portable/Common/mpu_wrappers.c:1243:22
	str	r0, [sp]
	.loc	3 1244 13 is_stmt 1             @ ../../../../Source/portable/Common/mpu_wrappers.c:1244:13
	@APP
	@NO_APP
	.loc	3 1246 13                       @ ../../../../Source/portable/Common/mpu_wrappers.c:1246:13
	bl	vResetPrivilege
	.loc	3 1247 13                       @ ../../../../Source/portable/Common/mpu_wrappers.c:1247:13
	@APP
	@NO_APP
	.loc	3 1248 9                        @ ../../../../Source/portable/Common/mpu_wrappers.c:1248:9
	b	.LBB36_3
.Ltmp219:
.LBB36_2:
	.loc	3 1251 48                       @ ../../../../Source/portable/Common/mpu_wrappers.c:1251:48
	ldr	r0, [sp, #4]
	.loc	3 1251 24 is_stmt 0             @ ../../../../Source/portable/Common/mpu_wrappers.c:1251:24
	bl	uxQueueSpacesAvailable
	.loc	3 1251 22                       @ ../../../../Source/portable/Common/mpu_wrappers.c:1251:22
	str	r0, [sp]
	b	.LBB36_3
.Ltmp220:
.LBB36_3:
	.loc	3 1254 16 is_stmt 1             @ ../../../../Source/portable/Common/mpu_wrappers.c:1254:16
	ldr	r0, [sp]
	.loc	3 1254 9 is_stmt 0              @ ../../../../Source/portable/Common/mpu_wrappers.c:1254:9
	add	sp, #8
	pop	{r7, pc}
.Ltmp221:
.Lfunc_end36:
	.size	MPU_uxQueueSpacesAvailable, .Lfunc_end36-MPU_uxQueueSpacesAvailable
	.cfi_endproc
	.cantunwind
	.fnend
                                        @ -- End function
	.hidden	MPU_xQueueReceive               @ -- Begin function MPU_xQueueReceive
	.globl	MPU_xQueueReceive
	.p2align	1
	.type	MPU_xQueueReceive,%function
	.code	16                              @ @MPU_xQueueReceive
	.thumb_func
MPU_xQueueReceive:
.Lfunc_begin37:
	.loc	3 1261 0 is_stmt 1              @ ../../../../Source/portable/Common/mpu_wrappers.c:1261:0
	.fnstart
	.cfi_startproc
@ %bb.0:
	.save	{r7, lr}
	push	{r7, lr}
	.cfi_def_cfa_offset 8
	.cfi_offset lr, -4
	.cfi_offset r7, -8
	.pad	#16
	sub	sp, #16
	.cfi_def_cfa_offset 24
	str	r0, [sp, #12]
	str	r1, [sp, #8]
	str	r2, [sp, #4]
.Ltmp222:
	.loc	3 1264 13 prologue_end          @ ../../../../Source/portable/Common/mpu_wrappers.c:1264:13
	bl	xIsPrivileged
.Ltmp223:
	.loc	3 1264 13 is_stmt 0             @ ../../../../Source/portable/Common/mpu_wrappers.c:1264:13
	cbnz	r0, .LBB37_2
	b	.LBB37_1
.LBB37_1:
.Ltmp224:
	.loc	3 1266 13 is_stmt 1             @ ../../../../Source/portable/Common/mpu_wrappers.c:1266:13
	@APP
	svc	#3

	@NO_APP
	.loc	3 1267 13                       @ ../../../../Source/portable/Common/mpu_wrappers.c:1267:13
	@APP
	@NO_APP
	.loc	3 1269 38                       @ ../../../../Source/portable/Common/mpu_wrappers.c:1269:38
	ldr	r0, [sp, #12]
	.loc	3 1269 47 is_stmt 0             @ ../../../../Source/portable/Common/mpu_wrappers.c:1269:47
	ldr	r1, [sp, #8]
	.loc	3 1269 57                       @ ../../../../Source/portable/Common/mpu_wrappers.c:1269:57
	ldr	r2, [sp, #4]
	.loc	3 1269 23                       @ ../../../../Source/portable/Common/mpu_wrappers.c:1269:23
	bl	xQueueReceive
	.loc	3 1269 21                       @ ../../../../Source/portable/Common/mpu_wrappers.c:1269:21
	str	r0, [sp]
	.loc	3 1270 13 is_stmt 1             @ ../../../../Source/portable/Common/mpu_wrappers.c:1270:13
	@APP
	@NO_APP
	.loc	3 1272 13                       @ ../../../../Source/portable/Common/mpu_wrappers.c:1272:13
	bl	vResetPrivilege
	.loc	3 1273 13                       @ ../../../../Source/portable/Common/mpu_wrappers.c:1273:13
	@APP
	@NO_APP
	.loc	3 1274 9                        @ ../../../../Source/portable/Common/mpu_wrappers.c:1274:9
	b	.LBB37_3
.Ltmp225:
.LBB37_2:
	.loc	3 1277 38                       @ ../../../../Source/portable/Common/mpu_wrappers.c:1277:38
	ldr	r0, [sp, #12]
	.loc	3 1277 47 is_stmt 0             @ ../../../../Source/portable/Common/mpu_wrappers.c:1277:47
	ldr	r1, [sp, #8]
	.loc	3 1277 57                       @ ../../../../Source/portable/Common/mpu_wrappers.c:1277:57
	ldr	r2, [sp, #4]
	.loc	3 1277 23                       @ ../../../../Source/portable/Common/mpu_wrappers.c:1277:23
	bl	xQueueReceive
	.loc	3 1277 21                       @ ../../../../Source/portable/Common/mpu_wrappers.c:1277:21
	str	r0, [sp]
	b	.LBB37_3
.Ltmp226:
.LBB37_3:
	.loc	3 1280 16 is_stmt 1             @ ../../../../Source/portable/Common/mpu_wrappers.c:1280:16
	ldr	r0, [sp]
	.loc	3 1280 9 is_stmt 0              @ ../../../../Source/portable/Common/mpu_wrappers.c:1280:9
	add	sp, #16
	pop	{r7, pc}
.Ltmp227:
.Lfunc_end37:
	.size	MPU_xQueueReceive, .Lfunc_end37-MPU_xQueueReceive
	.cfi_endproc
	.cantunwind
	.fnend
                                        @ -- End function
	.hidden	MPU_xQueuePeek                  @ -- Begin function MPU_xQueuePeek
	.globl	MPU_xQueuePeek
	.p2align	1
	.type	MPU_xQueuePeek,%function
	.code	16                              @ @MPU_xQueuePeek
	.thumb_func
MPU_xQueuePeek:
.Lfunc_begin38:
	.loc	3 1287 0 is_stmt 1              @ ../../../../Source/portable/Common/mpu_wrappers.c:1287:0
	.fnstart
	.cfi_startproc
@ %bb.0:
	.save	{r7, lr}
	push	{r7, lr}
	.cfi_def_cfa_offset 8
	.cfi_offset lr, -4
	.cfi_offset r7, -8
	.pad	#16
	sub	sp, #16
	.cfi_def_cfa_offset 24
	str	r0, [sp, #12]
	str	r1, [sp, #8]
	str	r2, [sp, #4]
.Ltmp228:
	.loc	3 1290 13 prologue_end          @ ../../../../Source/portable/Common/mpu_wrappers.c:1290:13
	bl	xIsPrivileged
.Ltmp229:
	.loc	3 1290 13 is_stmt 0             @ ../../../../Source/portable/Common/mpu_wrappers.c:1290:13
	cbnz	r0, .LBB38_2
	b	.LBB38_1
.LBB38_1:
.Ltmp230:
	.loc	3 1292 13 is_stmt 1             @ ../../../../Source/portable/Common/mpu_wrappers.c:1292:13
	@APP
	svc	#3

	@NO_APP
	.loc	3 1293 13                       @ ../../../../Source/portable/Common/mpu_wrappers.c:1293:13
	@APP
	@NO_APP
	.loc	3 1295 35                       @ ../../../../Source/portable/Common/mpu_wrappers.c:1295:35
	ldr	r0, [sp, #12]
	.loc	3 1295 43 is_stmt 0             @ ../../../../Source/portable/Common/mpu_wrappers.c:1295:43
	ldr	r1, [sp, #8]
	.loc	3 1295 53                       @ ../../../../Source/portable/Common/mpu_wrappers.c:1295:53
	ldr	r2, [sp, #4]
	.loc	3 1295 23                       @ ../../../../Source/portable/Common/mpu_wrappers.c:1295:23
	bl	xQueuePeek
	.loc	3 1295 21                       @ ../../../../Source/portable/Common/mpu_wrappers.c:1295:21
	str	r0, [sp]
	.loc	3 1296 13 is_stmt 1             @ ../../../../Source/portable/Common/mpu_wrappers.c:1296:13
	@APP
	@NO_APP
	.loc	3 1298 13                       @ ../../../../Source/portable/Common/mpu_wrappers.c:1298:13
	bl	vResetPrivilege
	.loc	3 1299 13                       @ ../../../../Source/portable/Common/mpu_wrappers.c:1299:13
	@APP
	@NO_APP
	.loc	3 1300 9                        @ ../../../../Source/portable/Common/mpu_wrappers.c:1300:9
	b	.LBB38_3
.Ltmp231:
.LBB38_2:
	.loc	3 1303 35                       @ ../../../../Source/portable/Common/mpu_wrappers.c:1303:35
	ldr	r0, [sp, #12]
	.loc	3 1303 43 is_stmt 0             @ ../../../../Source/portable/Common/mpu_wrappers.c:1303:43
	ldr	r1, [sp, #8]
	.loc	3 1303 53                       @ ../../../../Source/portable/Common/mpu_wrappers.c:1303:53
	ldr	r2, [sp, #4]
	.loc	3 1303 23                       @ ../../../../Source/portable/Common/mpu_wrappers.c:1303:23
	bl	xQueuePeek
	.loc	3 1303 21                       @ ../../../../Source/portable/Common/mpu_wrappers.c:1303:21
	str	r0, [sp]
	b	.LBB38_3
.Ltmp232:
.LBB38_3:
	.loc	3 1306 16 is_stmt 1             @ ../../../../Source/portable/Common/mpu_wrappers.c:1306:16
	ldr	r0, [sp]
	.loc	3 1306 9 is_stmt 0              @ ../../../../Source/portable/Common/mpu_wrappers.c:1306:9
	add	sp, #16
	pop	{r7, pc}
.Ltmp233:
.Lfunc_end38:
	.size	MPU_xQueuePeek, .Lfunc_end38-MPU_xQueuePeek
	.cfi_endproc
	.cantunwind
	.fnend
                                        @ -- End function
	.hidden	MPU_xQueueSemaphoreTake         @ -- Begin function MPU_xQueueSemaphoreTake
	.globl	MPU_xQueueSemaphoreTake
	.p2align	1
	.type	MPU_xQueueSemaphoreTake,%function
	.code	16                              @ @MPU_xQueueSemaphoreTake
	.thumb_func
MPU_xQueueSemaphoreTake:
.Lfunc_begin39:
	.loc	3 1312 0 is_stmt 1              @ ../../../../Source/portable/Common/mpu_wrappers.c:1312:0
	.fnstart
	.cfi_startproc
@ %bb.0:
	.save	{r7, lr}
	push	{r7, lr}
	.cfi_def_cfa_offset 8
	.cfi_offset lr, -4
	.cfi_offset r7, -8
	.pad	#16
	sub	sp, #16
	.cfi_def_cfa_offset 24
	str	r0, [sp, #12]
	str	r1, [sp, #8]
.Ltmp234:
	.loc	3 1315 13 prologue_end          @ ../../../../Source/portable/Common/mpu_wrappers.c:1315:13
	bl	xIsPrivileged
.Ltmp235:
	.loc	3 1315 13 is_stmt 0             @ ../../../../Source/portable/Common/mpu_wrappers.c:1315:13
	cbnz	r0, .LBB39_2
	b	.LBB39_1
.LBB39_1:
.Ltmp236:
	.loc	3 1317 13 is_stmt 1             @ ../../../../Source/portable/Common/mpu_wrappers.c:1317:13
	@APP
	svc	#3

	@NO_APP
	.loc	3 1318 13                       @ ../../../../Source/portable/Common/mpu_wrappers.c:1318:13
	@APP
	@NO_APP
	.loc	3 1320 44                       @ ../../../../Source/portable/Common/mpu_wrappers.c:1320:44
	ldr	r0, [sp, #12]
	.loc	3 1320 52 is_stmt 0             @ ../../../../Source/portable/Common/mpu_wrappers.c:1320:52
	ldr	r1, [sp, #8]
	.loc	3 1320 23                       @ ../../../../Source/portable/Common/mpu_wrappers.c:1320:23
	bl	xQueueSemaphoreTake
	.loc	3 1320 21                       @ ../../../../Source/portable/Common/mpu_wrappers.c:1320:21
	str	r0, [sp, #4]
	.loc	3 1321 13 is_stmt 1             @ ../../../../Source/portable/Common/mpu_wrappers.c:1321:13
	@APP
	@NO_APP
	.loc	3 1323 13                       @ ../../../../Source/portable/Common/mpu_wrappers.c:1323:13
	bl	vResetPrivilege
	.loc	3 1324 13                       @ ../../../../Source/portable/Common/mpu_wrappers.c:1324:13
	@APP
	@NO_APP
	.loc	3 1325 9                        @ ../../../../Source/portable/Common/mpu_wrappers.c:1325:9
	b	.LBB39_3
.Ltmp237:
.LBB39_2:
	.loc	3 1328 44                       @ ../../../../Source/portable/Common/mpu_wrappers.c:1328:44
	ldr	r0, [sp, #12]
	.loc	3 1328 52 is_stmt 0             @ ../../../../Source/portable/Common/mpu_wrappers.c:1328:52
	ldr	r1, [sp, #8]
	.loc	3 1328 23                       @ ../../../../Source/portable/Common/mpu_wrappers.c:1328:23
	bl	xQueueSemaphoreTake
	.loc	3 1328 21                       @ ../../../../Source/portable/Common/mpu_wrappers.c:1328:21
	str	r0, [sp, #4]
	b	.LBB39_3
.Ltmp238:
.LBB39_3:
	.loc	3 1331 16 is_stmt 1             @ ../../../../Source/portable/Common/mpu_wrappers.c:1331:16
	ldr	r0, [sp, #4]
	.loc	3 1331 9 is_stmt 0              @ ../../../../Source/portable/Common/mpu_wrappers.c:1331:9
	add	sp, #16
	pop	{r7, pc}
.Ltmp239:
.Lfunc_end39:
	.size	MPU_xQueueSemaphoreTake, .Lfunc_end39-MPU_xQueueSemaphoreTake
	.cfi_endproc
	.cantunwind
	.fnend
                                        @ -- End function
	.hidden	MPU_xQueueGetMutexHolder        @ -- Begin function MPU_xQueueGetMutexHolder
	.globl	MPU_xQueueGetMutexHolder
	.p2align	1
	.type	MPU_xQueueGetMutexHolder,%function
	.code	16                              @ @MPU_xQueueGetMutexHolder
	.thumb_func
MPU_xQueueGetMutexHolder:
.Lfunc_begin40:
	.loc	3 1337 0 is_stmt 1              @ ../../../../Source/portable/Common/mpu_wrappers.c:1337:0
	.fnstart
	.cfi_startproc
@ %bb.0:
	.save	{r7, lr}
	push	{r7, lr}
	.cfi_def_cfa_offset 8
	.cfi_offset lr, -4
	.cfi_offset r7, -8
	.pad	#8
	sub	sp, #8
	.cfi_def_cfa_offset 16
	str	r0, [sp, #4]
.Ltmp240:
	.loc	3 1340 17 prologue_end          @ ../../../../Source/portable/Common/mpu_wrappers.c:1340:17
	bl	xIsPrivileged
.Ltmp241:
	.loc	3 1340 17 is_stmt 0             @ ../../../../Source/portable/Common/mpu_wrappers.c:1340:17
	cbnz	r0, .LBB40_2
	b	.LBB40_1
.LBB40_1:
.Ltmp242:
	.loc	3 1342 17 is_stmt 1             @ ../../../../Source/portable/Common/mpu_wrappers.c:1342:17
	@APP
	svc	#3

	@NO_APP
	.loc	3 1343 17                       @ ../../../../Source/portable/Common/mpu_wrappers.c:1343:17
	@APP
	@NO_APP
	.loc	3 1345 49                       @ ../../../../Source/portable/Common/mpu_wrappers.c:1345:49
	ldr	r0, [sp, #4]
	.loc	3 1345 27 is_stmt 0             @ ../../../../Source/portable/Common/mpu_wrappers.c:1345:27
	bl	xQueueGetMutexHolder
	.loc	3 1345 25                       @ ../../../../Source/portable/Common/mpu_wrappers.c:1345:25
	str	r0, [sp]
	.loc	3 1346 17 is_stmt 1             @ ../../../../Source/portable/Common/mpu_wrappers.c:1346:17
	@APP
	@NO_APP
	.loc	3 1348 17                       @ ../../../../Source/portable/Common/mpu_wrappers.c:1348:17
	bl	vResetPrivilege
	.loc	3 1349 17                       @ ../../../../Source/portable/Common/mpu_wrappers.c:1349:17
	@APP
	@NO_APP
	.loc	3 1350 13                       @ ../../../../Source/portable/Common/mpu_wrappers.c:1350:13
	b	.LBB40_3
.Ltmp243:
.LBB40_2:
	.loc	3 1353 49                       @ ../../../../Source/portable/Common/mpu_wrappers.c:1353:49
	ldr	r0, [sp, #4]
	.loc	3 1353 27 is_stmt 0             @ ../../../../Source/portable/Common/mpu_wrappers.c:1353:27
	bl	xQueueGetMutexHolder
	.loc	3 1353 25                       @ ../../../../Source/portable/Common/mpu_wrappers.c:1353:25
	str	r0, [sp]
	b	.LBB40_3
.Ltmp244:
.LBB40_3:
	.loc	3 1356 20 is_stmt 1             @ ../../../../Source/portable/Common/mpu_wrappers.c:1356:20
	ldr	r0, [sp]
	.loc	3 1356 13 is_stmt 0             @ ../../../../Source/portable/Common/mpu_wrappers.c:1356:13
	add	sp, #8
	pop	{r7, pc}
.Ltmp245:
.Lfunc_end40:
	.size	MPU_xQueueGetMutexHolder, .Lfunc_end40-MPU_xQueueGetMutexHolder
	.cfi_endproc
	.cantunwind
	.fnend
                                        @ -- End function
	.section	privileged_functions,"ax",%progbits
	.hidden	MPU_xQueueCreateMutex           @ -- Begin function MPU_xQueueCreateMutex
	.globl	MPU_xQueueCreateMutex
	.p2align	1
	.type	MPU_xQueueCreateMutex,%function
	.code	16                              @ @MPU_xQueueCreateMutex
	.thumb_func
MPU_xQueueCreateMutex:
.Lfunc_begin41:
	.loc	3 1363 0 is_stmt 1              @ ../../../../Source/portable/Common/mpu_wrappers.c:1363:0
	.fnstart
	.cfi_startproc
@ %bb.0:
	.save	{r7, lr}
	push	{r7, lr}
	.cfi_def_cfa_offset 8
	.cfi_offset lr, -4
	.cfi_offset r7, -8
	.pad	#8
	sub	sp, #8
	.cfi_def_cfa_offset 16
                                        @ kill: def $r1 killed $r0
	add	r1, sp, #4
	strb	r0, [r1]
.Ltmp246:
	.loc	3 1366 17 prologue_end          @ ../../../../Source/portable/Common/mpu_wrappers.c:1366:17
	bl	xIsPrivileged
.Ltmp247:
	.loc	3 1366 17 is_stmt 0             @ ../../../../Source/portable/Common/mpu_wrappers.c:1366:17
	cbnz	r0, .LBB41_2
	b	.LBB41_1
.LBB41_1:
.Ltmp248:
	.loc	3 1368 17 is_stmt 1             @ ../../../../Source/portable/Common/mpu_wrappers.c:1368:17
	@APP
	svc	#3

	@NO_APP
	.loc	3 1369 17                       @ ../../../../Source/portable/Common/mpu_wrappers.c:1369:17
	@APP
	@NO_APP
	add	r0, sp, #4
	.loc	3 1371 46                       @ ../../../../Source/portable/Common/mpu_wrappers.c:1371:46
	ldrb	r0, [r0]
	.loc	3 1371 27 is_stmt 0             @ ../../../../Source/portable/Common/mpu_wrappers.c:1371:27
	bl	xQueueCreateMutex
	.loc	3 1371 25                       @ ../../../../Source/portable/Common/mpu_wrappers.c:1371:25
	str	r0, [sp]
	.loc	3 1372 17 is_stmt 1             @ ../../../../Source/portable/Common/mpu_wrappers.c:1372:17
	@APP
	@NO_APP
	.loc	3 1374 17                       @ ../../../../Source/portable/Common/mpu_wrappers.c:1374:17
	bl	vResetPrivilege
	.loc	3 1375 17                       @ ../../../../Source/portable/Common/mpu_wrappers.c:1375:17
	@APP
	@NO_APP
	.loc	3 1376 13                       @ ../../../../Source/portable/Common/mpu_wrappers.c:1376:13
	b	.LBB41_3
.Ltmp249:
.LBB41_2:
	.loc	3 0 13 is_stmt 0                @ ../../../../Source/portable/Common/mpu_wrappers.c:0:13
	add	r0, sp, #4
.Ltmp250:
	.loc	3 1379 46 is_stmt 1             @ ../../../../Source/portable/Common/mpu_wrappers.c:1379:46
	ldrb	r0, [r0]
	.loc	3 1379 27 is_stmt 0             @ ../../../../Source/portable/Common/mpu_wrappers.c:1379:27
	bl	xQueueCreateMutex
	.loc	3 1379 25                       @ ../../../../Source/portable/Common/mpu_wrappers.c:1379:25
	str	r0, [sp]
	b	.LBB41_3
.Ltmp251:
.LBB41_3:
	.loc	3 1382 20 is_stmt 1             @ ../../../../Source/portable/Common/mpu_wrappers.c:1382:20
	ldr	r0, [sp]
	.loc	3 1382 13 is_stmt 0             @ ../../../../Source/portable/Common/mpu_wrappers.c:1382:13
	add	sp, #8
	pop	{r7, pc}
.Ltmp252:
.Lfunc_end41:
	.size	MPU_xQueueCreateMutex, .Lfunc_end41-MPU_xQueueCreateMutex
	.cfi_endproc
	.cantunwind
	.fnend
                                        @ -- End function
	.hidden	MPU_xQueueCreateMutexStatic     @ -- Begin function MPU_xQueueCreateMutexStatic
	.globl	MPU_xQueueCreateMutexStatic
	.p2align	1
	.type	MPU_xQueueCreateMutexStatic,%function
	.code	16                              @ @MPU_xQueueCreateMutexStatic
	.thumb_func
MPU_xQueueCreateMutexStatic:
.Lfunc_begin42:
	.loc	3 1390 0 is_stmt 1              @ ../../../../Source/portable/Common/mpu_wrappers.c:1390:0
	.fnstart
	.cfi_startproc
@ %bb.0:
	.save	{r7, lr}
	push	{r7, lr}
	.cfi_def_cfa_offset 8
	.cfi_offset lr, -4
	.cfi_offset r7, -8
	.pad	#16
	sub	sp, #16
	.cfi_def_cfa_offset 24
                                        @ kill: def $r2 killed $r0
	add	r2, sp, #12
	strb	r0, [r2]
	str	r1, [sp, #8]
.Ltmp253:
	.loc	3 1393 17 prologue_end          @ ../../../../Source/portable/Common/mpu_wrappers.c:1393:17
	bl	xIsPrivileged
.Ltmp254:
	.loc	3 1393 17 is_stmt 0             @ ../../../../Source/portable/Common/mpu_wrappers.c:1393:17
	cbnz	r0, .LBB42_2
	b	.LBB42_1
.LBB42_1:
.Ltmp255:
	.loc	3 1395 17 is_stmt 1             @ ../../../../Source/portable/Common/mpu_wrappers.c:1395:17
	@APP
	svc	#3

	@NO_APP
	.loc	3 1396 17                       @ ../../../../Source/portable/Common/mpu_wrappers.c:1396:17
	@APP
	@NO_APP
	add	r0, sp, #12
	.loc	3 1398 52                       @ ../../../../Source/portable/Common/mpu_wrappers.c:1398:52
	ldrb	r0, [r0]
	.loc	3 1398 65 is_stmt 0             @ ../../../../Source/portable/Common/mpu_wrappers.c:1398:65
	ldr	r1, [sp, #8]
	.loc	3 1398 27                       @ ../../../../Source/portable/Common/mpu_wrappers.c:1398:27
	bl	xQueueCreateMutexStatic
	.loc	3 1398 25                       @ ../../../../Source/portable/Common/mpu_wrappers.c:1398:25
	str	r0, [sp, #4]
	.loc	3 1399 17 is_stmt 1             @ ../../../../Source/portable/Common/mpu_wrappers.c:1399:17
	@APP
	@NO_APP
	.loc	3 1401 17                       @ ../../../../Source/portable/Common/mpu_wrappers.c:1401:17
	bl	vResetPrivilege
	.loc	3 1402 17                       @ ../../../../Source/portable/Common/mpu_wrappers.c:1402:17
	@APP
	@NO_APP
	.loc	3 1403 13                       @ ../../../../Source/portable/Common/mpu_wrappers.c:1403:13
	b	.LBB42_3
.Ltmp256:
.LBB42_2:
	.loc	3 0 13 is_stmt 0                @ ../../../../Source/portable/Common/mpu_wrappers.c:0:13
	add	r0, sp, #12
.Ltmp257:
	.loc	3 1406 52 is_stmt 1             @ ../../../../Source/portable/Common/mpu_wrappers.c:1406:52
	ldrb	r0, [r0]
	.loc	3 1406 65 is_stmt 0             @ ../../../../Source/portable/Common/mpu_wrappers.c:1406:65
	ldr	r1, [sp, #8]
	.loc	3 1406 27                       @ ../../../../Source/portable/Common/mpu_wrappers.c:1406:27
	bl	xQueueCreateMutexStatic
	.loc	3 1406 25                       @ ../../../../Source/portable/Common/mpu_wrappers.c:1406:25
	str	r0, [sp, #4]
	b	.LBB42_3
.Ltmp258:
.LBB42_3:
	.loc	3 1409 20 is_stmt 1             @ ../../../../Source/portable/Common/mpu_wrappers.c:1409:20
	ldr	r0, [sp, #4]
	.loc	3 1409 13 is_stmt 0             @ ../../../../Source/portable/Common/mpu_wrappers.c:1409:13
	add	sp, #16
	pop	{r7, pc}
.Ltmp259:
.Lfunc_end42:
	.size	MPU_xQueueCreateMutexStatic, .Lfunc_end42-MPU_xQueueCreateMutexStatic
	.cfi_endproc
	.cantunwind
	.fnend
                                        @ -- End function
	.hidden	MPU_xQueueCreateCountingSemaphore @ -- Begin function MPU_xQueueCreateCountingSemaphore
	.globl	MPU_xQueueCreateCountingSemaphore
	.p2align	1
	.type	MPU_xQueueCreateCountingSemaphore,%function
	.code	16                              @ @MPU_xQueueCreateCountingSemaphore
	.thumb_func
MPU_xQueueCreateCountingSemaphore:
.Lfunc_begin43:
	.loc	3 1417 0 is_stmt 1              @ ../../../../Source/portable/Common/mpu_wrappers.c:1417:0
	.fnstart
	.cfi_startproc
@ %bb.0:
	.save	{r7, lr}
	push	{r7, lr}
	.cfi_def_cfa_offset 8
	.cfi_offset lr, -4
	.cfi_offset r7, -8
	.pad	#16
	sub	sp, #16
	.cfi_def_cfa_offset 24
	str	r0, [sp, #12]
	str	r1, [sp, #8]
.Ltmp260:
	.loc	3 1420 17 prologue_end          @ ../../../../Source/portable/Common/mpu_wrappers.c:1420:17
	bl	xIsPrivileged
.Ltmp261:
	.loc	3 1420 17 is_stmt 0             @ ../../../../Source/portable/Common/mpu_wrappers.c:1420:17
	cbnz	r0, .LBB43_2
	b	.LBB43_1
.LBB43_1:
.Ltmp262:
	.loc	3 1422 17 is_stmt 1             @ ../../../../Source/portable/Common/mpu_wrappers.c:1422:17
	@APP
	svc	#3

	@NO_APP
	.loc	3 1423 17                       @ ../../../../Source/portable/Common/mpu_wrappers.c:1423:17
	@APP
	@NO_APP
	.loc	3 1425 58                       @ ../../../../Source/portable/Common/mpu_wrappers.c:1425:58
	ldr	r0, [sp, #12]
	.loc	3 1425 72 is_stmt 0             @ ../../../../Source/portable/Common/mpu_wrappers.c:1425:72
	ldr	r1, [sp, #8]
	.loc	3 1425 27                       @ ../../../../Source/portable/Common/mpu_wrappers.c:1425:27
	bl	xQueueCreateCountingSemaphore
	.loc	3 1425 25                       @ ../../../../Source/portable/Common/mpu_wrappers.c:1425:25
	str	r0, [sp, #4]
	.loc	3 1426 17 is_stmt 1             @ ../../../../Source/portable/Common/mpu_wrappers.c:1426:17
	@APP
	@NO_APP
	.loc	3 1428 17                       @ ../../../../Source/portable/Common/mpu_wrappers.c:1428:17
	bl	vResetPrivilege
	.loc	3 1429 17                       @ ../../../../Source/portable/Common/mpu_wrappers.c:1429:17
	@APP
	@NO_APP
	.loc	3 1430 13                       @ ../../../../Source/portable/Common/mpu_wrappers.c:1430:13
	b	.LBB43_3
.Ltmp263:
.LBB43_2:
	.loc	3 1433 58                       @ ../../../../Source/portable/Common/mpu_wrappers.c:1433:58
	ldr	r0, [sp, #12]
	.loc	3 1433 72 is_stmt 0             @ ../../../../Source/portable/Common/mpu_wrappers.c:1433:72
	ldr	r1, [sp, #8]
	.loc	3 1433 27                       @ ../../../../Source/portable/Common/mpu_wrappers.c:1433:27
	bl	xQueueCreateCountingSemaphore
	.loc	3 1433 25                       @ ../../../../Source/portable/Common/mpu_wrappers.c:1433:25
	str	r0, [sp, #4]
	b	.LBB43_3
.Ltmp264:
.LBB43_3:
	.loc	3 1436 20 is_stmt 1             @ ../../../../Source/portable/Common/mpu_wrappers.c:1436:20
	ldr	r0, [sp, #4]
	.loc	3 1436 13 is_stmt 0             @ ../../../../Source/portable/Common/mpu_wrappers.c:1436:13
	add	sp, #16
	pop	{r7, pc}
.Ltmp265:
.Lfunc_end43:
	.size	MPU_xQueueCreateCountingSemaphore, .Lfunc_end43-MPU_xQueueCreateCountingSemaphore
	.cfi_endproc
	.cantunwind
	.fnend
                                        @ -- End function
	.hidden	MPU_xQueueCreateCountingSemaphoreStatic @ -- Begin function MPU_xQueueCreateCountingSemaphoreStatic
	.globl	MPU_xQueueCreateCountingSemaphoreStatic
	.p2align	1
	.type	MPU_xQueueCreateCountingSemaphoreStatic,%function
	.code	16                              @ @MPU_xQueueCreateCountingSemaphoreStatic
	.thumb_func
MPU_xQueueCreateCountingSemaphoreStatic:
.Lfunc_begin44:
	.loc	3 1446 0 is_stmt 1              @ ../../../../Source/portable/Common/mpu_wrappers.c:1446:0
	.fnstart
	.cfi_startproc
@ %bb.0:
	.save	{r7, lr}
	push	{r7, lr}
	.cfi_def_cfa_offset 8
	.cfi_offset lr, -4
	.cfi_offset r7, -8
	.pad	#16
	sub	sp, #16
	.cfi_def_cfa_offset 24
	str	r0, [sp, #12]
	str	r1, [sp, #8]
	str	r2, [sp, #4]
.Ltmp266:
	.loc	3 1449 17 prologue_end          @ ../../../../Source/portable/Common/mpu_wrappers.c:1449:17
	bl	xIsPrivileged
.Ltmp267:
	.loc	3 1449 17 is_stmt 0             @ ../../../../Source/portable/Common/mpu_wrappers.c:1449:17
	cbnz	r0, .LBB44_2
	b	.LBB44_1
.LBB44_1:
.Ltmp268:
	.loc	3 1451 17 is_stmt 1             @ ../../../../Source/portable/Common/mpu_wrappers.c:1451:17
	@APP
	svc	#3

	@NO_APP
	.loc	3 1452 17                       @ ../../../../Source/portable/Common/mpu_wrappers.c:1452:17
	@APP
	@NO_APP
	.loc	3 1454 64                       @ ../../../../Source/portable/Common/mpu_wrappers.c:1454:64
	ldr	r0, [sp, #12]
	.loc	3 1454 76 is_stmt 0             @ ../../../../Source/portable/Common/mpu_wrappers.c:1454:76
	ldr	r1, [sp, #8]
	.loc	3 1454 92                       @ ../../../../Source/portable/Common/mpu_wrappers.c:1454:92
	ldr	r2, [sp, #4]
	.loc	3 1454 27                       @ ../../../../Source/portable/Common/mpu_wrappers.c:1454:27
	bl	xQueueCreateCountingSemaphoreStatic
	.loc	3 1454 25                       @ ../../../../Source/portable/Common/mpu_wrappers.c:1454:25
	str	r0, [sp]
	.loc	3 1455 17 is_stmt 1             @ ../../../../Source/portable/Common/mpu_wrappers.c:1455:17
	@APP
	@NO_APP
	.loc	3 1457 17                       @ ../../../../Source/portable/Common/mpu_wrappers.c:1457:17
	bl	vResetPrivilege
	.loc	3 1458 17                       @ ../../../../Source/portable/Common/mpu_wrappers.c:1458:17
	@APP
	@NO_APP
	.loc	3 1459 13                       @ ../../../../Source/portable/Common/mpu_wrappers.c:1459:13
	b	.LBB44_3
.Ltmp269:
.LBB44_2:
	.loc	3 1462 64                       @ ../../../../Source/portable/Common/mpu_wrappers.c:1462:64
	ldr	r0, [sp, #12]
	.loc	3 1462 76 is_stmt 0             @ ../../../../Source/portable/Common/mpu_wrappers.c:1462:76
	ldr	r1, [sp, #8]
	.loc	3 1462 92                       @ ../../../../Source/portable/Common/mpu_wrappers.c:1462:92
	ldr	r2, [sp, #4]
	.loc	3 1462 27                       @ ../../../../Source/portable/Common/mpu_wrappers.c:1462:27
	bl	xQueueCreateCountingSemaphoreStatic
	.loc	3 1462 25                       @ ../../../../Source/portable/Common/mpu_wrappers.c:1462:25
	str	r0, [sp]
	b	.LBB44_3
.Ltmp270:
.LBB44_3:
	.loc	3 1465 20 is_stmt 1             @ ../../../../Source/portable/Common/mpu_wrappers.c:1465:20
	ldr	r0, [sp]
	.loc	3 1465 13 is_stmt 0             @ ../../../../Source/portable/Common/mpu_wrappers.c:1465:13
	add	sp, #16
	pop	{r7, pc}
.Ltmp271:
.Lfunc_end44:
	.size	MPU_xQueueCreateCountingSemaphoreStatic, .Lfunc_end44-MPU_xQueueCreateCountingSemaphoreStatic
	.cfi_endproc
	.cantunwind
	.fnend
                                        @ -- End function
	.section	freertos_system_calls,"ax",%progbits
	.hidden	MPU_xQueueTakeMutexRecursive    @ -- Begin function MPU_xQueueTakeMutexRecursive
	.globl	MPU_xQueueTakeMutexRecursive
	.p2align	1
	.type	MPU_xQueueTakeMutexRecursive,%function
	.code	16                              @ @MPU_xQueueTakeMutexRecursive
	.thumb_func
MPU_xQueueTakeMutexRecursive:
.Lfunc_begin45:
	.loc	3 1473 0 is_stmt 1              @ ../../../../Source/portable/Common/mpu_wrappers.c:1473:0
	.fnstart
	.cfi_startproc
@ %bb.0:
	.save	{r7, lr}
	push	{r7, lr}
	.cfi_def_cfa_offset 8
	.cfi_offset lr, -4
	.cfi_offset r7, -8
	.pad	#16
	sub	sp, #16
	.cfi_def_cfa_offset 24
	str	r0, [sp, #12]
	str	r1, [sp, #8]
.Ltmp272:
	.loc	3 1476 17 prologue_end          @ ../../../../Source/portable/Common/mpu_wrappers.c:1476:17
	bl	xIsPrivileged
.Ltmp273:
	.loc	3 1476 17 is_stmt 0             @ ../../../../Source/portable/Common/mpu_wrappers.c:1476:17
	cbnz	r0, .LBB45_2
	b	.LBB45_1
.LBB45_1:
.Ltmp274:
	.loc	3 1478 17 is_stmt 1             @ ../../../../Source/portable/Common/mpu_wrappers.c:1478:17
	@APP
	svc	#3

	@NO_APP
	.loc	3 1479 17                       @ ../../../../Source/portable/Common/mpu_wrappers.c:1479:17
	@APP
	@NO_APP
	.loc	3 1481 53                       @ ../../../../Source/portable/Common/mpu_wrappers.c:1481:53
	ldr	r0, [sp, #12]
	.loc	3 1481 61 is_stmt 0             @ ../../../../Source/portable/Common/mpu_wrappers.c:1481:61
	ldr	r1, [sp, #8]
	.loc	3 1481 27                       @ ../../../../Source/portable/Common/mpu_wrappers.c:1481:27
	bl	xQueueTakeMutexRecursive
	.loc	3 1481 25                       @ ../../../../Source/portable/Common/mpu_wrappers.c:1481:25
	str	r0, [sp, #4]
	.loc	3 1482 17 is_stmt 1             @ ../../../../Source/portable/Common/mpu_wrappers.c:1482:17
	@APP
	@NO_APP
	.loc	3 1484 17                       @ ../../../../Source/portable/Common/mpu_wrappers.c:1484:17
	bl	vResetPrivilege
	.loc	3 1485 17                       @ ../../../../Source/portable/Common/mpu_wrappers.c:1485:17
	@APP
	@NO_APP
	.loc	3 1486 13                       @ ../../../../Source/portable/Common/mpu_wrappers.c:1486:13
	b	.LBB45_3
.Ltmp275:
.LBB45_2:
	.loc	3 1489 53                       @ ../../../../Source/portable/Common/mpu_wrappers.c:1489:53
	ldr	r0, [sp, #12]
	.loc	3 1489 61 is_stmt 0             @ ../../../../Source/portable/Common/mpu_wrappers.c:1489:61
	ldr	r1, [sp, #8]
	.loc	3 1489 27                       @ ../../../../Source/portable/Common/mpu_wrappers.c:1489:27
	bl	xQueueTakeMutexRecursive
	.loc	3 1489 25                       @ ../../../../Source/portable/Common/mpu_wrappers.c:1489:25
	str	r0, [sp, #4]
	b	.LBB45_3
.Ltmp276:
.LBB45_3:
	.loc	3 1492 20 is_stmt 1             @ ../../../../Source/portable/Common/mpu_wrappers.c:1492:20
	ldr	r0, [sp, #4]
	.loc	3 1492 13 is_stmt 0             @ ../../../../Source/portable/Common/mpu_wrappers.c:1492:13
	add	sp, #16
	pop	{r7, pc}
.Ltmp277:
.Lfunc_end45:
	.size	MPU_xQueueTakeMutexRecursive, .Lfunc_end45-MPU_xQueueTakeMutexRecursive
	.cfi_endproc
	.cantunwind
	.fnend
                                        @ -- End function
	.hidden	MPU_xQueueGiveMutexRecursive    @ -- Begin function MPU_xQueueGiveMutexRecursive
	.globl	MPU_xQueueGiveMutexRecursive
	.p2align	1
	.type	MPU_xQueueGiveMutexRecursive,%function
	.code	16                              @ @MPU_xQueueGiveMutexRecursive
	.thumb_func
MPU_xQueueGiveMutexRecursive:
.Lfunc_begin46:
	.loc	3 1499 0 is_stmt 1              @ ../../../../Source/portable/Common/mpu_wrappers.c:1499:0
	.fnstart
	.cfi_startproc
@ %bb.0:
	.save	{r7, lr}
	push	{r7, lr}
	.cfi_def_cfa_offset 8
	.cfi_offset lr, -4
	.cfi_offset r7, -8
	.pad	#8
	sub	sp, #8
	.cfi_def_cfa_offset 16
	str	r0, [sp, #4]
.Ltmp278:
	.loc	3 1502 17 prologue_end          @ ../../../../Source/portable/Common/mpu_wrappers.c:1502:17
	bl	xIsPrivileged
.Ltmp279:
	.loc	3 1502 17 is_stmt 0             @ ../../../../Source/portable/Common/mpu_wrappers.c:1502:17
	cbnz	r0, .LBB46_2
	b	.LBB46_1
.LBB46_1:
.Ltmp280:
	.loc	3 1504 17 is_stmt 1             @ ../../../../Source/portable/Common/mpu_wrappers.c:1504:17
	@APP
	svc	#3

	@NO_APP
	.loc	3 1505 17                       @ ../../../../Source/portable/Common/mpu_wrappers.c:1505:17
	@APP
	@NO_APP
	.loc	3 1507 53                       @ ../../../../Source/portable/Common/mpu_wrappers.c:1507:53
	ldr	r0, [sp, #4]
	.loc	3 1507 27 is_stmt 0             @ ../../../../Source/portable/Common/mpu_wrappers.c:1507:27
	bl	xQueueGiveMutexRecursive
	.loc	3 1507 25                       @ ../../../../Source/portable/Common/mpu_wrappers.c:1507:25
	str	r0, [sp]
	.loc	3 1508 17 is_stmt 1             @ ../../../../Source/portable/Common/mpu_wrappers.c:1508:17
	@APP
	@NO_APP
	.loc	3 1510 17                       @ ../../../../Source/portable/Common/mpu_wrappers.c:1510:17
	bl	vResetPrivilege
	.loc	3 1511 17                       @ ../../../../Source/portable/Common/mpu_wrappers.c:1511:17
	@APP
	@NO_APP
	.loc	3 1512 13                       @ ../../../../Source/portable/Common/mpu_wrappers.c:1512:13
	b	.LBB46_3
.Ltmp281:
.LBB46_2:
	.loc	3 1515 53                       @ ../../../../Source/portable/Common/mpu_wrappers.c:1515:53
	ldr	r0, [sp, #4]
	.loc	3 1515 27 is_stmt 0             @ ../../../../Source/portable/Common/mpu_wrappers.c:1515:27
	bl	xQueueGiveMutexRecursive
	.loc	3 1515 25                       @ ../../../../Source/portable/Common/mpu_wrappers.c:1515:25
	str	r0, [sp]
	b	.LBB46_3
.Ltmp282:
.LBB46_3:
	.loc	3 1518 20 is_stmt 1             @ ../../../../Source/portable/Common/mpu_wrappers.c:1518:20
	ldr	r0, [sp]
	.loc	3 1518 13 is_stmt 0             @ ../../../../Source/portable/Common/mpu_wrappers.c:1518:13
	add	sp, #8
	pop	{r7, pc}
.Ltmp283:
.Lfunc_end46:
	.size	MPU_xQueueGiveMutexRecursive, .Lfunc_end46-MPU_xQueueGiveMutexRecursive
	.cfi_endproc
	.cantunwind
	.fnend
                                        @ -- End function
	.section	privileged_functions,"ax",%progbits
	.hidden	MPU_xQueueCreateSet             @ -- Begin function MPU_xQueueCreateSet
	.globl	MPU_xQueueCreateSet
	.p2align	1
	.type	MPU_xQueueCreateSet,%function
	.code	16                              @ @MPU_xQueueCreateSet
	.thumb_func
MPU_xQueueCreateSet:
.Lfunc_begin47:
	.loc	3 1525 0 is_stmt 1              @ ../../../../Source/portable/Common/mpu_wrappers.c:1525:0
	.fnstart
	.cfi_startproc
@ %bb.0:
	.save	{r7, lr}
	push	{r7, lr}
	.cfi_def_cfa_offset 8
	.cfi_offset lr, -4
	.cfi_offset r7, -8
	.pad	#8
	sub	sp, #8
	.cfi_def_cfa_offset 16
	str	r0, [sp, #4]
.Ltmp284:
	.loc	3 1528 17 prologue_end          @ ../../../../Source/portable/Common/mpu_wrappers.c:1528:17
	bl	xIsPrivileged
.Ltmp285:
	.loc	3 1528 17 is_stmt 0             @ ../../../../Source/portable/Common/mpu_wrappers.c:1528:17
	cbnz	r0, .LBB47_2
	b	.LBB47_1
.LBB47_1:
.Ltmp286:
	.loc	3 1530 17 is_stmt 1             @ ../../../../Source/portable/Common/mpu_wrappers.c:1530:17
	@APP
	svc	#3

	@NO_APP
	.loc	3 1531 17                       @ ../../../../Source/portable/Common/mpu_wrappers.c:1531:17
	@APP
	@NO_APP
	.loc	3 1533 44                       @ ../../../../Source/portable/Common/mpu_wrappers.c:1533:44
	ldr	r0, [sp, #4]
	.loc	3 1533 27 is_stmt 0             @ ../../../../Source/portable/Common/mpu_wrappers.c:1533:27
	bl	xQueueCreateSet
	.loc	3 1533 25                       @ ../../../../Source/portable/Common/mpu_wrappers.c:1533:25
	str	r0, [sp]
	.loc	3 1534 17 is_stmt 1             @ ../../../../Source/portable/Common/mpu_wrappers.c:1534:17
	@APP
	@NO_APP
	.loc	3 1536 17                       @ ../../../../Source/portable/Common/mpu_wrappers.c:1536:17
	bl	vResetPrivilege
	.loc	3 1537 17                       @ ../../../../Source/portable/Common/mpu_wrappers.c:1537:17
	@APP
	@NO_APP
	.loc	3 1538 13                       @ ../../../../Source/portable/Common/mpu_wrappers.c:1538:13
	b	.LBB47_3
.Ltmp287:
.LBB47_2:
	.loc	3 1541 44                       @ ../../../../Source/portable/Common/mpu_wrappers.c:1541:44
	ldr	r0, [sp, #4]
	.loc	3 1541 27 is_stmt 0             @ ../../../../Source/portable/Common/mpu_wrappers.c:1541:27
	bl	xQueueCreateSet
	.loc	3 1541 25                       @ ../../../../Source/portable/Common/mpu_wrappers.c:1541:25
	str	r0, [sp]
	b	.LBB47_3
.Ltmp288:
.LBB47_3:
	.loc	3 1544 20 is_stmt 1             @ ../../../../Source/portable/Common/mpu_wrappers.c:1544:20
	ldr	r0, [sp]
	.loc	3 1544 13 is_stmt 0             @ ../../../../Source/portable/Common/mpu_wrappers.c:1544:13
	add	sp, #8
	pop	{r7, pc}
.Ltmp289:
.Lfunc_end47:
	.size	MPU_xQueueCreateSet, .Lfunc_end47-MPU_xQueueCreateSet
	.cfi_endproc
	.cantunwind
	.fnend
                                        @ -- End function
	.section	freertos_system_calls,"ax",%progbits
	.hidden	MPU_xQueueSelectFromSet         @ -- Begin function MPU_xQueueSelectFromSet
	.globl	MPU_xQueueSelectFromSet
	.p2align	1
	.type	MPU_xQueueSelectFromSet,%function
	.code	16                              @ @MPU_xQueueSelectFromSet
	.thumb_func
MPU_xQueueSelectFromSet:
.Lfunc_begin48:
	.loc	3 1552 0 is_stmt 1              @ ../../../../Source/portable/Common/mpu_wrappers.c:1552:0
	.fnstart
	.cfi_startproc
@ %bb.0:
	.save	{r7, lr}
	push	{r7, lr}
	.cfi_def_cfa_offset 8
	.cfi_offset lr, -4
	.cfi_offset r7, -8
	.pad	#16
	sub	sp, #16
	.cfi_def_cfa_offset 24
	str	r0, [sp, #12]
	str	r1, [sp, #8]
.Ltmp290:
	.loc	3 1555 17 prologue_end          @ ../../../../Source/portable/Common/mpu_wrappers.c:1555:17
	bl	xIsPrivileged
.Ltmp291:
	.loc	3 1555 17 is_stmt 0             @ ../../../../Source/portable/Common/mpu_wrappers.c:1555:17
	cbnz	r0, .LBB48_2
	b	.LBB48_1
.LBB48_1:
.Ltmp292:
	.loc	3 1557 17 is_stmt 1             @ ../../../../Source/portable/Common/mpu_wrappers.c:1557:17
	@APP
	svc	#3

	@NO_APP
	.loc	3 1558 17                       @ ../../../../Source/portable/Common/mpu_wrappers.c:1558:17
	@APP
	@NO_APP
	.loc	3 1560 48                       @ ../../../../Source/portable/Common/mpu_wrappers.c:1560:48
	ldr	r0, [sp, #12]
	.loc	3 1560 59 is_stmt 0             @ ../../../../Source/portable/Common/mpu_wrappers.c:1560:59
	ldr	r1, [sp, #8]
	.loc	3 1560 27                       @ ../../../../Source/portable/Common/mpu_wrappers.c:1560:27
	bl	xQueueSelectFromSet
	.loc	3 1560 25                       @ ../../../../Source/portable/Common/mpu_wrappers.c:1560:25
	str	r0, [sp, #4]
	.loc	3 1561 17 is_stmt 1             @ ../../../../Source/portable/Common/mpu_wrappers.c:1561:17
	@APP
	@NO_APP
	.loc	3 1563 17                       @ ../../../../Source/portable/Common/mpu_wrappers.c:1563:17
	bl	vResetPrivilege
	.loc	3 1564 17                       @ ../../../../Source/portable/Common/mpu_wrappers.c:1564:17
	@APP
	@NO_APP
	.loc	3 1565 13                       @ ../../../../Source/portable/Common/mpu_wrappers.c:1565:13
	b	.LBB48_3
.Ltmp293:
.LBB48_2:
	.loc	3 1568 48                       @ ../../../../Source/portable/Common/mpu_wrappers.c:1568:48
	ldr	r0, [sp, #12]
	.loc	3 1568 59 is_stmt 0             @ ../../../../Source/portable/Common/mpu_wrappers.c:1568:59
	ldr	r1, [sp, #8]
	.loc	3 1568 27                       @ ../../../../Source/portable/Common/mpu_wrappers.c:1568:27
	bl	xQueueSelectFromSet
	.loc	3 1568 25                       @ ../../../../Source/portable/Common/mpu_wrappers.c:1568:25
	str	r0, [sp, #4]
	b	.LBB48_3
.Ltmp294:
.LBB48_3:
	.loc	3 1571 20 is_stmt 1             @ ../../../../Source/portable/Common/mpu_wrappers.c:1571:20
	ldr	r0, [sp, #4]
	.loc	3 1571 13 is_stmt 0             @ ../../../../Source/portable/Common/mpu_wrappers.c:1571:13
	add	sp, #16
	pop	{r7, pc}
.Ltmp295:
.Lfunc_end48:
	.size	MPU_xQueueSelectFromSet, .Lfunc_end48-MPU_xQueueSelectFromSet
	.cfi_endproc
	.cantunwind
	.fnend
                                        @ -- End function
	.hidden	MPU_xQueueAddToSet              @ -- Begin function MPU_xQueueAddToSet
	.globl	MPU_xQueueAddToSet
	.p2align	1
	.type	MPU_xQueueAddToSet,%function
	.code	16                              @ @MPU_xQueueAddToSet
	.thumb_func
MPU_xQueueAddToSet:
.Lfunc_begin49:
	.loc	3 1579 0 is_stmt 1              @ ../../../../Source/portable/Common/mpu_wrappers.c:1579:0
	.fnstart
	.cfi_startproc
@ %bb.0:
	.save	{r7, lr}
	push	{r7, lr}
	.cfi_def_cfa_offset 8
	.cfi_offset lr, -4
	.cfi_offset r7, -8
	.pad	#16
	sub	sp, #16
	.cfi_def_cfa_offset 24
	str	r0, [sp, #12]
	str	r1, [sp, #8]
.Ltmp296:
	.loc	3 1582 17 prologue_end          @ ../../../../Source/portable/Common/mpu_wrappers.c:1582:17
	bl	xIsPrivileged
.Ltmp297:
	.loc	3 1582 17 is_stmt 0             @ ../../../../Source/portable/Common/mpu_wrappers.c:1582:17
	cbnz	r0, .LBB49_2
	b	.LBB49_1
.LBB49_1:
.Ltmp298:
	.loc	3 1584 17 is_stmt 1             @ ../../../../Source/portable/Common/mpu_wrappers.c:1584:17
	@APP
	svc	#3

	@NO_APP
	.loc	3 1585 17                       @ ../../../../Source/portable/Common/mpu_wrappers.c:1585:17
	@APP
	@NO_APP
	.loc	3 1587 43                       @ ../../../../Source/portable/Common/mpu_wrappers.c:1587:43
	ldr	r0, [sp, #12]
	.loc	3 1587 62 is_stmt 0             @ ../../../../Source/portable/Common/mpu_wrappers.c:1587:62
	ldr	r1, [sp, #8]
	.loc	3 1587 27                       @ ../../../../Source/portable/Common/mpu_wrappers.c:1587:27
	bl	xQueueAddToSet
	.loc	3 1587 25                       @ ../../../../Source/portable/Common/mpu_wrappers.c:1587:25
	str	r0, [sp, #4]
	.loc	3 1588 17 is_stmt 1             @ ../../../../Source/portable/Common/mpu_wrappers.c:1588:17
	@APP
	@NO_APP
	.loc	3 1590 17                       @ ../../../../Source/portable/Common/mpu_wrappers.c:1590:17
	bl	vResetPrivilege
	.loc	3 1591 17                       @ ../../../../Source/portable/Common/mpu_wrappers.c:1591:17
	@APP
	@NO_APP
	.loc	3 1592 13                       @ ../../../../Source/portable/Common/mpu_wrappers.c:1592:13
	b	.LBB49_3
.Ltmp299:
.LBB49_2:
	.loc	3 1595 43                       @ ../../../../Source/portable/Common/mpu_wrappers.c:1595:43
	ldr	r0, [sp, #12]
	.loc	3 1595 62 is_stmt 0             @ ../../../../Source/portable/Common/mpu_wrappers.c:1595:62
	ldr	r1, [sp, #8]
	.loc	3 1595 27                       @ ../../../../Source/portable/Common/mpu_wrappers.c:1595:27
	bl	xQueueAddToSet
	.loc	3 1595 25                       @ ../../../../Source/portable/Common/mpu_wrappers.c:1595:25
	str	r0, [sp, #4]
	b	.LBB49_3
.Ltmp300:
.LBB49_3:
	.loc	3 1598 20 is_stmt 1             @ ../../../../Source/portable/Common/mpu_wrappers.c:1598:20
	ldr	r0, [sp, #4]
	.loc	3 1598 13 is_stmt 0             @ ../../../../Source/portable/Common/mpu_wrappers.c:1598:13
	add	sp, #16
	pop	{r7, pc}
.Ltmp301:
.Lfunc_end49:
	.size	MPU_xQueueAddToSet, .Lfunc_end49-MPU_xQueueAddToSet
	.cfi_endproc
	.cantunwind
	.fnend
                                        @ -- End function
	.section	privileged_functions,"ax",%progbits
	.hidden	MPU_xQueueRemoveFromSet         @ -- Begin function MPU_xQueueRemoveFromSet
	.globl	MPU_xQueueRemoveFromSet
	.p2align	1
	.type	MPU_xQueueRemoveFromSet,%function
	.code	16                              @ @MPU_xQueueRemoveFromSet
	.thumb_func
MPU_xQueueRemoveFromSet:
.Lfunc_begin50:
	.loc	3 1606 0 is_stmt 1              @ ../../../../Source/portable/Common/mpu_wrappers.c:1606:0
	.fnstart
	.cfi_startproc
@ %bb.0:
	.save	{r7, lr}
	push	{r7, lr}
	.cfi_def_cfa_offset 8
	.cfi_offset lr, -4
	.cfi_offset r7, -8
	.pad	#16
	sub	sp, #16
	.cfi_def_cfa_offset 24
	str	r0, [sp, #12]
	str	r1, [sp, #8]
.Ltmp302:
	.loc	3 1609 17 prologue_end          @ ../../../../Source/portable/Common/mpu_wrappers.c:1609:17
	bl	xIsPrivileged
.Ltmp303:
	.loc	3 1609 17 is_stmt 0             @ ../../../../Source/portable/Common/mpu_wrappers.c:1609:17
	cbnz	r0, .LBB50_2
	b	.LBB50_1
.LBB50_1:
.Ltmp304:
	.loc	3 1611 17 is_stmt 1             @ ../../../../Source/portable/Common/mpu_wrappers.c:1611:17
	@APP
	svc	#3

	@NO_APP
	.loc	3 1612 17                       @ ../../../../Source/portable/Common/mpu_wrappers.c:1612:17
	@APP
	@NO_APP
	.loc	3 1614 48                       @ ../../../../Source/portable/Common/mpu_wrappers.c:1614:48
	ldr	r0, [sp, #12]
	.loc	3 1614 67 is_stmt 0             @ ../../../../Source/portable/Common/mpu_wrappers.c:1614:67
	ldr	r1, [sp, #8]
	.loc	3 1614 27                       @ ../../../../Source/portable/Common/mpu_wrappers.c:1614:27
	bl	xQueueRemoveFromSet
	.loc	3 1614 25                       @ ../../../../Source/portable/Common/mpu_wrappers.c:1614:25
	str	r0, [sp, #4]
	.loc	3 1615 17 is_stmt 1             @ ../../../../Source/portable/Common/mpu_wrappers.c:1615:17
	@APP
	@NO_APP
	.loc	3 1617 17                       @ ../../../../Source/portable/Common/mpu_wrappers.c:1617:17
	bl	vResetPrivilege
	.loc	3 1618 17                       @ ../../../../Source/portable/Common/mpu_wrappers.c:1618:17
	@APP
	@NO_APP
	.loc	3 1619 13                       @ ../../../../Source/portable/Common/mpu_wrappers.c:1619:13
	b	.LBB50_3
.Ltmp305:
.LBB50_2:
	.loc	3 1622 48                       @ ../../../../Source/portable/Common/mpu_wrappers.c:1622:48
	ldr	r0, [sp, #12]
	.loc	3 1622 67 is_stmt 0             @ ../../../../Source/portable/Common/mpu_wrappers.c:1622:67
	ldr	r1, [sp, #8]
	.loc	3 1622 27                       @ ../../../../Source/portable/Common/mpu_wrappers.c:1622:27
	bl	xQueueRemoveFromSet
	.loc	3 1622 25                       @ ../../../../Source/portable/Common/mpu_wrappers.c:1622:25
	str	r0, [sp, #4]
	b	.LBB50_3
.Ltmp306:
.LBB50_3:
	.loc	3 1625 20 is_stmt 1             @ ../../../../Source/portable/Common/mpu_wrappers.c:1625:20
	ldr	r0, [sp, #4]
	.loc	3 1625 13 is_stmt 0             @ ../../../../Source/portable/Common/mpu_wrappers.c:1625:13
	add	sp, #16
	pop	{r7, pc}
.Ltmp307:
.Lfunc_end50:
	.size	MPU_xQueueRemoveFromSet, .Lfunc_end50-MPU_xQueueRemoveFromSet
	.cfi_endproc
	.cantunwind
	.fnend
                                        @ -- End function
	.hidden	MPU_vQueueDelete                @ -- Begin function MPU_vQueueDelete
	.globl	MPU_vQueueDelete
	.p2align	1
	.type	MPU_vQueueDelete,%function
	.code	16                              @ @MPU_vQueueDelete
	.thumb_func
MPU_vQueueDelete:
.Lfunc_begin51:
	.loc	3 1702 0 is_stmt 1              @ ../../../../Source/portable/Common/mpu_wrappers.c:1702:0
	.fnstart
	.cfi_startproc
@ %bb.0:
	.save	{r7, lr}
	push	{r7, lr}
	.cfi_def_cfa_offset 8
	.cfi_offset lr, -4
	.cfi_offset r7, -8
	.pad	#8
	sub	sp, #8
	.cfi_def_cfa_offset 16
	str	r0, [sp, #4]
.Ltmp308:
	.loc	3 1703 13 prologue_end          @ ../../../../Source/portable/Common/mpu_wrappers.c:1703:13
	bl	xIsPrivileged
.Ltmp309:
	.loc	3 1703 13 is_stmt 0             @ ../../../../Source/portable/Common/mpu_wrappers.c:1703:13
	cbnz	r0, .LBB51_2
	b	.LBB51_1
.LBB51_1:
.Ltmp310:
	.loc	3 1705 13 is_stmt 1             @ ../../../../Source/portable/Common/mpu_wrappers.c:1705:13
	@APP
	svc	#3

	@NO_APP
	.loc	3 1706 13                       @ ../../../../Source/portable/Common/mpu_wrappers.c:1706:13
	@APP
	@NO_APP
	.loc	3 1708 27                       @ ../../../../Source/portable/Common/mpu_wrappers.c:1708:27
	ldr	r0, [sp, #4]
	.loc	3 1708 13 is_stmt 0             @ ../../../../Source/portable/Common/mpu_wrappers.c:1708:13
	bl	vQueueDelete
	.loc	3 1709 13 is_stmt 1             @ ../../../../Source/portable/Common/mpu_wrappers.c:1709:13
	@APP
	@NO_APP
	.loc	3 1711 13                       @ ../../../../Source/portable/Common/mpu_wrappers.c:1711:13
	bl	vResetPrivilege
	.loc	3 1712 13                       @ ../../../../Source/portable/Common/mpu_wrappers.c:1712:13
	@APP
	@NO_APP
	.loc	3 1713 9                        @ ../../../../Source/portable/Common/mpu_wrappers.c:1713:9
	b	.LBB51_3
.Ltmp311:
.LBB51_2:
	.loc	3 1716 27                       @ ../../../../Source/portable/Common/mpu_wrappers.c:1716:27
	ldr	r0, [sp, #4]
	.loc	3 1716 13 is_stmt 0             @ ../../../../Source/portable/Common/mpu_wrappers.c:1716:13
	bl	vQueueDelete
	b	.LBB51_3
.Ltmp312:
.LBB51_3:
	.loc	3 1718 5 is_stmt 1              @ ../../../../Source/portable/Common/mpu_wrappers.c:1718:5
	add	sp, #8
	pop	{r7, pc}
.Ltmp313:
.Lfunc_end51:
	.size	MPU_vQueueDelete, .Lfunc_end51-MPU_vQueueDelete
	.cfi_endproc
	.cantunwind
	.fnend
                                        @ -- End function
	.section	freertos_system_calls,"ax",%progbits
	.hidden	MPU_pvTimerGetTimerID           @ -- Begin function MPU_pvTimerGetTimerID
	.globl	MPU_pvTimerGetTimerID
	.p2align	1
	.type	MPU_pvTimerGetTimerID,%function
	.code	16                              @ @MPU_pvTimerGetTimerID
	.thumb_func
MPU_pvTimerGetTimerID:
.Lfunc_begin52:
	.loc	3 1723 0                        @ ../../../../Source/portable/Common/mpu_wrappers.c:1723:0
	.fnstart
	.cfi_startproc
@ %bb.0:
	.save	{r7, lr}
	push	{r7, lr}
	.cfi_def_cfa_offset 8
	.cfi_offset lr, -4
	.cfi_offset r7, -8
	.pad	#8
	sub	sp, #8
	.cfi_def_cfa_offset 16
	str	r0, [sp, #4]
.Ltmp314:
	.loc	3 1726 17 prologue_end          @ ../../../../Source/portable/Common/mpu_wrappers.c:1726:17
	bl	xIsPrivileged
.Ltmp315:
	.loc	3 1726 17 is_stmt 0             @ ../../../../Source/portable/Common/mpu_wrappers.c:1726:17
	cbnz	r0, .LBB52_2
	b	.LBB52_1
.LBB52_1:
.Ltmp316:
	.loc	3 1728 17 is_stmt 1             @ ../../../../Source/portable/Common/mpu_wrappers.c:1728:17
	@APP
	svc	#3

	@NO_APP
	.loc	3 1729 17                       @ ../../../../Source/portable/Common/mpu_wrappers.c:1729:17
	@APP
	@NO_APP
	.loc	3 1731 47                       @ ../../../../Source/portable/Common/mpu_wrappers.c:1731:47
	ldr	r0, [sp, #4]
	.loc	3 1731 28 is_stmt 0             @ ../../../../Source/portable/Common/mpu_wrappers.c:1731:28
	bl	pvTimerGetTimerID
	.loc	3 1731 26                       @ ../../../../Source/portable/Common/mpu_wrappers.c:1731:26
	str	r0, [sp]
	.loc	3 1732 17 is_stmt 1             @ ../../../../Source/portable/Common/mpu_wrappers.c:1732:17
	@APP
	@NO_APP
	.loc	3 1734 17                       @ ../../../../Source/portable/Common/mpu_wrappers.c:1734:17
	bl	vResetPrivilege
	.loc	3 1735 17                       @ ../../../../Source/portable/Common/mpu_wrappers.c:1735:17
	@APP
	@NO_APP
	.loc	3 1736 13                       @ ../../../../Source/portable/Common/mpu_wrappers.c:1736:13
	b	.LBB52_3
.Ltmp317:
.LBB52_2:
	.loc	3 1739 47                       @ ../../../../Source/portable/Common/mpu_wrappers.c:1739:47
	ldr	r0, [sp, #4]
	.loc	3 1739 28 is_stmt 0             @ ../../../../Source/portable/Common/mpu_wrappers.c:1739:28
	bl	pvTimerGetTimerID
	.loc	3 1739 26                       @ ../../../../Source/portable/Common/mpu_wrappers.c:1739:26
	str	r0, [sp]
	b	.LBB52_3
.Ltmp318:
.LBB52_3:
	.loc	3 1742 20 is_stmt 1             @ ../../../../Source/portable/Common/mpu_wrappers.c:1742:20
	ldr	r0, [sp]
	.loc	3 1742 13 is_stmt 0             @ ../../../../Source/portable/Common/mpu_wrappers.c:1742:13
	add	sp, #8
	pop	{r7, pc}
.Ltmp319:
.Lfunc_end52:
	.size	MPU_pvTimerGetTimerID, .Lfunc_end52-MPU_pvTimerGetTimerID
	.cfi_endproc
	.cantunwind
	.fnend
                                        @ -- End function
	.hidden	MPU_vTimerSetTimerID            @ -- Begin function MPU_vTimerSetTimerID
	.globl	MPU_vTimerSetTimerID
	.p2align	1
	.type	MPU_vTimerSetTimerID,%function
	.code	16                              @ @MPU_vTimerSetTimerID
	.thumb_func
MPU_vTimerSetTimerID:
.Lfunc_begin53:
	.loc	3 1750 0 is_stmt 1              @ ../../../../Source/portable/Common/mpu_wrappers.c:1750:0
	.fnstart
	.cfi_startproc
@ %bb.0:
	.save	{r7, lr}
	push	{r7, lr}
	.cfi_def_cfa_offset 8
	.cfi_offset lr, -4
	.cfi_offset r7, -8
	.pad	#8
	sub	sp, #8
	.cfi_def_cfa_offset 16
	str	r0, [sp, #4]
	str	r1, [sp]
.Ltmp320:
	.loc	3 1751 17 prologue_end          @ ../../../../Source/portable/Common/mpu_wrappers.c:1751:17
	bl	xIsPrivileged
.Ltmp321:
	.loc	3 1751 17 is_stmt 0             @ ../../../../Source/portable/Common/mpu_wrappers.c:1751:17
	cbnz	r0, .LBB53_2
	b	.LBB53_1
.LBB53_1:
.Ltmp322:
	.loc	3 1753 17 is_stmt 1             @ ../../../../Source/portable/Common/mpu_wrappers.c:1753:17
	@APP
	svc	#3

	@NO_APP
	.loc	3 1754 17                       @ ../../../../Source/portable/Common/mpu_wrappers.c:1754:17
	@APP
	@NO_APP
	.loc	3 1756 35                       @ ../../../../Source/portable/Common/mpu_wrappers.c:1756:35
	ldr	r0, [sp, #4]
	.loc	3 1756 43 is_stmt 0             @ ../../../../Source/portable/Common/mpu_wrappers.c:1756:43
	ldr	r1, [sp]
	.loc	3 1756 17                       @ ../../../../Source/portable/Common/mpu_wrappers.c:1756:17
	bl	vTimerSetTimerID
	.loc	3 1757 17 is_stmt 1             @ ../../../../Source/portable/Common/mpu_wrappers.c:1757:17
	@APP
	@NO_APP
	.loc	3 1759 17                       @ ../../../../Source/portable/Common/mpu_wrappers.c:1759:17
	bl	vResetPrivilege
	.loc	3 1760 17                       @ ../../../../Source/portable/Common/mpu_wrappers.c:1760:17
	@APP
	@NO_APP
	.loc	3 1761 13                       @ ../../../../Source/portable/Common/mpu_wrappers.c:1761:13
	b	.LBB53_3
.Ltmp323:
.LBB53_2:
	.loc	3 1764 35                       @ ../../../../Source/portable/Common/mpu_wrappers.c:1764:35
	ldr	r0, [sp, #4]
	.loc	3 1764 43 is_stmt 0             @ ../../../../Source/portable/Common/mpu_wrappers.c:1764:43
	ldr	r1, [sp]
	.loc	3 1764 17                       @ ../../../../Source/portable/Common/mpu_wrappers.c:1764:17
	bl	vTimerSetTimerID
	b	.LBB53_3
.Ltmp324:
.LBB53_3:
	.loc	3 1766 9 is_stmt 1              @ ../../../../Source/portable/Common/mpu_wrappers.c:1766:9
	add	sp, #8
	pop	{r7, pc}
.Ltmp325:
.Lfunc_end53:
	.size	MPU_vTimerSetTimerID, .Lfunc_end53-MPU_vTimerSetTimerID
	.cfi_endproc
	.cantunwind
	.fnend
                                        @ -- End function
	.hidden	MPU_xTimerIsTimerActive         @ -- Begin function MPU_xTimerIsTimerActive
	.globl	MPU_xTimerIsTimerActive
	.p2align	1
	.type	MPU_xTimerIsTimerActive,%function
	.code	16                              @ @MPU_xTimerIsTimerActive
	.thumb_func
MPU_xTimerIsTimerActive:
.Lfunc_begin54:
	.loc	3 1772 0                        @ ../../../../Source/portable/Common/mpu_wrappers.c:1772:0
	.fnstart
	.cfi_startproc
@ %bb.0:
	.save	{r7, lr}
	push	{r7, lr}
	.cfi_def_cfa_offset 8
	.cfi_offset lr, -4
	.cfi_offset r7, -8
	.pad	#8
	sub	sp, #8
	.cfi_def_cfa_offset 16
	str	r0, [sp, #4]
.Ltmp326:
	.loc	3 1775 17 prologue_end          @ ../../../../Source/portable/Common/mpu_wrappers.c:1775:17
	bl	xIsPrivileged
.Ltmp327:
	.loc	3 1775 17 is_stmt 0             @ ../../../../Source/portable/Common/mpu_wrappers.c:1775:17
	cbnz	r0, .LBB54_2
	b	.LBB54_1
.LBB54_1:
.Ltmp328:
	.loc	3 1777 17 is_stmt 1             @ ../../../../Source/portable/Common/mpu_wrappers.c:1777:17
	@APP
	svc	#3

	@NO_APP
	.loc	3 1778 17                       @ ../../../../Source/portable/Common/mpu_wrappers.c:1778:17
	@APP
	@NO_APP
	.loc	3 1780 48                       @ ../../../../Source/portable/Common/mpu_wrappers.c:1780:48
	ldr	r0, [sp, #4]
	.loc	3 1780 27 is_stmt 0             @ ../../../../Source/portable/Common/mpu_wrappers.c:1780:27
	bl	xTimerIsTimerActive
	.loc	3 1780 25                       @ ../../../../Source/portable/Common/mpu_wrappers.c:1780:25
	str	r0, [sp]
	.loc	3 1781 17 is_stmt 1             @ ../../../../Source/portable/Common/mpu_wrappers.c:1781:17
	@APP
	@NO_APP
	.loc	3 1783 17                       @ ../../../../Source/portable/Common/mpu_wrappers.c:1783:17
	bl	vResetPrivilege
	.loc	3 1784 17                       @ ../../../../Source/portable/Common/mpu_wrappers.c:1784:17
	@APP
	@NO_APP
	.loc	3 1785 13                       @ ../../../../Source/portable/Common/mpu_wrappers.c:1785:13
	b	.LBB54_3
.Ltmp329:
.LBB54_2:
	.loc	3 1788 48                       @ ../../../../Source/portable/Common/mpu_wrappers.c:1788:48
	ldr	r0, [sp, #4]
	.loc	3 1788 27 is_stmt 0             @ ../../../../Source/portable/Common/mpu_wrappers.c:1788:27
	bl	xTimerIsTimerActive
	.loc	3 1788 25                       @ ../../../../Source/portable/Common/mpu_wrappers.c:1788:25
	str	r0, [sp]
	b	.LBB54_3
.Ltmp330:
.LBB54_3:
	.loc	3 1791 20 is_stmt 1             @ ../../../../Source/portable/Common/mpu_wrappers.c:1791:20
	ldr	r0, [sp]
	.loc	3 1791 13 is_stmt 0             @ ../../../../Source/portable/Common/mpu_wrappers.c:1791:13
	add	sp, #8
	pop	{r7, pc}
.Ltmp331:
.Lfunc_end54:
	.size	MPU_xTimerIsTimerActive, .Lfunc_end54-MPU_xTimerIsTimerActive
	.cfi_endproc
	.cantunwind
	.fnend
                                        @ -- End function
	.hidden	MPU_xTimerGetTimerDaemonTaskHandle @ -- Begin function MPU_xTimerGetTimerDaemonTaskHandle
	.globl	MPU_xTimerGetTimerDaemonTaskHandle
	.p2align	1
	.type	MPU_xTimerGetTimerDaemonTaskHandle,%function
	.code	16                              @ @MPU_xTimerGetTimerDaemonTaskHandle
	.thumb_func
MPU_xTimerGetTimerDaemonTaskHandle:
.Lfunc_begin55:
	.loc	3 1798 0 is_stmt 1              @ ../../../../Source/portable/Common/mpu_wrappers.c:1798:0
	.fnstart
	.cfi_startproc
@ %bb.0:
	.save	{r7, lr}
	push	{r7, lr}
	.cfi_def_cfa_offset 8
	.cfi_offset lr, -4
	.cfi_offset r7, -8
	.pad	#8
	sub	sp, #8
	.cfi_def_cfa_offset 16
.Ltmp332:
	.loc	3 1801 17 prologue_end          @ ../../../../Source/portable/Common/mpu_wrappers.c:1801:17
	bl	xIsPrivileged
.Ltmp333:
	.loc	3 1801 17 is_stmt 0             @ ../../../../Source/portable/Common/mpu_wrappers.c:1801:17
	cbnz	r0, .LBB55_2
	b	.LBB55_1
.LBB55_1:
.Ltmp334:
	.loc	3 1803 17 is_stmt 1             @ ../../../../Source/portable/Common/mpu_wrappers.c:1803:17
	@APP
	svc	#3

	@NO_APP
	.loc	3 1804 17                       @ ../../../../Source/portable/Common/mpu_wrappers.c:1804:17
	@APP
	@NO_APP
	.loc	3 1806 27                       @ ../../../../Source/portable/Common/mpu_wrappers.c:1806:27
	bl	xTimerGetTimerDaemonTaskHandle
	.loc	3 1806 25 is_stmt 0             @ ../../../../Source/portable/Common/mpu_wrappers.c:1806:25
	str	r0, [sp, #4]
	.loc	3 1807 17 is_stmt 1             @ ../../../../Source/portable/Common/mpu_wrappers.c:1807:17
	@APP
	@NO_APP
	.loc	3 1809 17                       @ ../../../../Source/portable/Common/mpu_wrappers.c:1809:17
	bl	vResetPrivilege
	.loc	3 1810 17                       @ ../../../../Source/portable/Common/mpu_wrappers.c:1810:17
	@APP
	@NO_APP
	.loc	3 1811 13                       @ ../../../../Source/portable/Common/mpu_wrappers.c:1811:13
	b	.LBB55_3
.Ltmp335:
.LBB55_2:
	.loc	3 1814 27                       @ ../../../../Source/portable/Common/mpu_wrappers.c:1814:27
	bl	xTimerGetTimerDaemonTaskHandle
	.loc	3 1814 25 is_stmt 0             @ ../../../../Source/portable/Common/mpu_wrappers.c:1814:25
	str	r0, [sp, #4]
	b	.LBB55_3
.Ltmp336:
.LBB55_3:
	.loc	3 1817 20 is_stmt 1             @ ../../../../Source/portable/Common/mpu_wrappers.c:1817:20
	ldr	r0, [sp, #4]
	.loc	3 1817 13 is_stmt 0             @ ../../../../Source/portable/Common/mpu_wrappers.c:1817:13
	add	sp, #8
	pop	{r7, pc}
.Ltmp337:
.Lfunc_end55:
	.size	MPU_xTimerGetTimerDaemonTaskHandle, .Lfunc_end55-MPU_xTimerGetTimerDaemonTaskHandle
	.cfi_endproc
	.cantunwind
	.fnend
                                        @ -- End function
	.hidden	MPU_vTimerSetReloadMode         @ -- Begin function MPU_vTimerSetReloadMode
	.globl	MPU_vTimerSetReloadMode
	.p2align	1
	.type	MPU_vTimerSetReloadMode,%function
	.code	16                              @ @MPU_vTimerSetReloadMode
	.thumb_func
MPU_vTimerSetReloadMode:
.Lfunc_begin56:
	.loc	3 1825 0 is_stmt 1              @ ../../../../Source/portable/Common/mpu_wrappers.c:1825:0
	.fnstart
	.cfi_startproc
@ %bb.0:
	.save	{r7, lr}
	push	{r7, lr}
	.cfi_def_cfa_offset 8
	.cfi_offset lr, -4
	.cfi_offset r7, -8
	.pad	#8
	sub	sp, #8
	.cfi_def_cfa_offset 16
	str	r0, [sp, #4]
	str	r1, [sp]
.Ltmp338:
	.loc	3 1826 17 prologue_end          @ ../../../../Source/portable/Common/mpu_wrappers.c:1826:17
	bl	xIsPrivileged
.Ltmp339:
	.loc	3 1826 17 is_stmt 0             @ ../../../../Source/portable/Common/mpu_wrappers.c:1826:17
	cbnz	r0, .LBB56_2
	b	.LBB56_1
.LBB56_1:
.Ltmp340:
	.loc	3 1828 17 is_stmt 1             @ ../../../../Source/portable/Common/mpu_wrappers.c:1828:17
	@APP
	svc	#3

	@NO_APP
	.loc	3 1829 17                       @ ../../../../Source/portable/Common/mpu_wrappers.c:1829:17
	@APP
	@NO_APP
	.loc	3 1831 38                       @ ../../../../Source/portable/Common/mpu_wrappers.c:1831:38
	ldr	r0, [sp, #4]
	.loc	3 1831 46 is_stmt 0             @ ../../../../Source/portable/Common/mpu_wrappers.c:1831:46
	ldr	r1, [sp]
	.loc	3 1831 17                       @ ../../../../Source/portable/Common/mpu_wrappers.c:1831:17
	bl	vTimerSetReloadMode
	.loc	3 1832 17 is_stmt 1             @ ../../../../Source/portable/Common/mpu_wrappers.c:1832:17
	@APP
	@NO_APP
	.loc	3 1834 17                       @ ../../../../Source/portable/Common/mpu_wrappers.c:1834:17
	bl	vResetPrivilege
	.loc	3 1835 17                       @ ../../../../Source/portable/Common/mpu_wrappers.c:1835:17
	@APP
	@NO_APP
	.loc	3 1836 13                       @ ../../../../Source/portable/Common/mpu_wrappers.c:1836:13
	b	.LBB56_3
.Ltmp341:
.LBB56_2:
	.loc	3 1839 38                       @ ../../../../Source/portable/Common/mpu_wrappers.c:1839:38
	ldr	r0, [sp, #4]
	.loc	3 1839 46 is_stmt 0             @ ../../../../Source/portable/Common/mpu_wrappers.c:1839:46
	ldr	r1, [sp]
	.loc	3 1839 17                       @ ../../../../Source/portable/Common/mpu_wrappers.c:1839:17
	bl	vTimerSetReloadMode
	b	.LBB56_3
.Ltmp342:
.LBB56_3:
	.loc	3 1841 9 is_stmt 1              @ ../../../../Source/portable/Common/mpu_wrappers.c:1841:9
	add	sp, #8
	pop	{r7, pc}
.Ltmp343:
.Lfunc_end56:
	.size	MPU_vTimerSetReloadMode, .Lfunc_end56-MPU_vTimerSetReloadMode
	.cfi_endproc
	.cantunwind
	.fnend
                                        @ -- End function
	.hidden	MPU_uxTimerGetReloadMode        @ -- Begin function MPU_uxTimerGetReloadMode
	.globl	MPU_uxTimerGetReloadMode
	.p2align	1
	.type	MPU_uxTimerGetReloadMode,%function
	.code	16                              @ @MPU_uxTimerGetReloadMode
	.thumb_func
MPU_uxTimerGetReloadMode:
.Lfunc_begin57:
	.loc	3 1847 0                        @ ../../../../Source/portable/Common/mpu_wrappers.c:1847:0
	.fnstart
	.cfi_startproc
@ %bb.0:
	.save	{r7, lr}
	push	{r7, lr}
	.cfi_def_cfa_offset 8
	.cfi_offset lr, -4
	.cfi_offset r7, -8
	.pad	#8
	sub	sp, #8
	.cfi_def_cfa_offset 16
	str	r0, [sp, #4]
.Ltmp344:
	.loc	3 1850 17 prologue_end          @ ../../../../Source/portable/Common/mpu_wrappers.c:1850:17
	bl	xIsPrivileged
.Ltmp345:
	.loc	3 1850 17 is_stmt 0             @ ../../../../Source/portable/Common/mpu_wrappers.c:1850:17
	cbnz	r0, .LBB57_2
	b	.LBB57_1
.LBB57_1:
.Ltmp346:
	.loc	3 1852 17 is_stmt 1             @ ../../../../Source/portable/Common/mpu_wrappers.c:1852:17
	@APP
	svc	#3

	@NO_APP
	.loc	3 1853 17                       @ ../../../../Source/portable/Common/mpu_wrappers.c:1853:17
	@APP
	@NO_APP
	.loc	3 1855 50                       @ ../../../../Source/portable/Common/mpu_wrappers.c:1855:50
	ldr	r0, [sp, #4]
	.loc	3 1855 28 is_stmt 0             @ ../../../../Source/portable/Common/mpu_wrappers.c:1855:28
	bl	uxTimerGetReloadMode
	.loc	3 1855 26                       @ ../../../../Source/portable/Common/mpu_wrappers.c:1855:26
	str	r0, [sp]
	.loc	3 1856 17 is_stmt 1             @ ../../../../Source/portable/Common/mpu_wrappers.c:1856:17
	@APP
	@NO_APP
	.loc	3 1858 17                       @ ../../../../Source/portable/Common/mpu_wrappers.c:1858:17
	bl	vResetPrivilege
	.loc	3 1859 17                       @ ../../../../Source/portable/Common/mpu_wrappers.c:1859:17
	@APP
	@NO_APP
	.loc	3 1860 13                       @ ../../../../Source/portable/Common/mpu_wrappers.c:1860:13
	b	.LBB57_3
.Ltmp347:
.LBB57_2:
	.loc	3 1863 50                       @ ../../../../Source/portable/Common/mpu_wrappers.c:1863:50
	ldr	r0, [sp, #4]
	.loc	3 1863 28 is_stmt 0             @ ../../../../Source/portable/Common/mpu_wrappers.c:1863:28
	bl	uxTimerGetReloadMode
	.loc	3 1863 26                       @ ../../../../Source/portable/Common/mpu_wrappers.c:1863:26
	str	r0, [sp]
	b	.LBB57_3
.Ltmp348:
.LBB57_3:
	.loc	3 1866 20 is_stmt 1             @ ../../../../Source/portable/Common/mpu_wrappers.c:1866:20
	ldr	r0, [sp]
	.loc	3 1866 13 is_stmt 0             @ ../../../../Source/portable/Common/mpu_wrappers.c:1866:13
	add	sp, #8
	pop	{r7, pc}
.Ltmp349:
.Lfunc_end57:
	.size	MPU_uxTimerGetReloadMode, .Lfunc_end57-MPU_uxTimerGetReloadMode
	.cfi_endproc
	.cantunwind
	.fnend
                                        @ -- End function
	.hidden	MPU_pcTimerGetName              @ -- Begin function MPU_pcTimerGetName
	.globl	MPU_pcTimerGetName
	.p2align	1
	.type	MPU_pcTimerGetName,%function
	.code	16                              @ @MPU_pcTimerGetName
	.thumb_func
MPU_pcTimerGetName:
.Lfunc_begin58:
	.loc	3 1873 0 is_stmt 1              @ ../../../../Source/portable/Common/mpu_wrappers.c:1873:0
	.fnstart
	.cfi_startproc
@ %bb.0:
	.save	{r7, lr}
	push	{r7, lr}
	.cfi_def_cfa_offset 8
	.cfi_offset lr, -4
	.cfi_offset r7, -8
	.pad	#8
	sub	sp, #8
	.cfi_def_cfa_offset 16
	str	r0, [sp, #4]
.Ltmp350:
	.loc	3 1876 17 prologue_end          @ ../../../../Source/portable/Common/mpu_wrappers.c:1876:17
	bl	xIsPrivileged
.Ltmp351:
	.loc	3 1876 17 is_stmt 0             @ ../../../../Source/portable/Common/mpu_wrappers.c:1876:17
	cbnz	r0, .LBB58_2
	b	.LBB58_1
.LBB58_1:
.Ltmp352:
	.loc	3 1878 17 is_stmt 1             @ ../../../../Source/portable/Common/mpu_wrappers.c:1878:17
	@APP
	svc	#3

	@NO_APP
	.loc	3 1879 17                       @ ../../../../Source/portable/Common/mpu_wrappers.c:1879:17
	@APP
	@NO_APP
	.loc	3 1881 44                       @ ../../../../Source/portable/Common/mpu_wrappers.c:1881:44
	ldr	r0, [sp, #4]
	.loc	3 1881 28 is_stmt 0             @ ../../../../Source/portable/Common/mpu_wrappers.c:1881:28
	bl	pcTimerGetName
	.loc	3 1881 26                       @ ../../../../Source/portable/Common/mpu_wrappers.c:1881:26
	str	r0, [sp]
	.loc	3 1882 17 is_stmt 1             @ ../../../../Source/portable/Common/mpu_wrappers.c:1882:17
	@APP
	@NO_APP
	.loc	3 1884 17                       @ ../../../../Source/portable/Common/mpu_wrappers.c:1884:17
	bl	vResetPrivilege
	.loc	3 1885 17                       @ ../../../../Source/portable/Common/mpu_wrappers.c:1885:17
	@APP
	@NO_APP
	.loc	3 1886 13                       @ ../../../../Source/portable/Common/mpu_wrappers.c:1886:13
	b	.LBB58_3
.Ltmp353:
.LBB58_2:
	.loc	3 1889 44                       @ ../../../../Source/portable/Common/mpu_wrappers.c:1889:44
	ldr	r0, [sp, #4]
	.loc	3 1889 28 is_stmt 0             @ ../../../../Source/portable/Common/mpu_wrappers.c:1889:28
	bl	pcTimerGetName
	.loc	3 1889 26                       @ ../../../../Source/portable/Common/mpu_wrappers.c:1889:26
	str	r0, [sp]
	b	.LBB58_3
.Ltmp354:
.LBB58_3:
	.loc	3 1892 20 is_stmt 1             @ ../../../../Source/portable/Common/mpu_wrappers.c:1892:20
	ldr	r0, [sp]
	.loc	3 1892 13 is_stmt 0             @ ../../../../Source/portable/Common/mpu_wrappers.c:1892:13
	add	sp, #8
	pop	{r7, pc}
.Ltmp355:
.Lfunc_end58:
	.size	MPU_pcTimerGetName, .Lfunc_end58-MPU_pcTimerGetName
	.cfi_endproc
	.cantunwind
	.fnend
                                        @ -- End function
	.hidden	MPU_xTimerGetPeriod             @ -- Begin function MPU_xTimerGetPeriod
	.globl	MPU_xTimerGetPeriod
	.p2align	1
	.type	MPU_xTimerGetPeriod,%function
	.code	16                              @ @MPU_xTimerGetPeriod
	.thumb_func
MPU_xTimerGetPeriod:
.Lfunc_begin59:
	.loc	3 1899 0 is_stmt 1              @ ../../../../Source/portable/Common/mpu_wrappers.c:1899:0
	.fnstart
	.cfi_startproc
@ %bb.0:
	.save	{r7, lr}
	push	{r7, lr}
	.cfi_def_cfa_offset 8
	.cfi_offset lr, -4
	.cfi_offset r7, -8
	.pad	#8
	sub	sp, #8
	.cfi_def_cfa_offset 16
	str	r0, [sp, #4]
.Ltmp356:
	.loc	3 1902 17 prologue_end          @ ../../../../Source/portable/Common/mpu_wrappers.c:1902:17
	bl	xIsPrivileged
.Ltmp357:
	.loc	3 1902 17 is_stmt 0             @ ../../../../Source/portable/Common/mpu_wrappers.c:1902:17
	cbnz	r0, .LBB59_2
	b	.LBB59_1
.LBB59_1:
.Ltmp358:
	.loc	3 1904 17 is_stmt 1             @ ../../../../Source/portable/Common/mpu_wrappers.c:1904:17
	@APP
	svc	#3

	@NO_APP
	.loc	3 1905 17                       @ ../../../../Source/portable/Common/mpu_wrappers.c:1905:17
	@APP
	@NO_APP
	.loc	3 1907 44                       @ ../../../../Source/portable/Common/mpu_wrappers.c:1907:44
	ldr	r0, [sp, #4]
	.loc	3 1907 27 is_stmt 0             @ ../../../../Source/portable/Common/mpu_wrappers.c:1907:27
	bl	xTimerGetPeriod
	.loc	3 1907 25                       @ ../../../../Source/portable/Common/mpu_wrappers.c:1907:25
	str	r0, [sp]
	.loc	3 1908 17 is_stmt 1             @ ../../../../Source/portable/Common/mpu_wrappers.c:1908:17
	@APP
	@NO_APP
	.loc	3 1910 17                       @ ../../../../Source/portable/Common/mpu_wrappers.c:1910:17
	bl	vResetPrivilege
	.loc	3 1911 17                       @ ../../../../Source/portable/Common/mpu_wrappers.c:1911:17
	@APP
	@NO_APP
	.loc	3 1912 13                       @ ../../../../Source/portable/Common/mpu_wrappers.c:1912:13
	b	.LBB59_3
.Ltmp359:
.LBB59_2:
	.loc	3 1915 44                       @ ../../../../Source/portable/Common/mpu_wrappers.c:1915:44
	ldr	r0, [sp, #4]
	.loc	3 1915 27 is_stmt 0             @ ../../../../Source/portable/Common/mpu_wrappers.c:1915:27
	bl	xTimerGetPeriod
	.loc	3 1915 25                       @ ../../../../Source/portable/Common/mpu_wrappers.c:1915:25
	str	r0, [sp]
	b	.LBB59_3
.Ltmp360:
.LBB59_3:
	.loc	3 1918 20 is_stmt 1             @ ../../../../Source/portable/Common/mpu_wrappers.c:1918:20
	ldr	r0, [sp]
	.loc	3 1918 13 is_stmt 0             @ ../../../../Source/portable/Common/mpu_wrappers.c:1918:13
	add	sp, #8
	pop	{r7, pc}
.Ltmp361:
.Lfunc_end59:
	.size	MPU_xTimerGetPeriod, .Lfunc_end59-MPU_xTimerGetPeriod
	.cfi_endproc
	.cantunwind
	.fnend
                                        @ -- End function
	.hidden	MPU_xTimerGetExpiryTime         @ -- Begin function MPU_xTimerGetExpiryTime
	.globl	MPU_xTimerGetExpiryTime
	.p2align	1
	.type	MPU_xTimerGetExpiryTime,%function
	.code	16                              @ @MPU_xTimerGetExpiryTime
	.thumb_func
MPU_xTimerGetExpiryTime:
.Lfunc_begin60:
	.loc	3 1925 0 is_stmt 1              @ ../../../../Source/portable/Common/mpu_wrappers.c:1925:0
	.fnstart
	.cfi_startproc
@ %bb.0:
	.save	{r7, lr}
	push	{r7, lr}
	.cfi_def_cfa_offset 8
	.cfi_offset lr, -4
	.cfi_offset r7, -8
	.pad	#8
	sub	sp, #8
	.cfi_def_cfa_offset 16
	str	r0, [sp, #4]
.Ltmp362:
	.loc	3 1928 17 prologue_end          @ ../../../../Source/portable/Common/mpu_wrappers.c:1928:17
	bl	xIsPrivileged
.Ltmp363:
	.loc	3 1928 17 is_stmt 0             @ ../../../../Source/portable/Common/mpu_wrappers.c:1928:17
	cbnz	r0, .LBB60_2
	b	.LBB60_1
.LBB60_1:
.Ltmp364:
	.loc	3 1930 17 is_stmt 1             @ ../../../../Source/portable/Common/mpu_wrappers.c:1930:17
	@APP
	svc	#3

	@NO_APP
	.loc	3 1931 17                       @ ../../../../Source/portable/Common/mpu_wrappers.c:1931:17
	@APP
	@NO_APP
	.loc	3 1933 48                       @ ../../../../Source/portable/Common/mpu_wrappers.c:1933:48
	ldr	r0, [sp, #4]
	.loc	3 1933 27 is_stmt 0             @ ../../../../Source/portable/Common/mpu_wrappers.c:1933:27
	bl	xTimerGetExpiryTime
	.loc	3 1933 25                       @ ../../../../Source/portable/Common/mpu_wrappers.c:1933:25
	str	r0, [sp]
	.loc	3 1934 17 is_stmt 1             @ ../../../../Source/portable/Common/mpu_wrappers.c:1934:17
	@APP
	@NO_APP
	.loc	3 1936 17                       @ ../../../../Source/portable/Common/mpu_wrappers.c:1936:17
	bl	vResetPrivilege
	.loc	3 1937 17                       @ ../../../../Source/portable/Common/mpu_wrappers.c:1937:17
	@APP
	@NO_APP
	.loc	3 1938 13                       @ ../../../../Source/portable/Common/mpu_wrappers.c:1938:13
	b	.LBB60_3
.Ltmp365:
.LBB60_2:
	.loc	3 1941 48                       @ ../../../../Source/portable/Common/mpu_wrappers.c:1941:48
	ldr	r0, [sp, #4]
	.loc	3 1941 27 is_stmt 0             @ ../../../../Source/portable/Common/mpu_wrappers.c:1941:27
	bl	xTimerGetExpiryTime
	.loc	3 1941 25                       @ ../../../../Source/portable/Common/mpu_wrappers.c:1941:25
	str	r0, [sp]
	b	.LBB60_3
.Ltmp366:
.LBB60_3:
	.loc	3 1944 20 is_stmt 1             @ ../../../../Source/portable/Common/mpu_wrappers.c:1944:20
	ldr	r0, [sp]
	.loc	3 1944 13 is_stmt 0             @ ../../../../Source/portable/Common/mpu_wrappers.c:1944:13
	add	sp, #8
	pop	{r7, pc}
.Ltmp367:
.Lfunc_end60:
	.size	MPU_xTimerGetExpiryTime, .Lfunc_end60-MPU_xTimerGetExpiryTime
	.cfi_endproc
	.cantunwind
	.fnend
                                        @ -- End function
	.hidden	MPU_xTimerGenericCommand        @ -- Begin function MPU_xTimerGenericCommand
	.globl	MPU_xTimerGenericCommand
	.p2align	1
	.type	MPU_xTimerGenericCommand,%function
	.code	16                              @ @MPU_xTimerGenericCommand
	.thumb_func
MPU_xTimerGenericCommand:
.Lfunc_begin61:
	.loc	3 1955 0 is_stmt 1              @ ../../../../Source/portable/Common/mpu_wrappers.c:1955:0
	.fnstart
	.cfi_startproc
@ %bb.0:
	.save	{r4, lr}
	push	{r4, lr}
	.cfi_def_cfa_offset 8
	.cfi_offset lr, -4
	.cfi_offset r4, -8
	.pad	#24
	sub	sp, #24
	.cfi_def_cfa_offset 32
	ldr	r4, [sp, #32]
	str	r0, [sp, #20]
	str	r1, [sp, #16]
	str	r2, [sp, #12]
	str	r3, [sp, #8]
.Ltmp368:
	.loc	3 1958 17 prologue_end          @ ../../../../Source/portable/Common/mpu_wrappers.c:1958:17
	bl	xIsPrivileged
.Ltmp369:
	.loc	3 1958 17 is_stmt 0             @ ../../../../Source/portable/Common/mpu_wrappers.c:1958:17
	cbnz	r0, .LBB61_2
	b	.LBB61_1
.LBB61_1:
.Ltmp370:
	.loc	3 1960 17 is_stmt 1             @ ../../../../Source/portable/Common/mpu_wrappers.c:1960:17
	@APP
	svc	#3

	@NO_APP
	.loc	3 1961 17                       @ ../../../../Source/portable/Common/mpu_wrappers.c:1961:17
	@APP
	@NO_APP
	.loc	3 1963 49                       @ ../../../../Source/portable/Common/mpu_wrappers.c:1963:49
	ldr	r0, [sp, #20]
	.loc	3 1963 57 is_stmt 0             @ ../../../../Source/portable/Common/mpu_wrappers.c:1963:57
	ldr	r1, [sp, #16]
	.loc	3 1963 69                       @ ../../../../Source/portable/Common/mpu_wrappers.c:1963:69
	ldr	r2, [sp, #12]
	.loc	3 1963 85                       @ ../../../../Source/portable/Common/mpu_wrappers.c:1963:85
	ldr	r3, [sp, #8]
	.loc	3 1963 112                      @ ../../../../Source/portable/Common/mpu_wrappers.c:1963:112
	ldr	r4, [sp, #32]
	.loc	3 1963 27                       @ ../../../../Source/portable/Common/mpu_wrappers.c:1963:27
	str	r4, [sp]
	bl	xTimerGenericCommand
	.loc	3 1963 25                       @ ../../../../Source/portable/Common/mpu_wrappers.c:1963:25
	str	r0, [sp, #4]
	.loc	3 1964 17 is_stmt 1             @ ../../../../Source/portable/Common/mpu_wrappers.c:1964:17
	@APP
	@NO_APP
	.loc	3 1966 17                       @ ../../../../Source/portable/Common/mpu_wrappers.c:1966:17
	bl	vResetPrivilege
	.loc	3 1967 17                       @ ../../../../Source/portable/Common/mpu_wrappers.c:1967:17
	@APP
	@NO_APP
	.loc	3 1968 13                       @ ../../../../Source/portable/Common/mpu_wrappers.c:1968:13
	b	.LBB61_3
.Ltmp371:
.LBB61_2:
	.loc	3 1971 49                       @ ../../../../Source/portable/Common/mpu_wrappers.c:1971:49
	ldr	r0, [sp, #20]
	.loc	3 1971 57 is_stmt 0             @ ../../../../Source/portable/Common/mpu_wrappers.c:1971:57
	ldr	r1, [sp, #16]
	.loc	3 1971 69                       @ ../../../../Source/portable/Common/mpu_wrappers.c:1971:69
	ldr	r2, [sp, #12]
	.loc	3 1971 85                       @ ../../../../Source/portable/Common/mpu_wrappers.c:1971:85
	ldr	r3, [sp, #8]
	.loc	3 1971 112                      @ ../../../../Source/portable/Common/mpu_wrappers.c:1971:112
	ldr	r4, [sp, #32]
	.loc	3 1971 27                       @ ../../../../Source/portable/Common/mpu_wrappers.c:1971:27
	str	r4, [sp]
	bl	xTimerGenericCommand
	.loc	3 1971 25                       @ ../../../../Source/portable/Common/mpu_wrappers.c:1971:25
	str	r0, [sp, #4]
	b	.LBB61_3
.Ltmp372:
.LBB61_3:
	.loc	3 1974 20 is_stmt 1             @ ../../../../Source/portable/Common/mpu_wrappers.c:1974:20
	ldr	r0, [sp, #4]
	.loc	3 1974 13 is_stmt 0             @ ../../../../Source/portable/Common/mpu_wrappers.c:1974:13
	add	sp, #24
	pop	{r4, pc}
.Ltmp373:
.Lfunc_end61:
	.size	MPU_xTimerGenericCommand, .Lfunc_end61-MPU_xTimerGenericCommand
	.cfi_endproc
	.cantunwind
	.fnend
                                        @ -- End function
	.section	privileged_functions,"ax",%progbits
	.hidden	MPU_xEventGroupCreate           @ -- Begin function MPU_xEventGroupCreate
	.globl	MPU_xEventGroupCreate
	.p2align	1
	.type	MPU_xEventGroupCreate,%function
	.code	16                              @ @MPU_xEventGroupCreate
	.thumb_func
MPU_xEventGroupCreate:
.Lfunc_begin62:
	.loc	3 1981 0 is_stmt 1              @ ../../../../Source/portable/Common/mpu_wrappers.c:1981:0
	.fnstart
	.cfi_startproc
@ %bb.0:
	.save	{r7, lr}
	push	{r7, lr}
	.cfi_def_cfa_offset 8
	.cfi_offset lr, -4
	.cfi_offset r7, -8
	.pad	#8
	sub	sp, #8
	.cfi_def_cfa_offset 16
.Ltmp374:
	.loc	3 1984 17 prologue_end          @ ../../../../Source/portable/Common/mpu_wrappers.c:1984:17
	bl	xIsPrivileged
.Ltmp375:
	.loc	3 1984 17 is_stmt 0             @ ../../../../Source/portable/Common/mpu_wrappers.c:1984:17
	cbnz	r0, .LBB62_2
	b	.LBB62_1
.LBB62_1:
.Ltmp376:
	.loc	3 1986 17 is_stmt 1             @ ../../../../Source/portable/Common/mpu_wrappers.c:1986:17
	@APP
	svc	#3

	@NO_APP
	.loc	3 1987 17                       @ ../../../../Source/portable/Common/mpu_wrappers.c:1987:17
	@APP
	@NO_APP
	.loc	3 1989 27                       @ ../../../../Source/portable/Common/mpu_wrappers.c:1989:27
	bl	xEventGroupCreate
	.loc	3 1989 25 is_stmt 0             @ ../../../../Source/portable/Common/mpu_wrappers.c:1989:25
	str	r0, [sp, #4]
	.loc	3 1990 17 is_stmt 1             @ ../../../../Source/portable/Common/mpu_wrappers.c:1990:17
	@APP
	@NO_APP
	.loc	3 1992 17                       @ ../../../../Source/portable/Common/mpu_wrappers.c:1992:17
	bl	vResetPrivilege
	.loc	3 1993 17                       @ ../../../../Source/portable/Common/mpu_wrappers.c:1993:17
	@APP
	@NO_APP
	.loc	3 1994 13                       @ ../../../../Source/portable/Common/mpu_wrappers.c:1994:13
	b	.LBB62_3
.Ltmp377:
.LBB62_2:
	.loc	3 1997 27                       @ ../../../../Source/portable/Common/mpu_wrappers.c:1997:27
	bl	xEventGroupCreate
	.loc	3 1997 25 is_stmt 0             @ ../../../../Source/portable/Common/mpu_wrappers.c:1997:25
	str	r0, [sp, #4]
	b	.LBB62_3
.Ltmp378:
.LBB62_3:
	.loc	3 2000 20 is_stmt 1             @ ../../../../Source/portable/Common/mpu_wrappers.c:2000:20
	ldr	r0, [sp, #4]
	.loc	3 2000 13 is_stmt 0             @ ../../../../Source/portable/Common/mpu_wrappers.c:2000:13
	add	sp, #8
	pop	{r7, pc}
.Ltmp379:
.Lfunc_end62:
	.size	MPU_xEventGroupCreate, .Lfunc_end62-MPU_xEventGroupCreate
	.cfi_endproc
	.cantunwind
	.fnend
                                        @ -- End function
	.hidden	MPU_xEventGroupCreateStatic     @ -- Begin function MPU_xEventGroupCreateStatic
	.globl	MPU_xEventGroupCreateStatic
	.p2align	1
	.type	MPU_xEventGroupCreateStatic,%function
	.code	16                              @ @MPU_xEventGroupCreateStatic
	.thumb_func
MPU_xEventGroupCreateStatic:
.Lfunc_begin63:
	.loc	3 2007 0 is_stmt 1              @ ../../../../Source/portable/Common/mpu_wrappers.c:2007:0
	.fnstart
	.cfi_startproc
@ %bb.0:
	.save	{r7, lr}
	push	{r7, lr}
	.cfi_def_cfa_offset 8
	.cfi_offset lr, -4
	.cfi_offset r7, -8
	.pad	#8
	sub	sp, #8
	.cfi_def_cfa_offset 16
	str	r0, [sp, #4]
.Ltmp380:
	.loc	3 2010 17 prologue_end          @ ../../../../Source/portable/Common/mpu_wrappers.c:2010:17
	bl	xIsPrivileged
.Ltmp381:
	.loc	3 2010 17 is_stmt 0             @ ../../../../Source/portable/Common/mpu_wrappers.c:2010:17
	cbnz	r0, .LBB63_2
	b	.LBB63_1
.LBB63_1:
.Ltmp382:
	.loc	3 2012 17 is_stmt 1             @ ../../../../Source/portable/Common/mpu_wrappers.c:2012:17
	@APP
	svc	#3

	@NO_APP
	.loc	3 2013 17                       @ ../../../../Source/portable/Common/mpu_wrappers.c:2013:17
	@APP
	@NO_APP
	.loc	3 2015 52                       @ ../../../../Source/portable/Common/mpu_wrappers.c:2015:52
	ldr	r0, [sp, #4]
	.loc	3 2015 27 is_stmt 0             @ ../../../../Source/portable/Common/mpu_wrappers.c:2015:27
	bl	xEventGroupCreateStatic
	.loc	3 2015 25                       @ ../../../../Source/portable/Common/mpu_wrappers.c:2015:25
	str	r0, [sp]
	.loc	3 2016 17 is_stmt 1             @ ../../../../Source/portable/Common/mpu_wrappers.c:2016:17
	@APP
	@NO_APP
	.loc	3 2018 17                       @ ../../../../Source/portable/Common/mpu_wrappers.c:2018:17
	bl	vResetPrivilege
	.loc	3 2019 17                       @ ../../../../Source/portable/Common/mpu_wrappers.c:2019:17
	@APP
	@NO_APP
	.loc	3 2020 13                       @ ../../../../Source/portable/Common/mpu_wrappers.c:2020:13
	b	.LBB63_3
.Ltmp383:
.LBB63_2:
	.loc	3 2023 52                       @ ../../../../Source/portable/Common/mpu_wrappers.c:2023:52
	ldr	r0, [sp, #4]
	.loc	3 2023 27 is_stmt 0             @ ../../../../Source/portable/Common/mpu_wrappers.c:2023:27
	bl	xEventGroupCreateStatic
	.loc	3 2023 25                       @ ../../../../Source/portable/Common/mpu_wrappers.c:2023:25
	str	r0, [sp]
	b	.LBB63_3
.Ltmp384:
.LBB63_3:
	.loc	3 2026 20 is_stmt 1             @ ../../../../Source/portable/Common/mpu_wrappers.c:2026:20
	ldr	r0, [sp]
	.loc	3 2026 13 is_stmt 0             @ ../../../../Source/portable/Common/mpu_wrappers.c:2026:13
	add	sp, #8
	pop	{r7, pc}
.Ltmp385:
.Lfunc_end63:
	.size	MPU_xEventGroupCreateStatic, .Lfunc_end63-MPU_xEventGroupCreateStatic
	.cfi_endproc
	.cantunwind
	.fnend
                                        @ -- End function
	.section	freertos_system_calls,"ax",%progbits
	.hidden	MPU_xEventGroupWaitBits         @ -- Begin function MPU_xEventGroupWaitBits
	.globl	MPU_xEventGroupWaitBits
	.p2align	1
	.type	MPU_xEventGroupWaitBits,%function
	.code	16                              @ @MPU_xEventGroupWaitBits
	.thumb_func
MPU_xEventGroupWaitBits:
.Lfunc_begin64:
	.loc	3 2036 0 is_stmt 1              @ ../../../../Source/portable/Common/mpu_wrappers.c:2036:0
	.fnstart
	.cfi_startproc
@ %bb.0:
	.save	{r4, lr}
	push	{r4, lr}
	.cfi_def_cfa_offset 8
	.cfi_offset lr, -4
	.cfi_offset r4, -8
	.pad	#24
	sub	sp, #24
	.cfi_def_cfa_offset 32
	ldr	r4, [sp, #32]
	str	r0, [sp, #20]
	str	r1, [sp, #16]
	str	r2, [sp, #12]
	str	r3, [sp, #8]
.Ltmp386:
	.loc	3 2039 13 prologue_end          @ ../../../../Source/portable/Common/mpu_wrappers.c:2039:13
	bl	xIsPrivileged
.Ltmp387:
	.loc	3 2039 13 is_stmt 0             @ ../../../../Source/portable/Common/mpu_wrappers.c:2039:13
	cbnz	r0, .LBB64_2
	b	.LBB64_1
.LBB64_1:
.Ltmp388:
	.loc	3 2041 13 is_stmt 1             @ ../../../../Source/portable/Common/mpu_wrappers.c:2041:13
	@APP
	svc	#3

	@NO_APP
	.loc	3 2042 13                       @ ../../../../Source/portable/Common/mpu_wrappers.c:2042:13
	@APP
	@NO_APP
	.loc	3 2044 44                       @ ../../../../Source/portable/Common/mpu_wrappers.c:2044:44
	ldr	r0, [sp, #20]
	.loc	3 2044 57 is_stmt 0             @ ../../../../Source/portable/Common/mpu_wrappers.c:2044:57
	ldr	r1, [sp, #16]
	.loc	3 2044 74                       @ ../../../../Source/portable/Common/mpu_wrappers.c:2044:74
	ldr	r2, [sp, #12]
	.loc	3 2044 88                       @ ../../../../Source/portable/Common/mpu_wrappers.c:2044:88
	ldr	r3, [sp, #8]
	.loc	3 2044 105                      @ ../../../../Source/portable/Common/mpu_wrappers.c:2044:105
	ldr	r4, [sp, #32]
	.loc	3 2044 23                       @ ../../../../Source/portable/Common/mpu_wrappers.c:2044:23
	str	r4, [sp]
	bl	xEventGroupWaitBits
	.loc	3 2044 21                       @ ../../../../Source/portable/Common/mpu_wrappers.c:2044:21
	str	r0, [sp, #4]
	.loc	3 2045 13 is_stmt 1             @ ../../../../Source/portable/Common/mpu_wrappers.c:2045:13
	@APP
	@NO_APP
	.loc	3 2047 13                       @ ../../../../Source/portable/Common/mpu_wrappers.c:2047:13
	bl	vResetPrivilege
	.loc	3 2048 13                       @ ../../../../Source/portable/Common/mpu_wrappers.c:2048:13
	@APP
	@NO_APP
	.loc	3 2049 9                        @ ../../../../Source/portable/Common/mpu_wrappers.c:2049:9
	b	.LBB64_3
.Ltmp389:
.LBB64_2:
	.loc	3 2052 44                       @ ../../../../Source/portable/Common/mpu_wrappers.c:2052:44
	ldr	r0, [sp, #20]
	.loc	3 2052 57 is_stmt 0             @ ../../../../Source/portable/Common/mpu_wrappers.c:2052:57
	ldr	r1, [sp, #16]
	.loc	3 2052 74                       @ ../../../../Source/portable/Common/mpu_wrappers.c:2052:74
	ldr	r2, [sp, #12]
	.loc	3 2052 88                       @ ../../../../Source/portable/Common/mpu_wrappers.c:2052:88
	ldr	r3, [sp, #8]
	.loc	3 2052 105                      @ ../../../../Source/portable/Common/mpu_wrappers.c:2052:105
	ldr	r4, [sp, #32]
	.loc	3 2052 23                       @ ../../../../Source/portable/Common/mpu_wrappers.c:2052:23
	str	r4, [sp]
	bl	xEventGroupWaitBits
	.loc	3 2052 21                       @ ../../../../Source/portable/Common/mpu_wrappers.c:2052:21
	str	r0, [sp, #4]
	b	.LBB64_3
.Ltmp390:
.LBB64_3:
	.loc	3 2055 16 is_stmt 1             @ ../../../../Source/portable/Common/mpu_wrappers.c:2055:16
	ldr	r0, [sp, #4]
	.loc	3 2055 9 is_stmt 0              @ ../../../../Source/portable/Common/mpu_wrappers.c:2055:9
	add	sp, #24
	pop	{r4, pc}
.Ltmp391:
.Lfunc_end64:
	.size	MPU_xEventGroupWaitBits, .Lfunc_end64-MPU_xEventGroupWaitBits
	.cfi_endproc
	.cantunwind
	.fnend
                                        @ -- End function
	.hidden	MPU_xEventGroupClearBits        @ -- Begin function MPU_xEventGroupClearBits
	.globl	MPU_xEventGroupClearBits
	.p2align	1
	.type	MPU_xEventGroupClearBits,%function
	.code	16                              @ @MPU_xEventGroupClearBits
	.thumb_func
MPU_xEventGroupClearBits:
.Lfunc_begin65:
	.loc	3 2061 0 is_stmt 1              @ ../../../../Source/portable/Common/mpu_wrappers.c:2061:0
	.fnstart
	.cfi_startproc
@ %bb.0:
	.save	{r7, lr}
	push	{r7, lr}
	.cfi_def_cfa_offset 8
	.cfi_offset lr, -4
	.cfi_offset r7, -8
	.pad	#16
	sub	sp, #16
	.cfi_def_cfa_offset 24
	str	r0, [sp, #12]
	str	r1, [sp, #8]
.Ltmp392:
	.loc	3 2064 13 prologue_end          @ ../../../../Source/portable/Common/mpu_wrappers.c:2064:13
	bl	xIsPrivileged
.Ltmp393:
	.loc	3 2064 13 is_stmt 0             @ ../../../../Source/portable/Common/mpu_wrappers.c:2064:13
	cbnz	r0, .LBB65_2
	b	.LBB65_1
.LBB65_1:
.Ltmp394:
	.loc	3 2066 13 is_stmt 1             @ ../../../../Source/portable/Common/mpu_wrappers.c:2066:13
	@APP
	svc	#3

	@NO_APP
	.loc	3 2067 13                       @ ../../../../Source/portable/Common/mpu_wrappers.c:2067:13
	@APP
	@NO_APP
	.loc	3 2069 45                       @ ../../../../Source/portable/Common/mpu_wrappers.c:2069:45
	ldr	r0, [sp, #12]
	.loc	3 2069 58 is_stmt 0             @ ../../../../Source/portable/Common/mpu_wrappers.c:2069:58
	ldr	r1, [sp, #8]
	.loc	3 2069 23                       @ ../../../../Source/portable/Common/mpu_wrappers.c:2069:23
	bl	xEventGroupClearBits
	.loc	3 2069 21                       @ ../../../../Source/portable/Common/mpu_wrappers.c:2069:21
	str	r0, [sp, #4]
	.loc	3 2070 13 is_stmt 1             @ ../../../../Source/portable/Common/mpu_wrappers.c:2070:13
	@APP
	@NO_APP
	.loc	3 2072 13                       @ ../../../../Source/portable/Common/mpu_wrappers.c:2072:13
	bl	vResetPrivilege
	.loc	3 2073 13                       @ ../../../../Source/portable/Common/mpu_wrappers.c:2073:13
	@APP
	@NO_APP
	.loc	3 2074 9                        @ ../../../../Source/portable/Common/mpu_wrappers.c:2074:9
	b	.LBB65_3
.Ltmp395:
.LBB65_2:
	.loc	3 2077 45                       @ ../../../../Source/portable/Common/mpu_wrappers.c:2077:45
	ldr	r0, [sp, #12]
	.loc	3 2077 58 is_stmt 0             @ ../../../../Source/portable/Common/mpu_wrappers.c:2077:58
	ldr	r1, [sp, #8]
	.loc	3 2077 23                       @ ../../../../Source/portable/Common/mpu_wrappers.c:2077:23
	bl	xEventGroupClearBits
	.loc	3 2077 21                       @ ../../../../Source/portable/Common/mpu_wrappers.c:2077:21
	str	r0, [sp, #4]
	b	.LBB65_3
.Ltmp396:
.LBB65_3:
	.loc	3 2080 16 is_stmt 1             @ ../../../../Source/portable/Common/mpu_wrappers.c:2080:16
	ldr	r0, [sp, #4]
	.loc	3 2080 9 is_stmt 0              @ ../../../../Source/portable/Common/mpu_wrappers.c:2080:9
	add	sp, #16
	pop	{r7, pc}
.Ltmp397:
.Lfunc_end65:
	.size	MPU_xEventGroupClearBits, .Lfunc_end65-MPU_xEventGroupClearBits
	.cfi_endproc
	.cantunwind
	.fnend
                                        @ -- End function
	.hidden	MPU_xEventGroupSetBits          @ -- Begin function MPU_xEventGroupSetBits
	.globl	MPU_xEventGroupSetBits
	.p2align	1
	.type	MPU_xEventGroupSetBits,%function
	.code	16                              @ @MPU_xEventGroupSetBits
	.thumb_func
MPU_xEventGroupSetBits:
.Lfunc_begin66:
	.loc	3 2086 0 is_stmt 1              @ ../../../../Source/portable/Common/mpu_wrappers.c:2086:0
	.fnstart
	.cfi_startproc
@ %bb.0:
	.save	{r7, lr}
	push	{r7, lr}
	.cfi_def_cfa_offset 8
	.cfi_offset lr, -4
	.cfi_offset r7, -8
	.pad	#16
	sub	sp, #16
	.cfi_def_cfa_offset 24
	str	r0, [sp, #12]
	str	r1, [sp, #8]
.Ltmp398:
	.loc	3 2089 13 prologue_end          @ ../../../../Source/portable/Common/mpu_wrappers.c:2089:13
	bl	xIsPrivileged
.Ltmp399:
	.loc	3 2089 13 is_stmt 0             @ ../../../../Source/portable/Common/mpu_wrappers.c:2089:13
	cbnz	r0, .LBB66_2
	b	.LBB66_1
.LBB66_1:
.Ltmp400:
	.loc	3 2091 13 is_stmt 1             @ ../../../../Source/portable/Common/mpu_wrappers.c:2091:13
	@APP
	svc	#3

	@NO_APP
	.loc	3 2092 13                       @ ../../../../Source/portable/Common/mpu_wrappers.c:2092:13
	@APP
	@NO_APP
	.loc	3 2094 43                       @ ../../../../Source/portable/Common/mpu_wrappers.c:2094:43
	ldr	r0, [sp, #12]
	.loc	3 2094 56 is_stmt 0             @ ../../../../Source/portable/Common/mpu_wrappers.c:2094:56
	ldr	r1, [sp, #8]
	.loc	3 2094 23                       @ ../../../../Source/portable/Common/mpu_wrappers.c:2094:23
	bl	xEventGroupSetBits
	.loc	3 2094 21                       @ ../../../../Source/portable/Common/mpu_wrappers.c:2094:21
	str	r0, [sp, #4]
	.loc	3 2095 13 is_stmt 1             @ ../../../../Source/portable/Common/mpu_wrappers.c:2095:13
	@APP
	@NO_APP
	.loc	3 2097 13                       @ ../../../../Source/portable/Common/mpu_wrappers.c:2097:13
	bl	vResetPrivilege
	.loc	3 2098 13                       @ ../../../../Source/portable/Common/mpu_wrappers.c:2098:13
	@APP
	@NO_APP
	.loc	3 2099 9                        @ ../../../../Source/portable/Common/mpu_wrappers.c:2099:9
	b	.LBB66_3
.Ltmp401:
.LBB66_2:
	.loc	3 2102 43                       @ ../../../../Source/portable/Common/mpu_wrappers.c:2102:43
	ldr	r0, [sp, #12]
	.loc	3 2102 56 is_stmt 0             @ ../../../../Source/portable/Common/mpu_wrappers.c:2102:56
	ldr	r1, [sp, #8]
	.loc	3 2102 23                       @ ../../../../Source/portable/Common/mpu_wrappers.c:2102:23
	bl	xEventGroupSetBits
	.loc	3 2102 21                       @ ../../../../Source/portable/Common/mpu_wrappers.c:2102:21
	str	r0, [sp, #4]
	b	.LBB66_3
.Ltmp402:
.LBB66_3:
	.loc	3 2105 16 is_stmt 1             @ ../../../../Source/portable/Common/mpu_wrappers.c:2105:16
	ldr	r0, [sp, #4]
	.loc	3 2105 9 is_stmt 0              @ ../../../../Source/portable/Common/mpu_wrappers.c:2105:9
	add	sp, #16
	pop	{r7, pc}
.Ltmp403:
.Lfunc_end66:
	.size	MPU_xEventGroupSetBits, .Lfunc_end66-MPU_xEventGroupSetBits
	.cfi_endproc
	.cantunwind
	.fnend
                                        @ -- End function
	.hidden	MPU_xEventGroupSync             @ -- Begin function MPU_xEventGroupSync
	.globl	MPU_xEventGroupSync
	.p2align	1
	.type	MPU_xEventGroupSync,%function
	.code	16                              @ @MPU_xEventGroupSync
	.thumb_func
MPU_xEventGroupSync:
.Lfunc_begin67:
	.loc	3 2113 0 is_stmt 1              @ ../../../../Source/portable/Common/mpu_wrappers.c:2113:0
	.fnstart
	.cfi_startproc
@ %bb.0:
	.save	{r7, lr}
	push	{r7, lr}
	.cfi_def_cfa_offset 8
	.cfi_offset lr, -4
	.cfi_offset r7, -8
	.pad	#24
	sub	sp, #24
	.cfi_def_cfa_offset 32
	str	r0, [sp, #20]
	str	r1, [sp, #16]
	str	r2, [sp, #12]
	str	r3, [sp, #8]
.Ltmp404:
	.loc	3 2116 13 prologue_end          @ ../../../../Source/portable/Common/mpu_wrappers.c:2116:13
	bl	xIsPrivileged
.Ltmp405:
	.loc	3 2116 13 is_stmt 0             @ ../../../../Source/portable/Common/mpu_wrappers.c:2116:13
	cbnz	r0, .LBB67_2
	b	.LBB67_1
.LBB67_1:
.Ltmp406:
	.loc	3 2118 13 is_stmt 1             @ ../../../../Source/portable/Common/mpu_wrappers.c:2118:13
	@APP
	svc	#3

	@NO_APP
	.loc	3 2119 13                       @ ../../../../Source/portable/Common/mpu_wrappers.c:2119:13
	@APP
	@NO_APP
	.loc	3 2121 40                       @ ../../../../Source/portable/Common/mpu_wrappers.c:2121:40
	ldr	r0, [sp, #20]
	.loc	3 2121 53 is_stmt 0             @ ../../../../Source/portable/Common/mpu_wrappers.c:2121:53
	ldr	r1, [sp, #16]
	.loc	3 2121 66                       @ ../../../../Source/portable/Common/mpu_wrappers.c:2121:66
	ldr	r2, [sp, #12]
	.loc	3 2121 83                       @ ../../../../Source/portable/Common/mpu_wrappers.c:2121:83
	ldr	r3, [sp, #8]
	.loc	3 2121 23                       @ ../../../../Source/portable/Common/mpu_wrappers.c:2121:23
	bl	xEventGroupSync
	.loc	3 2121 21                       @ ../../../../Source/portable/Common/mpu_wrappers.c:2121:21
	str	r0, [sp, #4]
	.loc	3 2122 13 is_stmt 1             @ ../../../../Source/portable/Common/mpu_wrappers.c:2122:13
	@APP
	@NO_APP
	.loc	3 2124 13                       @ ../../../../Source/portable/Common/mpu_wrappers.c:2124:13
	bl	vResetPrivilege
	.loc	3 2125 13                       @ ../../../../Source/portable/Common/mpu_wrappers.c:2125:13
	@APP
	@NO_APP
	.loc	3 2126 9                        @ ../../../../Source/portable/Common/mpu_wrappers.c:2126:9
	b	.LBB67_3
.Ltmp407:
.LBB67_2:
	.loc	3 2129 40                       @ ../../../../Source/portable/Common/mpu_wrappers.c:2129:40
	ldr	r0, [sp, #20]
	.loc	3 2129 53 is_stmt 0             @ ../../../../Source/portable/Common/mpu_wrappers.c:2129:53
	ldr	r1, [sp, #16]
	.loc	3 2129 66                       @ ../../../../Source/portable/Common/mpu_wrappers.c:2129:66
	ldr	r2, [sp, #12]
	.loc	3 2129 83                       @ ../../../../Source/portable/Common/mpu_wrappers.c:2129:83
	ldr	r3, [sp, #8]
	.loc	3 2129 23                       @ ../../../../Source/portable/Common/mpu_wrappers.c:2129:23
	bl	xEventGroupSync
	.loc	3 2129 21                       @ ../../../../Source/portable/Common/mpu_wrappers.c:2129:21
	str	r0, [sp, #4]
	b	.LBB67_3
.Ltmp408:
.LBB67_3:
	.loc	3 2132 16 is_stmt 1             @ ../../../../Source/portable/Common/mpu_wrappers.c:2132:16
	ldr	r0, [sp, #4]
	.loc	3 2132 9 is_stmt 0              @ ../../../../Source/portable/Common/mpu_wrappers.c:2132:9
	add	sp, #24
	pop	{r7, pc}
.Ltmp409:
.Lfunc_end67:
	.size	MPU_xEventGroupSync, .Lfunc_end67-MPU_xEventGroupSync
	.cfi_endproc
	.cantunwind
	.fnend
                                        @ -- End function
	.section	privileged_functions,"ax",%progbits
	.hidden	MPU_vEventGroupDelete           @ -- Begin function MPU_vEventGroupDelete
	.globl	MPU_vEventGroupDelete
	.p2align	1
	.type	MPU_vEventGroupDelete,%function
	.code	16                              @ @MPU_vEventGroupDelete
	.thumb_func
MPU_vEventGroupDelete:
.Lfunc_begin68:
	.loc	3 2137 0 is_stmt 1              @ ../../../../Source/portable/Common/mpu_wrappers.c:2137:0
	.fnstart
	.cfi_startproc
@ %bb.0:
	.save	{r7, lr}
	push	{r7, lr}
	.cfi_def_cfa_offset 8
	.cfi_offset lr, -4
	.cfi_offset r7, -8
	.pad	#8
	sub	sp, #8
	.cfi_def_cfa_offset 16
	str	r0, [sp, #4]
.Ltmp410:
	.loc	3 2138 13 prologue_end          @ ../../../../Source/portable/Common/mpu_wrappers.c:2138:13
	bl	xIsPrivileged
.Ltmp411:
	.loc	3 2138 13 is_stmt 0             @ ../../../../Source/portable/Common/mpu_wrappers.c:2138:13
	cbnz	r0, .LBB68_2
	b	.LBB68_1
.LBB68_1:
.Ltmp412:
	.loc	3 2140 13 is_stmt 1             @ ../../../../Source/portable/Common/mpu_wrappers.c:2140:13
	@APP
	svc	#3

	@NO_APP
	.loc	3 2141 13                       @ ../../../../Source/portable/Common/mpu_wrappers.c:2141:13
	@APP
	@NO_APP
	.loc	3 2143 32                       @ ../../../../Source/portable/Common/mpu_wrappers.c:2143:32
	ldr	r0, [sp, #4]
	.loc	3 2143 13 is_stmt 0             @ ../../../../Source/portable/Common/mpu_wrappers.c:2143:13
	bl	vEventGroupDelete
	.loc	3 2144 13 is_stmt 1             @ ../../../../Source/portable/Common/mpu_wrappers.c:2144:13
	@APP
	@NO_APP
	.loc	3 2146 13                       @ ../../../../Source/portable/Common/mpu_wrappers.c:2146:13
	bl	vResetPrivilege
	.loc	3 2147 13                       @ ../../../../Source/portable/Common/mpu_wrappers.c:2147:13
	@APP
	@NO_APP
	.loc	3 2148 9                        @ ../../../../Source/portable/Common/mpu_wrappers.c:2148:9
	b	.LBB68_3
.Ltmp413:
.LBB68_2:
	.loc	3 2151 32                       @ ../../../../Source/portable/Common/mpu_wrappers.c:2151:32
	ldr	r0, [sp, #4]
	.loc	3 2151 13 is_stmt 0             @ ../../../../Source/portable/Common/mpu_wrappers.c:2151:13
	bl	vEventGroupDelete
	b	.LBB68_3
.Ltmp414:
.LBB68_3:
	.loc	3 2153 5 is_stmt 1              @ ../../../../Source/portable/Common/mpu_wrappers.c:2153:5
	add	sp, #8
	pop	{r7, pc}
.Ltmp415:
.Lfunc_end68:
	.size	MPU_vEventGroupDelete, .Lfunc_end68-MPU_vEventGroupDelete
	.cfi_endproc
	.cantunwind
	.fnend
                                        @ -- End function
	.section	freertos_system_calls,"ax",%progbits
	.hidden	MPU_xStreamBufferSend           @ -- Begin function MPU_xStreamBufferSend
	.globl	MPU_xStreamBufferSend
	.p2align	1
	.type	MPU_xStreamBufferSend,%function
	.code	16                              @ @MPU_xStreamBufferSend
	.thumb_func
MPU_xStreamBufferSend:
.Lfunc_begin69:
	.loc	3 2160 0                        @ ../../../../Source/portable/Common/mpu_wrappers.c:2160:0
	.fnstart
	.cfi_startproc
@ %bb.0:
	.save	{r7, lr}
	push	{r7, lr}
	.cfi_def_cfa_offset 8
	.cfi_offset lr, -4
	.cfi_offset r7, -8
	.pad	#24
	sub	sp, #24
	.cfi_def_cfa_offset 32
	str	r0, [sp, #20]
	str	r1, [sp, #16]
	str	r2, [sp, #12]
	str	r3, [sp, #8]
.Ltmp416:
	.loc	3 2163 13 prologue_end          @ ../../../../Source/portable/Common/mpu_wrappers.c:2163:13
	bl	xIsPrivileged
.Ltmp417:
	.loc	3 2163 13 is_stmt 0             @ ../../../../Source/portable/Common/mpu_wrappers.c:2163:13
	cbnz	r0, .LBB69_2
	b	.LBB69_1
.LBB69_1:
.Ltmp418:
	.loc	3 2165 13 is_stmt 1             @ ../../../../Source/portable/Common/mpu_wrappers.c:2165:13
	@APP
	svc	#3

	@NO_APP
	.loc	3 2166 13                       @ ../../../../Source/portable/Common/mpu_wrappers.c:2166:13
	@APP
	@NO_APP
	.loc	3 2168 42                       @ ../../../../Source/portable/Common/mpu_wrappers.c:2168:42
	ldr	r0, [sp, #20]
	.loc	3 2168 57 is_stmt 0             @ ../../../../Source/portable/Common/mpu_wrappers.c:2168:57
	ldr	r1, [sp, #16]
	.loc	3 2168 67                       @ ../../../../Source/portable/Common/mpu_wrappers.c:2168:67
	ldr	r2, [sp, #12]
	.loc	3 2168 85                       @ ../../../../Source/portable/Common/mpu_wrappers.c:2168:85
	ldr	r3, [sp, #8]
	.loc	3 2168 23                       @ ../../../../Source/portable/Common/mpu_wrappers.c:2168:23
	bl	xStreamBufferSend
	.loc	3 2168 21                       @ ../../../../Source/portable/Common/mpu_wrappers.c:2168:21
	str	r0, [sp, #4]
	.loc	3 2169 13 is_stmt 1             @ ../../../../Source/portable/Common/mpu_wrappers.c:2169:13
	@APP
	@NO_APP
	.loc	3 2171 13                       @ ../../../../Source/portable/Common/mpu_wrappers.c:2171:13
	bl	vResetPrivilege
	.loc	3 2172 13                       @ ../../../../Source/portable/Common/mpu_wrappers.c:2172:13
	@APP
	@NO_APP
	.loc	3 2173 9                        @ ../../../../Source/portable/Common/mpu_wrappers.c:2173:9
	b	.LBB69_3
.Ltmp419:
.LBB69_2:
	.loc	3 2176 42                       @ ../../../../Source/portable/Common/mpu_wrappers.c:2176:42
	ldr	r0, [sp, #20]
	.loc	3 2176 57 is_stmt 0             @ ../../../../Source/portable/Common/mpu_wrappers.c:2176:57
	ldr	r1, [sp, #16]
	.loc	3 2176 67                       @ ../../../../Source/portable/Common/mpu_wrappers.c:2176:67
	ldr	r2, [sp, #12]
	.loc	3 2176 85                       @ ../../../../Source/portable/Common/mpu_wrappers.c:2176:85
	ldr	r3, [sp, #8]
	.loc	3 2176 23                       @ ../../../../Source/portable/Common/mpu_wrappers.c:2176:23
	bl	xStreamBufferSend
	.loc	3 2176 21                       @ ../../../../Source/portable/Common/mpu_wrappers.c:2176:21
	str	r0, [sp, #4]
	b	.LBB69_3
.Ltmp420:
.LBB69_3:
	.loc	3 2179 16 is_stmt 1             @ ../../../../Source/portable/Common/mpu_wrappers.c:2179:16
	ldr	r0, [sp, #4]
	.loc	3 2179 9 is_stmt 0              @ ../../../../Source/portable/Common/mpu_wrappers.c:2179:9
	add	sp, #24
	pop	{r7, pc}
.Ltmp421:
.Lfunc_end69:
	.size	MPU_xStreamBufferSend, .Lfunc_end69-MPU_xStreamBufferSend
	.cfi_endproc
	.cantunwind
	.fnend
                                        @ -- End function
	.hidden	MPU_xStreamBufferNextMessageLengthBytes @ -- Begin function MPU_xStreamBufferNextMessageLengthBytes
	.globl	MPU_xStreamBufferNextMessageLengthBytes
	.p2align	1
	.type	MPU_xStreamBufferNextMessageLengthBytes,%function
	.code	16                              @ @MPU_xStreamBufferNextMessageLengthBytes
	.thumb_func
MPU_xStreamBufferNextMessageLengthBytes:
.Lfunc_begin70:
	.loc	3 2184 0 is_stmt 1              @ ../../../../Source/portable/Common/mpu_wrappers.c:2184:0
	.fnstart
	.cfi_startproc
@ %bb.0:
	.save	{r7, lr}
	push	{r7, lr}
	.cfi_def_cfa_offset 8
	.cfi_offset lr, -4
	.cfi_offset r7, -8
	.pad	#8
	sub	sp, #8
	.cfi_def_cfa_offset 16
	str	r0, [sp, #4]
.Ltmp422:
	.loc	3 2187 13 prologue_end          @ ../../../../Source/portable/Common/mpu_wrappers.c:2187:13
	bl	xIsPrivileged
.Ltmp423:
	.loc	3 2187 13 is_stmt 0             @ ../../../../Source/portable/Common/mpu_wrappers.c:2187:13
	cbnz	r0, .LBB70_2
	b	.LBB70_1
.LBB70_1:
.Ltmp424:
	.loc	3 2189 13 is_stmt 1             @ ../../../../Source/portable/Common/mpu_wrappers.c:2189:13
	@APP
	svc	#3

	@NO_APP
	.loc	3 2190 13                       @ ../../../../Source/portable/Common/mpu_wrappers.c:2190:13
	@APP
	@NO_APP
	.loc	3 2192 60                       @ ../../../../Source/portable/Common/mpu_wrappers.c:2192:60
	ldr	r0, [sp, #4]
	.loc	3 2192 23 is_stmt 0             @ ../../../../Source/portable/Common/mpu_wrappers.c:2192:23
	bl	xStreamBufferNextMessageLengthBytes
	.loc	3 2192 21                       @ ../../../../Source/portable/Common/mpu_wrappers.c:2192:21
	str	r0, [sp]
	.loc	3 2193 13 is_stmt 1             @ ../../../../Source/portable/Common/mpu_wrappers.c:2193:13
	@APP
	@NO_APP
	.loc	3 2195 13                       @ ../../../../Source/portable/Common/mpu_wrappers.c:2195:13
	bl	vResetPrivilege
	.loc	3 2196 13                       @ ../../../../Source/portable/Common/mpu_wrappers.c:2196:13
	@APP
	@NO_APP
	.loc	3 2197 9                        @ ../../../../Source/portable/Common/mpu_wrappers.c:2197:9
	b	.LBB70_3
.Ltmp425:
.LBB70_2:
	.loc	3 2200 60                       @ ../../../../Source/portable/Common/mpu_wrappers.c:2200:60
	ldr	r0, [sp, #4]
	.loc	3 2200 23 is_stmt 0             @ ../../../../Source/portable/Common/mpu_wrappers.c:2200:23
	bl	xStreamBufferNextMessageLengthBytes
	.loc	3 2200 21                       @ ../../../../Source/portable/Common/mpu_wrappers.c:2200:21
	str	r0, [sp]
	b	.LBB70_3
.Ltmp426:
.LBB70_3:
	.loc	3 2203 16 is_stmt 1             @ ../../../../Source/portable/Common/mpu_wrappers.c:2203:16
	ldr	r0, [sp]
	.loc	3 2203 9 is_stmt 0              @ ../../../../Source/portable/Common/mpu_wrappers.c:2203:9
	add	sp, #8
	pop	{r7, pc}
.Ltmp427:
.Lfunc_end70:
	.size	MPU_xStreamBufferNextMessageLengthBytes, .Lfunc_end70-MPU_xStreamBufferNextMessageLengthBytes
	.cfi_endproc
	.cantunwind
	.fnend
                                        @ -- End function
	.hidden	MPU_xStreamBufferReceive        @ -- Begin function MPU_xStreamBufferReceive
	.globl	MPU_xStreamBufferReceive
	.p2align	1
	.type	MPU_xStreamBufferReceive,%function
	.code	16                              @ @MPU_xStreamBufferReceive
	.thumb_func
MPU_xStreamBufferReceive:
.Lfunc_begin71:
	.loc	3 2211 0 is_stmt 1              @ ../../../../Source/portable/Common/mpu_wrappers.c:2211:0
	.fnstart
	.cfi_startproc
@ %bb.0:
	.save	{r7, lr}
	push	{r7, lr}
	.cfi_def_cfa_offset 8
	.cfi_offset lr, -4
	.cfi_offset r7, -8
	.pad	#24
	sub	sp, #24
	.cfi_def_cfa_offset 32
	str	r0, [sp, #20]
	str	r1, [sp, #16]
	str	r2, [sp, #12]
	str	r3, [sp, #8]
.Ltmp428:
	.loc	3 2214 13 prologue_end          @ ../../../../Source/portable/Common/mpu_wrappers.c:2214:13
	bl	xIsPrivileged
.Ltmp429:
	.loc	3 2214 13 is_stmt 0             @ ../../../../Source/portable/Common/mpu_wrappers.c:2214:13
	cbnz	r0, .LBB71_2
	b	.LBB71_1
.LBB71_1:
.Ltmp430:
	.loc	3 2216 13 is_stmt 1             @ ../../../../Source/portable/Common/mpu_wrappers.c:2216:13
	@APP
	svc	#3

	@NO_APP
	.loc	3 2217 13                       @ ../../../../Source/portable/Common/mpu_wrappers.c:2217:13
	@APP
	@NO_APP
	.loc	3 2219 45                       @ ../../../../Source/portable/Common/mpu_wrappers.c:2219:45
	ldr	r0, [sp, #20]
	.loc	3 2219 60 is_stmt 0             @ ../../../../Source/portable/Common/mpu_wrappers.c:2219:60
	ldr	r1, [sp, #16]
	.loc	3 2219 70                       @ ../../../../Source/portable/Common/mpu_wrappers.c:2219:70
	ldr	r2, [sp, #12]
	.loc	3 2219 90                       @ ../../../../Source/portable/Common/mpu_wrappers.c:2219:90
	ldr	r3, [sp, #8]
	.loc	3 2219 23                       @ ../../../../Source/portable/Common/mpu_wrappers.c:2219:23
	bl	xStreamBufferReceive
	.loc	3 2219 21                       @ ../../../../Source/portable/Common/mpu_wrappers.c:2219:21
	str	r0, [sp, #4]
	.loc	3 2220 13 is_stmt 1             @ ../../../../Source/portable/Common/mpu_wrappers.c:2220:13
	@APP
	@NO_APP
	.loc	3 2222 13                       @ ../../../../Source/portable/Common/mpu_wrappers.c:2222:13
	bl	vResetPrivilege
	.loc	3 2223 13                       @ ../../../../Source/portable/Common/mpu_wrappers.c:2223:13
	@APP
	@NO_APP
	.loc	3 2224 9                        @ ../../../../Source/portable/Common/mpu_wrappers.c:2224:9
	b	.LBB71_3
.Ltmp431:
.LBB71_2:
	.loc	3 2227 45                       @ ../../../../Source/portable/Common/mpu_wrappers.c:2227:45
	ldr	r0, [sp, #20]
	.loc	3 2227 60 is_stmt 0             @ ../../../../Source/portable/Common/mpu_wrappers.c:2227:60
	ldr	r1, [sp, #16]
	.loc	3 2227 70                       @ ../../../../Source/portable/Common/mpu_wrappers.c:2227:70
	ldr	r2, [sp, #12]
	.loc	3 2227 90                       @ ../../../../Source/portable/Common/mpu_wrappers.c:2227:90
	ldr	r3, [sp, #8]
	.loc	3 2227 23                       @ ../../../../Source/portable/Common/mpu_wrappers.c:2227:23
	bl	xStreamBufferReceive
	.loc	3 2227 21                       @ ../../../../Source/portable/Common/mpu_wrappers.c:2227:21
	str	r0, [sp, #4]
	b	.LBB71_3
.Ltmp432:
.LBB71_3:
	.loc	3 2230 16 is_stmt 1             @ ../../../../Source/portable/Common/mpu_wrappers.c:2230:16
	ldr	r0, [sp, #4]
	.loc	3 2230 9 is_stmt 0              @ ../../../../Source/portable/Common/mpu_wrappers.c:2230:9
	add	sp, #24
	pop	{r7, pc}
.Ltmp433:
.Lfunc_end71:
	.size	MPU_xStreamBufferReceive, .Lfunc_end71-MPU_xStreamBufferReceive
	.cfi_endproc
	.cantunwind
	.fnend
                                        @ -- End function
	.section	privileged_functions,"ax",%progbits
	.hidden	MPU_vStreamBufferDelete         @ -- Begin function MPU_vStreamBufferDelete
	.globl	MPU_vStreamBufferDelete
	.p2align	1
	.type	MPU_vStreamBufferDelete,%function
	.code	16                              @ @MPU_vStreamBufferDelete
	.thumb_func
MPU_vStreamBufferDelete:
.Lfunc_begin72:
	.loc	3 2235 0 is_stmt 1              @ ../../../../Source/portable/Common/mpu_wrappers.c:2235:0
	.fnstart
	.cfi_startproc
@ %bb.0:
	.save	{r7, lr}
	push	{r7, lr}
	.cfi_def_cfa_offset 8
	.cfi_offset lr, -4
	.cfi_offset r7, -8
	.pad	#8
	sub	sp, #8
	.cfi_def_cfa_offset 16
	str	r0, [sp, #4]
.Ltmp434:
	.loc	3 2236 13 prologue_end          @ ../../../../Source/portable/Common/mpu_wrappers.c:2236:13
	bl	xIsPrivileged
.Ltmp435:
	.loc	3 2236 13 is_stmt 0             @ ../../../../Source/portable/Common/mpu_wrappers.c:2236:13
	cbnz	r0, .LBB72_2
	b	.LBB72_1
.LBB72_1:
.Ltmp436:
	.loc	3 2238 13 is_stmt 1             @ ../../../../Source/portable/Common/mpu_wrappers.c:2238:13
	@APP
	svc	#3

	@NO_APP
	.loc	3 2239 13                       @ ../../../../Source/portable/Common/mpu_wrappers.c:2239:13
	@APP
	@NO_APP
	.loc	3 2241 34                       @ ../../../../Source/portable/Common/mpu_wrappers.c:2241:34
	ldr	r0, [sp, #4]
	.loc	3 2241 13 is_stmt 0             @ ../../../../Source/portable/Common/mpu_wrappers.c:2241:13
	bl	vStreamBufferDelete
	.loc	3 2242 13 is_stmt 1             @ ../../../../Source/portable/Common/mpu_wrappers.c:2242:13
	@APP
	@NO_APP
	.loc	3 2244 13                       @ ../../../../Source/portable/Common/mpu_wrappers.c:2244:13
	bl	vResetPrivilege
	.loc	3 2245 13                       @ ../../../../Source/portable/Common/mpu_wrappers.c:2245:13
	@APP
	@NO_APP
	.loc	3 2246 9                        @ ../../../../Source/portable/Common/mpu_wrappers.c:2246:9
	b	.LBB72_3
.Ltmp437:
.LBB72_2:
	.loc	3 2249 34                       @ ../../../../Source/portable/Common/mpu_wrappers.c:2249:34
	ldr	r0, [sp, #4]
	.loc	3 2249 13 is_stmt 0             @ ../../../../Source/portable/Common/mpu_wrappers.c:2249:13
	bl	vStreamBufferDelete
	b	.LBB72_3
.Ltmp438:
.LBB72_3:
	.loc	3 2251 5 is_stmt 1              @ ../../../../Source/portable/Common/mpu_wrappers.c:2251:5
	add	sp, #8
	pop	{r7, pc}
.Ltmp439:
.Lfunc_end72:
	.size	MPU_vStreamBufferDelete, .Lfunc_end72-MPU_vStreamBufferDelete
	.cfi_endproc
	.cantunwind
	.fnend
                                        @ -- End function
	.section	freertos_system_calls,"ax",%progbits
	.hidden	MPU_xStreamBufferIsFull         @ -- Begin function MPU_xStreamBufferIsFull
	.globl	MPU_xStreamBufferIsFull
	.p2align	1
	.type	MPU_xStreamBufferIsFull,%function
	.code	16                              @ @MPU_xStreamBufferIsFull
	.thumb_func
MPU_xStreamBufferIsFull:
.Lfunc_begin73:
	.loc	3 2255 0                        @ ../../../../Source/portable/Common/mpu_wrappers.c:2255:0
	.fnstart
	.cfi_startproc
@ %bb.0:
	.save	{r7, lr}
	push	{r7, lr}
	.cfi_def_cfa_offset 8
	.cfi_offset lr, -4
	.cfi_offset r7, -8
	.pad	#8
	sub	sp, #8
	.cfi_def_cfa_offset 16
	str	r0, [sp, #4]
.Ltmp440:
	.loc	3 2258 13 prologue_end          @ ../../../../Source/portable/Common/mpu_wrappers.c:2258:13
	bl	xIsPrivileged
.Ltmp441:
	.loc	3 2258 13 is_stmt 0             @ ../../../../Source/portable/Common/mpu_wrappers.c:2258:13
	cbnz	r0, .LBB73_2
	b	.LBB73_1
.LBB73_1:
.Ltmp442:
	.loc	3 2260 13 is_stmt 1             @ ../../../../Source/portable/Common/mpu_wrappers.c:2260:13
	@APP
	svc	#3

	@NO_APP
	.loc	3 2261 13                       @ ../../../../Source/portable/Common/mpu_wrappers.c:2261:13
	@APP
	@NO_APP
	.loc	3 2263 44                       @ ../../../../Source/portable/Common/mpu_wrappers.c:2263:44
	ldr	r0, [sp, #4]
	.loc	3 2263 23 is_stmt 0             @ ../../../../Source/portable/Common/mpu_wrappers.c:2263:23
	bl	xStreamBufferIsFull
	.loc	3 2263 21                       @ ../../../../Source/portable/Common/mpu_wrappers.c:2263:21
	str	r0, [sp]
	.loc	3 2264 13 is_stmt 1             @ ../../../../Source/portable/Common/mpu_wrappers.c:2264:13
	@APP
	@NO_APP
	.loc	3 2266 13                       @ ../../../../Source/portable/Common/mpu_wrappers.c:2266:13
	bl	vResetPrivilege
	.loc	3 2267 13                       @ ../../../../Source/portable/Common/mpu_wrappers.c:2267:13
	@APP
	@NO_APP
	.loc	3 2268 9                        @ ../../../../Source/portable/Common/mpu_wrappers.c:2268:9
	b	.LBB73_3
.Ltmp443:
.LBB73_2:
	.loc	3 2271 44                       @ ../../../../Source/portable/Common/mpu_wrappers.c:2271:44
	ldr	r0, [sp, #4]
	.loc	3 2271 23 is_stmt 0             @ ../../../../Source/portable/Common/mpu_wrappers.c:2271:23
	bl	xStreamBufferIsFull
	.loc	3 2271 21                       @ ../../../../Source/portable/Common/mpu_wrappers.c:2271:21
	str	r0, [sp]
	b	.LBB73_3
.Ltmp444:
.LBB73_3:
	.loc	3 2274 16 is_stmt 1             @ ../../../../Source/portable/Common/mpu_wrappers.c:2274:16
	ldr	r0, [sp]
	.loc	3 2274 9 is_stmt 0              @ ../../../../Source/portable/Common/mpu_wrappers.c:2274:9
	add	sp, #8
	pop	{r7, pc}
.Ltmp445:
.Lfunc_end73:
	.size	MPU_xStreamBufferIsFull, .Lfunc_end73-MPU_xStreamBufferIsFull
	.cfi_endproc
	.cantunwind
	.fnend
                                        @ -- End function
	.hidden	MPU_xStreamBufferIsEmpty        @ -- Begin function MPU_xStreamBufferIsEmpty
	.globl	MPU_xStreamBufferIsEmpty
	.p2align	1
	.type	MPU_xStreamBufferIsEmpty,%function
	.code	16                              @ @MPU_xStreamBufferIsEmpty
	.thumb_func
MPU_xStreamBufferIsEmpty:
.Lfunc_begin74:
	.loc	3 2279 0 is_stmt 1              @ ../../../../Source/portable/Common/mpu_wrappers.c:2279:0
	.fnstart
	.cfi_startproc
@ %bb.0:
	.save	{r7, lr}
	push	{r7, lr}
	.cfi_def_cfa_offset 8
	.cfi_offset lr, -4
	.cfi_offset r7, -8
	.pad	#8
	sub	sp, #8
	.cfi_def_cfa_offset 16
	str	r0, [sp, #4]
.Ltmp446:
	.loc	3 2282 13 prologue_end          @ ../../../../Source/portable/Common/mpu_wrappers.c:2282:13
	bl	xIsPrivileged
.Ltmp447:
	.loc	3 2282 13 is_stmt 0             @ ../../../../Source/portable/Common/mpu_wrappers.c:2282:13
	cbnz	r0, .LBB74_2
	b	.LBB74_1
.LBB74_1:
.Ltmp448:
	.loc	3 2284 13 is_stmt 1             @ ../../../../Source/portable/Common/mpu_wrappers.c:2284:13
	@APP
	svc	#3

	@NO_APP
	.loc	3 2285 13                       @ ../../../../Source/portable/Common/mpu_wrappers.c:2285:13
	@APP
	@NO_APP
	.loc	3 2287 45                       @ ../../../../Source/portable/Common/mpu_wrappers.c:2287:45
	ldr	r0, [sp, #4]
	.loc	3 2287 23 is_stmt 0             @ ../../../../Source/portable/Common/mpu_wrappers.c:2287:23
	bl	xStreamBufferIsEmpty
	.loc	3 2287 21                       @ ../../../../Source/portable/Common/mpu_wrappers.c:2287:21
	str	r0, [sp]
	.loc	3 2288 13 is_stmt 1             @ ../../../../Source/portable/Common/mpu_wrappers.c:2288:13
	@APP
	@NO_APP
	.loc	3 2290 13                       @ ../../../../Source/portable/Common/mpu_wrappers.c:2290:13
	bl	vResetPrivilege
	.loc	3 2291 13                       @ ../../../../Source/portable/Common/mpu_wrappers.c:2291:13
	@APP
	@NO_APP
	.loc	3 2292 9                        @ ../../../../Source/portable/Common/mpu_wrappers.c:2292:9
	b	.LBB74_3
.Ltmp449:
.LBB74_2:
	.loc	3 2295 45                       @ ../../../../Source/portable/Common/mpu_wrappers.c:2295:45
	ldr	r0, [sp, #4]
	.loc	3 2295 23 is_stmt 0             @ ../../../../Source/portable/Common/mpu_wrappers.c:2295:23
	bl	xStreamBufferIsEmpty
	.loc	3 2295 21                       @ ../../../../Source/portable/Common/mpu_wrappers.c:2295:21
	str	r0, [sp]
	b	.LBB74_3
.Ltmp450:
.LBB74_3:
	.loc	3 2298 16 is_stmt 1             @ ../../../../Source/portable/Common/mpu_wrappers.c:2298:16
	ldr	r0, [sp]
	.loc	3 2298 9 is_stmt 0              @ ../../../../Source/portable/Common/mpu_wrappers.c:2298:9
	add	sp, #8
	pop	{r7, pc}
.Ltmp451:
.Lfunc_end74:
	.size	MPU_xStreamBufferIsEmpty, .Lfunc_end74-MPU_xStreamBufferIsEmpty
	.cfi_endproc
	.cantunwind
	.fnend
                                        @ -- End function
	.section	privileged_functions,"ax",%progbits
	.hidden	MPU_xStreamBufferReset          @ -- Begin function MPU_xStreamBufferReset
	.globl	MPU_xStreamBufferReset
	.p2align	1
	.type	MPU_xStreamBufferReset,%function
	.code	16                              @ @MPU_xStreamBufferReset
	.thumb_func
MPU_xStreamBufferReset:
.Lfunc_begin75:
	.loc	3 2303 0 is_stmt 1              @ ../../../../Source/portable/Common/mpu_wrappers.c:2303:0
	.fnstart
	.cfi_startproc
@ %bb.0:
	.save	{r7, lr}
	push	{r7, lr}
	.cfi_def_cfa_offset 8
	.cfi_offset lr, -4
	.cfi_offset r7, -8
	.pad	#8
	sub	sp, #8
	.cfi_def_cfa_offset 16
	str	r0, [sp, #4]
.Ltmp452:
	.loc	3 2306 13 prologue_end          @ ../../../../Source/portable/Common/mpu_wrappers.c:2306:13
	bl	xIsPrivileged
.Ltmp453:
	.loc	3 2306 13 is_stmt 0             @ ../../../../Source/portable/Common/mpu_wrappers.c:2306:13
	cbnz	r0, .LBB75_2
	b	.LBB75_1
.LBB75_1:
.Ltmp454:
	.loc	3 2308 13 is_stmt 1             @ ../../../../Source/portable/Common/mpu_wrappers.c:2308:13
	@APP
	svc	#3

	@NO_APP
	.loc	3 2309 13                       @ ../../../../Source/portable/Common/mpu_wrappers.c:2309:13
	@APP
	@NO_APP
	.loc	3 2311 43                       @ ../../../../Source/portable/Common/mpu_wrappers.c:2311:43
	ldr	r0, [sp, #4]
	.loc	3 2311 23 is_stmt 0             @ ../../../../Source/portable/Common/mpu_wrappers.c:2311:23
	bl	xStreamBufferReset
	.loc	3 2311 21                       @ ../../../../Source/portable/Common/mpu_wrappers.c:2311:21
	str	r0, [sp]
	.loc	3 2312 13 is_stmt 1             @ ../../../../Source/portable/Common/mpu_wrappers.c:2312:13
	@APP
	@NO_APP
	.loc	3 2314 13                       @ ../../../../Source/portable/Common/mpu_wrappers.c:2314:13
	bl	vResetPrivilege
	.loc	3 2315 13                       @ ../../../../Source/portable/Common/mpu_wrappers.c:2315:13
	@APP
	@NO_APP
	.loc	3 2316 9                        @ ../../../../Source/portable/Common/mpu_wrappers.c:2316:9
	b	.LBB75_3
.Ltmp455:
.LBB75_2:
	.loc	3 2319 43                       @ ../../../../Source/portable/Common/mpu_wrappers.c:2319:43
	ldr	r0, [sp, #4]
	.loc	3 2319 23 is_stmt 0             @ ../../../../Source/portable/Common/mpu_wrappers.c:2319:23
	bl	xStreamBufferReset
	.loc	3 2319 21                       @ ../../../../Source/portable/Common/mpu_wrappers.c:2319:21
	str	r0, [sp]
	b	.LBB75_3
.Ltmp456:
.LBB75_3:
	.loc	3 2322 16 is_stmt 1             @ ../../../../Source/portable/Common/mpu_wrappers.c:2322:16
	ldr	r0, [sp]
	.loc	3 2322 9 is_stmt 0              @ ../../../../Source/portable/Common/mpu_wrappers.c:2322:9
	add	sp, #8
	pop	{r7, pc}
.Ltmp457:
.Lfunc_end75:
	.size	MPU_xStreamBufferReset, .Lfunc_end75-MPU_xStreamBufferReset
	.cfi_endproc
	.cantunwind
	.fnend
                                        @ -- End function
	.section	freertos_system_calls,"ax",%progbits
	.hidden	MPU_xStreamBufferSpacesAvailable @ -- Begin function MPU_xStreamBufferSpacesAvailable
	.globl	MPU_xStreamBufferSpacesAvailable
	.p2align	1
	.type	MPU_xStreamBufferSpacesAvailable,%function
	.code	16                              @ @MPU_xStreamBufferSpacesAvailable
	.thumb_func
MPU_xStreamBufferSpacesAvailable:
.Lfunc_begin76:
	.loc	3 2327 0 is_stmt 1              @ ../../../../Source/portable/Common/mpu_wrappers.c:2327:0
	.fnstart
	.cfi_startproc
@ %bb.0:
	.save	{r7, lr}
	push	{r7, lr}
	.cfi_def_cfa_offset 8
	.cfi_offset lr, -4
	.cfi_offset r7, -8
	.pad	#8
	sub	sp, #8
	.cfi_def_cfa_offset 16
	str	r0, [sp, #4]
.Ltmp458:
	.loc	3 2330 13 prologue_end          @ ../../../../Source/portable/Common/mpu_wrappers.c:2330:13
	bl	xIsPrivileged
.Ltmp459:
	.loc	3 2330 13 is_stmt 0             @ ../../../../Source/portable/Common/mpu_wrappers.c:2330:13
	cbnz	r0, .LBB76_2
	b	.LBB76_1
.LBB76_1:
.Ltmp460:
	.loc	3 2332 13 is_stmt 1             @ ../../../../Source/portable/Common/mpu_wrappers.c:2332:13
	@APP
	svc	#3

	@NO_APP
	.loc	3 2333 13                       @ ../../../../Source/portable/Common/mpu_wrappers.c:2333:13
	@APP
	@NO_APP
	.loc	3 2334 53                       @ ../../../../Source/portable/Common/mpu_wrappers.c:2334:53
	ldr	r0, [sp, #4]
	.loc	3 2334 23 is_stmt 0             @ ../../../../Source/portable/Common/mpu_wrappers.c:2334:23
	bl	xStreamBufferSpacesAvailable
	.loc	3 2334 21                       @ ../../../../Source/portable/Common/mpu_wrappers.c:2334:21
	str	r0, [sp]
	.loc	3 2335 13 is_stmt 1             @ ../../../../Source/portable/Common/mpu_wrappers.c:2335:13
	@APP
	@NO_APP
	.loc	3 2337 13                       @ ../../../../Source/portable/Common/mpu_wrappers.c:2337:13
	bl	vResetPrivilege
	.loc	3 2338 13                       @ ../../../../Source/portable/Common/mpu_wrappers.c:2338:13
	@APP
	@NO_APP
	.loc	3 2339 9                        @ ../../../../Source/portable/Common/mpu_wrappers.c:2339:9
	b	.LBB76_3
.Ltmp461:
.LBB76_2:
	.loc	3 2342 53                       @ ../../../../Source/portable/Common/mpu_wrappers.c:2342:53
	ldr	r0, [sp, #4]
	.loc	3 2342 23 is_stmt 0             @ ../../../../Source/portable/Common/mpu_wrappers.c:2342:23
	bl	xStreamBufferSpacesAvailable
	.loc	3 2342 21                       @ ../../../../Source/portable/Common/mpu_wrappers.c:2342:21
	str	r0, [sp]
	b	.LBB76_3
.Ltmp462:
.LBB76_3:
	.loc	3 2345 16 is_stmt 1             @ ../../../../Source/portable/Common/mpu_wrappers.c:2345:16
	ldr	r0, [sp]
	.loc	3 2345 9 is_stmt 0              @ ../../../../Source/portable/Common/mpu_wrappers.c:2345:9
	add	sp, #8
	pop	{r7, pc}
.Ltmp463:
.Lfunc_end76:
	.size	MPU_xStreamBufferSpacesAvailable, .Lfunc_end76-MPU_xStreamBufferSpacesAvailable
	.cfi_endproc
	.cantunwind
	.fnend
                                        @ -- End function
	.hidden	MPU_xStreamBufferBytesAvailable @ -- Begin function MPU_xStreamBufferBytesAvailable
	.globl	MPU_xStreamBufferBytesAvailable
	.p2align	1
	.type	MPU_xStreamBufferBytesAvailable,%function
	.code	16                              @ @MPU_xStreamBufferBytesAvailable
	.thumb_func
MPU_xStreamBufferBytesAvailable:
.Lfunc_begin77:
	.loc	3 2350 0 is_stmt 1              @ ../../../../Source/portable/Common/mpu_wrappers.c:2350:0
	.fnstart
	.cfi_startproc
@ %bb.0:
	.save	{r7, lr}
	push	{r7, lr}
	.cfi_def_cfa_offset 8
	.cfi_offset lr, -4
	.cfi_offset r7, -8
	.pad	#8
	sub	sp, #8
	.cfi_def_cfa_offset 16
	str	r0, [sp, #4]
.Ltmp464:
	.loc	3 2353 13 prologue_end          @ ../../../../Source/portable/Common/mpu_wrappers.c:2353:13
	bl	xIsPrivileged
.Ltmp465:
	.loc	3 2353 13 is_stmt 0             @ ../../../../Source/portable/Common/mpu_wrappers.c:2353:13
	cbnz	r0, .LBB77_2
	b	.LBB77_1
.LBB77_1:
.Ltmp466:
	.loc	3 2355 13 is_stmt 1             @ ../../../../Source/portable/Common/mpu_wrappers.c:2355:13
	@APP
	svc	#3

	@NO_APP
	.loc	3 2356 13                       @ ../../../../Source/portable/Common/mpu_wrappers.c:2356:13
	@APP
	@NO_APP
	.loc	3 2358 52                       @ ../../../../Source/portable/Common/mpu_wrappers.c:2358:52
	ldr	r0, [sp, #4]
	.loc	3 2358 23 is_stmt 0             @ ../../../../Source/portable/Common/mpu_wrappers.c:2358:23
	bl	xStreamBufferBytesAvailable
	.loc	3 2358 21                       @ ../../../../Source/portable/Common/mpu_wrappers.c:2358:21
	str	r0, [sp]
	.loc	3 2359 13 is_stmt 1             @ ../../../../Source/portable/Common/mpu_wrappers.c:2359:13
	@APP
	@NO_APP
	.loc	3 2361 13                       @ ../../../../Source/portable/Common/mpu_wrappers.c:2361:13
	bl	vResetPrivilege
	.loc	3 2362 13                       @ ../../../../Source/portable/Common/mpu_wrappers.c:2362:13
	@APP
	@NO_APP
	.loc	3 2363 9                        @ ../../../../Source/portable/Common/mpu_wrappers.c:2363:9
	b	.LBB77_3
.Ltmp467:
.LBB77_2:
	.loc	3 2366 52                       @ ../../../../Source/portable/Common/mpu_wrappers.c:2366:52
	ldr	r0, [sp, #4]
	.loc	3 2366 23 is_stmt 0             @ ../../../../Source/portable/Common/mpu_wrappers.c:2366:23
	bl	xStreamBufferBytesAvailable
	.loc	3 2366 21                       @ ../../../../Source/portable/Common/mpu_wrappers.c:2366:21
	str	r0, [sp]
	b	.LBB77_3
.Ltmp468:
.LBB77_3:
	.loc	3 2369 16 is_stmt 1             @ ../../../../Source/portable/Common/mpu_wrappers.c:2369:16
	ldr	r0, [sp]
	.loc	3 2369 9 is_stmt 0              @ ../../../../Source/portable/Common/mpu_wrappers.c:2369:9
	add	sp, #8
	pop	{r7, pc}
.Ltmp469:
.Lfunc_end77:
	.size	MPU_xStreamBufferBytesAvailable, .Lfunc_end77-MPU_xStreamBufferBytesAvailable
	.cfi_endproc
	.cantunwind
	.fnend
                                        @ -- End function
	.hidden	MPU_xStreamBufferSetTriggerLevel @ -- Begin function MPU_xStreamBufferSetTriggerLevel
	.globl	MPU_xStreamBufferSetTriggerLevel
	.p2align	1
	.type	MPU_xStreamBufferSetTriggerLevel,%function
	.code	16                              @ @MPU_xStreamBufferSetTriggerLevel
	.thumb_func
MPU_xStreamBufferSetTriggerLevel:
.Lfunc_begin78:
	.loc	3 2375 0 is_stmt 1              @ ../../../../Source/portable/Common/mpu_wrappers.c:2375:0
	.fnstart
	.cfi_startproc
@ %bb.0:
	.save	{r7, lr}
	push	{r7, lr}
	.cfi_def_cfa_offset 8
	.cfi_offset lr, -4
	.cfi_offset r7, -8
	.pad	#16
	sub	sp, #16
	.cfi_def_cfa_offset 24
	str	r0, [sp, #12]
	str	r1, [sp, #8]
.Ltmp470:
	.loc	3 2378 13 prologue_end          @ ../../../../Source/portable/Common/mpu_wrappers.c:2378:13
	bl	xIsPrivileged
.Ltmp471:
	.loc	3 2378 13 is_stmt 0             @ ../../../../Source/portable/Common/mpu_wrappers.c:2378:13
	cbnz	r0, .LBB78_2
	b	.LBB78_1
.LBB78_1:
.Ltmp472:
	.loc	3 2380 13 is_stmt 1             @ ../../../../Source/portable/Common/mpu_wrappers.c:2380:13
	@APP
	svc	#3

	@NO_APP
	.loc	3 2381 13                       @ ../../../../Source/portable/Common/mpu_wrappers.c:2381:13
	@APP
	@NO_APP
	.loc	3 2383 53                       @ ../../../../Source/portable/Common/mpu_wrappers.c:2383:53
	ldr	r0, [sp, #12]
	.loc	3 2383 68 is_stmt 0             @ ../../../../Source/portable/Common/mpu_wrappers.c:2383:68
	ldr	r1, [sp, #8]
	.loc	3 2383 23                       @ ../../../../Source/portable/Common/mpu_wrappers.c:2383:23
	bl	xStreamBufferSetTriggerLevel
	.loc	3 2383 21                       @ ../../../../Source/portable/Common/mpu_wrappers.c:2383:21
	str	r0, [sp, #4]
	.loc	3 2384 13 is_stmt 1             @ ../../../../Source/portable/Common/mpu_wrappers.c:2384:13
	@APP
	@NO_APP
	.loc	3 2386 13                       @ ../../../../Source/portable/Common/mpu_wrappers.c:2386:13
	bl	vResetPrivilege
	.loc	3 2387 13                       @ ../../../../Source/portable/Common/mpu_wrappers.c:2387:13
	@APP
	@NO_APP
	.loc	3 2388 9                        @ ../../../../Source/portable/Common/mpu_wrappers.c:2388:9
	b	.LBB78_3
.Ltmp473:
.LBB78_2:
	.loc	3 2391 53                       @ ../../../../Source/portable/Common/mpu_wrappers.c:2391:53
	ldr	r0, [sp, #12]
	.loc	3 2391 68 is_stmt 0             @ ../../../../Source/portable/Common/mpu_wrappers.c:2391:68
	ldr	r1, [sp, #8]
	.loc	3 2391 23                       @ ../../../../Source/portable/Common/mpu_wrappers.c:2391:23
	bl	xStreamBufferSetTriggerLevel
	.loc	3 2391 21                       @ ../../../../Source/portable/Common/mpu_wrappers.c:2391:21
	str	r0, [sp, #4]
	b	.LBB78_3
.Ltmp474:
.LBB78_3:
	.loc	3 2394 16 is_stmt 1             @ ../../../../Source/portable/Common/mpu_wrappers.c:2394:16
	ldr	r0, [sp, #4]
	.loc	3 2394 9 is_stmt 0              @ ../../../../Source/portable/Common/mpu_wrappers.c:2394:9
	add	sp, #16
	pop	{r7, pc}
.Ltmp475:
.Lfunc_end78:
	.size	MPU_xStreamBufferSetTriggerLevel, .Lfunc_end78-MPU_xStreamBufferSetTriggerLevel
	.cfi_endproc
	.cantunwind
	.fnend
                                        @ -- End function
	.section	privileged_functions,"ax",%progbits
	.hidden	MPU_xStreamBufferGenericCreate  @ -- Begin function MPU_xStreamBufferGenericCreate
	.globl	MPU_xStreamBufferGenericCreate
	.p2align	1
	.type	MPU_xStreamBufferGenericCreate,%function
	.code	16                              @ @MPU_xStreamBufferGenericCreate
	.thumb_func
MPU_xStreamBufferGenericCreate:
.Lfunc_begin79:
	.loc	3 2404 0 is_stmt 1              @ ../../../../Source/portable/Common/mpu_wrappers.c:2404:0
	.fnstart
	.cfi_startproc
@ %bb.0:
	.save	{r4, lr}
	push	{r4, lr}
	.cfi_def_cfa_offset 8
	.cfi_offset lr, -4
	.cfi_offset r4, -8
	.pad	#32
	sub	sp, #32
	.cfi_def_cfa_offset 40
	ldr	r4, [sp, #40]
	str	r0, [sp, #28]
	str	r1, [sp, #24]
	str	r2, [sp, #20]
	str	r3, [sp, #16]
.Ltmp476:
	.loc	3 2411 13 prologue_end          @ ../../../../Source/portable/Common/mpu_wrappers.c:2411:13
	ldr	r1, [sp, #16]
	movs	r0, #0
	str	r0, [sp, #8]                    @ 4-byte Spill
	cbnz	r1, .LBB79_2
	b	.LBB79_1
.LBB79_1:
	ldr	r0, [sp, #40]
	rsbs	r1, r0, #0
	adcs	r0, r1
	str	r0, [sp, #8]                    @ 4-byte Spill
	b	.LBB79_2
.LBB79_2:
	.loc	3 0 0 is_stmt 0                 @ ../../../../Source/portable/Common/mpu_wrappers.c:0:0
	ldr	r0, [sp, #8]                    @ 4-byte Reload
.Ltmp477:
	.loc	3 2411 13                       @ ../../../../Source/portable/Common/mpu_wrappers.c:2411:13
	lsls	r0, r0, #31
	cbnz	r0, .LBB79_5
	b	.LBB79_3
.LBB79_3:
.Ltmp478:
	.loc	3 2411 13                       @ ../../../../Source/portable/Common/mpu_wrappers.c:2411:13
	@APP
	cpsid i
	@NO_APP
	b	.LBB79_4
.LBB79_4:                               @ =>This Inner Loop Header: Depth=1
.Ltmp479:
	.loc	3 2411 13                       @ ../../../../Source/portable/Common/mpu_wrappers.c:2411:13
	b	.LBB79_4
.Ltmp480:
.LBB79_5:
	.loc	3 2414 19 is_stmt 1             @ ../../../../Source/portable/Common/mpu_wrappers.c:2414:19
	ldr	r0, [sp, #16]
	.loc	3 2414 53 is_stmt 0             @ ../../../../Source/portable/Common/mpu_wrappers.c:2414:53
	cbnz	r0, .LBB79_11
	b	.LBB79_6
.LBB79_6:
	.loc	3 2415 19 is_stmt 1             @ ../../../../Source/portable/Common/mpu_wrappers.c:2415:19
	ldr	r0, [sp, #40]
.Ltmp481:
	.loc	3 2414 17                       @ ../../../../Source/portable/Common/mpu_wrappers.c:2414:17
	cbnz	r0, .LBB79_11
	b	.LBB79_7
.LBB79_7:
.Ltmp482:
	.loc	3 2417 21                       @ ../../../../Source/portable/Common/mpu_wrappers.c:2417:21
	bl	xIsPrivileged
.Ltmp483:
	.loc	3 2417 21 is_stmt 0             @ ../../../../Source/portable/Common/mpu_wrappers.c:2417:21
	cbnz	r0, .LBB79_9
	b	.LBB79_8
.LBB79_8:
.Ltmp484:
	.loc	3 2419 21 is_stmt 1             @ ../../../../Source/portable/Common/mpu_wrappers.c:2419:21
	@APP
	svc	#3

	@NO_APP
	.loc	3 2420 21                       @ ../../../../Source/portable/Common/mpu_wrappers.c:2420:21
	@APP
	@NO_APP
	.loc	3 2422 59                       @ ../../../../Source/portable/Common/mpu_wrappers.c:2422:59
	ldr	r0, [sp, #28]
	.loc	3 2423 59                       @ ../../../../Source/portable/Common/mpu_wrappers.c:2423:59
	ldr	r1, [sp, #24]
	.loc	3 2424 59                       @ ../../../../Source/portable/Common/mpu_wrappers.c:2424:59
	ldr	r2, [sp, #20]
	movs	r3, #0
	.loc	3 2422 31                       @ ../../../../Source/portable/Common/mpu_wrappers.c:2422:31
	str	r3, [sp]
	bl	xStreamBufferGenericCreate
	.loc	3 2422 29 is_stmt 0             @ ../../../../Source/portable/Common/mpu_wrappers.c:2422:29
	str	r0, [sp, #12]
	.loc	3 2427 21 is_stmt 1             @ ../../../../Source/portable/Common/mpu_wrappers.c:2427:21
	@APP
	@NO_APP
	.loc	3 2429 21                       @ ../../../../Source/portable/Common/mpu_wrappers.c:2429:21
	bl	vResetPrivilege
	.loc	3 2430 21                       @ ../../../../Source/portable/Common/mpu_wrappers.c:2430:21
	@APP
	@NO_APP
	.loc	3 2431 17                       @ ../../../../Source/portable/Common/mpu_wrappers.c:2431:17
	b	.LBB79_10
.Ltmp485:
.LBB79_9:
	.loc	3 2434 59                       @ ../../../../Source/portable/Common/mpu_wrappers.c:2434:59
	ldr	r0, [sp, #28]
	.loc	3 2435 59                       @ ../../../../Source/portable/Common/mpu_wrappers.c:2435:59
	ldr	r1, [sp, #24]
	.loc	3 2436 59                       @ ../../../../Source/portable/Common/mpu_wrappers.c:2436:59
	ldr	r2, [sp, #20]
	movs	r3, #0
	.loc	3 2434 31                       @ ../../../../Source/portable/Common/mpu_wrappers.c:2434:31
	str	r3, [sp]
	bl	xStreamBufferGenericCreate
	.loc	3 2434 29 is_stmt 0             @ ../../../../Source/portable/Common/mpu_wrappers.c:2434:29
	str	r0, [sp, #12]
	b	.LBB79_10
.Ltmp486:
.LBB79_10:
	.loc	3 2440 13 is_stmt 1             @ ../../../../Source/portable/Common/mpu_wrappers.c:2440:13
	b	.LBB79_12
.Ltmp487:
.LBB79_11:
	.loc	3 0 13 is_stmt 0                @ ../../../../Source/portable/Common/mpu_wrappers.c:0:13
	movs	r0, #0
.Ltmp488:
	.loc	3 2444 25 is_stmt 1             @ ../../../../Source/portable/Common/mpu_wrappers.c:2444:25
	str	r0, [sp, #12]
	b	.LBB79_12
.Ltmp489:
.LBB79_12:
	.loc	3 2447 20                       @ ../../../../Source/portable/Common/mpu_wrappers.c:2447:20
	ldr	r0, [sp, #12]
	.loc	3 2447 13 is_stmt 0             @ ../../../../Source/portable/Common/mpu_wrappers.c:2447:13
	add	sp, #32
	pop	{r4, pc}
.Ltmp490:
.Lfunc_end79:
	.size	MPU_xStreamBufferGenericCreate, .Lfunc_end79-MPU_xStreamBufferGenericCreate
	.cfi_endproc
	.cantunwind
	.fnend
                                        @ -- End function
	.hidden	MPU_xStreamBufferGenericCreateStatic @ -- Begin function MPU_xStreamBufferGenericCreateStatic
	.globl	MPU_xStreamBufferGenericCreateStatic
	.p2align	1
	.type	MPU_xStreamBufferGenericCreateStatic,%function
	.code	16                              @ @MPU_xStreamBufferGenericCreateStatic
	.thumb_func
MPU_xStreamBufferGenericCreateStatic:
.Lfunc_begin80:
	.loc	3 2460 0 is_stmt 1              @ ../../../../Source/portable/Common/mpu_wrappers.c:2460:0
	.fnstart
	.cfi_startproc
@ %bb.0:
	.save	{r4, r5, r7, lr}
	push	{r4, r5, r7, lr}
	.cfi_def_cfa_offset 16
	.cfi_offset lr, -4
	.cfi_offset r7, -8
	.cfi_offset r5, -12
	.cfi_offset r4, -16
	.pad	#40
	sub	sp, #40
	.cfi_def_cfa_offset 56
	ldr	r4, [sp, #64]
	ldr	r4, [sp, #60]
	ldr	r4, [sp, #56]
	str	r0, [sp, #36]
	str	r1, [sp, #32]
	str	r2, [sp, #28]
	str	r3, [sp, #24]
.Ltmp491:
	.loc	3 2467 13 prologue_end          @ ../../../../Source/portable/Common/mpu_wrappers.c:2467:13
	ldr	r1, [sp, #60]
	movs	r0, #0
	str	r0, [sp, #16]                   @ 4-byte Spill
	cbnz	r1, .LBB80_2
	b	.LBB80_1
.LBB80_1:
	ldr	r0, [sp, #64]
	rsbs	r1, r0, #0
	adcs	r0, r1
	str	r0, [sp, #16]                   @ 4-byte Spill
	b	.LBB80_2
.LBB80_2:
	.loc	3 0 0 is_stmt 0                 @ ../../../../Source/portable/Common/mpu_wrappers.c:0:0
	ldr	r0, [sp, #16]                   @ 4-byte Reload
.Ltmp492:
	.loc	3 2467 13                       @ ../../../../Source/portable/Common/mpu_wrappers.c:2467:13
	lsls	r0, r0, #31
	cbnz	r0, .LBB80_5
	b	.LBB80_3
.LBB80_3:
.Ltmp493:
	.loc	3 2467 13                       @ ../../../../Source/portable/Common/mpu_wrappers.c:2467:13
	@APP
	cpsid i
	@NO_APP
	b	.LBB80_4
.LBB80_4:                               @ =>This Inner Loop Header: Depth=1
.Ltmp494:
	.loc	3 2467 13                       @ ../../../../Source/portable/Common/mpu_wrappers.c:2467:13
	b	.LBB80_4
.Ltmp495:
.LBB80_5:
	.loc	3 2470 19 is_stmt 1             @ ../../../../Source/portable/Common/mpu_wrappers.c:2470:19
	ldr	r0, [sp, #60]
	.loc	3 2470 53 is_stmt 0             @ ../../../../Source/portable/Common/mpu_wrappers.c:2470:53
	cbnz	r0, .LBB80_11
	b	.LBB80_6
.LBB80_6:
	.loc	3 2471 19 is_stmt 1             @ ../../../../Source/portable/Common/mpu_wrappers.c:2471:19
	ldr	r0, [sp, #64]
.Ltmp496:
	.loc	3 2470 17                       @ ../../../../Source/portable/Common/mpu_wrappers.c:2470:17
	cbnz	r0, .LBB80_11
	b	.LBB80_7
.LBB80_7:
.Ltmp497:
	.loc	3 2473 21                       @ ../../../../Source/portable/Common/mpu_wrappers.c:2473:21
	bl	xIsPrivileged
.Ltmp498:
	.loc	3 2473 21 is_stmt 0             @ ../../../../Source/portable/Common/mpu_wrappers.c:2473:21
	cbnz	r0, .LBB80_9
	b	.LBB80_8
.LBB80_8:
.Ltmp499:
	.loc	3 2475 21 is_stmt 1             @ ../../../../Source/portable/Common/mpu_wrappers.c:2475:21
	@APP
	svc	#3

	@NO_APP
	.loc	3 2476 21                       @ ../../../../Source/portable/Common/mpu_wrappers.c:2476:21
	@APP
	@NO_APP
	.loc	3 2478 65                       @ ../../../../Source/portable/Common/mpu_wrappers.c:2478:65
	ldr	r0, [sp, #36]
	.loc	3 2479 65                       @ ../../../../Source/portable/Common/mpu_wrappers.c:2479:65
	ldr	r1, [sp, #32]
	.loc	3 2480 65                       @ ../../../../Source/portable/Common/mpu_wrappers.c:2480:65
	ldr	r2, [sp, #28]
	.loc	3 2481 65                       @ ../../../../Source/portable/Common/mpu_wrappers.c:2481:65
	ldr	r3, [sp, #24]
	.loc	3 2482 65                       @ ../../../../Source/portable/Common/mpu_wrappers.c:2482:65
	ldr	r4, [sp, #56]
	movs	r5, #0
	.loc	3 2478 31                       @ ../../../../Source/portable/Common/mpu_wrappers.c:2478:31
	str	r5, [sp, #8]
	str	r5, [sp, #4]
	str	r4, [sp]
	bl	xStreamBufferGenericCreateStatic
	.loc	3 2478 29 is_stmt 0             @ ../../../../Source/portable/Common/mpu_wrappers.c:2478:29
	str	r0, [sp, #20]
	.loc	3 2485 21 is_stmt 1             @ ../../../../Source/portable/Common/mpu_wrappers.c:2485:21
	@APP
	@NO_APP
	.loc	3 2487 21                       @ ../../../../Source/portable/Common/mpu_wrappers.c:2487:21
	bl	vResetPrivilege
	.loc	3 2488 21                       @ ../../../../Source/portable/Common/mpu_wrappers.c:2488:21
	@APP
	@NO_APP
	.loc	3 2489 17                       @ ../../../../Source/portable/Common/mpu_wrappers.c:2489:17
	b	.LBB80_10
.Ltmp500:
.LBB80_9:
	.loc	3 2492 65                       @ ../../../../Source/portable/Common/mpu_wrappers.c:2492:65
	ldr	r0, [sp, #36]
	.loc	3 2493 65                       @ ../../../../Source/portable/Common/mpu_wrappers.c:2493:65
	ldr	r1, [sp, #32]
	.loc	3 2494 65                       @ ../../../../Source/portable/Common/mpu_wrappers.c:2494:65
	ldr	r2, [sp, #28]
	.loc	3 2495 65                       @ ../../../../Source/portable/Common/mpu_wrappers.c:2495:65
	ldr	r3, [sp, #24]
	.loc	3 2496 65                       @ ../../../../Source/portable/Common/mpu_wrappers.c:2496:65
	ldr	r4, [sp, #56]
	movs	r5, #0
	.loc	3 2492 31                       @ ../../../../Source/portable/Common/mpu_wrappers.c:2492:31
	str	r5, [sp, #8]
	str	r5, [sp, #4]
	str	r4, [sp]
	bl	xStreamBufferGenericCreateStatic
	.loc	3 2492 29 is_stmt 0             @ ../../../../Source/portable/Common/mpu_wrappers.c:2492:29
	str	r0, [sp, #20]
	b	.LBB80_10
.Ltmp501:
.LBB80_10:
	.loc	3 2500 13 is_stmt 1             @ ../../../../Source/portable/Common/mpu_wrappers.c:2500:13
	b	.LBB80_12
.Ltmp502:
.LBB80_11:
	.loc	3 0 13 is_stmt 0                @ ../../../../Source/portable/Common/mpu_wrappers.c:0:13
	movs	r0, #0
.Ltmp503:
	.loc	3 2504 25 is_stmt 1             @ ../../../../Source/portable/Common/mpu_wrappers.c:2504:25
	str	r0, [sp, #20]
	b	.LBB80_12
.Ltmp504:
.LBB80_12:
	.loc	3 2507 20                       @ ../../../../Source/portable/Common/mpu_wrappers.c:2507:20
	ldr	r0, [sp, #20]
	.loc	3 2507 13 is_stmt 0             @ ../../../../Source/portable/Common/mpu_wrappers.c:2507:13
	add	sp, #40
	pop	{r4, r5, r7, pc}
.Ltmp505:
.Lfunc_end80:
	.size	MPU_xStreamBufferGenericCreateStatic, .Lfunc_end80-MPU_xStreamBufferGenericCreateStatic
	.cfi_endproc
	.cantunwind
	.fnend
                                        @ -- End function
	.file	4 "C:\\Keil_v5\\ARM\\ARMCLANG\\Bin\\..\\include" "stdint.h"
	.file	5 "C:\\Users\\karahulx\\Downloads\\Kernel\\FreeRTOS\\FreeRTOS\\Demo\\CORTEX_MPU_M23_Nuvoton_NuMaker_PFM_M2351_IAR_GCC\\Projects_NTZ\\Keil" "../../../../Source/include\\queue.h"
	.file	6 "C:\\Users\\karahulx\\Downloads\\Kernel\\FreeRTOS\\FreeRTOS\\Demo\\CORTEX_MPU_M23_Nuvoton_NuMaker_PFM_M2351_IAR_GCC\\Projects_NTZ\\Keil" "../../../../Source/include\\event_groups.h"
	.file	7 "C:\\Keil_v5\\ARM\\ARMCLANG\\Bin\\..\\include" "stddef.h"
	.file	8 "C:\\Users\\karahulx\\Downloads\\Kernel\\FreeRTOS\\FreeRTOS\\Demo\\CORTEX_MPU_M23_Nuvoton_NuMaker_PFM_M2351_IAR_GCC\\Projects_NTZ\\Keil" "../../../../Source/include\\stream_buffer.h"
	.file	9 "C:\\Users\\karahulx\\Downloads\\Kernel\\FreeRTOS\\FreeRTOS\\Demo\\CORTEX_MPU_M23_Nuvoton_NuMaker_PFM_M2351_IAR_GCC\\Projects_NTZ\\Keil" "../../../../Source/include/projdefs.h"
	.file	10 "C:\\Users\\karahulx\\Downloads\\Kernel\\FreeRTOS\\FreeRTOS\\Demo\\CORTEX_MPU_M23_Nuvoton_NuMaker_PFM_M2351_IAR_GCC\\Projects_NTZ\\Keil" "../../../../Source/include\\FreeRTOS.h"
	.file	11 "C:\\Users\\karahulx\\Downloads\\Kernel\\FreeRTOS\\FreeRTOS\\Demo\\CORTEX_MPU_M23_Nuvoton_NuMaker_PFM_M2351_IAR_GCC\\Projects_NTZ\\Keil" "../../../../Source/include/timers.h"
	.section	".note.GNU-stack","",%progbits
	.eabi_attribute	30, 6	@ Tag_ABI_optimization_goals
	.ARM_attribute	16, 1	@ Tag_AV_eba