	.text
	.syntax unified
	.eabi_attribute	67, "2.09"	@ Tag_conformance
	.eabi_attribute	6, 16	@ Tag_CPU_arch
	.eabi_attribute	7, 77	@ Tag_CPU_arch_profile
	.eabi_attribute	8, 0	@ Tag_ARM_ISA_use
	.eabi_attribute	9, 3	@ Tag_THUMB_ISA_use
	.eabi_attribute	34, 0	@ Tag_CPU_unaligned_access
	.eabi_attribute	17, 1	@ Tag_ABI_PCS_GOT_use
	.eabi_attribute	20, 2	@ Tag_ABI_FP_denormal
	.eabi_attribute	21, 0	@ Tag_ABI_FP_exceptions
	.eabi_attribute	23, 1	@ Tag_ABI_FP_number_model
	.eabi_attribute	24, 1	@ Tag_ABI_align_needed
	.eabi_attribute	25, 1	@ Tag_ABI_align_preserved
	.eabi_attribute	38, 1	@ Tag_ABI_FP_16bit_format
	.eabi_attribute	18, 4	@ Tag_ABI_PCS_wchar_t
	.eabi_attribute	26, 2	@ Tag_ABI_enum_size
	.eabi_attribute	14, 0	@ Tag_ABI_PCS_R9_use
	.file	"QPeek.c"
	.file	1 "C:\\Keil_v5\\ARM\\ARMCLANG\\Bin\\..\\include" "stdint.h"
	.file	2 "C:\\Users\\karahulx\\Downloads\\Kernel\\FreeRTOS\\FreeRTOS\\Demo\\CORTEX_MPU_M23_Nuvoton_NuMaker_PFM_M2351_IAR_GCC\\Projects_NTZ\\Keil" "../../../../Source/portable/GCC/ARM_CM23_NTZ/non_secure/portmacrocommon.h"
	.file	3 "C:\\Users\\karahulx\\Downloads\\Kernel\\FreeRTOS\\FreeRTOS\\Demo\\CORTEX_MPU_M23_Nuvoton_NuMaker_PFM_M2351_IAR_GCC\\Projects_NTZ\\Keil" "../../../CORTEX_MPU_M3_NUCLEO_L152RE_GCC/Demo/QPeek.c"
	.file	4 "C:\\Users\\karahulx\\Downloads\\Kernel\\FreeRTOS\\FreeRTOS\\Demo\\CORTEX_MPU_M23_Nuvoton_NuMaker_PFM_M2351_IAR_GCC\\Projects_NTZ\\Keil" "../../../../Source/include/task.h"
	.file	5 "C:\\Users\\karahulx\\Downloads\\Kernel\\FreeRTOS\\FreeRTOS\\Demo\\CORTEX_MPU_M23_Nuvoton_NuMaker_PFM_M2351_IAR_GCC\\Projects_NTZ\\Keil" "../../../../Source/include/queue.h"
	.section	.text.vStartQueuePeekTasks,"ax",%progbits
	.hidden	vStartQueuePeekTasks            @ -- Begin function vStartQueuePeekTasks
	.globl	vStartQueuePeekTasks
	.p2align	1
	.type	vStartQueuePeekTasks,%function
	.code	16                              @ @vStartQueuePeekTasks
	.thumb_func
vStartQueuePeekTasks:
.Lfunc_begin0:
	.loc	3 86 0                          @ ../../../CORTEX_MPU_M3_NUCLEO_L152RE_GCC/Demo/QPeek.c:86:0
	.fnstart
	.cfi_sections .debug_frame
	.cfi_startproc
@ %bb.0:
	.save	{r4, r5, r6, r7, lr}
	push	{r4, r5, r6, r7, lr}
	.cfi_def_cfa_offset 20
	.cfi_offset lr, -4
	.cfi_offset r7, -8
	.cfi_offset r6, -12
	.cfi_offset r5, -16
	.cfi_offset r4, -20
	.pad	#300
	sub	sp, #300
	.cfi_def_cfa_offset 320
	movs	r0, #5
	movs	r1, #4
	movs	r2, #0
.Ltmp0:
	.loc	3 90 14 prologue_end            @ ../../../CORTEX_MPU_M3_NUCLEO_L152RE_GCC/Demo/QPeek.c:90:14
	bl	MPU_xQueueGenericCreate
	.loc	3 90 12 is_stmt 0               @ ../../../CORTEX_MPU_M3_NUCLEO_L152RE_GCC/Demo/QPeek.c:90:12
	str	r0, [sp, #296]
.Ltmp1:
	.loc	3 92 9 is_stmt 1                @ ../../../CORTEX_MPU_M3_NUCLEO_L152RE_GCC/Demo/QPeek.c:92:9
	ldr	r0, [sp, #296]
.Ltmp2:
	.loc	3 92 9 is_stmt 0                @ ../../../CORTEX_MPU_M3_NUCLEO_L152RE_GCC/Demo/QPeek.c:92:9
	cbnz	r0, .LBB0_1
	b	.LBB0_2
.LBB0_1:
.Ltmp3:
	.loc	3 113 9 is_stmt 1               @ ../../../CORTEX_MPU_M3_NUCLEO_L152RE_GCC/Demo/QPeek.c:113:9
	movw	r0, :lower16:prvMediumPriorityPeekTask
	movt	r0, :upper16:prvMediumPriorityPeekTask
	str	r0, [sp, #232]
	movw	r0, :lower16:.L.str
	movt	r0, :upper16:.L.str
	str	r0, [sp, #236]
	add	r0, sp, #232
	str	r0, [sp, #16]                   @ 4-byte Spill
	movs	r1, #128
	str	r1, [sp, #12]                   @ 4-byte Spill
	strh	r1, [r0, #8]
	.loc	3 117 43                        @ ../../../CORTEX_MPU_M3_NUCLEO_L152RE_GCC/Demo/QPeek.c:117:43
	ldr	r2, [sp, #296]
	.loc	3 113 9                         @ ../../../CORTEX_MPU_M3_NUCLEO_L152RE_GCC/Demo/QPeek.c:113:9
	str	r2, [sp, #244]
	movs	r2, #1
	str	r2, [sp, #248]
	movw	r2, :lower16:vStartQueuePeekTasks.xMediumPriorityPeekTaskStack
	movt	r2, :upper16:vStartQueuePeekTasks.xMediumPriorityPeekTaskStack
	str	r2, [sp, #252]
	adds	r0, #24
	.loc	3 120 35                        @ ../../../CORTEX_MPU_M3_NUCLEO_L152RE_GCC/Demo/QPeek.c:120:35
	movw	r2, :lower16:.Lconstinit
	movt	r2, :upper16:.Lconstinit
	ldm	r2!, {r3, r4, r5}
	stm	r0!, {r3, r4, r5}
	ldm	r2!, {r3, r4, r5}
	stm	r0!, {r3, r4, r5}
	ldm	r2!, {r3, r4, r5}
	stm	r0!, {r3, r4, r5}
	movs	r0, #0
	.loc	3 113 9                         @ ../../../CORTEX_MPU_M3_NUCLEO_L152RE_GCC/Demo/QPeek.c:113:9
	str	r0, [sp, #32]                   @ 4-byte Spill
	str	r0, [sp, #292]
	.loc	3 130 9                         @ ../../../CORTEX_MPU_M3_NUCLEO_L152RE_GCC/Demo/QPeek.c:130:9
	movw	r0, :lower16:prvHighPriorityPeekTask
	movt	r0, :upper16:prvHighPriorityPeekTask
	str	r0, [sp, #168]
	movw	r0, :lower16:.L.str.1
	movt	r0, :upper16:.L.str.1
	str	r0, [sp, #172]
	add	r0, sp, #168
	str	r0, [sp, #20]                   @ 4-byte Spill
	strh	r1, [r0, #8]
	.loc	3 134 43                        @ ../../../CORTEX_MPU_M3_NUCLEO_L152RE_GCC/Demo/QPeek.c:134:43
	ldr	r1, [sp, #296]
	.loc	3 130 9                         @ ../../../CORTEX_MPU_M3_NUCLEO_L152RE_GCC/Demo/QPeek.c:130:9
	str	r1, [sp, #180]
	movs	r1, #2
	str	r1, [sp, #184]
	movw	r1, :lower16:vStartQueuePeekTasks.xHighPriorityPeekTaskStack
	movt	r1, :upper16:vStartQueuePeekTasks.xHighPriorityPeekTaskStack
	str	r1, [sp, #188]
	adds	r0, #24
	str	r0, [sp]                        @ 4-byte Spill
	movs	r1, #36
	str	r1, [sp, #4]                    @ 4-byte Spill
	bl	__aeabi_memclr4
	ldr	r3, [sp]                        @ 4-byte Reload
	ldr	r1, [sp, #4]                    @ 4-byte Reload
	ldr	r2, [sp, #12]                   @ 4-byte Reload
	ldr	r0, [sp, #32]                   @ 4-byte Reload
	.loc	3 137 35                        @ ../../../CORTEX_MPU_M3_NUCLEO_L152RE_GCC/Demo/QPeek.c:137:35
	movw	r4, :lower16:.Lconstinit.2
	movt	r4, :upper16:.Lconstinit.2
	ldm	r4!, {r5, r6, r7}
	stm	r3!, {r5, r6, r7}
	ldm	r4!, {r5, r6, r7}
	stm	r3!, {r5, r6, r7}
	ldm	r4!, {r5, r6, r7}
	stm	r3!, {r5, r6, r7}
	.loc	3 130 9                         @ ../../../CORTEX_MPU_M3_NUCLEO_L152RE_GCC/Demo/QPeek.c:130:9
	str	r0, [sp, #228]
	.loc	3 145 9                         @ ../../../CORTEX_MPU_M3_NUCLEO_L152RE_GCC/Demo/QPeek.c:145:9
	movw	r0, :lower16:prvHighestPriorityPeekTask
	movt	r0, :upper16:prvHighestPriorityPeekTask
	str	r0, [sp, #104]
	movw	r0, :lower16:.L.str.3
	movt	r0, :upper16:.L.str.3
	str	r0, [sp, #108]
	add	r0, sp, #104
	str	r0, [sp, #28]                   @ 4-byte Spill
	strh	r2, [r0, #8]
	.loc	3 149 43                        @ ../../../CORTEX_MPU_M3_NUCLEO_L152RE_GCC/Demo/QPeek.c:149:43
	ldr	r2, [sp, #296]
	.loc	3 145 9                         @ ../../../CORTEX_MPU_M3_NUCLEO_L152RE_GCC/Demo/QPeek.c:145:9
	str	r2, [sp, #116]
	movs	r2, #3
	str	r2, [sp, #120]
	movw	r2, :lower16:vStartQueuePeekTasks.xHighestPriorityPeekTaskStack
	movt	r2, :upper16:vStartQueuePeekTasks.xHighestPriorityPeekTaskStack
	str	r2, [sp, #124]
	adds	r0, #24
	str	r0, [sp, #8]                    @ 4-byte Spill
	bl	__aeabi_memclr4
	ldr	r2, [sp, #8]                    @ 4-byte Reload
	ldr	r3, [sp, #12]                   @ 4-byte Reload
	ldr	r0, [sp, #16]                   @ 4-byte Reload
	ldr	r1, [sp, #32]                   @ 4-byte Reload
	.loc	3 152 35                        @ ../../../CORTEX_MPU_M3_NUCLEO_L152RE_GCC/Demo/QPeek.c:152:35
	movw	r4, :lower16:.Lconstinit.4
	movt	r4, :upper16:.Lconstinit.4
	ldm	r4!, {r5, r6, r7}
	stm	r2!, {r5, r6, r7}
	ldm	r4!, {r5, r6, r7}
	stm	r2!, {r5, r6, r7}
	ldm	r4!, {r5, r6, r7}
	stm	r2!, {r5, r6, r7}
	.loc	3 145 9                         @ ../../../CORTEX_MPU_M3_NUCLEO_L152RE_GCC/Demo/QPeek.c:145:9
	str	r1, [sp, #164]
	.loc	3 160 9                         @ ../../../CORTEX_MPU_M3_NUCLEO_L152RE_GCC/Demo/QPeek.c:160:9
	movw	r2, :lower16:prvLowPriorityPeekTask
	movt	r2, :upper16:prvLowPriorityPeekTask
	str	r2, [sp, #40]
	movw	r2, :lower16:.L.str.5
	movt	r2, :upper16:.L.str.5
	str	r2, [sp, #44]
	add	r2, sp, #40
	str	r2, [sp, #36]                   @ 4-byte Spill
	strh	r3, [r2, #8]
	.loc	3 164 43                        @ ../../../CORTEX_MPU_M3_NUCLEO_L152RE_GCC/Demo/QPeek.c:164:43
	ldr	r3, [sp, #296]
	.loc	3 160 9                         @ ../../../CORTEX_MPU_M3_NUCLEO_L152RE_GCC/Demo/QPeek.c:160:9
	str	r3, [sp, #52]
	str	r1, [sp, #56]
	movw	r3, :lower16:vStartQueuePeekTasks.xLowPriorityPeekTaskStack
	movt	r3, :upper16:vStartQueuePeekTasks.xLowPriorityPeekTaskStack
	str	r3, [sp, #60]
	adds	r2, #24
	.loc	3 167 35                        @ ../../../CORTEX_MPU_M3_NUCLEO_L152RE_GCC/Demo/QPeek.c:167:35
	movw	r3, :lower16:.Lconstinit.6
	movt	r3, :upper16:.Lconstinit.6
	ldm	r3!, {r4, r5, r6}
	stm	r2!, {r4, r5, r6}
	ldm	r3!, {r4, r5, r6}
	stm	r2!, {r4, r5, r6}
	ldm	r3!, {r4, r5, r6}
	stm	r2!, {r4, r5, r6}
	.loc	3 160 9                         @ ../../../CORTEX_MPU_M3_NUCLEO_L152RE_GCC/Demo/QPeek.c:160:9
	str	r1, [sp, #100]
	.loc	3 181 9                         @ ../../../CORTEX_MPU_M3_NUCLEO_L152RE_GCC/Demo/QPeek.c:181:9
	movw	r1, :lower16:xQPeekLocalTaskHandles
	movt	r1, :upper16:xQPeekLocalTaskHandles
	str	r1, [sp, #24]                   @ 4-byte Spill
	bl	xTaskCreateRestricted
	ldr	r1, [sp, #24]                   @ 4-byte Reload
                                        @ kill: def $r2 killed $r0
	.loc	3 182 9                         @ ../../../CORTEX_MPU_M3_NUCLEO_L152RE_GCC/Demo/QPeek.c:182:9
	ldr	r0, [sp, #20]                   @ 4-byte Reload
	adds	r1, r1, #4
	bl	xTaskCreateRestricted
	ldr	r1, [sp, #24]                   @ 4-byte Reload
                                        @ kill: def $r2 killed $r0
	.loc	3 183 9                         @ ../../../CORTEX_MPU_M3_NUCLEO_L152RE_GCC/Demo/QPeek.c:183:9
	ldr	r0, [sp, #28]                   @ 4-byte Reload
	adds	r1, #8
	bl	xTaskCreateRestricted
	ldr	r1, [sp, #32]                   @ 4-byte Reload
                                        @ kill: def $r2 killed $r0
	.loc	3 184 9                         @ ../../../CORTEX_MPU_M3_NUCLEO_L152RE_GCC/Demo/QPeek.c:184:9
	ldr	r0, [sp, #36]                   @ 4-byte Reload
	bl	xTaskCreateRestricted
	.loc	3 186 5                         @ ../../../CORTEX_MPU_M3_NUCLEO_L152RE_GCC/Demo/QPeek.c:186:5
	b	.LBB0_2
.Ltmp4:
.LBB0_2:
	.loc	3 187 1                         @ ../../../CORTEX_MPU_M3_NUCLEO_L152RE_GCC/Demo/QPeek.c:187:1
	add	sp, #300
	pop	{r4, r5, r6, r7, pc}
.Ltmp5:
.Lfunc_end0:
	.size	vStartQueuePeekTasks, .Lfunc_end0-vStartQueuePeekTasks
	.cfi_endproc
	.cantunwind
	.fnend
                                        @ -- End function
	.section	.text.prvMediumPriorityPeekTask,"ax",%progbits
	.p2align	1                               @ -- Begin function prvMediumPriorityPeekTask
	.type	prvMediumPriorityPeekTask,%function
	.code	16                              @ @prvMediumPriorityPeekTask
	.thumb_func
prvMediumPriorityPeekTask:
.Lfunc_begin1:
	.loc	3 353 0                         @ ../../../CORTEX_MPU_M3_NUCLEO_L152RE_GCC/Demo/QPeek.c:353:0
	.fnstart
	.cfi_startproc
@ %bb.0:
	.save	{r7, lr}
	push	{r7, lr}
	.cfi_def_cfa_offset 8
	.cfi_offset lr, -4
	.cfi_offset r7, -8
	.pad	#16
	sub	sp, #16
	.cfi_def_cfa_offset 24
	str	r0, [sp, #12]
.Ltmp6:
	.loc	3 354 46 prologue_end           @ ../../../CORTEX_MPU_M3_NUCLEO_L152RE_GCC/Demo/QPeek.c:354:46
	ldr	r0, [sp, #12]
	.loc	3 354 19 is_stmt 0              @ ../../../CORTEX_MPU_M3_NUCLEO_L152RE_GCC/Demo/QPeek.c:354:19
	str	r0, [sp, #8]
	.loc	3 357 5 is_stmt 1               @ ../../../CORTEX_MPU_M3_NUCLEO_L152RE_GCC/Demo/QPeek.c:357:5
	b	.LBB1_1
.LBB1_1:                                @ =>This Inner Loop Header: Depth=1
.Ltmp7:
	.loc	3 362 25                        @ ../../../CORTEX_MPU_M3_NUCLEO_L152RE_GCC/Demo/QPeek.c:362:25
	ldr	r0, [sp, #8]
	movs	r1, #0
	mvns	r2, r1
	add	r1, sp, #4
	.loc	3 362 13 is_stmt 0              @ ../../../CORTEX_MPU_M3_NUCLEO_L152RE_GCC/Demo/QPeek.c:362:13
	bl	MPU_xQueuePeek
.Ltmp8:
	.loc	3 362 13                        @ ../../../CORTEX_MPU_M3_NUCLEO_L152RE_GCC/Demo/QPeek.c:362:13
	cmp	r0, #1
	beq	.LBB1_3
	b	.LBB1_2
.LBB1_2:                                @   in Loop: Header=BB1_1 Depth=1
.Ltmp9:
	.loc	3 365 28 is_stmt 1              @ ../../../CORTEX_MPU_M3_NUCLEO_L152RE_GCC/Demo/QPeek.c:365:28
	movw	r1, :lower16:xErrorDetected
	movt	r1, :upper16:xErrorDetected
	movs	r0, #1
	str	r0, [r1]
	.loc	3 366 9                         @ ../../../CORTEX_MPU_M3_NUCLEO_L152RE_GCC/Demo/QPeek.c:366:9
	b	.LBB1_3
.Ltmp10:
.LBB1_3:                                @   in Loop: Header=BB1_1 Depth=1
	.loc	3 371 13                        @ ../../../CORTEX_MPU_M3_NUCLEO_L152RE_GCC/Demo/QPeek.c:371:13
	ldr	r0, [sp, #4]
	movw	r1, #17767
	movt	r1, #291
.Ltmp11:
	.loc	3 371 13 is_stmt 0              @ ../../../CORTEX_MPU_M3_NUCLEO_L152RE_GCC/Demo/QPeek.c:371:13
	cmp	r0, r1
	beq	.LBB1_5
	b	.LBB1_4
.LBB1_4:                                @   in Loop: Header=BB1_1 Depth=1
.Ltmp12:
	.loc	3 374 28 is_stmt 1              @ ../../../CORTEX_MPU_M3_NUCLEO_L152RE_GCC/Demo/QPeek.c:374:28
	movw	r1, :lower16:xErrorDetected
	movt	r1, :upper16:xErrorDetected
	movs	r0, #1
	str	r0, [r1]
	.loc	3 375 9                         @ ../../../CORTEX_MPU_M3_NUCLEO_L152RE_GCC/Demo/QPeek.c:375:9
	b	.LBB1_5
.Ltmp13:
.LBB1_5:                                @   in Loop: Header=BB1_1 Depth=1
	.loc	3 377 37                        @ ../../../CORTEX_MPU_M3_NUCLEO_L152RE_GCC/Demo/QPeek.c:377:37
	ldr	r0, [sp, #8]
	.loc	3 377 13 is_stmt 0              @ ../../../CORTEX_MPU_M3_NUCLEO_L152RE_GCC/Demo/QPeek.c:377:13
	bl	MPU_uxQueueMessagesWaiting
.Ltmp14:
	.loc	3 377 13                        @ ../../../CORTEX_MPU_M3_NUCLEO_L152RE_GCC/Demo/QPeek.c:377:13
	cmp	r0, #1
	beq	.LBB1_7
	b	.LBB1_6
.LBB1_6:                                @   in Loop: Header=BB1_1 Depth=1
.Ltmp15:
	.loc	3 380 28 is_stmt 1              @ ../../../CORTEX_MPU_M3_NUCLEO_L152RE_GCC/Demo/QPeek.c:380:28
	movw	r1, :lower16:xErrorDetected
	movt	r1, :upper16:xErrorDetected
	movs	r0, #1
	str	r0, [r1]
	.loc	3 381 9                         @ ../../../CORTEX_MPU_M3_NUCLEO_L152RE_GCC/Demo/QPeek.c:381:9
	b	.LBB1_7
.Ltmp16:
.LBB1_7:                                @   in Loop: Header=BB1_1 Depth=1
	.loc	3 384 27                        @ ../../../CORTEX_MPU_M3_NUCLEO_L152RE_GCC/Demo/QPeek.c:384:27
	movw	r1, :lower16:ulLoopCounter
	movt	r1, :upper16:ulLoopCounter
	ldr	r0, [r1]
	adds	r0, r0, #1
	str	r0, [r1]
	movs	r0, #0
	.loc	3 388 9                         @ ../../../CORTEX_MPU_M3_NUCLEO_L152RE_GCC/Demo/QPeek.c:388:9
	bl	MPU_vTaskSuspend
.Ltmp17:
	.loc	3 357 5                         @ ../../../CORTEX_MPU_M3_NUCLEO_L152RE_GCC/Demo/QPeek.c:357:5
	b	.LBB1_1
.Ltmp18:
.Lfunc_end1:
	.size	prvMediumPriorityPeekTask, .Lfunc_end1-prvMediumPriorityPeekTask
	.cfi_endproc
	.cantunwind
	.fnend
                                        @ -- End function
	.section	.text.prvHighPriorityPeekTask,"ax",%progbits
	.p2align	1                               @ -- Begin function prvHighPriorityPeekTask
	.type	prvHighPriorityPeekTask,%function
	.code	16                              @ @prvHighPriorityPeekTask
	.thumb_func
prvHighPriorityPeekTask:
.Lfunc_begin2:
	.loc	3 299 0                         @ ../../../CORTEX_MPU_M3_NUCLEO_L152RE_GCC/Demo/QPeek.c:299:0
	.fnstart
	.cfi_startproc
@ %bb.0:
	.save	{r7, lr}
	push	{r7, lr}
	.cfi_def_cfa_offset 8
	.cfi_offset lr, -4
	.cfi_offset r7, -8
	.pad	#16
	sub	sp, #16
	.cfi_def_cfa_offset 24
	str	r0, [sp, #12]
.Ltmp19:
	.loc	3 300 46 prologue_end           @ ../../../CORTEX_MPU_M3_NUCLEO_L152RE_GCC/Demo/QPeek.c:300:46
	ldr	r0, [sp, #12]
	.loc	3 300 19 is_stmt 0              @ ../../../CORTEX_MPU_M3_NUCLEO_L152RE_GCC/Demo/QPeek.c:300:19
	str	r0, [sp, #8]
	.loc	3 303 5 is_stmt 1               @ ../../../CORTEX_MPU_M3_NUCLEO_L152RE_GCC/Demo/QPeek.c:303:5
	b	.LBB2_1
.LBB2_1:                                @ =>This Inner Loop Header: Depth=1
.Ltmp20:
	.loc	3 308 25                        @ ../../../CORTEX_MPU_M3_NUCLEO_L152RE_GCC/Demo/QPeek.c:308:25
	ldr	r0, [sp, #8]
	movs	r1, #0
	mvns	r2, r1
	add	r1, sp, #4
	.loc	3 308 13 is_stmt 0              @ ../../../CORTEX_MPU_M3_NUCLEO_L152RE_GCC/Demo/QPeek.c:308:13
	bl	MPU_xQueuePeek
.Ltmp21:
	.loc	3 308 13                        @ ../../../CORTEX_MPU_M3_NUCLEO_L152RE_GCC/Demo/QPeek.c:308:13
	cmp	r0, #1
	beq	.LBB2_3
	b	.LBB2_2
.LBB2_2:                                @   in Loop: Header=BB2_1 Depth=1
.Ltmp22:
	.loc	3 311 28 is_stmt 1              @ ../../../CORTEX_MPU_M3_NUCLEO_L152RE_GCC/Demo/QPeek.c:311:28
	movw	r1, :lower16:xErrorDetected
	movt	r1, :upper16:xErrorDetected
	movs	r0, #1
	str	r0, [r1]
	.loc	3 312 9                         @ ../../../CORTEX_MPU_M3_NUCLEO_L152RE_GCC/Demo/QPeek.c:312:9
	b	.LBB2_3
.Ltmp23:
.LBB2_3:                                @   in Loop: Header=BB2_1 Depth=1
	.loc	3 317 13                        @ ../../../CORTEX_MPU_M3_NUCLEO_L152RE_GCC/Demo/QPeek.c:317:13
	ldr	r0, [sp, #4]
	movw	r1, #17767
	movt	r1, #291
.Ltmp24:
	.loc	3 317 13 is_stmt 0              @ ../../../CORTEX_MPU_M3_NUCLEO_L152RE_GCC/Demo/QPeek.c:317:13
	cmp	r0, r1
	beq	.LBB2_5
	b	.LBB2_4
.LBB2_4:                                @   in Loop: Header=BB2_1 Depth=1
.Ltmp25:
	.loc	3 320 28 is_stmt 1              @ ../../../CORTEX_MPU_M3_NUCLEO_L152RE_GCC/Demo/QPeek.c:320:28
	movw	r1, :lower16:xErrorDetected
	movt	r1, :upper16:xErrorDetected
	movs	r0, #1
	str	r0, [r1]
	.loc	3 321 9                         @ ../../../CORTEX_MPU_M3_NUCLEO_L152RE_GCC/Demo/QPeek.c:321:9
	b	.LBB2_5
.Ltmp26:
.LBB2_5:                                @   in Loop: Header=BB2_1 Depth=1
	.loc	3 323 37                        @ ../../../CORTEX_MPU_M3_NUCLEO_L152RE_GCC/Demo/QPeek.c:323:37
	ldr	r0, [sp, #8]
	.loc	3 323 13 is_stmt 0              @ ../../../CORTEX_MPU_M3_NUCLEO_L152RE_GCC/Demo/QPeek.c:323:13
	bl	MPU_uxQueueMessagesWaiting
.Ltmp27:
	.loc	3 323 13                        @ ../../../CORTEX_MPU_M3_NUCLEO_L152RE_GCC/Demo/QPeek.c:323:13
	cmp	r0, #1
	beq	.LBB2_7
	b	.LBB2_6
.LBB2_6:                                @   in Loop: Header=BB2_1 Depth=1
.Ltmp28:
	.loc	3 326 28 is_stmt 1              @ ../../../CORTEX_MPU_M3_NUCLEO_L152RE_GCC/Demo/QPeek.c:326:28
	movw	r1, :lower16:xErrorDetected
	movt	r1, :upper16:xErrorDetected
	movs	r0, #1
	str	r0, [r1]
	.loc	3 327 9                         @ ../../../CORTEX_MPU_M3_NUCLEO_L152RE_GCC/Demo/QPeek.c:327:9
	b	.LBB2_7
.Ltmp29:
.LBB2_7:                                @   in Loop: Header=BB2_1 Depth=1
	.loc	3 0 9 is_stmt 0                 @ ../../../CORTEX_MPU_M3_NUCLEO_L152RE_GCC/Demo/QPeek.c:0:9
	movs	r0, #0
	.loc	3 333 9 is_stmt 1               @ ../../../CORTEX_MPU_M3_NUCLEO_L152RE_GCC/Demo/QPeek.c:333:9
	str	r0, [sp]                        @ 4-byte Spill
	bl	MPU_vTaskSuspend
	ldr	r1, [sp]                        @ 4-byte Reload
.Ltmp30:
	.loc	3 337 28                        @ ../../../CORTEX_MPU_M3_NUCLEO_L152RE_GCC/Demo/QPeek.c:337:28
	ldr	r0, [sp, #8]
	mvns	r2, r1
	add	r1, sp, #4
	.loc	3 337 13 is_stmt 0              @ ../../../CORTEX_MPU_M3_NUCLEO_L152RE_GCC/Demo/QPeek.c:337:13
	bl	MPU_xQueueReceive
.Ltmp31:
	.loc	3 337 13                        @ ../../../CORTEX_MPU_M3_NUCLEO_L152RE_GCC/Demo/QPeek.c:337:13
	cmp	r0, #1
	beq	.LBB2_9
	b	.LBB2_8
.LBB2_8:                                @   in Loop: Header=BB2_1 Depth=1
.Ltmp32:
	.loc	3 339 28 is_stmt 1              @ ../../../CORTEX_MPU_M3_NUCLEO_L152RE_GCC/Demo/QPeek.c:339:28
	movw	r1, :lower16:xErrorDetected
	movt	r1, :upper16:xErrorDetected
	movs	r0, #1
	str	r0, [r1]
	.loc	3 340 9                         @ ../../../CORTEX_MPU_M3_NUCLEO_L152RE_GCC/Demo/QPeek.c:340:9
	b	.LBB2_9
.Ltmp33:
.LBB2_9:                                @   in Loop: Header=BB2_1 Depth=1
	.loc	3 342 13                        @ ../../../CORTEX_MPU_M3_NUCLEO_L152RE_GCC/Demo/QPeek.c:342:13
	ldr	r0, [sp, #4]
	movw	r1, #43707
	movt	r1, #43707
.Ltmp34:
	.loc	3 342 13 is_stmt 0              @ ../../../CORTEX_MPU_M3_NUCLEO_L152RE_GCC/Demo/QPeek.c:342:13
	cmp	r0, r1
	beq	.LBB2_11
	b	.LBB2_10
.LBB2_10:                               @   in Loop: Header=BB2_1 Depth=1
.Ltmp35:
	.loc	3 344 28 is_stmt 1              @ ../../../CORTEX_MPU_M3_NUCLEO_L152RE_GCC/Demo/QPeek.c:344:28
	movw	r1, :lower16:xErrorDetected
	movt	r1, :upper16:xErrorDetected
	movs	r0, #1
	str	r0, [r1]
	.loc	3 345 9                         @ ../../../CORTEX_MPU_M3_NUCLEO_L152RE_GCC/Demo/QPeek.c:345:9
	b	.LBB2_11
.Ltmp36:
.LBB2_11:                               @   in Loop: Header=BB2_1 Depth=1
	.loc	3 0 9 is_stmt 0                 @ ../../../CORTEX_MPU_M3_NUCLEO_L152RE_GCC/Demo/QPeek.c:0:9
	movs	r0, #0
	.loc	3 347 9 is_stmt 1               @ ../../../CORTEX_MPU_M3_NUCLEO_L152RE_GCC/Demo/QPeek.c:347:9
	bl	MPU_vTaskSuspend
.Ltmp37:
	.loc	3 303 5                         @ ../../../CORTEX_MPU_M3_NUCLEO_L152RE_GCC/Demo/QPeek.c:303:5
	b	.LBB2_1
.Ltmp38:
.Lfunc_end2:
	.size	prvHighPriorityPeekTask, .Lfunc_end2-prvHighPriorityPeekTask
	.cfi_endproc
	.cantunwind
	.fnend
                                        @ -- End function
	.section	.text.prvHighestPriorityPeekTask,"ax",%progbits
	.p2align	1                               @ -- Begin function prvHighestPriorityPeekTask
	.type	prvHighestPriorityPeekTask,%function
	.code	16                              @ @prvHighestPriorityPeekTask
	.thumb_func
prvHighestPriorityPeekTask:
.Lfunc_begin3:
	.loc	3 191 0                         @ ../../../CORTEX_MPU_M3_NUCLEO_L152RE_GCC/Demo/QPeek.c:191:0
	.fnstart
	.cfi_startproc
@ %bb.0:
	.save	{r7, lr}
	push	{r7, lr}
	.cfi_def_cfa_offset 8
	.cfi_offset lr, -4
	.cfi_offset r7, -8
	.pad	#16
	sub	sp, #16
	.cfi_def_cfa_offset 24
	str	r0, [sp, #12]
.Ltmp39:
	.loc	3 192 46 prologue_end           @ ../../../CORTEX_MPU_M3_NUCLEO_L152RE_GCC/Demo/QPeek.c:192:46
	ldr	r0, [sp, #12]
	.loc	3 192 19 is_stmt 0              @ ../../../CORTEX_MPU_M3_NUCLEO_L152RE_GCC/Demo/QPeek.c:192:19
	str	r0, [sp, #8]
	.loc	3 206 5 is_stmt 1               @ ../../../CORTEX_MPU_M3_NUCLEO_L152RE_GCC/Demo/QPeek.c:206:5
	b	.LBB3_1
.LBB3_1:                                @ =>This Inner Loop Header: Depth=1
.Ltmp40:
	.loc	3 210 25                        @ ../../../CORTEX_MPU_M3_NUCLEO_L152RE_GCC/Demo/QPeek.c:210:25
	ldr	r0, [sp, #8]
	movs	r1, #0
	mvns	r2, r1
	add	r1, sp, #4
	.loc	3 210 13 is_stmt 0              @ ../../../CORTEX_MPU_M3_NUCLEO_L152RE_GCC/Demo/QPeek.c:210:13
	bl	MPU_xQueuePeek
.Ltmp41:
	.loc	3 210 13                        @ ../../../CORTEX_MPU_M3_NUCLEO_L152RE_GCC/Demo/QPeek.c:210:13
	cmp	r0, #1
	beq	.LBB3_3
	b	.LBB3_2
.LBB3_2:                                @   in Loop: Header=BB3_1 Depth=1
.Ltmp42:
	.loc	3 213 28 is_stmt 1              @ ../../../CORTEX_MPU_M3_NUCLEO_L152RE_GCC/Demo/QPeek.c:213:28
	movw	r1, :lower16:xErrorDetected
	movt	r1, :upper16:xErrorDetected
	movs	r0, #1
	str	r0, [r1]
	.loc	3 214 9                         @ ../../../CORTEX_MPU_M3_NUCLEO_L152RE_GCC/Demo/QPeek.c:214:9
	b	.LBB3_3
.Ltmp43:
.LBB3_3:                                @   in Loop: Header=BB3_1 Depth=1
	.loc	3 222 13                        @ ../../../CORTEX_MPU_M3_NUCLEO_L152RE_GCC/Demo/QPeek.c:222:13
	ldr	r0, [sp, #4]
	movw	r1, #13124
	movt	r1, #4386
.Ltmp44:
	.loc	3 222 13 is_stmt 0              @ ../../../CORTEX_MPU_M3_NUCLEO_L152RE_GCC/Demo/QPeek.c:222:13
	cmp	r0, r1
	beq	.LBB3_5
	b	.LBB3_4
.LBB3_4:                                @   in Loop: Header=BB3_1 Depth=1
.Ltmp45:
	.loc	3 225 28 is_stmt 1              @ ../../../CORTEX_MPU_M3_NUCLEO_L152RE_GCC/Demo/QPeek.c:225:28
	movw	r1, :lower16:xErrorDetected
	movt	r1, :upper16:xErrorDetected
	movs	r0, #1
	str	r0, [r1]
	.loc	3 226 9                         @ ../../../CORTEX_MPU_M3_NUCLEO_L152RE_GCC/Demo/QPeek.c:226:9
	b	.LBB3_5
.Ltmp46:
.LBB3_5:                                @   in Loop: Header=BB3_1 Depth=1
	.loc	3 228 37                        @ ../../../CORTEX_MPU_M3_NUCLEO_L152RE_GCC/Demo/QPeek.c:228:37
	ldr	r0, [sp, #8]
	.loc	3 228 13 is_stmt 0              @ ../../../CORTEX_MPU_M3_NUCLEO_L152RE_GCC/Demo/QPeek.c:228:13
	bl	MPU_uxQueueMessagesWaiting
.Ltmp47:
	.loc	3 228 13                        @ ../../../CORTEX_MPU_M3_NUCLEO_L152RE_GCC/Demo/QPeek.c:228:13
	cmp	r0, #1
	beq	.LBB3_7
	b	.LBB3_6
.LBB3_6:                                @   in Loop: Header=BB3_1 Depth=1
.Ltmp48:
	.loc	3 231 28 is_stmt 1              @ ../../../CORTEX_MPU_M3_NUCLEO_L152RE_GCC/Demo/QPeek.c:231:28
	movw	r1, :lower16:xErrorDetected
	movt	r1, :upper16:xErrorDetected
	movs	r0, #1
	str	r0, [r1]
	.loc	3 232 9                         @ ../../../CORTEX_MPU_M3_NUCLEO_L152RE_GCC/Demo/QPeek.c:232:9
	b	.LBB3_7
.Ltmp49:
.LBB3_7:                                @   in Loop: Header=BB3_1 Depth=1
	.loc	3 0 9 is_stmt 0                 @ ../../../CORTEX_MPU_M3_NUCLEO_L152RE_GCC/Demo/QPeek.c:0:9
	movs	r2, #0
	.loc	3 237 17 is_stmt 1              @ ../../../CORTEX_MPU_M3_NUCLEO_L152RE_GCC/Demo/QPeek.c:237:17
	str	r2, [sp, #4]
.Ltmp50:
	.loc	3 239 28                        @ ../../../CORTEX_MPU_M3_NUCLEO_L152RE_GCC/Demo/QPeek.c:239:28
	ldr	r0, [sp, #8]
	add	r1, sp, #4
	.loc	3 239 13 is_stmt 0              @ ../../../CORTEX_MPU_M3_NUCLEO_L152RE_GCC/Demo/QPeek.c:239:13
	bl	MPU_xQueueReceive
.Ltmp51:
	.loc	3 239 13                        @ ../../../CORTEX_MPU_M3_NUCLEO_L152RE_GCC/Demo/QPeek.c:239:13
	cmp	r0, #1
	beq	.LBB3_9
	b	.LBB3_8
.LBB3_8:                                @   in Loop: Header=BB3_1 Depth=1
.Ltmp52:
	.loc	3 242 28 is_stmt 1              @ ../../../CORTEX_MPU_M3_NUCLEO_L152RE_GCC/Demo/QPeek.c:242:28
	movw	r1, :lower16:xErrorDetected
	movt	r1, :upper16:xErrorDetected
	movs	r0, #1
	str	r0, [r1]
	.loc	3 243 9                         @ ../../../CORTEX_MPU_M3_NUCLEO_L152RE_GCC/Demo/QPeek.c:243:9
	b	.LBB3_9
.Ltmp53:
.LBB3_9:                                @   in Loop: Header=BB3_1 Depth=1
	.loc	3 245 13                        @ ../../../CORTEX_MPU_M3_NUCLEO_L152RE_GCC/Demo/QPeek.c:245:13
	ldr	r0, [sp, #4]
	movw	r1, #13124
	movt	r1, #4386
.Ltmp54:
	.loc	3 245 13 is_stmt 0              @ ../../../CORTEX_MPU_M3_NUCLEO_L152RE_GCC/Demo/QPeek.c:245:13
	cmp	r0, r1
	beq	.LBB3_11
	b	.LBB3_10
.LBB3_10:                               @   in Loop: Header=BB3_1 Depth=1
.Ltmp55:
	.loc	3 249 28 is_stmt 1              @ ../../../CORTEX_MPU_M3_NUCLEO_L152RE_GCC/Demo/QPeek.c:249:28
	movw	r1, :lower16:xErrorDetected
	movt	r1, :upper16:xErrorDetected
	movs	r0, #1
	str	r0, [r1]
	.loc	3 250 9                         @ ../../../CORTEX_MPU_M3_NUCLEO_L152RE_GCC/Demo/QPeek.c:250:9
	b	.LBB3_11
.Ltmp56:
.LBB3_11:                               @   in Loop: Header=BB3_1 Depth=1
	.loc	3 254 25                        @ ../../../CORTEX_MPU_M3_NUCLEO_L152RE_GCC/Demo/QPeek.c:254:25
	ldr	r0, [sp, #8]
	movs	r1, #0
	mvns	r2, r1
	add	r1, sp, #4
	.loc	3 254 13 is_stmt 0              @ ../../../CORTEX_MPU_M3_NUCLEO_L152RE_GCC/Demo/QPeek.c:254:13
	bl	MPU_xQueuePeek
.Ltmp57:
	.loc	3 254 13                        @ ../../../CORTEX_MPU_M3_NUCLEO_L152RE_GCC/Demo/QPeek.c:254:13
	cmp	r0, #1
	beq	.LBB3_13
	b	.LBB3_12
.LBB3_12:                               @   in Loop: Header=BB3_1 Depth=1
.Ltmp58:
	.loc	3 257 28 is_stmt 1              @ ../../../CORTEX_MPU_M3_NUCLEO_L152RE_GCC/Demo/QPeek.c:257:28
	movw	r1, :lower16:xErrorDetected
	movt	r1, :upper16:xErrorDetected
	movs	r0, #1
	str	r0, [r1]
	.loc	3 258 9                         @ ../../../CORTEX_MPU_M3_NUCLEO_L152RE_GCC/Demo/QPeek.c:258:9
	b	.LBB3_13
.Ltmp59:
.LBB3_13:                               @   in Loop: Header=BB3_1 Depth=1
	.loc	3 262 13                        @ ../../../CORTEX_MPU_M3_NUCLEO_L152RE_GCC/Demo/QPeek.c:262:13
	ldr	r0, [sp, #4]
	movw	r1, #17767
	movt	r1, #291
.Ltmp60:
	.loc	3 262 13 is_stmt 0              @ ../../../CORTEX_MPU_M3_NUCLEO_L152RE_GCC/Demo/QPeek.c:262:13
	cmp	r0, r1
	beq	.LBB3_15
	b	.LBB3_14
.LBB3_14:                               @   in Loop: Header=BB3_1 Depth=1
.Ltmp61:
	.loc	3 265 28 is_stmt 1              @ ../../../CORTEX_MPU_M3_NUCLEO_L152RE_GCC/Demo/QPeek.c:265:28
	movw	r1, :lower16:xErrorDetected
	movt	r1, :upper16:xErrorDetected
	movs	r0, #1
	str	r0, [r1]
	.loc	3 266 9                         @ ../../../CORTEX_MPU_M3_NUCLEO_L152RE_GCC/Demo/QPeek.c:266:9
	b	.LBB3_15
.Ltmp62:
.LBB3_15:                               @   in Loop: Header=BB3_1 Depth=1
	.loc	3 268 37                        @ ../../../CORTEX_MPU_M3_NUCLEO_L152RE_GCC/Demo/QPeek.c:268:37
	ldr	r0, [sp, #8]
	.loc	3 268 13 is_stmt 0              @ ../../../CORTEX_MPU_M3_NUCLEO_L152RE_GCC/Demo/QPeek.c:268:13
	bl	MPU_uxQueueMessagesWaiting
.Ltmp63:
	.loc	3 268 13                        @ ../../../CORTEX_MPU_M3_NUCLEO_L152RE_GCC/Demo/QPeek.c:268:13
	cmp	r0, #1
	beq	.LBB3_17
	b	.LBB3_16
.LBB3_16:                               @   in Loop: Header=BB3_1 Depth=1
.Ltmp64:
	.loc	3 271 28 is_stmt 1              @ ../../../CORTEX_MPU_M3_NUCLEO_L152RE_GCC/Demo/QPeek.c:271:28
	movw	r1, :lower16:xErrorDetected
	movt	r1, :upper16:xErrorDetected
	movs	r0, #1
	str	r0, [r1]
	.loc	3 272 9                         @ ../../../CORTEX_MPU_M3_NUCLEO_L152RE_GCC/Demo/QPeek.c:272:9
	b	.LBB3_17
.Ltmp65:
.LBB3_17:                               @   in Loop: Header=BB3_1 Depth=1
	.loc	3 0 9 is_stmt 0                 @ ../../../CORTEX_MPU_M3_NUCLEO_L152RE_GCC/Demo/QPeek.c:0:9
	movs	r0, #0
	.loc	3 278 9 is_stmt 1               @ ../../../CORTEX_MPU_M3_NUCLEO_L152RE_GCC/Demo/QPeek.c:278:9
	str	r0, [sp]                        @ 4-byte Spill
	bl	MPU_vTaskSuspend
	ldr	r1, [sp]                        @ 4-byte Reload
.Ltmp66:
	.loc	3 283 25                        @ ../../../CORTEX_MPU_M3_NUCLEO_L152RE_GCC/Demo/QPeek.c:283:25
	ldr	r0, [sp, #8]
	mvns	r2, r1
	add	r1, sp, #4
	.loc	3 283 13 is_stmt 0              @ ../../../CORTEX_MPU_M3_NUCLEO_L152RE_GCC/Demo/QPeek.c:283:13
	bl	MPU_xQueuePeek
.Ltmp67:
	.loc	3 283 13                        @ ../../../CORTEX_MPU_M3_NUCLEO_L152RE_GCC/Demo/QPeek.c:283:13
	cmp	r0, #1
	beq	.LBB3_19
	b	.LBB3_18
.LBB3_18:                               @   in Loop: Header=BB3_1 Depth=1
.Ltmp68:
	.loc	3 285 28 is_stmt 1              @ ../../../CORTEX_MPU_M3_NUCLEO_L152RE_GCC/Demo/QPeek.c:285:28
	movw	r1, :lower16:xErrorDetected
	movt	r1, :upper16:xErrorDetected
	movs	r0, #1
	str	r0, [r1]
	.loc	3 286 9                         @ ../../../CORTEX_MPU_M3_NUCLEO_L152RE_GCC/Demo/QPeek.c:286:9
	b	.LBB3_19
.Ltmp69:
.LBB3_19:                               @   in Loop: Header=BB3_1 Depth=1
	.loc	3 288 13                        @ ../../../CORTEX_MPU_M3_NUCLEO_L152RE_GCC/Demo/QPeek.c:288:13
	ldr	r0, [sp, #4]
	movw	r1, #43707
	movt	r1, #43707
.Ltmp70:
	.loc	3 288 13 is_stmt 0              @ ../../../CORTEX_MPU_M3_NUCLEO_L152RE_GCC/Demo/QPeek.c:288:13
	cmp	r0, r1
	beq	.LBB3_21
	b	.LBB3_20
.LBB3_20:                               @   in Loop: Header=BB3_1 Depth=1
.Ltmp71:
	.loc	3 290 28 is_stmt 1              @ ../../../CORTEX_MPU_M3_NUCLEO_L152RE_GCC/Demo/QPeek.c:290:28
	movw	r1, :lower16:xErrorDetected
	movt	r1, :upper16:xErrorDetected
	movs	r0, #1
	str	r0, [r1]
	.loc	3 291 9                         @ ../../../CORTEX_MPU_M3_NUCLEO_L152RE_GCC/Demo/QPeek.c:291:9
	b	.LBB3_21
.Ltmp72:
.LBB3_21:                               @   in Loop: Header=BB3_1 Depth=1
	.loc	3 0 9 is_stmt 0                 @ ../../../CORTEX_MPU_M3_NUCLEO_L152RE_GCC/Demo/QPeek.c:0:9
	movs	r0, #0
	.loc	3 293 9 is_stmt 1               @ ../../../CORTEX_MPU_M3_NUCLEO_L152RE_GCC/Demo/QPeek.c:293:9
	bl	MPU_vTaskSuspend
.Ltmp73:
	.loc	3 206 5                         @ ../../../CORTEX_MPU_M3_NUCLEO_L152RE_GCC/Demo/QPeek.c:206:5
	b	.LBB3_1
.Ltmp74:
.Lfunc_end3:
	.size	prvHighestPriorityPeekTask, .Lfunc_end3-prvHighestPriorityPeekTask
	.cfi_endproc
	.cantunwind
	.fnend
                                        @ -- End function
	.section	.text.prvLowPriorityPeekTask,"ax",%progbits
	.p2align	1                               @ -- Begin function prvLowPriorityPeekTask
	.type	prvLowPriorityPeekTask,%function
	.code	16                              @ @prvLowPriorityPeekTask
	.thumb_func
prvLowPriorityPeekTask:
.Lfunc_begin4:
	.loc	3 394 0                         @ ../../../CORTEX_MPU_M3_NUCLEO_L152RE_GCC/Demo/QPeek.c:394:0
	.fnstart
	.cfi_startproc
@ %bb.0:
	.save	{r7, lr}
	push	{r7, lr}
	.cfi_def_cfa_offset 8
	.cfi_offset lr, -4
	.cfi_offset r7, -8
	.pad	#24
	sub	sp, #24
	.cfi_def_cfa_offset 32
	str	r0, [sp, #20]
.Ltmp75:
	.loc	3 395 46 prologue_end           @ ../../../CORTEX_MPU_M3_NUCLEO_L152RE_GCC/Demo/QPeek.c:395:46
	ldr	r0, [sp, #20]
	.loc	3 395 19 is_stmt 0              @ ../../../CORTEX_MPU_M3_NUCLEO_L152RE_GCC/Demo/QPeek.c:395:19
	str	r0, [sp, #16]
	.loc	3 398 5 is_stmt 1               @ ../../../CORTEX_MPU_M3_NUCLEO_L152RE_GCC/Demo/QPeek.c:398:5
	b	.LBB4_1
.LBB4_1:                                @ =>This Inner Loop Header: Depth=1
	.loc	3 0 5 is_stmt 0                 @ ../../../CORTEX_MPU_M3_NUCLEO_L152RE_GCC/Demo/QPeek.c:0:5
	movw	r0, #13124
	movt	r0, #4386
.Ltmp76:
	.loc	3 402 17 is_stmt 1              @ ../../../CORTEX_MPU_M3_NUCLEO_L152RE_GCC/Demo/QPeek.c:402:17
	str	r0, [sp, #12]
.Ltmp77:
	.loc	3 404 13                        @ ../../../CORTEX_MPU_M3_NUCLEO_L152RE_GCC/Demo/QPeek.c:404:13
	ldr	r0, [sp, #16]
	add	r1, sp, #12
	movs	r3, #0
	mov	r2, r3
	bl	MPU_xQueueGenericSend
.Ltmp78:
	.loc	3 404 13 is_stmt 0              @ ../../../CORTEX_MPU_M3_NUCLEO_L152RE_GCC/Demo/QPeek.c:404:13
	cmp	r0, #1
	beq	.LBB4_3
	b	.LBB4_2
.LBB4_2:                                @   in Loop: Header=BB4_1 Depth=1
.Ltmp79:
	.loc	3 408 28 is_stmt 1              @ ../../../CORTEX_MPU_M3_NUCLEO_L152RE_GCC/Demo/QPeek.c:408:28
	movw	r1, :lower16:xErrorDetected
	movt	r1, :upper16:xErrorDetected
	movs	r0, #1
	str	r0, [r1]
	.loc	3 409 9                         @ ../../../CORTEX_MPU_M3_NUCLEO_L152RE_GCC/Demo/QPeek.c:409:9
	b	.LBB4_3
.Ltmp80:
.LBB4_3:                                @   in Loop: Header=BB4_1 Depth=1
	.loc	3 417 37                        @ ../../../CORTEX_MPU_M3_NUCLEO_L152RE_GCC/Demo/QPeek.c:417:37
	ldr	r0, [sp, #16]
	.loc	3 417 13 is_stmt 0              @ ../../../CORTEX_MPU_M3_NUCLEO_L152RE_GCC/Demo/QPeek.c:417:13
	bl	MPU_uxQueueMessagesWaiting
.Ltmp81:
	.loc	3 417 13                        @ ../../../CORTEX_MPU_M3_NUCLEO_L152RE_GCC/Demo/QPeek.c:417:13
	cbz	r0, .LBB4_5
	b	.LBB4_4
.LBB4_4:                                @   in Loop: Header=BB4_1 Depth=1
.Ltmp82:
	.loc	3 419 28 is_stmt 1              @ ../../../CORTEX_MPU_M3_NUCLEO_L152RE_GCC/Demo/QPeek.c:419:28
	movw	r1, :lower16:xErrorDetected
	movt	r1, :upper16:xErrorDetected
	movs	r0, #1
	str	r0, [r1]
	.loc	3 420 9                         @ ../../../CORTEX_MPU_M3_NUCLEO_L152RE_GCC/Demo/QPeek.c:420:9
	b	.LBB4_5
.Ltmp83:
.LBB4_5:                                @   in Loop: Header=BB4_1 Depth=1
	.loc	3 0 9 is_stmt 0                 @ ../../../CORTEX_MPU_M3_NUCLEO_L152RE_GCC/Demo/QPeek.c:0:9
	movw	r0, #17767
	movt	r0, #291
	.loc	3 424 17 is_stmt 1              @ ../../../CORTEX_MPU_M3_NUCLEO_L152RE_GCC/Demo/QPeek.c:424:17
	str	r0, [sp, #12]
.Ltmp84:
	.loc	3 426 13                        @ ../../../CORTEX_MPU_M3_NUCLEO_L152RE_GCC/Demo/QPeek.c:426:13
	ldr	r0, [sp, #16]
	add	r1, sp, #12
	movs	r3, #0
	mov	r2, r3
	bl	MPU_xQueueGenericSend
.Ltmp85:
	.loc	3 426 13 is_stmt 0              @ ../../../CORTEX_MPU_M3_NUCLEO_L152RE_GCC/Demo/QPeek.c:426:13
	cmp	r0, #1
	beq	.LBB4_7
	b	.LBB4_6
.LBB4_6:                                @   in Loop: Header=BB4_1 Depth=1
.Ltmp86:
	.loc	3 430 28 is_stmt 1              @ ../../../CORTEX_MPU_M3_NUCLEO_L152RE_GCC/Demo/QPeek.c:430:28
	movw	r1, :lower16:xErrorDetected
	movt	r1, :upper16:xErrorDetected
	movs	r0, #1
	str	r0, [r1]
	.loc	3 431 9                         @ ../../../CORTEX_MPU_M3_NUCLEO_L152RE_GCC/Demo/QPeek.c:431:9
	b	.LBB4_7
.Ltmp87:
.LBB4_7:                                @   in Loop: Header=BB4_1 Depth=1
	.loc	3 0 9 is_stmt 0                 @ ../../../CORTEX_MPU_M3_NUCLEO_L152RE_GCC/Demo/QPeek.c:0:9
	movs	r2, #0
	.loc	3 439 17 is_stmt 1              @ ../../../CORTEX_MPU_M3_NUCLEO_L152RE_GCC/Demo/QPeek.c:439:17
	str	r2, [sp, #12]
.Ltmp88:
	.loc	3 441 28                        @ ../../../CORTEX_MPU_M3_NUCLEO_L152RE_GCC/Demo/QPeek.c:441:28
	ldr	r0, [sp, #16]
	add	r1, sp, #12
	.loc	3 441 13 is_stmt 0              @ ../../../CORTEX_MPU_M3_NUCLEO_L152RE_GCC/Demo/QPeek.c:441:13
	bl	MPU_xQueueReceive
.Ltmp89:
	.loc	3 441 13                        @ ../../../CORTEX_MPU_M3_NUCLEO_L152RE_GCC/Demo/QPeek.c:441:13
	cmp	r0, #1
	beq	.LBB4_9
	b	.LBB4_8
.LBB4_8:                                @   in Loop: Header=BB4_1 Depth=1
.Ltmp90:
	.loc	3 444 28 is_stmt 1              @ ../../../CORTEX_MPU_M3_NUCLEO_L152RE_GCC/Demo/QPeek.c:444:28
	movw	r1, :lower16:xErrorDetected
	movt	r1, :upper16:xErrorDetected
	movs	r0, #1
	str	r0, [r1]
	.loc	3 445 9                         @ ../../../CORTEX_MPU_M3_NUCLEO_L152RE_GCC/Demo/QPeek.c:445:9
	b	.LBB4_9
.Ltmp91:
.LBB4_9:                                @   in Loop: Header=BB4_1 Depth=1
	.loc	3 447 13                        @ ../../../CORTEX_MPU_M3_NUCLEO_L152RE_GCC/Demo/QPeek.c:447:13
	ldr	r0, [sp, #12]
	movw	r1, #17767
	movt	r1, #291
.Ltmp92:
	.loc	3 447 13 is_stmt 0              @ ../../../CORTEX_MPU_M3_NUCLEO_L152RE_GCC/Demo/QPeek.c:447:13
	cmp	r0, r1
	beq	.LBB4_11
	b	.LBB4_10
.LBB4_10:                               @   in Loop: Header=BB4_1 Depth=1
.Ltmp93:
	.loc	3 450 28 is_stmt 1              @ ../../../CORTEX_MPU_M3_NUCLEO_L152RE_GCC/Demo/QPeek.c:450:28
	movw	r1, :lower16:xErrorDetected
	movt	r1, :upper16:xErrorDetected
	movs	r0, #1
	str	r0, [r1]
	.loc	3 451 9                         @ ../../../CORTEX_MPU_M3_NUCLEO_L152RE_GCC/Demo/QPeek.c:451:9
	b	.LBB4_11
.Ltmp94:
.LBB4_11:                               @   in Loop: Header=BB4_1 Depth=1
	.loc	3 0 9 is_stmt 0                 @ ../../../CORTEX_MPU_M3_NUCLEO_L152RE_GCC/Demo/QPeek.c:0:9
	movs	r0, #10
	.loc	3 455 9 is_stmt 1               @ ../../../CORTEX_MPU_M3_NUCLEO_L152RE_GCC/Demo/QPeek.c:455:9
	bl	MPU_vTaskDelay
	.loc	3 462 22                        @ ../../../CORTEX_MPU_M3_NUCLEO_L152RE_GCC/Demo/QPeek.c:462:22
	movw	r0, :lower16:xQPeekLocalTaskHandles
	movt	r0, :upper16:xQPeekLocalTaskHandles
	str	r0, [sp, #8]                    @ 4-byte Spill
	ldr	r0, [r0]
	.loc	3 462 9 is_stmt 0               @ ../../../CORTEX_MPU_M3_NUCLEO_L152RE_GCC/Demo/QPeek.c:462:9
	bl	MPU_vTaskResume
	ldr	r0, [sp, #8]                    @ 4-byte Reload
	.loc	3 463 22 is_stmt 1              @ ../../../CORTEX_MPU_M3_NUCLEO_L152RE_GCC/Demo/QPeek.c:463:22
	ldr	r0, [r0, #4]
	.loc	3 463 9 is_stmt 0               @ ../../../CORTEX_MPU_M3_NUCLEO_L152RE_GCC/Demo/QPeek.c:463:9
	bl	MPU_vTaskResume
	ldr	r0, [sp, #8]                    @ 4-byte Reload
	.loc	3 464 22 is_stmt 1              @ ../../../CORTEX_MPU_M3_NUCLEO_L152RE_GCC/Demo/QPeek.c:464:22
	ldr	r0, [r0, #8]
	.loc	3 464 9 is_stmt 0               @ ../../../CORTEX_MPU_M3_NUCLEO_L152RE_GCC/Demo/QPeek.c:464:9
	bl	MPU_vTaskResume
	movw	r0, #43707
	movt	r0, #43707
	.loc	3 470 17 is_stmt 1              @ ../../../CORTEX_MPU_M3_NUCLEO_L152RE_GCC/Demo/QPeek.c:470:17
	str	r0, [sp, #12]
.Ltmp95:
	.loc	3 472 13                        @ ../../../CORTEX_MPU_M3_NUCLEO_L152RE_GCC/Demo/QPeek.c:472:13
	ldr	r0, [sp, #16]
	add	r1, sp, #12
	movs	r2, #0
	movs	r3, #1
	bl	MPU_xQueueGenericSend
.Ltmp96:
	.loc	3 472 13 is_stmt 0              @ ../../../CORTEX_MPU_M3_NUCLEO_L152RE_GCC/Demo/QPeek.c:472:13
	cmp	r0, #1
	beq	.LBB4_13
	b	.LBB4_12
.LBB4_12:                               @   in Loop: Header=BB4_1 Depth=1
.Ltmp97:
	.loc	3 476 28 is_stmt 1              @ ../../../CORTEX_MPU_M3_NUCLEO_L152RE_GCC/Demo/QPeek.c:476:28
	movw	r1, :lower16:xErrorDetected
	movt	r1, :upper16:xErrorDetected
	movs	r0, #1
	str	r0, [r1]
	.loc	3 477 9                         @ ../../../CORTEX_MPU_M3_NUCLEO_L152RE_GCC/Demo/QPeek.c:477:9
	b	.LBB4_13
.Ltmp98:
.LBB4_13:                               @   in Loop: Header=BB4_1 Depth=1
	.loc	3 485 25                        @ ../../../CORTEX_MPU_M3_NUCLEO_L152RE_GCC/Demo/QPeek.c:485:25
	ldr	r0, [sp, #16]
	add	r1, sp, #12
	movs	r2, #0
	.loc	3 485 13 is_stmt 0              @ ../../../CORTEX_MPU_M3_NUCLEO_L152RE_GCC/Demo/QPeek.c:485:13
	bl	MPU_xQueuePeek
.Ltmp99:
	.loc	3 485 13                        @ ../../../CORTEX_MPU_M3_NUCLEO_L152RE_GCC/Demo/QPeek.c:485:13
	cbz	r0, .LBB4_15
	b	.LBB4_14
.LBB4_14:                               @   in Loop: Header=BB4_1 Depth=1
.Ltmp100:
	.loc	3 488 28 is_stmt 1              @ ../../../CORTEX_MPU_M3_NUCLEO_L152RE_GCC/Demo/QPeek.c:488:28
	movw	r1, :lower16:xErrorDetected
	movt	r1, :upper16:xErrorDetected
	movs	r0, #1
	str	r0, [r1]
	.loc	3 489 9                         @ ../../../CORTEX_MPU_M3_NUCLEO_L152RE_GCC/Demo/QPeek.c:489:9
	b	.LBB4_15
.Ltmp101:
.LBB4_15:                               @   in Loop: Header=BB4_1 Depth=1
	.loc	3 494 22                        @ ../../../CORTEX_MPU_M3_NUCLEO_L152RE_GCC/Demo/QPeek.c:494:22
	movw	r0, :lower16:xQPeekLocalTaskHandles
	movt	r0, :upper16:xQPeekLocalTaskHandles
	str	r0, [sp, #4]                    @ 4-byte Spill
	ldr	r0, [r0, #4]
	.loc	3 494 9 is_stmt 0               @ ../../../CORTEX_MPU_M3_NUCLEO_L152RE_GCC/Demo/QPeek.c:494:9
	bl	MPU_vTaskResume
	ldr	r0, [sp, #4]                    @ 4-byte Reload
	.loc	3 495 22 is_stmt 1              @ ../../../CORTEX_MPU_M3_NUCLEO_L152RE_GCC/Demo/QPeek.c:495:22
	ldr	r0, [r0, #8]
	.loc	3 495 9 is_stmt 0               @ ../../../CORTEX_MPU_M3_NUCLEO_L152RE_GCC/Demo/QPeek.c:495:9
	bl	MPU_vTaskResume
	movs	r0, #10
	.loc	3 499 9 is_stmt 1               @ ../../../CORTEX_MPU_M3_NUCLEO_L152RE_GCC/Demo/QPeek.c:499:9
	bl	MPU_vTaskDelay
.Ltmp102:
	.loc	3 398 5                         @ ../../../CORTEX_MPU_M3_NUCLEO_L152RE_GCC/Demo/QPeek.c:398:5
	b	.LBB4_1
.Ltmp103:
.Lfunc_end4:
	.size	prvLowPriorityPeekTask, .Lfunc_end4-prvLowPriorityPeekTask
	.cfi_endproc
	.cantunwind
	.fnend
                                        @ -- End function
	.section	.text.xAreQueuePeekTasksStillRunning,"ax",%progbits
	.hidden	xAreQueuePeekTasksStillRunning  @ -- Begin function xAreQueuePeekTasksStillRunning
	.globl	xAreQueuePeekTasksStillRunning
	.p2align	1
	.type	xAreQueuePeekTasksStillRunning,%function
	.code	16                              @ @xAreQueuePeekTasksStillRunning
	.thumb_func
xAreQueuePeekTasksStillRunning:
.Lfunc_begin5:
	.loc	3 506 0                         @ ../../../CORTEX_MPU_M3_NUCLEO_L152RE_GCC/Demo/QPeek.c:506:0
	.fnstart
	.cfi_startproc
@ %bb.0:
	.loc	3 511 9 prologue_end            @ ../../../CORTEX_MPU_M3_NUCLEO_L152RE_GCC/Demo/QPeek.c:511:9
	movw	r0, :lower16:xAreQueuePeekTasksStillRunning.ulLastLoopCounter
	movt	r0, :upper16:xAreQueuePeekTasksStillRunning.ulLastLoopCounter
	ldr	r0, [r0]
	.loc	3 511 30 is_stmt 0              @ ../../../CORTEX_MPU_M3_NUCLEO_L152RE_GCC/Demo/QPeek.c:511:30
	movw	r1, :lower16:ulLoopCounter
	movt	r1, :upper16:ulLoopCounter
	ldr	r1, [r1]
.Ltmp104:
	.loc	3 511 9                         @ ../../../CORTEX_MPU_M3_NUCLEO_L152RE_GCC/Demo/QPeek.c:511:9
	cmp	r0, r1
	bne	.LBB5_2
	b	.LBB5_1
.LBB5_1:
.Ltmp105:
	.loc	3 513 24 is_stmt 1              @ ../../../CORTEX_MPU_M3_NUCLEO_L152RE_GCC/Demo/QPeek.c:513:24
	movw	r1, :lower16:xErrorDetected
	movt	r1, :upper16:xErrorDetected
	movs	r0, #1
	str	r0, [r1]
	.loc	3 514 5                         @ ../../../CORTEX_MPU_M3_NUCLEO_L152RE_GCC/Demo/QPeek.c:514:5
	b	.LBB5_2
.Ltmp106:
.LBB5_2:
	.loc	3 516 25                        @ ../../../CORTEX_MPU_M3_NUCLEO_L152RE_GCC/Demo/QPeek.c:516:25
	movw	r0, :lower16:ulLoopCounter
	movt	r0, :upper16:ulLoopCounter
	ldr	r0, [r0]
	.loc	3 516 23 is_stmt 0              @ ../../../CORTEX_MPU_M3_NUCLEO_L152RE_GCC/Demo/QPeek.c:516:23
	movw	r1, :lower16:xAreQueuePeekTasksStillRunning.ulLastLoopCounter
	movt	r1, :upper16:xAreQueuePeekTasksStillRunning.ulLastLoopCounter
	str	r0, [r1]
	.loc	3 521 28 is_stmt 1              @ ../../../CORTEX_MPU_M3_NUCLEO_L152RE_GCC/Demo/QPeek.c:521:28
	movw	r0, :lower16:xErrorDetected
	movt	r0, :upper16:xErrorDetected
	ldr	r0, [r0]
	.loc	3 521 27 is_stmt 0              @ ../../../CORTEX_MPU_M3_NUCLEO_L152RE_GCC/Demo/QPeek.c:521:27
	rsbs	r1, r0, #0
	adcs	r0, r1
	.loc	3 521 5                         @ ../../../CORTEX_MPU_M3_NUCLEO_L152RE_GCC/Demo/QPeek.c:521:5
	bx	lr
.Ltmp107:
.Lfunc_end5:
	.size	xAreQueuePeekTasksStillRunning, .Lfunc_end5-xAreQueuePeekTasksStillRunning
	.cfi_endproc
	.cantunwind
	.fnend
                                        @ -- End function
	.type	vStartQueuePeekTasks.xLowPriorityPeekTaskStack,%object @ @vStartQueuePeekTasks.xLowPriorityPeekTaskStack
	.section	.bss.vStartQueuePeekTasks.xLowPriorityPeekTaskStack,"aw",%nobits
	.p2align	9, 0x0
vStartQueuePeekTasks.xLowPriorityPeekTaskStack:
	.zero	512
	.size	vStartQueuePeekTasks.xLowPriorityPeekTaskStack, 512

	.type	vStartQueuePeekTasks.xMediumPriorityPeekTaskStack,%object @ @vStartQueuePeekTasks.xMediumPriorityPeekTaskStack
	.section	.bss.vStartQueuePeekTasks.xMediumPriorityPeekTaskStack,"aw",%nobits
	.p2align	9, 0x0
vStartQueuePeekTasks.xMediumPriorityPeekTaskStack:
	.zero	512
	.size	vStartQueuePeekTasks.xMediumPriorityPeekTaskStack, 512

	.type	vStartQueuePeekTasks.xHighPriorityPeekTaskStack,%object @ @vStartQueuePeekTasks.xHighPriorityPeekTaskStack
	.section	.bss.vStartQueuePeekTasks.xHighPriorityPeekTaskStack,"aw",%nobits
	.p2align	9, 0x0
vStartQueuePeekTasks.xHighPriorityPeekTaskStack:
	.zero	512
	.size	vStartQueuePeekTasks.xHighPriorityPeekTaskStack, 512

	.type	vStartQueuePeekTasks.xHighestPriorityPeekTaskStack,%object @ @vStartQueuePeekTasks.xHighestPriorityPeekTaskStack
	.section	.bss.vStartQueuePeekTasks.xHighestPriorityPeekTaskStack,"aw",%nobits
	.p2align	9, 0x0
vStartQueuePeekTasks.xHighestPriorityPeekTaskStack:
	.zero	512
	.size	vStartQueuePeekTasks.xHighestPriorityPeekTaskStack, 512

	.type	.L.str,%object                  @ @.str
	.section	.rodata.str1.1,"aMS",%progbits,1
.L.str:
	.asciz	"PeekM"
	.size	.L.str, 6

	.type	ulLoopCounter,%object           @ @ulLoopCounter
	.section	.bss.ulLoopCounter,"aw",%nobits
	.p2align	5, 0x0
ulLoopCounter:
	.zero	32
	.size	ulLoopCounter, 32

	.type	.Lconstinit,%object             @ @constinit
	.section	.data..Lconstinit,"aw",%progbits
	.p2align	2, 0x0
.Lconstinit:
	.long	ulLoopCounter
	.long	32                              @ 0x20
	.long	3                               @ 0x3
	.zero	12
	.zero	12
	.size	.Lconstinit, 36

	.type	.L.str.1,%object                @ @.str.1
	.section	.rodata.str1.1,"aMS",%progbits,1
.L.str.1:
	.asciz	"PeekH1"
	.size	.L.str.1, 7

	.type	.Lconstinit.2,%object           @ @constinit.2
	.section	.bss..Lconstinit.2,"aw",%nobits
	.p2align	2, 0x0
.Lconstinit.2:
	.zero	36
	.size	.Lconstinit.2, 36

	.type	.L.str.3,%object                @ @.str.3
	.section	.rodata.str1.1,"aMS",%progbits,1
.L.str.3:
	.asciz	"PeekH2"
	.size	.L.str.3, 7

	.type	.Lconstinit.4,%object           @ @constinit.4
	.section	.bss..Lconstinit.4,"aw",%nobits
	.p2align	2, 0x0
.Lconstinit.4:
	.zero	36
	.size	.Lconstinit.4, 36

	.type	.L.str.5,%object                @ @.str.5
	.section	.rodata.str1.1,"aMS",%progbits,1
.L.str.5:
	.asciz	"PeekL"
	.size	.L.str.5, 6

	.type	xQPeekLocalTaskHandles,%object  @ @xQPeekLocalTaskHandles
	.section	.bss.xQPeekLocalTaskHandles,"aw",%nobits
	.p2align	5, 0x0
xQPeekLocalTaskHandles:
	.zero	32
	.size	xQPeekLocalTaskHandles, 32

	.type	.Lconstinit.6,%object           @ @constinit.6
	.section	.data..Lconstinit.6,"aw",%progbits
	.p2align	2, 0x0
.Lconstinit.6:
	.long	xQPeekLocalTaskHandles
	.long	32                              @ 0x20
	.long	3                               @ 0x3
	.zero	12
	.zero	12
	.size	.Lconstinit.6, 36

	.type	xAreQueuePeekTasksStillRunning.ulLastLoopCounter,%object @ @xAreQueuePeekTasksStillRunning.ulLastLoopCounter
	.section	.bss.xAreQueuePeekTasksStillRunning.ulLastLoopCounter,"aw",%nobits
	.p2align	2, 0x0
xAreQueuePeekTasksStillRunning.ulLastLoopCounter:
	.long	0                               @ 0x0
	.size	xAreQueuePeekTasksStillRunning.ulLastLoopCounter, 4

	.type	xErrorDetected,%object          @ @xErrorDetected
	.section	.bss.xErrorDetected,"aw",%nobits
	.p2align	2, 0x0
xErrorDetected:
	.long	0                               @ 0x0
	.size	xErrorDetected, 4

	.file	6 "C:\\Users\\karahulx\\Downloads\\Kernel\\FreeRTOS\\FreeRTOS\\Demo\\CORTEX_MPU_M23_Nuvoton_NuMaker_PFM_M2351_IAR_GCC\\Projects_NTZ\\Keil" "../../../../Source/include/projdefs.h"
	.file	7 "C:\\Users\\karahulx\\Downloads\\Kernel\\FreeRTOS\\FreeRTOS\\Demo\\CORTEX_MPU_M23_Nuvoton_NuMaker_PFM_M2351_IAR_GCC\\Projects_NTZ\\Keil" "../../../../Source/include\\FreeRTOS.h"
	.section	".note.GNU-stack","",%progbits
	.eabi_attribute	30, 6	@ Tag_ABI_optimization_goals
	.ARM_attribute	16, 1	@ Tag_AV_eba