	.text
	.syntax unified
	.eabi_attribute	67, "2.09"	@ Tag_conformance
	.eabi_attribute	6, 16	@ Tag_CPU_arch
	.eabi_attribute	7, 77	@ Tag_CPU_arch_profile
	.eabi_attribute	8, 0	@ Tag_ARM_ISA_use
	.eabi_attribute	9, 3	@ Tag_THUMB_ISA_use
	.eabi_attribute	34, 0	@ Tag_CPU_unaligned_access
	.eabi_attribute	17, 1	@ Tag_ABI_PCS_GOT_use
	.eabi_attribute	20, 2	@ Tag_ABI_FP_denormal
	.eabi_attribute	21, 0	@ Tag_ABI_FP_exceptions
	.eabi_attribute	23, 1	@ Tag_ABI_FP_number_model
	.eabi_attribute	24, 1	@ Tag_ABI_align_needed
	.eabi_attribute	25, 1	@ Tag_ABI_align_preserved
	.eabi_attribute	38, 1	@ Tag_ABI_FP_16bit_format
	.eabi_attribute	18, 4	@ Tag_ABI_PCS_wchar_t
	.eabi_attribute	26, 2	@ Tag_ABI_enum_size
	.eabi_attribute	14, 0	@ Tag_ABI_PCS_R9_use
	.file	"QueueSetPolling.c"
	.file	1 "C:\\Keil_v5\\ARM\\ARMCLANG\\Bin\\..\\include" "stdint.h"
	.file	2 "C:\\Users\\karahulx\\Downloads\\Kernel\\FreeRTOS\\FreeRTOS\\Demo\\CORTEX_MPU_M23_Nuvoton_NuMaker_PFM_M2351_IAR_GCC\\Projects_NTZ\\Keil" "../../../../Source/portable/GCC/ARM_CM23_NTZ/non_secure/portmacrocommon.h"
	.file	3 "C:\\Users\\karahulx\\Downloads\\Kernel\\FreeRTOS\\FreeRTOS\\Demo\\CORTEX_MPU_M23_Nuvoton_NuMaker_PFM_M2351_IAR_GCC\\Projects_NTZ\\Keil" "../../../CORTEX_MPU_M3_NUCLEO_L152RE_GCC/Demo/QueueSetPolling.c"
	.file	4 "C:\\Users\\karahulx\\Downloads\\Kernel\\FreeRTOS\\FreeRTOS\\Demo\\CORTEX_MPU_M23_Nuvoton_NuMaker_PFM_M2351_IAR_GCC\\Projects_NTZ\\Keil" "../../../../Source/include\\queue.h"
	.section	.text.vStartQueueSetPollingTask,"ax",%progbits
	.hidden	vStartQueueSetPollingTask       @ -- Begin function vStartQueueSetPollingTask
	.globl	vStartQueueSetPollingTask
	.p2align	1
	.type	vStartQueueSetPollingTask,%function
	.code	16                              @ @vStartQueueSetPollingTask
	.thumb_func
vStartQueueSetPollingTask:
.Lfunc_begin0:
	.loc	3 90 0                          @ ../../../CORTEX_MPU_M3_NUCLEO_L152RE_GCC/Demo/QueueSetPolling.c:90:0
	.fnstart
	.cfi_sections .debug_frame
	.cfi_startproc
@ %bb.0:
	.save	{r4, r5, r6, lr}
	push	{r4, r5, r6, lr}
	.cfi_def_cfa_offset 16
	.cfi_offset lr, -4
	.cfi_offset r6, -8
	.cfi_offset r5, -12
	.cfi_offset r4, -16
	.pad	#72
	sub	sp, #72
	.cfi_def_cfa_offset 88
	movs	r0, #10
	str	r0, [sp]                        @ 4-byte Spill
	movs	r1, #4
	movs	r2, #0
.Ltmp0:
	.loc	3 93 18 prologue_end            @ ../../../CORTEX_MPU_M3_NUCLEO_L152RE_GCC/Demo/QueueSetPolling.c:93:18
	bl	MPU_xQueueGenericCreate
	mov	r1, r0
	.loc	3 93 16 is_stmt 0               @ ../../../CORTEX_MPU_M3_NUCLEO_L152RE_GCC/Demo/QueueSetPolling.c:93:16
	ldr	r0, [sp]                        @ 4-byte Reload
	movw	r2, :lower16:xQueue
	movt	r2, :upper16:xQueue
	str	r2, [sp, #4]                    @ 4-byte Spill
	str	r1, [r2]
	.loc	3 94 26 is_stmt 1               @ ../../../CORTEX_MPU_M3_NUCLEO_L152RE_GCC/Demo/QueueSetPolling.c:94:26
	bl	MPU_xQueueCreateSet
	mov	r1, r0
	.loc	3 94 24 is_stmt 0               @ ../../../CORTEX_MPU_M3_NUCLEO_L152RE_GCC/Demo/QueueSetPolling.c:94:24
	ldr	r0, [sp, #4]                    @ 4-byte Reload
	movw	r2, :lower16:xQueueSet
	movt	r2, :upper16:xQueueSet
	str	r1, [r2]
	.loc	3 98 26 is_stmt 1               @ ../../../CORTEX_MPU_M3_NUCLEO_L152RE_GCC/Demo/QueueSetPolling.c:98:26
	movw	r2, :lower16:.L__const.vStartQueueSetPollingTask.xQueueSetReceivingTaskParameters
	movt	r2, :upper16:.L__const.vStartQueueSetPollingTask.xQueueSetReceivingTaskParameters
	add	r1, sp, #8
	ldm	r2!, {r3, r4, r5, r6}
	stm	r1!, {r3, r4, r5, r6}
	ldm	r2!, {r3, r4, r5, r6}
	stm	r1!, {r3, r4, r5, r6}
	ldm	r2!, {r3, r4, r5, r6}
	stm	r1!, {r3, r4, r5, r6}
	ldm	r2!, {r3, r4, r5, r6}
	stm	r1!, {r3, r4, r5, r6}
.Ltmp1:
	.loc	3 119 15                        @ ../../../CORTEX_MPU_M3_NUCLEO_L152RE_GCC/Demo/QueueSetPolling.c:119:15
	ldr	r0, [r0]
	.loc	3 119 32 is_stmt 0              @ ../../../CORTEX_MPU_M3_NUCLEO_L152RE_GCC/Demo/QueueSetPolling.c:119:32
	cbz	r0, .LBB0_3
	b	.LBB0_1
.LBB0_1:
	.loc	3 119 37                        @ ../../../CORTEX_MPU_M3_NUCLEO_L152RE_GCC/Demo/QueueSetPolling.c:119:37
	movw	r0, :lower16:xQueueSet
	movt	r0, :upper16:xQueueSet
	ldr	r0, [r0]
.Ltmp2:
	.loc	3 119 13                        @ ../../../CORTEX_MPU_M3_NUCLEO_L152RE_GCC/Demo/QueueSetPolling.c:119:13
	cbz	r0, .LBB0_3
	b	.LBB0_2
.LBB0_2:
.Ltmp3:
	.loc	3 121 29 is_stmt 1              @ ../../../CORTEX_MPU_M3_NUCLEO_L152RE_GCC/Demo/QueueSetPolling.c:121:29
	movw	r0, :lower16:xQueue
	movt	r0, :upper16:xQueue
	ldr	r0, [r0]
	.loc	3 121 37 is_stmt 0              @ ../../../CORTEX_MPU_M3_NUCLEO_L152RE_GCC/Demo/QueueSetPolling.c:121:37
	movw	r1, :lower16:xQueueSet
	movt	r1, :upper16:xQueueSet
	ldr	r1, [r1]
	.loc	3 121 13                        @ ../../../CORTEX_MPU_M3_NUCLEO_L152RE_GCC/Demo/QueueSetPolling.c:121:13
	bl	MPU_xQueueAddToSet
	add	r0, sp, #8
	movs	r1, #0
	.loc	3 124 13 is_stmt 1              @ ../../../CORTEX_MPU_M3_NUCLEO_L152RE_GCC/Demo/QueueSetPolling.c:124:13
	bl	xTaskCreateRestricted
	.loc	3 125 9                         @ ../../../CORTEX_MPU_M3_NUCLEO_L152RE_GCC/Demo/QueueSetPolling.c:125:9
	b	.LBB0_3
.Ltmp4:
.LBB0_3:
	.loc	3 126 5                         @ ../../../CORTEX_MPU_M3_NUCLEO_L152RE_GCC/Demo/QueueSetPolling.c:126:5
	add	sp, #72
	pop	{r4, r5, r6, pc}
.Ltmp5:
.Lfunc_end0:
	.size	vStartQueueSetPollingTask, .Lfunc_end0-vStartQueueSetPollingTask
	.cfi_endproc
	.cantunwind
	.fnend
                                        @ -- End function
	.section	.text.prvQueueSetReceivingTask,"ax",%progbits
	.p2align	1                               @ -- Begin function prvQueueSetReceivingTask
	.type	prvQueueSetReceivingTask,%function
	.code	16                              @ @prvQueueSetReceivingTask
	.thumb_func
prvQueueSetReceivingTask:
.Lfunc_begin1:
	.loc	3 130 0                         @ ../../../CORTEX_MPU_M3_NUCLEO_L152RE_GCC/Demo/QueueSetPolling.c:130:0
	.fnstart
	.cfi_startproc
@ %bb.0:
	.save	{r7, lr}
	push	{r7, lr}
	.cfi_def_cfa_offset 8
	.cfi_offset lr, -4
	.cfi_offset r7, -8
	.pad	#16
	sub	sp, #16
	.cfi_def_cfa_offset 24
	str	r0, [sp, #12]
	movs	r0, #0
.Ltmp6:
	.loc	3 131 30 prologue_end           @ ../../../CORTEX_MPU_M3_NUCLEO_L152RE_GCC/Demo/QueueSetPolling.c:131:30
	str	r0, [sp, #4]
	.loc	3 137 9                         @ ../../../CORTEX_MPU_M3_NUCLEO_L152RE_GCC/Demo/QueueSetPolling.c:137:9
	b	.LBB1_1
.LBB1_1:                                @ =>This Inner Loop Header: Depth=1
.Ltmp7:
	.loc	3 141 52                        @ ../../../CORTEX_MPU_M3_NUCLEO_L152RE_GCC/Demo/QueueSetPolling.c:141:52
	movw	r0, :lower16:xQueueSet
	movt	r0, :upper16:xQueueSet
	ldr	r0, [r0]
	movs	r1, #0
	.loc	3 141 31 is_stmt 0              @ ../../../CORTEX_MPU_M3_NUCLEO_L152RE_GCC/Demo/QueueSetPolling.c:141:31
	bl	MPU_xQueueSelectFromSet
	.loc	3 141 29                        @ ../../../CORTEX_MPU_M3_NUCLEO_L152RE_GCC/Demo/QueueSetPolling.c:141:29
	str	r0, [sp]
.Ltmp8:
	.loc	3 143 17 is_stmt 1              @ ../../../CORTEX_MPU_M3_NUCLEO_L152RE_GCC/Demo/QueueSetPolling.c:143:17
	ldr	r0, [sp]
.Ltmp9:
	.loc	3 143 17 is_stmt 0              @ ../../../CORTEX_MPU_M3_NUCLEO_L152RE_GCC/Demo/QueueSetPolling.c:143:17
	cbz	r0, .LBB1_10
	b	.LBB1_2
.LBB1_2:                                @   in Loop: Header=BB1_1 Depth=1
.Ltmp10:
	.loc	3 148 36 is_stmt 1              @ ../../../CORTEX_MPU_M3_NUCLEO_L152RE_GCC/Demo/QueueSetPolling.c:148:36
	ldr	r0, [sp]
	add	r1, sp, #8
	movs	r2, #0
	.loc	3 148 21 is_stmt 0              @ ../../../CORTEX_MPU_M3_NUCLEO_L152RE_GCC/Demo/QueueSetPolling.c:148:21
	bl	MPU_xQueueReceive
.Ltmp11:
	.loc	3 148 21                        @ ../../../CORTEX_MPU_M3_NUCLEO_L152RE_GCC/Demo/QueueSetPolling.c:148:21
	cmp	r0, #1
	beq	.LBB1_4
	b	.LBB1_3
.LBB1_3:                                @   in Loop: Header=BB1_1 Depth=1
.Ltmp12:
	.loc	3 150 46 is_stmt 1              @ ../../../CORTEX_MPU_M3_NUCLEO_L152RE_GCC/Demo/QueueSetPolling.c:150:46
	movw	r1, :lower16:xQueueSetPollStatus
	movt	r1, :upper16:xQueueSetPollStatus
	movs	r0, #0
	str	r0, [r1]
	.loc	3 151 17                        @ ../../../CORTEX_MPU_M3_NUCLEO_L152RE_GCC/Demo/QueueSetPolling.c:151:17
	b	.LBB1_4
.Ltmp13:
.LBB1_4:                                @   in Loop: Header=BB1_1 Depth=1
	.loc	3 153 21                        @ ../../../CORTEX_MPU_M3_NUCLEO_L152RE_GCC/Demo/QueueSetPolling.c:153:21
	ldr	r0, [sp, #8]
	.loc	3 153 35 is_stmt 0              @ ../../../CORTEX_MPU_M3_NUCLEO_L152RE_GCC/Demo/QueueSetPolling.c:153:35
	ldr	r1, [sp, #4]
.Ltmp14:
	.loc	3 153 21                        @ ../../../CORTEX_MPU_M3_NUCLEO_L152RE_GCC/Demo/QueueSetPolling.c:153:21
	cmp	r0, r1
	bne	.LBB1_6
	b	.LBB1_5
.LBB1_5:                                @   in Loop: Header=BB1_1 Depth=1
.Ltmp15:
	.loc	3 155 31 is_stmt 1              @ ../../../CORTEX_MPU_M3_NUCLEO_L152RE_GCC/Demo/QueueSetPolling.c:155:31
	ldr	r0, [sp, #4]
	adds	r0, r0, #1
	str	r0, [sp, #4]
	.loc	3 156 17                        @ ../../../CORTEX_MPU_M3_NUCLEO_L152RE_GCC/Demo/QueueSetPolling.c:156:17
	b	.LBB1_7
.Ltmp16:
.LBB1_6:                                @   in Loop: Header=BB1_1 Depth=1
	.loc	3 159 46                        @ ../../../CORTEX_MPU_M3_NUCLEO_L152RE_GCC/Demo/QueueSetPolling.c:159:46
	movw	r1, :lower16:xQueueSetPollStatus
	movt	r1, :upper16:xQueueSetPollStatus
	movs	r0, #0
	str	r0, [r1]
	b	.LBB1_7
.Ltmp17:
.LBB1_7:                                @   in Loop: Header=BB1_1 Depth=1
	.loc	3 162 21                        @ ../../../CORTEX_MPU_M3_NUCLEO_L152RE_GCC/Demo/QueueSetPolling.c:162:21
	movw	r0, :lower16:xQueueSetPollStatus
	movt	r0, :upper16:xQueueSetPollStatus
	ldr	r0, [r0]
.Ltmp18:
	.loc	3 162 21 is_stmt 0              @ ../../../CORTEX_MPU_M3_NUCLEO_L152RE_GCC/Demo/QueueSetPolling.c:162:21
	cmp	r0, #1
	bne	.LBB1_9
	b	.LBB1_8
.LBB1_8:                                @   in Loop: Header=BB1_1 Depth=1
.Ltmp19:
	.loc	3 164 40 is_stmt 1              @ ../../../CORTEX_MPU_M3_NUCLEO_L152RE_GCC/Demo/QueueSetPolling.c:164:40
	movw	r1, :lower16:ulCycleCounter
	movt	r1, :upper16:ulCycleCounter
	ldr	r0, [r1]
	adds	r0, r0, #1
	str	r0, [r1]
	.loc	3 165 17                        @ ../../../CORTEX_MPU_M3_NUCLEO_L152RE_GCC/Demo/QueueSetPolling.c:165:17
	b	.LBB1_9
.Ltmp20:
.LBB1_9:                                @   in Loop: Header=BB1_1 Depth=1
	.loc	3 166 13                        @ ../../../CORTEX_MPU_M3_NUCLEO_L152RE_GCC/Demo/QueueSetPolling.c:166:13
	b	.LBB1_10
.Ltmp21:
.LBB1_10:                               @   in Loop: Header=BB1_1 Depth=1
	.loc	3 137 9                         @ ../../../CORTEX_MPU_M3_NUCLEO_L152RE_GCC/Demo/QueueSetPolling.c:137:9
	b	.LBB1_1
.Ltmp22:
.Lfunc_end1:
	.size	prvQueueSetReceivingTask, .Lfunc_end1-prvQueueSetReceivingTask
	.cfi_endproc
	.cantunwind
	.fnend
                                        @ -- End function
	.section	.text.vQueueSetPollingInterruptAccess,"ax",%progbits
	.hidden	vQueueSetPollingInterruptAccess @ -- Begin function vQueueSetPollingInterruptAccess
	.globl	vQueueSetPollingInterruptAccess
	.p2align	1
	.type	vQueueSetPollingInterruptAccess,%function
	.code	16                              @ @vQueueSetPollingInterruptAccess
	.thumb_func
vQueueSetPollingInterruptAccess:
.Lfunc_begin2:
	.loc	3 172 0                         @ ../../../CORTEX_MPU_M3_NUCLEO_L152RE_GCC/Demo/QueueSetPolling.c:172:0
	.fnstart
	.cfi_startproc
@ %bb.0:
	.save	{r7, lr}
	push	{r7, lr}
	.cfi_def_cfa_offset 8
	.cfi_offset lr, -4
	.cfi_offset r7, -8
.Ltmp23:
	.loc	3 177 20 prologue_end           @ ../../../CORTEX_MPU_M3_NUCLEO_L152RE_GCC/Demo/QueueSetPolling.c:177:20
	movw	r0, :lower16:vQueueSetPollingInterruptAccess.ulCallCount
	movt	r0, :upper16:vQueueSetPollingInterruptAccess.ulCallCount
	ldr	r1, [r0]
	adds	r1, r1, #1
	str	r1, [r0]
.Ltmp24:
	.loc	3 179 13                        @ ../../../CORTEX_MPU_M3_NUCLEO_L152RE_GCC/Demo/QueueSetPolling.c:179:13
	ldr	r0, [r0]
.Ltmp25:
	.loc	3 179 13 is_stmt 0              @ ../../../CORTEX_MPU_M3_NUCLEO_L152RE_GCC/Demo/QueueSetPolling.c:179:13
	cmp	r0, #51
	blo	.LBB2_4
	b	.LBB2_1
.LBB2_1:
.Ltmp26:
	.loc	3 181 25 is_stmt 1              @ ../../../CORTEX_MPU_M3_NUCLEO_L152RE_GCC/Demo/QueueSetPolling.c:181:25
	movw	r0, :lower16:vQueueSetPollingInterruptAccess.ulCallCount
	movt	r0, :upper16:vQueueSetPollingInterruptAccess.ulCallCount
	movs	r3, #0
	str	r3, [r0]
.Ltmp27:
	.loc	3 183 17                        @ ../../../CORTEX_MPU_M3_NUCLEO_L152RE_GCC/Demo/QueueSetPolling.c:183:17
	movw	r0, :lower16:xQueue
	movt	r0, :upper16:xQueue
	ldr	r0, [r0]
	movw	r1, :lower16:vQueueSetPollingInterruptAccess.ulValueToSend
	movt	r1, :upper16:vQueueSetPollingInterruptAccess.ulValueToSend
	mov	r2, r3
	bl	xQueueGenericSendFromISR
.Ltmp28:
	.loc	3 183 17 is_stmt 0              @ ../../../CORTEX_MPU_M3_NUCLEO_L152RE_GCC/Demo/QueueSetPolling.c:183:17
	cmp	r0, #1
	bne	.LBB2_3
	b	.LBB2_2
.LBB2_2:
.Ltmp29:
	.loc	3 186 30 is_stmt 1              @ ../../../CORTEX_MPU_M3_NUCLEO_L152RE_GCC/Demo/QueueSetPolling.c:186:30
	movw	r1, :lower16:vQueueSetPollingInterruptAccess.ulValueToSend
	movt	r1, :upper16:vQueueSetPollingInterruptAccess.ulValueToSend
	ldr	r0, [r1]
	adds	r0, r0, #1
	str	r0, [r1]
	.loc	3 187 13                        @ ../../../CORTEX_MPU_M3_NUCLEO_L152RE_GCC/Demo/QueueSetPolling.c:187:13
	b	.LBB2_3
.Ltmp30:
.LBB2_3:
	.loc	3 188 9                         @ ../../../CORTEX_MPU_M3_NUCLEO_L152RE_GCC/Demo/QueueSetPolling.c:188:9
	b	.LBB2_4
.Ltmp31:
.LBB2_4:
	.loc	3 189 5                         @ ../../../CORTEX_MPU_M3_NUCLEO_L152RE_GCC/Demo/QueueSetPolling.c:189:5
	pop	{r7, pc}
.Ltmp32:
.Lfunc_end2:
	.size	vQueueSetPollingInterruptAccess, .Lfunc_end2-vQueueSetPollingInterruptAccess
	.cfi_endproc
	.cantunwind
	.fnend
                                        @ -- End function
	.section	.text.xAreQueueSetPollTasksStillRunning,"ax",%progbits
	.hidden	xAreQueueSetPollTasksStillRunning @ -- Begin function xAreQueueSetPollTasksStillRunning
	.globl	xAreQueueSetPollTasksStillRunning
	.p2align	1
	.type	xAreQueueSetPollTasksStillRunning,%function
	.code	16                              @ @xAreQueueSetPollTasksStillRunning
	.thumb_func
xAreQueueSetPollTasksStillRunning:
.Lfunc_begin3:
	.loc	3 193 0                         @ ../../../CORTEX_MPU_M3_NUCLEO_L152RE_GCC/Demo/QueueSetPolling.c:193:0
	.fnstart
	.cfi_startproc
@ %bb.0:
	.loc	3 196 13 prologue_end           @ ../../../CORTEX_MPU_M3_NUCLEO_L152RE_GCC/Demo/QueueSetPolling.c:196:13
	movw	r0, :lower16:xAreQueueSetPollTasksStillRunning.ulLastCycleCounter
	movt	r0, :upper16:xAreQueueSetPollTasksStillRunning.ulLastCycleCounter
	ldr	r0, [r0]
	.loc	3 196 35 is_stmt 0              @ ../../../CORTEX_MPU_M3_NUCLEO_L152RE_GCC/Demo/QueueSetPolling.c:196:35
	movw	r1, :lower16:ulCycleCounter
	movt	r1, :upper16:ulCycleCounter
	ldr	r1, [r1]
.Ltmp33:
	.loc	3 196 13                        @ ../../../CORTEX_MPU_M3_NUCLEO_L152RE_GCC/Demo/QueueSetPolling.c:196:13
	cmp	r0, r1
	bne	.LBB3_2
	b	.LBB3_1
.LBB3_1:
.Ltmp34:
	.loc	3 198 38 is_stmt 1              @ ../../../CORTEX_MPU_M3_NUCLEO_L152RE_GCC/Demo/QueueSetPolling.c:198:38
	movw	r1, :lower16:xQueueSetPollStatus
	movt	r1, :upper16:xQueueSetPollStatus
	movs	r0, #0
	str	r0, [r1]
	.loc	3 199 9                         @ ../../../CORTEX_MPU_M3_NUCLEO_L152RE_GCC/Demo/QueueSetPolling.c:199:9
	b	.LBB3_2
.Ltmp35:
.LBB3_2:
	.loc	3 201 30                        @ ../../../CORTEX_MPU_M3_NUCLEO_L152RE_GCC/Demo/QueueSetPolling.c:201:30
	movw	r0, :lower16:ulCycleCounter
	movt	r0, :upper16:ulCycleCounter
	ldr	r0, [r0]
	.loc	3 201 28 is_stmt 0              @ ../../../CORTEX_MPU_M3_NUCLEO_L152RE_GCC/Demo/QueueSetPolling.c:201:28
	movw	r1, :lower16:xAreQueueSetPollTasksStillRunning.ulLastCycleCounter
	movt	r1, :upper16:xAreQueueSetPollTasksStillRunning.ulLastCycleCounter
	str	r0, [r1]
	.loc	3 203 16 is_stmt 1              @ ../../../CORTEX_MPU_M3_NUCLEO_L152RE_GCC/Demo/QueueSetPolling.c:203:16
	movw	r0, :lower16:xQueueSetPollStatus
	movt	r0, :upper16:xQueueSetPollStatus
	ldr	r0, [r0]
	.loc	3 203 9 is_stmt 0               @ ../../../CORTEX_MPU_M3_NUCLEO_L152RE_GCC/Demo/QueueSetPolling.c:203:9
	bx	lr
.Ltmp36:
.Lfunc_end3:
	.size	xAreQueueSetPollTasksStillRunning, .Lfunc_end3-xAreQueueSetPollTasksStillRunning
	.cfi_endproc
	.cantunwind
	.fnend
                                        @ -- End function
	.type	xQueue,%object                  @ @xQueue
	.section	.bss.xQueue,"aw",%nobits
	.p2align	2, 0x0
xQueue:
	.long	0
	.size	xQueue, 4

	.type	xQueueSet,%object               @ @xQueueSet
	.section	.bss.xQueueSet,"aw",%nobits
	.p2align	5, 0x0
xQueueSet:
	.zero	32
	.size	xQueueSet, 32

	.type	vStartQueueSetPollingTask.xQueueSetReceivingTaskStack,%object @ @vStartQueueSetPollingTask.xQueueSetReceivingTaskStack
	.section	.bss.vStartQueueSetPollingTask.xQueueSetReceivingTaskStack,"aw",%nobits
	.p2align	9, 0x0
vStartQueueSetPollingTask.xQueueSetReceivingTaskStack:
	.zero	512
	.size	vStartQueueSetPollingTask.xQueueSetReceivingTaskStack, 512

	.type	.L.str,%object                  @ @.str
	.section	.rodata.str1.1,"aMS",%progbits,1
.L.str:
	.asciz	"SetPoll"
	.size	.L.str, 8

	.type	xQueueSetPollStatus,%object     @ @xQueueSetPollStatus
	.section	.data.xQueueSetPollStatus,"aw",%progbits
	.p2align	5, 0x0
xQueueSetPollStatus:
	.long	1                               @ 0x1
	.long	0                               @ 0x0
	.long	0                               @ 0x0
	.long	0                               @ 0x0
	.long	0                               @ 0x0
	.long	0                               @ 0x0
	.long	0                               @ 0x0
	.long	0                               @ 0x0
	.size	xQueueSetPollStatus, 32

	.type	ulCycleCounter,%object          @ @ulCycleCounter
	.section	.bss.ulCycleCounter,"aw",%nobits
	.p2align	5, 0x0
ulCycleCounter:
	.zero	32
	.size	ulCycleCounter, 32

	.type	.L__const.vStartQueueSetPollingTask.xQueueSetReceivingTaskParameters,%object @ @__const.vStartQueueSetPollingTask.xQueueSetReceivingTaskParameters
	.section	.rodata..L__const.vStartQueueSetPollingTask.xQueueSetReceivingTaskParameters,"a",%progbits
	.p2align	2, 0x0
.L__const.vStartQueueSetPollingTask.xQueueSetReceivingTaskParameters:
	.long	prvQueueSetReceivingTask
	.long	.L.str
	.short	128                             @ 0x80
	.zero	2
	.long	0
	.long	0                               @ 0x0
	.long	vStartQueueSetPollingTask.xQueueSetReceivingTaskStack
	.long	xQueueSet
	.long	32                              @ 0x20
	.long	3                               @ 0x3
	.long	xQueueSetPollStatus
	.long	32                              @ 0x20
	.long	3                               @ 0x3
	.long	ulCycleCounter
	.long	32                              @ 0x20
	.long	3                               @ 0x3
	.long	0
	.size	.L__const.vStartQueueSetPollingTask.xQueueSetReceivingTaskParameters, 64

	.type	vQueueSetPollingInterruptAccess.ulCallCount,%object @ @vQueueSetPollingInterruptAccess.ulCallCount
	.section	.bss.vQueueSetPollingInterruptAccess.ulCallCount,"aw",%nobits
	.p2align	2, 0x0
vQueueSetPollingInterruptAccess.ulCallCount:
	.long	0                               @ 0x0
	.size	vQueueSetPollingInterruptAccess.ulCallCount, 4

	.type	vQueueSetPollingInterruptAccess.ulValueToSend,%object @ @vQueueSetPollingInterruptAccess.ulValueToSend
	.section	.bss.vQueueSetPollingInterruptAccess.ulValueToSend,"aw",%nobits
	.p2align	2, 0x0
vQueueSetPollingInterruptAccess.ulValueToSend:
	.long	0                               @ 0x0
	.size	vQueueSetPollingInterruptAccess.ulValueToSend, 4

	.type	xAreQueueSetPollTasksStillRunning.ulLastCycleCounter,%object @ @xAreQueueSetPollTasksStillRunning.ulLastCycleCounter
	.section	.bss.xAreQueueSetPollTasksStillRunning.ulLastCycleCounter,"aw",%nobits
	.p2align	2, 0x0
xAreQueueSetPollTasksStillRunning.ulLastCycleCounter:
	.long	0                               @ 0x0
	.size	xAreQueueSetPollTasksStillRunning.ulLastCycleCounter, 4

	.file	5 "C:\\Users\\karahulx\\Downloads\\Kernel\\FreeRTOS\\FreeRTOS\\Demo\\CORTEX_MPU_M23_Nuvoton_NuMaker_PFM_M2351_IAR_GCC\\Projects_NTZ\\Keil" "../../../../Source/include/projdefs.h"
	.file	6 "C:\\Users\\karahulx\\Downloads\\Kernel\\FreeRTOS\\FreeRTOS\\Demo\\CORTEX_MPU_M23_Nuvoton_NuMaker_PFM_M2351_IAR_GCC\\Projects_NTZ\\Keil" "../../../../Source/include/task.h"
	.file	7 "C:\\Users\\karahulx\\Downloads\\Kernel\\FreeRTOS\\FreeRTOS\\Demo\\CORTEX_MPU_M23_Nuvoton_NuMaker_PFM_M2351_IAR_GCC\\Projects_NTZ\\Keil" "../../../../Source/include\\FreeRTOS.h"
	.section	".note.GNU-stack","",%progbits
	.eabi_attribute	30, 6	@ Tag_ABI_optimization_goals
	.ARM_attribute	16, 1	@ Tag_AV_eba