	.text
	.syntax unified
	.eabi_attribute	67, "2.09"	@ Tag_conformance
	.eabi_attribute	6, 16	@ Tag_CPU_arch
	.eabi_attribute	7, 77	@ Tag_CPU_arch_profile
	.eabi_attribute	8, 0	@ Tag_ARM_ISA_use
	.eabi_attribute	9, 3	@ Tag_THUMB_ISA_use
	.eabi_attribute	34, 0	@ Tag_CPU_unaligned_access
	.eabi_attribute	17, 1	@ Tag_ABI_PCS_GOT_use
	.eabi_attribute	20, 2	@ Tag_ABI_FP_denormal
	.eabi_attribute	21, 0	@ Tag_ABI_FP_exceptions
	.eabi_attribute	23, 1	@ Tag_ABI_FP_number_model
	.eabi_attribute	24, 1	@ Tag_ABI_align_needed
	.eabi_attribute	25, 1	@ Tag_ABI_align_preserved
	.eabi_attribute	38, 1	@ Tag_ABI_FP_16bit_format
	.eabi_attribute	18, 4	@ Tag_ABI_PCS_wchar_t
	.eabi_attribute	26, 2	@ Tag_ABI_enum_size
	.eabi_attribute	14, 0	@ Tag_ABI_PCS_R9_use
	.file	"queue.c"
	.file	1 "C:\\Users\\karahulx\\Downloads\\Kernel\\FreeRTOS\\FreeRTOS\\Demo\\CORTEX_MPU_M23_Nuvoton_NuMaker_PFM_M2351_IAR_GCC\\Projects_NTZ\\Keil" "../../../../Source/portable/GCC/ARM_CM23_NTZ/non_secure/portmacrocommon.h"
	.file	2 "C:\\Keil_v5\\ARM\\ARMCLANG\\Bin\\..\\include" "stdint.h"
	.file	3 "C:\\Users\\karahulx\\Downloads\\Kernel\\FreeRTOS\\FreeRTOS\\Demo\\CORTEX_MPU_M23_Nuvoton_NuMaker_PFM_M2351_IAR_GCC\\Projects_NTZ\\Keil" "../../../../Source/queue.c"
	.file	4 "C:\\Users\\karahulx\\Downloads\\Kernel\\FreeRTOS\\FreeRTOS\\Demo\\CORTEX_MPU_M23_Nuvoton_NuMaker_PFM_M2351_IAR_GCC\\Projects_NTZ\\Keil" "../../../../Source/include/task.h"
	.file	5 "C:\\Users\\karahulx\\Downloads\\Kernel\\FreeRTOS\\FreeRTOS\\Demo\\CORTEX_MPU_M23_Nuvoton_NuMaker_PFM_M2351_IAR_GCC\\Projects_NTZ\\Keil" "../../../../Source/include/list.h"
	.file	6 "C:\\Users\\karahulx\\Downloads\\Kernel\\FreeRTOS\\FreeRTOS\\Demo\\CORTEX_MPU_M23_Nuvoton_NuMaker_PFM_M2351_IAR_GCC\\Projects_NTZ\\Keil" "../../../../Source/include\\FreeRTOS.h"
	.file	7 "C:\\Keil_v5\\ARM\\ARMCLANG\\Bin\\..\\include" "stdlib.h"
	.file	8 "C:\\Users\\karahulx\\Downloads\\Kernel\\FreeRTOS\\FreeRTOS\\Demo\\CORTEX_MPU_M23_Nuvoton_NuMaker_PFM_M2351_IAR_GCC\\Projects_NTZ\\Keil" "../../../../Source/include\\queue.h"
	.section	privileged_functions,"ax",%progbits
	.hidden	xQueueGenericReset              @ -- Begin function xQueueGenericReset
	.globl	xQueueGenericReset
	.p2align	1
	.type	xQueueGenericReset,%function
	.code	16                              @ @xQueueGenericReset
	.thumb_func
xQueueGenericReset:
.Lfunc_begin0:
	.loc	3 294 0                         @ ../../../../Source/queue.c:294:0
	.fnstart
	.cfi_sections .debug_frame
	.cfi_startproc
@ %bb.0:
	.save	{r7, lr}
	push	{r7, lr}
	.cfi_def_cfa_offset 8
	.cfi_offset lr, -4
	.cfi_offset r7, -8
	.pad	#16
	sub	sp, #16
	.cfi_def_cfa_offset 24
	str	r0, [sp, #12]
	str	r1, [sp, #8]
	movs	r0, #1
.Ltmp0:
	.loc	3 295 16 prologue_end           @ ../../../../Source/queue.c:295:16
	str	r0, [sp, #4]
	.loc	3 296 31                        @ ../../../../Source/queue.c:296:31
	ldr	r0, [sp, #12]
	.loc	3 296 21 is_stmt 0              @ ../../../../Source/queue.c:296:21
	str	r0, [sp]
.Ltmp1:
	.loc	3 298 5 is_stmt 1               @ ../../../../Source/queue.c:298:5
	ldr	r0, [sp]
.Ltmp2:
	.loc	3 298 5 is_stmt 0               @ ../../../../Source/queue.c:298:5
	cbnz	r0, .LBB0_3
	b	.LBB0_1
.LBB0_1:
.Ltmp3:
	.loc	3 298 5                         @ ../../../../Source/queue.c:298:5
	@APP
	cpsid i
	@NO_APP
	b	.LBB0_2
.LBB0_2:                                @ =>This Inner Loop Header: Depth=1
.Ltmp4:
	.loc	3 298 5                         @ ../../../../Source/queue.c:298:5
	b	.LBB0_2
.Ltmp5:
.LBB0_3:
	.loc	3 300 11 is_stmt 1              @ ../../../../Source/queue.c:300:11
	ldr	r0, [sp]
	.loc	3 300 29 is_stmt 0              @ ../../../../Source/queue.c:300:29
	cmp	r0, #0
	beq	.LBB0_16
	b	.LBB0_4
.LBB0_4:
	.loc	3 301 11 is_stmt 1              @ ../../../../Source/queue.c:301:11
	ldr	r0, [sp]
	.loc	3 301 20 is_stmt 0              @ ../../../../Source/queue.c:301:20
	ldr	r0, [r0, #60]
	.loc	3 301 37                        @ ../../../../Source/queue.c:301:37
	cmp	r0, #0
	beq	.LBB0_16
	b	.LBB0_5
.LBB0_5:
	.loc	3 303 24 is_stmt 1              @ ../../../../Source/queue.c:303:24
	ldr	r1, [sp]
	.loc	3 303 33 is_stmt 0              @ ../../../../Source/queue.c:303:33
	ldr	r2, [r1, #60]
	movs	r0, #0
	mvns	r0, r0
	.loc	3 303 22                        @ ../../../../Source/queue.c:303:22
	udiv	r0, r0, r2
	.loc	3 303 56                        @ ../../../../Source/queue.c:303:56
	ldr	r1, [r1, #64]
.Ltmp6:
	.loc	3 300 9 is_stmt 1               @ ../../../../Source/queue.c:300:9
	cmp	r0, r1
	blo	.LBB0_16
	b	.LBB0_6
.LBB0_6:
.Ltmp7:
	.loc	3 305 9                         @ ../../../../Source/queue.c:305:9
	bl	vPortEnterCritical
.Ltmp8:
	.loc	3 307 40                        @ ../../../../Source/queue.c:307:40
	ldr	r1, [sp]
	.loc	3 307 49 is_stmt 0              @ ../../../../Source/queue.c:307:49
	ldr	r0, [r1]
	.loc	3 307 69                        @ ../../../../Source/queue.c:307:69
	ldr	r3, [r1, #60]
	.loc	3 307 89                        @ ../../../../Source/queue.c:307:89
	ldr	r2, [r1, #64]
	.loc	3 307 78                        @ ../../../../Source/queue.c:307:78
	muls	r2, r3, r2
	.loc	3 307 56                        @ ../../../../Source/queue.c:307:56
	adds	r0, r0, r2
	.loc	3 307 38                        @ ../../../../Source/queue.c:307:38
	str	r0, [r1, #8]
	.loc	3 308 13 is_stmt 1              @ ../../../../Source/queue.c:308:13
	ldr	r1, [sp]
	movs	r0, #0
	.loc	3 308 40 is_stmt 0              @ ../../../../Source/queue.c:308:40
	str	r0, [r1, #56]
	.loc	3 309 34 is_stmt 1              @ ../../../../Source/queue.c:309:34
	ldr	r1, [sp]
	.loc	3 309 43 is_stmt 0              @ ../../../../Source/queue.c:309:43
	ldr	r0, [r1]
	.loc	3 309 32                        @ ../../../../Source/queue.c:309:32
	str	r0, [r1, #4]
	.loc	3 310 44 is_stmt 1              @ ../../../../Source/queue.c:310:44
	ldr	r1, [sp]
	.loc	3 310 53 is_stmt 0              @ ../../../../Source/queue.c:310:53
	ldr	r0, [r1]
	.loc	3 310 75                        @ ../../../../Source/queue.c:310:75
	ldr	r2, [r1, #60]
	.loc	3 310 84                        @ ../../../../Source/queue.c:310:84
	subs	r3, r2, #1
	.loc	3 310 102                       @ ../../../../Source/queue.c:310:102
	ldr	r2, [r1, #64]
	.loc	3 310 91                        @ ../../../../Source/queue.c:310:91
	muls	r2, r3, r2
	.loc	3 310 60                        @ ../../../../Source/queue.c:310:60
	adds	r0, r0, r2
	.loc	3 310 42                        @ ../../../../Source/queue.c:310:42
	str	r0, [r1, #12]
	.loc	3 311 13 is_stmt 1              @ ../../../../Source/queue.c:311:13
	ldr	r1, [sp]
	movs	r2, #68
	movs	r0, #255
	.loc	3 311 30 is_stmt 0              @ ../../../../Source/queue.c:311:30
	strb	r0, [r1, r2]
	.loc	3 312 13 is_stmt 1              @ ../../../../Source/queue.c:312:13
	ldr	r1, [sp]
	movs	r2, #69
	.loc	3 312 30 is_stmt 0              @ ../../../../Source/queue.c:312:30
	strb	r0, [r1, r2]
.Ltmp9:
	.loc	3 314 17 is_stmt 1              @ ../../../../Source/queue.c:314:17
	ldr	r0, [sp, #8]
.Ltmp10:
	.loc	3 314 17 is_stmt 0              @ ../../../../Source/queue.c:314:17
	cbnz	r0, .LBB0_14
	b	.LBB0_7
.LBB0_7:
.Ltmp11:
	.loc	3 321 21 is_stmt 1              @ ../../../../Source/queue.c:321:21
	ldr	r0, [sp]
	ldr	r0, [r0, #16]
.Ltmp12:
	.loc	3 321 21 is_stmt 0              @ ../../../../Source/queue.c:321:21
	cbz	r0, .LBB0_12
	b	.LBB0_8
.LBB0_8:
.Ltmp13:
	.loc	3 323 54 is_stmt 1              @ ../../../../Source/queue.c:323:54
	ldr	r0, [sp]
	.loc	3 323 63 is_stmt 0              @ ../../../../Source/queue.c:323:63
	adds	r0, #16
	.loc	3 323 25                        @ ../../../../Source/queue.c:323:25
	bl	xTaskRemoveFromEventList
.Ltmp14:
	.loc	3 323 25                        @ ../../../../Source/queue.c:323:25
	cbz	r0, .LBB0_10
	b	.LBB0_9
.LBB0_9:
.Ltmp15:
	.loc	3 325 25 is_stmt 1              @ ../../../../Source/queue.c:325:25
	bl	vPortYield
	.loc	3 326 21                        @ ../../../../Source/queue.c:326:21
	b	.LBB0_11
.Ltmp16:
.LBB0_10:
	.loc	3 0 21 is_stmt 0                @ ../../../../Source/queue.c:0:21
	b	.LBB0_11
.LBB0_11:
	.loc	3 331 17 is_stmt 1              @ ../../../../Source/queue.c:331:17
	b	.LBB0_13
.Ltmp17:
.LBB0_12:
	.loc	3 0 17 is_stmt 0                @ ../../../../Source/queue.c:0:17
	b	.LBB0_13
.LBB0_13:
	.loc	3 336 13 is_stmt 1              @ ../../../../Source/queue.c:336:13
	b	.LBB0_15
.Ltmp18:
.LBB0_14:
	.loc	3 340 37                        @ ../../../../Source/queue.c:340:37
	ldr	r0, [sp]
	.loc	3 340 46 is_stmt 0              @ ../../../../Source/queue.c:340:46
	adds	r0, #16
	.loc	3 340 17                        @ ../../../../Source/queue.c:340:17
	bl	vListInitialise
	.loc	3 341 37 is_stmt 1              @ ../../../../Source/queue.c:341:37
	ldr	r0, [sp]
	.loc	3 341 46 is_stmt 0              @ ../../../../Source/queue.c:341:46
	adds	r0, #36
	.loc	3 341 17                        @ ../../../../Source/queue.c:341:17
	bl	vListInitialise
	b	.LBB0_15
.Ltmp19:
.LBB0_15:
	.loc	3 344 9 is_stmt 1               @ ../../../../Source/queue.c:344:9
	bl	vPortExitCritical
	.loc	3 345 5                         @ ../../../../Source/queue.c:345:5
	b	.LBB0_17
.Ltmp20:
.LBB0_16:
	.loc	3 0 5 is_stmt 0                 @ ../../../../Source/queue.c:0:5
	movs	r0, #0
.Ltmp21:
	.loc	3 348 17 is_stmt 1              @ ../../../../Source/queue.c:348:17
	str	r0, [sp, #4]
	b	.LBB0_17
.Ltmp22:
.LBB0_17:
	.loc	3 351 5                         @ ../../../../Source/queue.c:351:5
	ldr	r0, [sp, #4]
.Ltmp23:
	.loc	3 351 5 is_stmt 0               @ ../../../../Source/queue.c:351:5
	cbnz	r0, .LBB0_20
	b	.LBB0_18
.LBB0_18:
.Ltmp24:
	.loc	3 351 5                         @ ../../../../Source/queue.c:351:5
	@APP
	cpsid i
	@NO_APP
	b	.LBB0_19
.LBB0_19:                               @ =>This Inner Loop Header: Depth=1
.Ltmp25:
	.loc	3 351 5                         @ ../../../../Source/queue.c:351:5
	b	.LBB0_19
.Ltmp26:
.LBB0_20:
	.loc	3 355 12 is_stmt 1              @ ../../../../Source/queue.c:355:12
	ldr	r0, [sp, #4]
	.loc	3 355 5 is_stmt 0               @ ../../../../Source/queue.c:355:5
	add	sp, #16
	pop	{r7, pc}
.Ltmp27:
.Lfunc_end0:
	.size	xQueueGenericReset, .Lfunc_end0-xQueueGenericReset
	.cfi_endproc
	.cantunwind
	.fnend
                                        @ -- End function
	.hidden	xQueueGenericCreateStatic       @ -- Begin function xQueueGenericCreateStatic
	.globl	xQueueGenericCreateStatic
	.p2align	1
	.type	xQueueGenericCreateStatic,%function
	.code	16                              @ @xQueueGenericCreateStatic
	.thumb_func
xQueueGenericCreateStatic:
.Lfunc_begin1:
	.loc	3 366 0 is_stmt 1               @ ../../../../Source/queue.c:366:0
	.fnstart
	.cfi_startproc
@ %bb.0:
	.save	{r4, lr}
	push	{r4, lr}
	.cfi_def_cfa_offset 8
	.cfi_offset lr, -4
	.cfi_offset r4, -8
	.pad	#32
	sub	sp, #32
	.cfi_def_cfa_offset 40
	mov	r4, r0
	ldr	r0, [sp, #40]
	str	r4, [sp, #28]
	str	r1, [sp, #24]
	str	r2, [sp, #20]
	str	r3, [sp, #16]
	add	r1, sp, #12
	strb	r0, [r1]
	movs	r0, #0
.Ltmp28:
	.loc	3 367 19 prologue_end           @ ../../../../Source/queue.c:367:19
	str	r0, [sp, #8]
.Ltmp29:
	.loc	3 371 9                         @ ../../../../Source/queue.c:371:9
	ldr	r0, [sp, #16]
.Ltmp30:
	.loc	3 371 9 is_stmt 0               @ ../../../../Source/queue.c:371:9
	cbnz	r0, .LBB1_3
	b	.LBB1_1
.LBB1_1:
.Ltmp31:
	.loc	3 371 9                         @ ../../../../Source/queue.c:371:9
	@APP
	cpsid i
	@NO_APP
	b	.LBB1_2
.LBB1_2:                                @ =>This Inner Loop Header: Depth=1
.Ltmp32:
	.loc	3 371 9                         @ ../../../../Source/queue.c:371:9
	b	.LBB1_2
.Ltmp33:
.LBB1_3:
	.loc	3 373 15 is_stmt 1              @ ../../../../Source/queue.c:373:15
	ldr	r0, [sp, #28]
	.loc	3 373 51 is_stmt 0              @ ../../../../Source/queue.c:373:51
	cbz	r0, .LBB1_13
	b	.LBB1_4
.LBB1_4:
	.loc	3 374 15 is_stmt 1              @ ../../../../Source/queue.c:374:15
	ldr	r0, [sp, #16]
	.loc	3 374 39 is_stmt 0              @ ../../../../Source/queue.c:374:39
	cbz	r0, .LBB1_13
	b	.LBB1_5
.LBB1_5:
	.loc	3 378 20 is_stmt 1              @ ../../../../Source/queue.c:378:20
	ldr	r0, [sp, #20]
	.loc	3 378 46 is_stmt 0              @ ../../../../Source/queue.c:378:46
	cbz	r0, .LBB1_7
	b	.LBB1_6
.LBB1_6:
	.loc	3 378 51                        @ ../../../../Source/queue.c:378:51
	ldr	r0, [sp, #24]
	.loc	3 378 73                        @ ../../../../Source/queue.c:378:73
	cbz	r0, .LBB1_13
	b	.LBB1_7
.LBB1_7:
	.loc	3 379 20 is_stmt 1              @ ../../../../Source/queue.c:379:20
	ldr	r0, [sp, #20]
	.loc	3 379 46 is_stmt 0              @ ../../../../Source/queue.c:379:46
	cbnz	r0, .LBB1_9
	b	.LBB1_8
.LBB1_8:
	.loc	3 379 51                        @ ../../../../Source/queue.c:379:51
	ldr	r0, [sp, #24]
.Ltmp34:
	.loc	3 373 13 is_stmt 1              @ ../../../../Source/queue.c:373:13
	cbnz	r0, .LBB1_13
	b	.LBB1_9
.LBB1_9:
	.loc	3 0 13 is_stmt 0                @ ../../../../Source/queue.c:0:13
	movs	r0, #84
.Ltmp35:
	.loc	3 386 33 is_stmt 1              @ ../../../../Source/queue.c:386:33
	str	r0, [sp, #4]
.Ltmp36:
	.loc	3 389 17                        @ ../../../../Source/queue.c:389:17
	ldr	r0, [sp, #4]
.Ltmp37:
	.loc	3 389 17 is_stmt 0              @ ../../../../Source/queue.c:389:17
	cmp	r0, #84
	beq	.LBB1_12
	b	.LBB1_10
.LBB1_10:
.Ltmp38:
	.loc	3 389 17                        @ ../../../../Source/queue.c:389:17
	@APP
	cpsid i
	@NO_APP
	b	.LBB1_11
.LBB1_11:                               @ =>This Inner Loop Header: Depth=1
.Ltmp39:
	.loc	3 389 17                        @ ../../../../Source/queue.c:389:17
	b	.LBB1_11
.Ltmp40:
.LBB1_12:
	.loc	3 390 26 is_stmt 1              @ ../../../../Source/queue.c:390:26
	ldr	r0, [sp, #4]
.Ltmp41:
	.loc	3 397 40                        @ ../../../../Source/queue.c:397:40
	ldr	r0, [sp, #16]
	.loc	3 397 24 is_stmt 0              @ ../../../../Source/queue.c:397:24
	str	r0, [sp, #8]
.Ltmp42:
	.loc	3 404 17 is_stmt 1              @ ../../../../Source/queue.c:404:17
	ldr	r1, [sp, #8]
	movs	r2, #70
	movs	r0, #1
	.loc	3 404 51 is_stmt 0              @ ../../../../Source/queue.c:404:51
	strb	r0, [r1, r2]
.Ltmp43:
	.loc	3 408 36 is_stmt 1              @ ../../../../Source/queue.c:408:36
	ldr	r0, [sp, #28]
	.loc	3 408 51 is_stmt 0              @ ../../../../Source/queue.c:408:51
	ldr	r1, [sp, #24]
	.loc	3 408 63                        @ ../../../../Source/queue.c:408:63
	ldr	r2, [sp, #20]
	add	r3, sp, #12
	.loc	3 408 80                        @ ../../../../Source/queue.c:408:80
	ldrb	r3, [r3]
	.loc	3 408 93                        @ ../../../../Source/queue.c:408:93
	ldr	r4, [sp, #8]
	.loc	3 408 13                        @ ../../../../Source/queue.c:408:13
	str	r4, [sp]
	bl	prvInitialiseNewQueue
	.loc	3 409 9 is_stmt 1               @ ../../../../Source/queue.c:409:9
	b	.LBB1_17
.Ltmp44:
.LBB1_13:
	.loc	3 412 13                        @ ../../../../Source/queue.c:412:13
	ldr	r0, [sp, #8]
.Ltmp45:
	.loc	3 412 13 is_stmt 0              @ ../../../../Source/queue.c:412:13
	cbnz	r0, .LBB1_16
	b	.LBB1_14
.LBB1_14:
.Ltmp46:
	.loc	3 412 13                        @ ../../../../Source/queue.c:412:13
	@APP
	cpsid i
	@NO_APP
	b	.LBB1_15
.LBB1_15:                               @ =>This Inner Loop Header: Depth=1
.Ltmp47:
	.loc	3 412 13                        @ ../../../../Source/queue.c:412:13
	b	.LBB1_15
.Ltmp48:
.LBB1_16:
	.loc	3 0 13                          @ ../../../../Source/queue.c:0:13
	b	.LBB1_17
.LBB1_17:
	.loc	3 416 16 is_stmt 1              @ ../../../../Source/queue.c:416:16
	ldr	r0, [sp, #8]
	.loc	3 416 9 is_stmt 0               @ ../../../../Source/queue.c:416:9
	add	sp, #32
	pop	{r4, pc}
.Ltmp49:
.Lfunc_end1:
	.size	xQueueGenericCreateStatic, .Lfunc_end1-xQueueGenericCreateStatic
	.cfi_endproc
	.cantunwind
	.fnend
                                        @ -- End function
	.p2align	1                               @ -- Begin function prvInitialiseNewQueue
	.type	prvInitialiseNewQueue,%function
	.code	16                              @ @prvInitialiseNewQueue
	.thumb_func
prvInitialiseNewQueue:
.Lfunc_begin2:
	.loc	3 544 0 is_stmt 1               @ ../../../../Source/queue.c:544:0
	.fnstart
	.cfi_startproc
@ %bb.0:
	.save	{r4, lr}
	push	{r4, lr}
	.cfi_def_cfa_offset 8
	.cfi_offset lr, -4
	.cfi_offset r4, -8
	.pad	#16
	sub	sp, #16
	.cfi_def_cfa_offset 24
	ldr	r4, [sp, #24]
                                        @ kill: def $r4 killed $r3
	str	r0, [sp, #12]
	str	r1, [sp, #8]
	str	r2, [sp, #4]
	mov	r0, sp
	strb	r3, [r0]
.Ltmp50:
	.loc	3 549 9 prologue_end            @ ../../../../Source/queue.c:549:9
	ldr	r0, [sp, #8]
.Ltmp51:
	.loc	3 549 9 is_stmt 0               @ ../../../../Source/queue.c:549:9
	cbnz	r0, .LBB2_2
	b	.LBB2_1
.LBB2_1:
.Ltmp52:
	.loc	3 555 43 is_stmt 1              @ ../../../../Source/queue.c:555:43
	ldr	r0, [sp, #24]
	.loc	3 555 28 is_stmt 0              @ ../../../../Source/queue.c:555:28
	str	r0, [r0]
	.loc	3 556 5 is_stmt 1               @ ../../../../Source/queue.c:556:5
	b	.LBB2_3
.Ltmp53:
.LBB2_2:
	.loc	3 560 43                        @ ../../../../Source/queue.c:560:43
	ldr	r0, [sp, #4]
	.loc	3 560 9 is_stmt 0               @ ../../../../Source/queue.c:560:9
	ldr	r1, [sp, #24]
	.loc	3 560 28                        @ ../../../../Source/queue.c:560:28
	str	r0, [r1]
	b	.LBB2_3
.Ltmp54:
.LBB2_3:
	.loc	3 565 28 is_stmt 1              @ ../../../../Source/queue.c:565:28
	ldr	r0, [sp, #12]
	.loc	3 565 5 is_stmt 0               @ ../../../../Source/queue.c:565:5
	ldr	r1, [sp, #24]
	.loc	3 565 26                        @ ../../../../Source/queue.c:565:26
	str	r0, [r1, #60]
	.loc	3 566 30 is_stmt 1              @ ../../../../Source/queue.c:566:30
	ldr	r0, [sp, #8]
	.loc	3 566 5 is_stmt 0               @ ../../../../Source/queue.c:566:5
	ldr	r1, [sp, #24]
	.loc	3 566 28                        @ ../../../../Source/queue.c:566:28
	str	r0, [r1, #64]
	.loc	3 567 34 is_stmt 1              @ ../../../../Source/queue.c:567:34
	ldr	r0, [sp, #24]
	movs	r1, #1
	.loc	3 567 14 is_stmt 0              @ ../../../../Source/queue.c:567:14
	bl	xQueueGenericReset
.Ltmp55:
	.loc	3 571 35 is_stmt 1              @ ../../../../Source/queue.c:571:35
	ldr	r0, [sp]
	.loc	3 571 9 is_stmt 0               @ ../../../../Source/queue.c:571:9
	ldr	r1, [sp, #24]
	movs	r2, #80
	.loc	3 571 33                        @ ../../../../Source/queue.c:571:33
	strb	r0, [r1, r2]
.Ltmp56:
	.loc	3 577 9 is_stmt 1               @ ../../../../Source/queue.c:577:9
	ldr	r1, [sp, #24]
	movs	r0, #0
	.loc	3 577 41 is_stmt 0              @ ../../../../Source/queue.c:577:41
	str	r0, [r1, #72]
.Ltmp57:
	.loc	3 582 1 is_stmt 1               @ ../../../../Source/queue.c:582:1
	add	sp, #16
	pop	{r4, pc}
.Ltmp58:
.Lfunc_end2:
	.size	prvInitialiseNewQueue, .Lfunc_end2-prvInitialiseNewQueue
	.cfi_endproc
	.cantunwind
	.fnend
                                        @ -- End function
	.hidden	xQueueGenericGetStaticBuffers   @ -- Begin function xQueueGenericGetStaticBuffers
	.globl	xQueueGenericGetStaticBuffers
	.p2align	1
	.type	xQueueGenericGetStaticBuffers,%function
	.code	16                              @ @xQueueGenericGetStaticBuffers
	.thumb_func
xQueueGenericGetStaticBuffers:
.Lfunc_begin3:
	.loc	3 427 0                         @ ../../../../Source/queue.c:427:0
	.fnstart
	.cfi_startproc
@ %bb.0:
	.pad	#20
	sub	sp, #20
	.cfi_def_cfa_offset 20
	str	r0, [sp, #16]
	str	r1, [sp, #12]
	str	r2, [sp, #8]
.Ltmp59:
	.loc	3 429 35 prologue_end           @ ../../../../Source/queue.c:429:35
	ldr	r0, [sp, #16]
	.loc	3 429 25 is_stmt 0              @ ../../../../Source/queue.c:429:25
	str	r0, [sp]
.Ltmp60:
	.loc	3 431 9 is_stmt 1               @ ../../../../Source/queue.c:431:9
	ldr	r0, [sp]
.Ltmp61:
	.loc	3 431 9 is_stmt 0               @ ../../../../Source/queue.c:431:9
	cbnz	r0, .LBB3_3
	b	.LBB3_1
.LBB3_1:
.Ltmp62:
	.loc	3 431 9                         @ ../../../../Source/queue.c:431:9
	@APP
	cpsid i
	@NO_APP
	b	.LBB3_2
.LBB3_2:                                @ =>This Inner Loop Header: Depth=1
.Ltmp63:
	.loc	3 431 9                         @ ../../../../Source/queue.c:431:9
	b	.LBB3_2
.Ltmp64:
.LBB3_3:
	.loc	3 432 9 is_stmt 1               @ ../../../../Source/queue.c:432:9
	ldr	r0, [sp, #8]
.Ltmp65:
	.loc	3 432 9 is_stmt 0               @ ../../../../Source/queue.c:432:9
	cbnz	r0, .LBB3_6
	b	.LBB3_4
.LBB3_4:
.Ltmp66:
	.loc	3 432 9                         @ ../../../../Source/queue.c:432:9
	@APP
	cpsid i
	@NO_APP
	b	.LBB3_5
.LBB3_5:                                @ =>This Inner Loop Header: Depth=1
.Ltmp67:
	.loc	3 432 9                         @ ../../../../Source/queue.c:432:9
	b	.LBB3_5
.Ltmp68:
.LBB3_6:
	.loc	3 437 17 is_stmt 1              @ ../../../../Source/queue.c:437:17
	ldr	r0, [sp]
	movs	r1, #70
	.loc	3 437 26 is_stmt 0              @ ../../../../Source/queue.c:437:26
	ldrb	r0, [r0, r1]
.Ltmp69:
	.loc	3 437 17                        @ ../../../../Source/queue.c:437:17
	cmp	r0, #1
	bne	.LBB3_10
	b	.LBB3_7
.LBB3_7:
.Ltmp70:
	.loc	3 439 21 is_stmt 1              @ ../../../../Source/queue.c:439:21
	ldr	r0, [sp, #12]
.Ltmp71:
	.loc	3 439 21 is_stmt 0              @ ../../../../Source/queue.c:439:21
	cbz	r0, .LBB3_9
	b	.LBB3_8
.LBB3_8:
.Ltmp72:
	.loc	3 441 55 is_stmt 1              @ ../../../../Source/queue.c:441:55
	ldr	r0, [sp]
	.loc	3 441 64 is_stmt 0              @ ../../../../Source/queue.c:441:64
	ldr	r0, [r0]
	.loc	3 441 22                        @ ../../../../Source/queue.c:441:22
	ldr	r1, [sp, #12]
	.loc	3 441 39                        @ ../../../../Source/queue.c:441:39
	str	r0, [r1]
	.loc	3 442 17 is_stmt 1              @ ../../../../Source/queue.c:442:17
	b	.LBB3_9
.Ltmp73:
.LBB3_9:
	.loc	3 444 55                        @ ../../../../Source/queue.c:444:55
	ldr	r0, [sp]
	.loc	3 444 18 is_stmt 0              @ ../../../../Source/queue.c:444:18
	ldr	r1, [sp, #8]
	.loc	3 444 33                        @ ../../../../Source/queue.c:444:33
	str	r0, [r1]
	movs	r0, #1
	.loc	3 445 25 is_stmt 1              @ ../../../../Source/queue.c:445:25
	str	r0, [sp, #4]
	.loc	3 446 13                        @ ../../../../Source/queue.c:446:13
	b	.LBB3_11
.Ltmp74:
.LBB3_10:
	.loc	3 0 13 is_stmt 0                @ ../../../../Source/queue.c:0:13
	movs	r0, #0
.Ltmp75:
	.loc	3 449 25 is_stmt 1              @ ../../../../Source/queue.c:449:25
	str	r0, [sp, #4]
	b	.LBB3_11
.Ltmp76:
.LBB3_11:
	.loc	3 465 16                        @ ../../../../Source/queue.c:465:16
	ldr	r0, [sp, #4]
	.loc	3 465 9 is_stmt 0               @ ../../../../Source/queue.c:465:9
	add	sp, #20
	bx	lr
.Ltmp77:
.Lfunc_end3:
	.size	xQueueGenericGetStaticBuffers, .Lfunc_end3-xQueueGenericGetStaticBuffers
	.cfi_endproc
	.cantunwind
	.fnend
                                        @ -- End function
	.hidden	xQueueGenericCreate             @ -- Begin function xQueueGenericCreate
	.globl	xQueueGenericCreate
	.p2align	1
	.type	xQueueGenericCreate,%function
	.code	16                              @ @xQueueGenericCreate
	.thumb_func
xQueueGenericCreate:
.Lfunc_begin4:
	.loc	3 476 0 is_stmt 1               @ ../../../../Source/queue.c:476:0
	.fnstart
	.cfi_startproc
@ %bb.0:
	.save	{r4, lr}
	push	{r4, lr}
	.cfi_def_cfa_offset 8
	.cfi_offset lr, -4
	.cfi_offset r4, -8
	.pad	#32
	sub	sp, #32
	.cfi_def_cfa_offset 40
                                        @ kill: def $r3 killed $r2
	str	r0, [sp, #28]
	str	r1, [sp, #24]
	add	r0, sp, #20
	strb	r2, [r0]
	movs	r0, #0
.Ltmp78:
	.loc	3 477 19 prologue_end           @ ../../../../Source/queue.c:477:19
	str	r0, [sp, #16]
.Ltmp79:
	.loc	3 481 15                        @ ../../../../Source/queue.c:481:15
	ldr	r0, [sp, #28]
	.loc	3 481 51 is_stmt 0              @ ../../../../Source/queue.c:481:51
	cbz	r0, .LBB4_7
	b	.LBB4_1
.LBB4_1:
	.loc	3 483 28 is_stmt 1              @ ../../../../Source/queue.c:483:28
	ldr	r1, [sp, #28]
	movs	r0, #0
	mvns	r0, r0
	.loc	3 483 26 is_stmt 0              @ ../../../../Source/queue.c:483:26
	udiv	r0, r0, r1
	.loc	3 483 47                        @ ../../../../Source/queue.c:483:47
	ldr	r1, [sp, #24]
	.loc	3 483 60                        @ ../../../../Source/queue.c:483:60
	cmp	r0, r1
	blo	.LBB4_7
	b	.LBB4_2
.LBB4_2:
	.loc	3 485 53 is_stmt 1              @ ../../../../Source/queue.c:485:53
	ldr	r1, [sp, #28]
	.loc	3 485 69 is_stmt 0              @ ../../../../Source/queue.c:485:69
	ldr	r0, [sp, #24]
	.loc	3 485 67                        @ ../../../../Source/queue.c:485:67
	muls	r0, r1, r0
	movs	r1, #84
	mvns	r1, r1
.Ltmp80:
	.loc	3 481 13 is_stmt 1              @ ../../../../Source/queue.c:481:13
	cmp	r0, r1
	bhi	.LBB4_7
	b	.LBB4_3
.LBB4_3:
.Ltmp81:
	.loc	3 490 46                        @ ../../../../Source/queue.c:490:46
	ldr	r1, [sp, #28]
	.loc	3 490 62 is_stmt 0              @ ../../../../Source/queue.c:490:62
	ldr	r0, [sp, #24]
	.loc	3 490 60                        @ ../../../../Source/queue.c:490:60
	muls	r0, r1, r0
	.loc	3 490 31                        @ ../../../../Source/queue.c:490:31
	str	r0, [sp, #12]
	.loc	3 501 74 is_stmt 1              @ ../../../../Source/queue.c:501:74
	ldr	r0, [sp, #12]
	.loc	3 501 72 is_stmt 0              @ ../../../../Source/queue.c:501:72
	adds	r0, #84
	.loc	3 501 40                        @ ../../../../Source/queue.c:501:40
	bl	pvPortMalloc
	.loc	3 501 24                        @ ../../../../Source/queue.c:501:24
	str	r0, [sp, #16]
.Ltmp82:
	.loc	3 503 17 is_stmt 1              @ ../../../../Source/queue.c:503:17
	ldr	r0, [sp, #16]
.Ltmp83:
	.loc	3 503 17 is_stmt 0              @ ../../../../Source/queue.c:503:17
	cbz	r0, .LBB4_5
	b	.LBB4_4
.LBB4_4:
.Ltmp84:
	.loc	3 507 49 is_stmt 1              @ ../../../../Source/queue.c:507:49
	ldr	r0, [sp, #16]
	.loc	3 507 33 is_stmt 0              @ ../../../../Source/queue.c:507:33
	str	r0, [sp, #8]
	.loc	3 508 33 is_stmt 1              @ ../../../../Source/queue.c:508:33
	ldr	r0, [sp, #8]
	adds	r0, #84
	str	r0, [sp, #8]
.Ltmp85:
	.loc	3 515 21                        @ ../../../../Source/queue.c:515:21
	ldr	r1, [sp, #16]
	movs	r2, #70
	movs	r0, #0
	.loc	3 515 55 is_stmt 0              @ ../../../../Source/queue.c:515:55
	strb	r0, [r1, r2]
.Ltmp86:
	.loc	3 519 40 is_stmt 1              @ ../../../../Source/queue.c:519:40
	ldr	r0, [sp, #28]
	.loc	3 519 55 is_stmt 0              @ ../../../../Source/queue.c:519:55
	ldr	r1, [sp, #24]
	.loc	3 519 67                        @ ../../../../Source/queue.c:519:67
	ldr	r2, [sp, #8]
	add	r3, sp, #20
	.loc	3 519 84                        @ ../../../../Source/queue.c:519:84
	ldrb	r3, [r3]
	.loc	3 519 97                        @ ../../../../Source/queue.c:519:97
	ldr	r4, [sp, #16]
	.loc	3 519 17                        @ ../../../../Source/queue.c:519:17
	str	r4, [sp]
	bl	prvInitialiseNewQueue
	.loc	3 520 13 is_stmt 1              @ ../../../../Source/queue.c:520:13
	b	.LBB4_6
.Ltmp87:
.LBB4_5:
	.loc	3 0 13 is_stmt 0                @ ../../../../Source/queue.c:0:13
	b	.LBB4_6
.LBB4_6:
	.loc	3 526 9 is_stmt 1               @ ../../../../Source/queue.c:526:9
	b	.LBB4_11
.Ltmp88:
.LBB4_7:
	.loc	3 529 13                        @ ../../../../Source/queue.c:529:13
	ldr	r0, [sp, #16]
.Ltmp89:
	.loc	3 529 13 is_stmt 0              @ ../../../../Source/queue.c:529:13
	cbnz	r0, .LBB4_10
	b	.LBB4_8
.LBB4_8:
.Ltmp90:
	.loc	3 529 13                        @ ../../../../Source/queue.c:529:13
	@APP
	cpsid i
	@NO_APP
	b	.LBB4_9
.LBB4_9:                                @ =>This Inner Loop Header: Depth=1
.Ltmp91:
	.loc	3 529 13                        @ ../../../../Source/queue.c:529:13
	b	.LBB4_9
.Ltmp92:
.LBB4_10:
	.loc	3 0 13                          @ ../../../../Source/queue.c:0:13
	b	.LBB4_11
.LBB4_11:
	.loc	3 533 16 is_stmt 1              @ ../../../../Source/queue.c:533:16
	ldr	r0, [sp, #16]
	.loc	3 533 9 is_stmt 0               @ ../../../../Source/queue.c:533:9
	add	sp, #32
	pop	{r4, pc}
.Ltmp93:
.Lfunc_end4:
	.size	xQueueGenericCreate, .Lfunc_end4-xQueueGenericCreate
	.cfi_endproc
	.cantunwind
	.fnend
                                        @ -- End function
	.hidden	xQueueCreateMutex               @ -- Begin function xQueueCreateMutex
	.globl	xQueueCreateMutex
	.p2align	1
	.type	xQueueCreateMutex,%function
	.code	16                              @ @xQueueCreateMutex
	.thumb_func
xQueueCreateMutex:
.Lfunc_begin5:
	.loc	3 618 0 is_stmt 1               @ ../../../../Source/queue.c:618:0
	.fnstart
	.cfi_startproc
@ %bb.0:
	.save	{r7, lr}
	push	{r7, lr}
	.cfi_def_cfa_offset 8
	.cfi_offset lr, -4
	.cfi_offset r7, -8
	.pad	#16
	sub	sp, #16
	.cfi_def_cfa_offset 24
                                        @ kill: def $r1 killed $r0
	add	r2, sp, #12
	strb	r0, [r2]
	movs	r0, #1
.Ltmp94:
	.loc	3 620 27 prologue_end           @ ../../../../Source/queue.c:620:27
	str	r0, [sp, #4]
	movs	r1, #0
	.loc	3 620 62 is_stmt 0              @ ../../../../Source/queue.c:620:62
	str	r1, [sp]
	.loc	3 622 70 is_stmt 1              @ ../../../../Source/queue.c:622:70
	ldrb	r2, [r2]
	.loc	3 622 21 is_stmt 0              @ ../../../../Source/queue.c:622:21
	bl	xQueueGenericCreate
	.loc	3 622 19                        @ ../../../../Source/queue.c:622:19
	str	r0, [sp, #8]
	.loc	3 623 43 is_stmt 1              @ ../../../../Source/queue.c:623:43
	ldr	r0, [sp, #8]
	.loc	3 623 9 is_stmt 0               @ ../../../../Source/queue.c:623:9
	bl	prvInitialiseMutex
	.loc	3 625 16 is_stmt 1              @ ../../../../Source/queue.c:625:16
	ldr	r0, [sp, #8]
	.loc	3 625 9 is_stmt 0               @ ../../../../Source/queue.c:625:9
	add	sp, #16
	pop	{r7, pc}
.Ltmp95:
.Lfunc_end5:
	.size	xQueueCreateMutex, .Lfunc_end5-xQueueCreateMutex
	.cfi_endproc
	.cantunwind
	.fnend
                                        @ -- End function
	.p2align	1                               @ -- Begin function prvInitialiseMutex
	.type	prvInitialiseMutex,%function
	.code	16                              @ @prvInitialiseMutex
	.thumb_func
prvInitialiseMutex:
.Lfunc_begin6:
	.loc	3 588 0 is_stmt 1               @ ../../../../Source/queue.c:588:0
	.fnstart
	.cfi_startproc
@ %bb.0:
	.save	{r7, lr}
	push	{r7, lr}
	.cfi_def_cfa_offset 8
	.cfi_offset lr, -4
	.cfi_offset r7, -8
	.pad	#8
	sub	sp, #8
	.cfi_def_cfa_offset 16
	str	r0, [sp, #4]
.Ltmp96:
	.loc	3 589 13 prologue_end           @ ../../../../Source/queue.c:589:13
	ldr	r0, [sp, #4]
.Ltmp97:
	.loc	3 589 13 is_stmt 0              @ ../../../../Source/queue.c:589:13
	cbz	r0, .LBB6_2
	b	.LBB6_1
.LBB6_1:
.Ltmp98:
	.loc	3 595 13 is_stmt 1              @ ../../../../Source/queue.c:595:13
	ldr	r0, [sp, #4]
	movs	r3, #0
	.loc	3 595 51 is_stmt 0              @ ../../../../Source/queue.c:595:51
	str	r3, [r0, #8]
	.loc	3 596 13 is_stmt 1              @ ../../../../Source/queue.c:596:13
	ldr	r0, [sp, #4]
	.loc	3 596 37 is_stmt 0              @ ../../../../Source/queue.c:596:37
	str	r3, [r0]
	.loc	3 599 13 is_stmt 1              @ ../../../../Source/queue.c:599:13
	ldr	r0, [sp, #4]
	.loc	3 599 59 is_stmt 0              @ ../../../../Source/queue.c:599:59
	str	r3, [r0, #12]
	.loc	3 604 41 is_stmt 1              @ ../../../../Source/queue.c:604:41
	ldr	r0, [sp, #4]
	.loc	3 604 22 is_stmt 0              @ ../../../../Source/queue.c:604:22
	mov	r1, r3
	mov	r2, r3
	bl	xQueueGenericSend
	.loc	3 605 9 is_stmt 1               @ ../../../../Source/queue.c:605:9
	b	.LBB6_3
.Ltmp99:
.LBB6_2:
	.loc	3 0 9 is_stmt 0                 @ ../../../../Source/queue.c:0:9
	b	.LBB6_3
.LBB6_3:
	.loc	3 610 5 is_stmt 1               @ ../../../../Source/queue.c:610:5
	add	sp, #8
	pop	{r7, pc}
.Ltmp100:
.Lfunc_end6:
	.size	prvInitialiseMutex, .Lfunc_end6-prvInitialiseMutex
	.cfi_endproc
	.cantunwind
	.fnend
                                        @ -- End function
	.hidden	xQueueCreateMutexStatic         @ -- Begin function xQueueCreateMutexStatic
	.globl	xQueueCreateMutexStatic
	.p2align	1
	.type	xQueueCreateMutexStatic,%function
	.code	16                              @ @xQueueCreateMutexStatic
	.thumb_func
xQueueCreateMutexStatic:
.Lfunc_begin7:
	.loc	3 635 0                         @ ../../../../Source/queue.c:635:0
	.fnstart
	.cfi_startproc
@ %bb.0:
	.save	{r7, lr}
	push	{r7, lr}
	.cfi_def_cfa_offset 8
	.cfi_offset lr, -4
	.cfi_offset r7, -8
	.pad	#32
	sub	sp, #32
	.cfi_def_cfa_offset 40
	str	r1, [sp, #8]                    @ 4-byte Spill
	mov	r2, r0
	ldr	r0, [sp, #8]                    @ 4-byte Reload
                                        @ kill: def $r1 killed $r2
	add	r1, sp, #28
	strb	r2, [r1]
	str	r0, [sp, #24]
	movs	r0, #1
.Ltmp101:
	.loc	3 637 27 prologue_end           @ ../../../../Source/queue.c:637:27
	str	r0, [sp, #16]
	movs	r2, #0
	.loc	3 637 62 is_stmt 0              @ ../../../../Source/queue.c:637:62
	str	r2, [sp, #12]
	.loc	3 641 18 is_stmt 1              @ ../../../../Source/queue.c:641:18
	ldrb	r1, [r1]
	.loc	3 643 82                        @ ../../../../Source/queue.c:643:82
	ldr	r3, [sp, #24]
	.loc	3 643 21 is_stmt 0              @ ../../../../Source/queue.c:643:21
	str	r1, [sp]
	mov	r1, r2
	bl	xQueueGenericCreateStatic
	.loc	3 643 19                        @ ../../../../Source/queue.c:643:19
	str	r0, [sp, #20]
	.loc	3 644 43 is_stmt 1              @ ../../../../Source/queue.c:644:43
	ldr	r0, [sp, #20]
	.loc	3 644 9 is_stmt 0               @ ../../../../Source/queue.c:644:9
	bl	prvInitialiseMutex
	.loc	3 646 16 is_stmt 1              @ ../../../../Source/queue.c:646:16
	ldr	r0, [sp, #20]
	.loc	3 646 9 is_stmt 0               @ ../../../../Source/queue.c:646:9
	add	sp, #32
	pop	{r7, pc}
.Ltmp102:
.Lfunc_end7:
	.size	xQueueCreateMutexStatic, .Lfunc_end7-xQueueCreateMutexStatic
	.cfi_endproc
	.cantunwind
	.fnend
                                        @ -- End function
	.hidden	xQueueGetMutexHolder            @ -- Begin function xQueueGetMutexHolder
	.globl	xQueueGetMutexHolder
	.p2align	1
	.type	xQueueGetMutexHolder,%function
	.code	16                              @ @xQueueGetMutexHolder
	.thumb_func
xQueueGetMutexHolder:
.Lfunc_begin8:
	.loc	3 655 0 is_stmt 1               @ ../../../../Source/queue.c:655:0
	.fnstart
	.cfi_startproc
@ %bb.0:
	.save	{r7, lr}
	push	{r7, lr}
	.cfi_def_cfa_offset 8
	.cfi_offset lr, -4
	.cfi_offset r7, -8
	.pad	#16
	sub	sp, #16
	.cfi_def_cfa_offset 24
	str	r0, [sp, #12]
.Ltmp103:
	.loc	3 657 53 prologue_end           @ ../../../../Source/queue.c:657:53
	ldr	r0, [sp, #12]
	.loc	3 657 25 is_stmt 0              @ ../../../../Source/queue.c:657:25
	str	r0, [sp, #4]
.Ltmp104:
	.loc	3 659 9 is_stmt 1               @ ../../../../Source/queue.c:659:9
	ldr	r0, [sp, #12]
.Ltmp105:
	.loc	3 659 9 is_stmt 0               @ ../../../../Source/queue.c:659:9
	cbnz	r0, .LBB8_3
	b	.LBB8_1
.LBB8_1:
.Ltmp106:
	.loc	3 659 9                         @ ../../../../Source/queue.c:659:9
	@APP
	cpsid i
	@NO_APP
	b	.LBB8_2
.LBB8_2:                                @ =>This Inner Loop Header: Depth=1
.Ltmp107:
	.loc	3 659 9                         @ ../../../../Source/queue.c:659:9
	b	.LBB8_2
.Ltmp108:
.LBB8_3:
	.loc	3 666 9 is_stmt 1               @ ../../../../Source/queue.c:666:9
	bl	vPortEnterCritical
.Ltmp109:
	.loc	3 668 17                        @ ../../../../Source/queue.c:668:17
	ldr	r0, [sp, #4]
	.loc	3 668 30 is_stmt 0              @ ../../../../Source/queue.c:668:30
	ldr	r0, [r0]
.Ltmp110:
	.loc	3 668 17                        @ ../../../../Source/queue.c:668:17
	cbnz	r0, .LBB8_5
	b	.LBB8_4
.LBB8_4:
.Ltmp111:
	.loc	3 670 28 is_stmt 1              @ ../../../../Source/queue.c:670:28
	ldr	r0, [sp, #4]
	.loc	3 670 54 is_stmt 0              @ ../../../../Source/queue.c:670:54
	ldr	r0, [r0, #8]
	.loc	3 670 26                        @ ../../../../Source/queue.c:670:26
	str	r0, [sp, #8]
	.loc	3 671 13 is_stmt 1              @ ../../../../Source/queue.c:671:13
	b	.LBB8_6
.Ltmp112:
.LBB8_5:
	.loc	3 0 13 is_stmt 0                @ ../../../../Source/queue.c:0:13
	movs	r0, #0
.Ltmp113:
	.loc	3 674 26 is_stmt 1              @ ../../../../Source/queue.c:674:26
	str	r0, [sp, #8]
	b	.LBB8_6
.Ltmp114:
.LBB8_6:
	.loc	3 677 9                         @ ../../../../Source/queue.c:677:9
	bl	vPortExitCritical
	.loc	3 679 16                        @ ../../../../Source/queue.c:679:16
	ldr	r0, [sp, #8]
	.loc	3 679 9 is_stmt 0               @ ../../../../Source/queue.c:679:9
	add	sp, #16
	pop	{r7, pc}
.Ltmp115:
.Lfunc_end8:
	.size	xQueueGetMutexHolder, .Lfunc_end8-xQueueGetMutexHolder
	.cfi_endproc
	.cantunwind
	.fnend
                                        @ -- End function
	.hidden	xQueueGetMutexHolderFromISR     @ -- Begin function xQueueGetMutexHolderFromISR
	.globl	xQueueGetMutexHolderFromISR
	.p2align	1
	.type	xQueueGetMutexHolderFromISR,%function
	.code	16                              @ @xQueueGetMutexHolderFromISR
	.thumb_func
xQueueGetMutexHolderFromISR:
.Lfunc_begin9:
	.loc	3 688 0 is_stmt 1               @ ../../../../Source/queue.c:688:0
	.fnstart
	.cfi_startproc
@ %bb.0:
	.pad	#8
	sub	sp, #8
	.cfi_def_cfa_offset 8
	str	r0, [sp, #4]
.Ltmp116:
	.loc	3 691 9 prologue_end            @ ../../../../Source/queue.c:691:9
	ldr	r0, [sp, #4]
.Ltmp117:
	.loc	3 691 9 is_stmt 0               @ ../../../../Source/queue.c:691:9
	cbnz	r0, .LBB9_3
	b	.LBB9_1
.LBB9_1:
.Ltmp118:
	.loc	3 691 9                         @ ../../../../Source/queue.c:691:9
	@APP
	cpsid i
	@NO_APP
	b	.LBB9_2
.LBB9_2:                                @ =>This Inner Loop Header: Depth=1
.Ltmp119:
	.loc	3 691 9                         @ ../../../../Source/queue.c:691:9
	b	.LBB9_2
.Ltmp120:
.LBB9_3:
	.loc	3 696 29 is_stmt 1              @ ../../../../Source/queue.c:696:29
	ldr	r0, [sp, #4]
	.loc	3 696 43 is_stmt 0              @ ../../../../Source/queue.c:696:43
	ldr	r0, [r0]
.Ltmp121:
	.loc	3 696 13                        @ ../../../../Source/queue.c:696:13
	cbnz	r0, .LBB9_5
	b	.LBB9_4
.LBB9_4:
.Ltmp122:
	.loc	3 698 40 is_stmt 1              @ ../../../../Source/queue.c:698:40
	ldr	r0, [sp, #4]
	.loc	3 698 67 is_stmt 0              @ ../../../../Source/queue.c:698:67
	ldr	r0, [r0, #8]
	.loc	3 698 22                        @ ../../../../Source/queue.c:698:22
	str	r0, [sp]
	.loc	3 699 9 is_stmt 1               @ ../../../../Source/queue.c:699:9
	b	.LBB9_6
.Ltmp123:
.LBB9_5:
	.loc	3 0 9 is_stmt 0                 @ ../../../../Source/queue.c:0:9
	movs	r0, #0
.Ltmp124:
	.loc	3 702 22 is_stmt 1              @ ../../../../Source/queue.c:702:22
	str	r0, [sp]
	b	.LBB9_6
.Ltmp125:
.LBB9_6:
	.loc	3 705 16                        @ ../../../../Source/queue.c:705:16
	ldr	r0, [sp]
	.loc	3 705 9 is_stmt 0               @ ../../../../Source/queue.c:705:9
	add	sp, #8
	bx	lr
.Ltmp126:
.Lfunc_end9:
	.size	xQueueGetMutexHolderFromISR, .Lfunc_end9-xQueueGetMutexHolderFromISR
	.cfi_endproc
	.cantunwind
	.fnend
                                        @ -- End function
	.hidden	xQueueGiveMutexRecursive        @ -- Begin function xQueueGiveMutexRecursive
	.globl	xQueueGiveMutexRecursive
	.p2align	1
	.type	xQueueGiveMutexRecursive,%function
	.code	16                              @ @xQueueGiveMutexRecursive
	.thumb_func
xQueueGiveMutexRecursive:
.Lfunc_begin10:
	.loc	3 714 0 is_stmt 1               @ ../../../../Source/queue.c:714:0
	.fnstart
	.cfi_startproc
@ %bb.0:
	.save	{r7, lr}
	push	{r7, lr}
	.cfi_def_cfa_offset 8
	.cfi_offset lr, -4
	.cfi_offset r7, -8
	.pad	#16
	sub	sp, #16
	.cfi_def_cfa_offset 24
	str	r0, [sp, #12]
.Ltmp127:
	.loc	3 716 49 prologue_end           @ ../../../../Source/queue.c:716:49
	ldr	r0, [sp, #12]
	.loc	3 716 25 is_stmt 0              @ ../../../../Source/queue.c:716:25
	str	r0, [sp, #4]
.Ltmp128:
	.loc	3 718 9 is_stmt 1               @ ../../../../Source/queue.c:718:9
	ldr	r0, [sp, #4]
.Ltmp129:
	.loc	3 718 9 is_stmt 0               @ ../../../../Source/queue.c:718:9
	cbnz	r0, .LBB10_3
	b	.LBB10_1
.LBB10_1:
.Ltmp130:
	.loc	3 718 9                         @ ../../../../Source/queue.c:718:9
	@APP
	cpsid i
	@NO_APP
	b	.LBB10_2
.LBB10_2:                               @ =>This Inner Loop Header: Depth=1
.Ltmp131:
	.loc	3 718 9                         @ ../../../../Source/queue.c:718:9
	b	.LBB10_2
.Ltmp132:
.LBB10_3:
	.loc	3 726 13 is_stmt 1              @ ../../../../Source/queue.c:726:13
	ldr	r0, [sp, #4]
	.loc	3 726 35 is_stmt 0              @ ../../../../Source/queue.c:726:35
	ldr	r0, [r0, #8]
	.loc	3 726 51                        @ ../../../../Source/queue.c:726:51
	str	r0, [sp]                        @ 4-byte Spill
	bl	xTaskGetCurrentTaskHandle
	mov	r1, r0
.Ltmp133:
	.loc	3 726 13                        @ ../../../../Source/queue.c:726:13
	ldr	r0, [sp]                        @ 4-byte Reload
	cmp	r0, r1
	bne	.LBB10_8
	b	.LBB10_4
.LBB10_4:
.Ltmp134:
	.loc	3 735 15 is_stmt 1              @ ../../../../Source/queue.c:735:15
	ldr	r1, [sp, #4]
	.loc	3 735 59 is_stmt 0              @ ../../../../Source/queue.c:735:59
	ldr	r0, [r1, #12]
	subs	r0, r0, #1
	str	r0, [r1, #12]
.Ltmp135:
	.loc	3 738 17 is_stmt 1              @ ../../../../Source/queue.c:738:17
	ldr	r0, [sp, #4]
	.loc	3 738 39 is_stmt 0              @ ../../../../Source/queue.c:738:39
	ldr	r0, [r0, #12]
.Ltmp136:
	.loc	3 738 17                        @ ../../../../Source/queue.c:738:17
	cbnz	r0, .LBB10_6
	b	.LBB10_5
.LBB10_5:
.Ltmp137:
	.loc	3 742 45 is_stmt 1              @ ../../../../Source/queue.c:742:45
	ldr	r0, [sp, #4]
	movs	r3, #0
	.loc	3 742 26 is_stmt 0              @ ../../../../Source/queue.c:742:26
	mov	r1, r3
	mov	r2, r3
	bl	xQueueGenericSend
	.loc	3 743 13 is_stmt 1              @ ../../../../Source/queue.c:743:13
	b	.LBB10_7
.Ltmp138:
.LBB10_6:
	.loc	3 0 13 is_stmt 0                @ ../../../../Source/queue.c:0:13
	b	.LBB10_7
.LBB10_7:
	movs	r0, #1
	.loc	3 749 21 is_stmt 1              @ ../../../../Source/queue.c:749:21
	str	r0, [sp, #8]
	.loc	3 750 9                         @ ../../../../Source/queue.c:750:9
	b	.LBB10_9
.Ltmp139:
.LBB10_8:
	.loc	3 0 9 is_stmt 0                 @ ../../../../Source/queue.c:0:9
	movs	r0, #0
.Ltmp140:
	.loc	3 755 21 is_stmt 1              @ ../../../../Source/queue.c:755:21
	str	r0, [sp, #8]
	b	.LBB10_9
.Ltmp141:
.LBB10_9:
	.loc	3 760 16                        @ ../../../../Source/queue.c:760:16
	ldr	r0, [sp, #8]
	.loc	3 760 9 is_stmt 0               @ ../../../../Source/queue.c:760:9
	add	sp, #16
	pop	{r7, pc}
.Ltmp142:
.Lfunc_end10:
	.size	xQueueGiveMutexRecursive, .Lfunc_end10-xQueueGiveMutexRecursive
	.cfi_endproc
	.cantunwind
	.fnend
                                        @ -- End function
	.hidden	xQueueGenericSend               @ -- Begin function xQueueGenericSend
	.globl	xQueueGenericSend
	.p2align	1
	.type	xQueueGenericSend,%function
	.code	16                              @ @xQueueGenericSend
	.thumb_func
xQueueGenericSend:
.Lfunc_begin11:
	.loc	3 884 0 is_stmt 1               @ ../../../../Source/queue.c:884:0
	.fnstart
	.cfi_startproc
@ %bb.0:
	.save	{r7, lr}
	push	{r7, lr}
	.cfi_def_cfa_offset 8
	.cfi_offset lr, -4
	.cfi_offset r7, -8
	.pad	#56
	sub	sp, #56
	.cfi_def_cfa_offset 64
	str	r0, [sp, #48]
	str	r1, [sp, #44]
	str	r2, [sp, #40]
	str	r3, [sp, #36]
	movs	r0, #0
.Ltmp143:
	.loc	3 885 16 prologue_end           @ ../../../../Source/queue.c:885:16
	str	r0, [sp, #32]
	.loc	3 887 31                        @ ../../../../Source/queue.c:887:31
	ldr	r0, [sp, #48]
	.loc	3 887 21 is_stmt 0              @ ../../../../Source/queue.c:887:21
	str	r0, [sp, #16]
.Ltmp144:
	.loc	3 889 5 is_stmt 1               @ ../../../../Source/queue.c:889:5
	ldr	r0, [sp, #16]
.Ltmp145:
	.loc	3 889 5 is_stmt 0               @ ../../../../Source/queue.c:889:5
	cbnz	r0, .LBB11_3
	b	.LBB11_1
.LBB11_1:
.Ltmp146:
	.loc	3 889 5                         @ ../../../../Source/queue.c:889:5
	@APP
	cpsid i
	@NO_APP
	b	.LBB11_2
.LBB11_2:                               @ =>This Inner Loop Header: Depth=1
.Ltmp147:
	.loc	3 889 5                         @ ../../../../Source/queue.c:889:5
	b	.LBB11_2
.Ltmp148:
.LBB11_3:
	.loc	3 890 5 is_stmt 1               @ ../../../../Source/queue.c:890:5
	ldr	r1, [sp, #44]
	movs	r0, #0
	str	r0, [sp, #8]                    @ 4-byte Spill
	cbnz	r1, .LBB11_5
	b	.LBB11_4
.LBB11_4:
	ldr	r0, [sp, #16]
	ldr	r0, [r0, #64]
	subs	r1, r0, #1
	sbcs	r0, r1
	str	r0, [sp, #8]                    @ 4-byte Spill
	b	.LBB11_5
.LBB11_5:
	.loc	3 0 0 is_stmt 0                 @ ../../../../Source/queue.c:0:0
	ldr	r0, [sp, #8]                    @ 4-byte Reload
.Ltmp149:
	.loc	3 890 5                         @ ../../../../Source/queue.c:890:5
	lsls	r0, r0, #31
	cbz	r0, .LBB11_8
	b	.LBB11_6
.LBB11_6:
.Ltmp150:
	.loc	3 890 5                         @ ../../../../Source/queue.c:890:5
	@APP
	cpsid i
	@NO_APP
	b	.LBB11_7
.LBB11_7:                               @ =>This Inner Loop Header: Depth=1
.Ltmp151:
	.loc	3 890 5                         @ ../../../../Source/queue.c:890:5
	b	.LBB11_7
.Ltmp152:
.LBB11_8:
	.loc	3 891 5 is_stmt 1               @ ../../../../Source/queue.c:891:5
	ldr	r1, [sp, #36]
	movs	r0, #0
	cmp	r1, #2
	str	r0, [sp, #4]                    @ 4-byte Spill
	bne	.LBB11_10
	b	.LBB11_9
.LBB11_9:
	ldr	r0, [sp, #16]
	ldr	r0, [r0, #60]
	subs	r0, r0, #1
	subs	r1, r0, #1
	sbcs	r0, r1
	str	r0, [sp, #4]                    @ 4-byte Spill
	b	.LBB11_10
.LBB11_10:
	.loc	3 0 0 is_stmt 0                 @ ../../../../Source/queue.c:0:0
	ldr	r0, [sp, #4]                    @ 4-byte Reload
.Ltmp153:
	.loc	3 891 5                         @ ../../../../Source/queue.c:891:5
	lsls	r0, r0, #31
	cbz	r0, .LBB11_13
	b	.LBB11_11
.LBB11_11:
.Ltmp154:
	.loc	3 891 5                         @ ../../../../Source/queue.c:891:5
	@APP
	cpsid i
	@NO_APP
	b	.LBB11_12
.LBB11_12:                              @ =>This Inner Loop Header: Depth=1
.Ltmp155:
	.loc	3 891 5                         @ ../../../../Source/queue.c:891:5
	b	.LBB11_12
.Ltmp156:
.LBB11_13:
	.loc	3 894 9 is_stmt 1               @ ../../../../Source/queue.c:894:9
	bl	xTaskGetSchedulerState
	mov	r1, r0
	movs	r0, #0
	str	r0, [sp]                        @ 4-byte Spill
	cbnz	r1, .LBB11_15
	b	.LBB11_14
.LBB11_14:
	ldr	r0, [sp, #40]
	subs	r1, r0, #1
	sbcs	r0, r1
	str	r0, [sp]                        @ 4-byte Spill
	b	.LBB11_15
.LBB11_15:
	.loc	3 0 0 is_stmt 0                 @ ../../../../Source/queue.c:0:0
	ldr	r0, [sp]                        @ 4-byte Reload
.Ltmp157:
	.loc	3 894 9                         @ ../../../../Source/queue.c:894:9
	lsls	r0, r0, #31
	cbz	r0, .LBB11_18
	b	.LBB11_16
.LBB11_16:
.Ltmp158:
	.loc	3 894 9                         @ ../../../../Source/queue.c:894:9
	@APP
	cpsid i
	@NO_APP
	b	.LBB11_17
.LBB11_17:                              @ =>This Inner Loop Header: Depth=1
.Ltmp159:
	.loc	3 894 9                         @ ../../../../Source/queue.c:894:9
	b	.LBB11_17
.Ltmp160:
.LBB11_18:
	.loc	3 901 5 is_stmt 1               @ ../../../../Source/queue.c:901:5
	b	.LBB11_19
.LBB11_19:                              @ =>This Inner Loop Header: Depth=1
.Ltmp161:
	.loc	3 903 9                         @ ../../../../Source/queue.c:903:9
	bl	vPortEnterCritical
.Ltmp162:
	.loc	3 909 19                        @ ../../../../Source/queue.c:909:19
	ldr	r0, [sp, #16]
	.loc	3 909 28 is_stmt 0              @ ../../../../Source/queue.c:909:28
	ldr	r0, [r0, #56]
	.loc	3 909 48                        @ ../../../../Source/queue.c:909:48
	ldr	r1, [sp, #16]
	.loc	3 909 57                        @ ../../../../Source/queue.c:909:57
	ldr	r1, [r1, #60]
	.loc	3 909 68                        @ ../../../../Source/queue.c:909:68
	cmp	r0, r1
	blo	.LBB11_21
	b	.LBB11_20
.LBB11_20:                              @   in Loop: Header=BB11_19 Depth=1
	.loc	3 909 73                        @ ../../../../Source/queue.c:909:73
	ldr	r0, [sp, #36]
.Ltmp163:
	.loc	3 909 17                        @ ../../../../Source/queue.c:909:17
	cmp	r0, #2
	bne	.LBB11_41
	b	.LBB11_21
.LBB11_21:
.Ltmp164:
	.loc	3 915 67 is_stmt 1              @ ../../../../Source/queue.c:915:67
	ldr	r0, [sp, #16]
	.loc	3 915 76 is_stmt 0              @ ../../../../Source/queue.c:915:76
	ldr	r0, [r0, #56]
	.loc	3 915 39                        @ ../../../../Source/queue.c:915:39
	str	r0, [sp, #12]
	.loc	3 917 58 is_stmt 1              @ ../../../../Source/queue.c:917:58
	ldr	r0, [sp, #16]
	.loc	3 917 67 is_stmt 0              @ ../../../../Source/queue.c:917:67
	ldr	r1, [sp, #44]
	.loc	3 917 82                        @ ../../../../Source/queue.c:917:82
	ldr	r2, [sp, #36]
	.loc	3 917 38                        @ ../../../../Source/queue.c:917:38
	bl	prvCopyDataToQueue
	.loc	3 917 36                        @ ../../../../Source/queue.c:917:36
	str	r0, [sp, #28]
.Ltmp165:
	.loc	3 919 25 is_stmt 1              @ ../../../../Source/queue.c:919:25
	ldr	r0, [sp, #16]
	.loc	3 919 34 is_stmt 0              @ ../../../../Source/queue.c:919:34
	ldr	r0, [r0, #72]
.Ltmp166:
	.loc	3 919 25                        @ ../../../../Source/queue.c:919:25
	cbz	r0, .LBB11_30
	b	.LBB11_22
.LBB11_22:
.Ltmp167:
	.loc	3 921 31 is_stmt 1              @ ../../../../Source/queue.c:921:31
	ldr	r0, [sp, #36]
	.loc	3 921 65 is_stmt 0              @ ../../../../Source/queue.c:921:65
	cmp	r0, #2
	bne	.LBB11_25
	b	.LBB11_23
.LBB11_23:
	.loc	3 921 70                        @ ../../../../Source/queue.c:921:70
	ldr	r0, [sp, #12]
.Ltmp168:
	.loc	3 921 29                        @ ../../../../Source/queue.c:921:29
	cbz	r0, .LBB11_25
	b	.LBB11_24
.LBB11_24:
.Ltmp169:
	.loc	3 927 25 is_stmt 1              @ ../../../../Source/queue.c:927:25
	b	.LBB11_29
.Ltmp170:
.LBB11_25:
	.loc	3 928 62                        @ ../../../../Source/queue.c:928:62
	ldr	r0, [sp, #16]
	.loc	3 928 34 is_stmt 0              @ ../../../../Source/queue.c:928:34
	bl	prvNotifyQueueSetContainer
.Ltmp171:
	.loc	3 928 34                        @ ../../../../Source/queue.c:928:34
	cbz	r0, .LBB11_27
	b	.LBB11_26
.LBB11_26:
.Ltmp172:
	.loc	3 933 29 is_stmt 1              @ ../../../../Source/queue.c:933:29
	bl	vPortYield
	.loc	3 934 25                        @ ../../../../Source/queue.c:934:25
	b	.LBB11_28
.Ltmp173:
.LBB11_27:
	.loc	3 0 25 is_stmt 0                @ ../../../../Source/queue.c:0:25
	b	.LBB11_28
.LBB11_28:
	b	.LBB11_29
.LBB11_29:
	.loc	3 939 21 is_stmt 1              @ ../../../../Source/queue.c:939:21
	b	.LBB11_40
.Ltmp174:
.LBB11_30:
	.loc	3 944 29                        @ ../../../../Source/queue.c:944:29
	ldr	r0, [sp, #16]
	ldr	r0, [r0, #36]
.Ltmp175:
	.loc	3 944 29 is_stmt 0              @ ../../../../Source/queue.c:944:29
	cbz	r0, .LBB11_35
	b	.LBB11_31
.LBB11_31:
.Ltmp176:
	.loc	3 946 62 is_stmt 1              @ ../../../../Source/queue.c:946:62
	ldr	r0, [sp, #16]
	.loc	3 946 71 is_stmt 0              @ ../../../../Source/queue.c:946:71
	adds	r0, #36
	.loc	3 946 33                        @ ../../../../Source/queue.c:946:33
	bl	xTaskRemoveFromEventList
.Ltmp177:
	.loc	3 946 33                        @ ../../../../Source/queue.c:946:33
	cbz	r0, .LBB11_33
	b	.LBB11_32
.LBB11_32:
.Ltmp178:
	.loc	3 952 33 is_stmt 1              @ ../../../../Source/queue.c:952:33
	bl	vPortYield
	.loc	3 953 29                        @ ../../../../Source/queue.c:953:29
	b	.LBB11_34
.Ltmp179:
.LBB11_33:
	.loc	3 0 29 is_stmt 0                @ ../../../../Source/queue.c:0:29
	b	.LBB11_34
.LBB11_34:
	.loc	3 958 25 is_stmt 1              @ ../../../../Source/queue.c:958:25
	b	.LBB11_39
.Ltmp180:
.LBB11_35:
	.loc	3 959 34                        @ ../../../../Source/queue.c:959:34
	ldr	r0, [sp, #28]
.Ltmp181:
	.loc	3 959 34 is_stmt 0              @ ../../../../Source/queue.c:959:34
	cbz	r0, .LBB11_37
	b	.LBB11_36
.LBB11_36:
.Ltmp182:
	.loc	3 965 29 is_stmt 1              @ ../../../../Source/queue.c:965:29
	bl	vPortYield
	.loc	3 966 25                        @ ../../../../Source/queue.c:966:25
	b	.LBB11_38
.Ltmp183:
.LBB11_37:
	.loc	3 0 25 is_stmt 0                @ ../../../../Source/queue.c:0:25
	b	.LBB11_38
.LBB11_38:
	b	.LBB11_39
.LBB11_39:
	b	.LBB11_40
.LBB11_40:
	.loc	3 1009 17 is_stmt 1             @ ../../../../Source/queue.c:1009:17
	bl	vPortExitCritical
	movs	r0, #1
	.loc	3 1010 17                       @ ../../../../Source/queue.c:1010:17
	str	r0, [sp, #52]
	b	.LBB11_61
.Ltmp184:
.LBB11_41:                              @   in Loop: Header=BB11_19 Depth=1
	.loc	3 1014 21                       @ ../../../../Source/queue.c:1014:21
	ldr	r0, [sp, #40]
.Ltmp185:
	.loc	3 1014 21 is_stmt 0             @ ../../../../Source/queue.c:1014:21
	cbnz	r0, .LBB11_43
	b	.LBB11_42
.LBB11_42:
.Ltmp186:
	.loc	3 1018 21 is_stmt 1             @ ../../../../Source/queue.c:1018:21
	bl	vPortExitCritical
	movs	r0, #0
	.loc	3 1023 21                       @ ../../../../Source/queue.c:1023:21
	str	r0, [sp, #52]
	b	.LBB11_61
.Ltmp187:
.LBB11_43:                              @   in Loop: Header=BB11_19 Depth=1
	.loc	3 1025 26                       @ ../../../../Source/queue.c:1025:26
	ldr	r0, [sp, #32]
.Ltmp188:
	.loc	3 1025 26 is_stmt 0             @ ../../../../Source/queue.c:1025:26
	cbnz	r0, .LBB11_45
	b	.LBB11_44
.LBB11_44:                              @   in Loop: Header=BB11_19 Depth=1
	.loc	3 0 26                          @ ../../../../Source/queue.c:0:26
	add	r0, sp, #20
.Ltmp189:
	.loc	3 1029 21 is_stmt 1             @ ../../../../Source/queue.c:1029:21
	bl	vTaskInternalSetTimeOutState
	movs	r0, #1
	.loc	3 1030 35                       @ ../../../../Source/queue.c:1030:35
	str	r0, [sp, #32]
	.loc	3 1031 17                       @ ../../../../Source/queue.c:1031:17
	b	.LBB11_46
.Ltmp190:
.LBB11_45:                              @   in Loop: Header=BB11_19 Depth=1
	.loc	3 0 17 is_stmt 0                @ ../../../../Source/queue.c:0:17
	b	.LBB11_46
.LBB11_46:                              @   in Loop: Header=BB11_19 Depth=1
	b	.LBB11_47
.LBB11_47:                              @   in Loop: Header=BB11_19 Depth=1
	b	.LBB11_48
.LBB11_48:                              @   in Loop: Header=BB11_19 Depth=1
	.loc	3 1039 9 is_stmt 1              @ ../../../../Source/queue.c:1039:9
	bl	vPortExitCritical
	.loc	3 1044 9                        @ ../../../../Source/queue.c:1044:9
	bl	vTaskSuspendAll
	.loc	3 1045 9                        @ ../../../../Source/queue.c:1045:9
	bl	vPortEnterCritical
.Ltmp191:
	.loc	3 1045 9 is_stmt 0              @ ../../../../Source/queue.c:1045:9
	ldr	r0, [sp, #16]
	movs	r1, #68
	ldrsb	r0, [r0, r1]
.Ltmp192:
	.loc	3 1045 9                        @ ../../../../Source/queue.c:1045:9
	adds	r0, r0, #1
	cbnz	r0, .LBB11_50
	b	.LBB11_49
.LBB11_49:                              @   in Loop: Header=BB11_19 Depth=1
.Ltmp193:
	.loc	3 1045 9                        @ ../../../../Source/queue.c:1045:9
	ldr	r1, [sp, #16]
	movs	r2, #68
	movs	r0, #0
	strb	r0, [r1, r2]
	b	.LBB11_50
.Ltmp194:
.LBB11_50:                              @   in Loop: Header=BB11_19 Depth=1
	.loc	3 1045 9                        @ ../../../../Source/queue.c:1045:9
	ldr	r0, [sp, #16]
	movs	r1, #69
	ldrsb	r0, [r0, r1]
.Ltmp195:
	.loc	3 1045 9                        @ ../../../../Source/queue.c:1045:9
	adds	r0, r0, #1
	cbnz	r0, .LBB11_52
	b	.LBB11_51
.LBB11_51:                              @   in Loop: Header=BB11_19 Depth=1
.Ltmp196:
	.loc	3 1045 9                        @ ../../../../Source/queue.c:1045:9
	ldr	r1, [sp, #16]
	movs	r2, #69
	movs	r0, #0
	strb	r0, [r1, r2]
	b	.LBB11_52
.Ltmp197:
.LBB11_52:                              @   in Loop: Header=BB11_19 Depth=1
	.loc	3 1045 9                        @ ../../../../Source/queue.c:1045:9
	bl	vPortExitCritical
	add	r0, sp, #20
	add	r1, sp, #40
.Ltmp198:
	.loc	3 1048 13 is_stmt 1             @ ../../../../Source/queue.c:1048:13
	bl	xTaskCheckForTimeOut
.Ltmp199:
	.loc	3 1048 13 is_stmt 0             @ ../../../../Source/queue.c:1048:13
	cbnz	r0, .LBB11_59
	b	.LBB11_53
.LBB11_53:                              @   in Loop: Header=BB11_19 Depth=1
.Ltmp200:
	.loc	3 1050 33 is_stmt 1             @ ../../../../Source/queue.c:1050:33
	ldr	r0, [sp, #16]
	.loc	3 1050 17 is_stmt 0             @ ../../../../Source/queue.c:1050:17
	bl	prvIsQueueFull
.Ltmp201:
	.loc	3 1050 17                       @ ../../../../Source/queue.c:1050:17
	cbz	r0, .LBB11_57
	b	.LBB11_54
.LBB11_54:                              @   in Loop: Header=BB11_19 Depth=1
.Ltmp202:
	.loc	3 1053 43 is_stmt 1             @ ../../../../Source/queue.c:1053:43
	ldr	r0, [sp, #16]
	.loc	3 1053 52 is_stmt 0             @ ../../../../Source/queue.c:1053:52
	adds	r0, #16
	.loc	3 1053 75                       @ ../../../../Source/queue.c:1053:75
	ldr	r1, [sp, #40]
	.loc	3 1053 17                       @ ../../../../Source/queue.c:1053:17
	bl	vTaskPlaceOnEventList
	.loc	3 1060 33 is_stmt 1             @ ../../../../Source/queue.c:1060:33
	ldr	r0, [sp, #16]
	.loc	3 1060 17 is_stmt 0             @ ../../../../Source/queue.c:1060:17
	bl	prvUnlockQueue
.Ltmp203:
	.loc	3 1067 21 is_stmt 1             @ ../../../../Source/queue.c:1067:21
	bl	xTaskResumeAll
.Ltmp204:
	.loc	3 1067 21 is_stmt 0             @ ../../../../Source/queue.c:1067:21
	cbnz	r0, .LBB11_56
	b	.LBB11_55
.LBB11_55:                              @   in Loop: Header=BB11_19 Depth=1
.Ltmp205:
	.loc	3 1069 21 is_stmt 1             @ ../../../../Source/queue.c:1069:21
	bl	vPortYield
	.loc	3 1070 17                       @ ../../../../Source/queue.c:1070:17
	b	.LBB11_56
.Ltmp206:
.LBB11_56:                              @   in Loop: Header=BB11_19 Depth=1
	.loc	3 1071 13                       @ ../../../../Source/queue.c:1071:13
	b	.LBB11_58
.Ltmp207:
.LBB11_57:                              @   in Loop: Header=BB11_19 Depth=1
	.loc	3 1075 33                       @ ../../../../Source/queue.c:1075:33
	ldr	r0, [sp, #16]
	.loc	3 1075 17 is_stmt 0             @ ../../../../Source/queue.c:1075:17
	bl	prvUnlockQueue
	.loc	3 1076 26 is_stmt 1             @ ../../../../Source/queue.c:1076:26
	bl	xTaskResumeAll
	b	.LBB11_58
.Ltmp208:
.LBB11_58:                              @   in Loop: Header=BB11_19 Depth=1
	.loc	3 1078 9                        @ ../../../../Source/queue.c:1078:9
	b	.LBB11_60
.Ltmp209:
.LBB11_59:
	.loc	3 1082 29                       @ ../../../../Source/queue.c:1082:29
	ldr	r0, [sp, #16]
	.loc	3 1082 13 is_stmt 0             @ ../../../../Source/queue.c:1082:13
	bl	prvUnlockQueue
	.loc	3 1083 22 is_stmt 1             @ ../../../../Source/queue.c:1083:22
	bl	xTaskResumeAll
	movs	r0, #0
	.loc	3 1086 13                       @ ../../../../Source/queue.c:1086:13
	str	r0, [sp, #52]
	b	.LBB11_61
.Ltmp210:
.LBB11_60:                              @   in Loop: Header=BB11_19 Depth=1
	.loc	3 901 5                         @ ../../../../Source/queue.c:901:5
	b	.LBB11_19
.Ltmp211:
.LBB11_61:
	.loc	3 1089 1                        @ ../../../../Source/queue.c:1089:1
	ldr	r0, [sp, #52]
	add	sp, #56
	pop	{r7, pc}
.Ltmp212:
.Lfunc_end11:
	.size	xQueueGenericSend, .Lfunc_end11-xQueueGenericSend
	.cfi_endproc
	.cantunwind
	.fnend
                                        @ -- End function
	.hidden	xQueueTakeMutexRecursive        @ -- Begin function xQueueTakeMutexRecursive
	.globl	xQueueTakeMutexRecursive
	.p2align	1
	.type	xQueueTakeMutexRecursive,%function
	.code	16                              @ @xQueueTakeMutexRecursive
	.thumb_func
xQueueTakeMutexRecursive:
.Lfunc_begin12:
	.loc	3 770 0                         @ ../../../../Source/queue.c:770:0
	.fnstart
	.cfi_startproc
@ %bb.0:
	.save	{r7, lr}
	push	{r7, lr}
	.cfi_def_cfa_offset 8
	.cfi_offset lr, -4
	.cfi_offset r7, -8
	.pad	#24
	sub	sp, #24
	.cfi_def_cfa_offset 32
	str	r0, [sp, #20]
	str	r1, [sp, #16]
.Ltmp213:
	.loc	3 772 49 prologue_end           @ ../../../../Source/queue.c:772:49
	ldr	r0, [sp, #20]
	.loc	3 772 25 is_stmt 0              @ ../../../../Source/queue.c:772:25
	str	r0, [sp, #8]
.Ltmp214:
	.loc	3 774 9 is_stmt 1               @ ../../../../Source/queue.c:774:9
	ldr	r0, [sp, #8]
.Ltmp215:
	.loc	3 774 9 is_stmt 0               @ ../../../../Source/queue.c:774:9
	cbnz	r0, .LBB12_3
	b	.LBB12_1
.LBB12_1:
.Ltmp216:
	.loc	3 774 9                         @ ../../../../Source/queue.c:774:9
	@APP
	cpsid i
	@NO_APP
	b	.LBB12_2
.LBB12_2:                               @ =>This Inner Loop Header: Depth=1
.Ltmp217:
	.loc	3 774 9                         @ ../../../../Source/queue.c:774:9
	b	.LBB12_2
.Ltmp218:
.LBB12_3:
	.loc	3 781 13 is_stmt 1              @ ../../../../Source/queue.c:781:13
	ldr	r0, [sp, #8]
	.loc	3 781 35 is_stmt 0              @ ../../../../Source/queue.c:781:35
	ldr	r0, [r0, #8]
	.loc	3 781 51                        @ ../../../../Source/queue.c:781:51
	str	r0, [sp, #4]                    @ 4-byte Spill
	bl	xTaskGetCurrentTaskHandle
	mov	r1, r0
.Ltmp219:
	.loc	3 781 13                        @ ../../../../Source/queue.c:781:13
	ldr	r0, [sp, #4]                    @ 4-byte Reload
	cmp	r0, r1
	bne	.LBB12_5
	b	.LBB12_4
.LBB12_4:
.Ltmp220:
	.loc	3 783 15 is_stmt 1              @ ../../../../Source/queue.c:783:15
	ldr	r1, [sp, #8]
	.loc	3 783 59 is_stmt 0              @ ../../../../Source/queue.c:783:59
	ldr	r0, [r1, #12]
	adds	r0, r0, #1
	str	r0, [r1, #12]
	movs	r0, #1
	.loc	3 784 21 is_stmt 1              @ ../../../../Source/queue.c:784:21
	str	r0, [sp, #12]
	.loc	3 785 9                         @ ../../../../Source/queue.c:785:9
	b	.LBB12_9
.Ltmp221:
.LBB12_5:
	.loc	3 788 44                        @ ../../../../Source/queue.c:788:44
	ldr	r0, [sp, #8]
	.loc	3 788 53 is_stmt 0              @ ../../../../Source/queue.c:788:53
	ldr	r1, [sp, #16]
	.loc	3 788 23                        @ ../../../../Source/queue.c:788:23
	bl	xQueueSemaphoreTake
	.loc	3 788 21                        @ ../../../../Source/queue.c:788:21
	str	r0, [sp, #12]
.Ltmp222:
	.loc	3 793 17 is_stmt 1              @ ../../../../Source/queue.c:793:17
	ldr	r0, [sp, #12]
.Ltmp223:
	.loc	3 793 17 is_stmt 0              @ ../../../../Source/queue.c:793:17
	cbz	r0, .LBB12_7
	b	.LBB12_6
.LBB12_6:
.Ltmp224:
	.loc	3 795 19 is_stmt 1              @ ../../../../Source/queue.c:795:19
	ldr	r1, [sp, #8]
	.loc	3 795 63 is_stmt 0              @ ../../../../Source/queue.c:795:63
	ldr	r0, [r1, #12]
	adds	r0, r0, #1
	str	r0, [r1, #12]
	.loc	3 796 13 is_stmt 1              @ ../../../../Source/queue.c:796:13
	b	.LBB12_8
.Ltmp225:
.LBB12_7:
	.loc	3 0 13 is_stmt 0                @ ../../../../Source/queue.c:0:13
	b	.LBB12_8
.LBB12_8:
	b	.LBB12_9
.LBB12_9:
	.loc	3 803 16 is_stmt 1              @ ../../../../Source/queue.c:803:16
	ldr	r0, [sp, #12]
	.loc	3 803 9 is_stmt 0               @ ../../../../Source/queue.c:803:9
	add	sp, #24
	pop	{r7, pc}
.Ltmp226:
.Lfunc_end12:
	.size	xQueueTakeMutexRecursive, .Lfunc_end12-xQueueTakeMutexRecursive
	.cfi_endproc
	.cantunwind
	.fnend
                                        @ -- End function
	.hidden	xQueueSemaphoreTake             @ -- Begin function xQueueSemaphoreTake
	.globl	xQueueSemaphoreTake
	.p2align	1
	.type	xQueueSemaphoreTake,%function
	.code	16                              @ @xQueueSemaphoreTake
	.thumb_func
xQueueSemaphoreTake:
.Lfunc_begin13:
	.loc	3 1568 0 is_stmt 1              @ ../../../../Source/queue.c:1568:0
	.fnstart
	.cfi_startproc
@ %bb.0:
	.save	{r7, lr}
	push	{r7, lr}
	.cfi_def_cfa_offset 8
	.cfi_offset lr, -4
	.cfi_offset r7, -8
	.pad	#48
	sub	sp, #48
	.cfi_def_cfa_offset 56
	str	r0, [sp, #40]
	str	r1, [sp, #36]
	movs	r0, #0
.Ltmp227:
	.loc	3 1569 16 prologue_end          @ ../../../../Source/queue.c:1569:16
	str	r0, [sp, #32]
	.loc	3 1571 31                       @ ../../../../Source/queue.c:1571:31
	ldr	r1, [sp, #40]
	.loc	3 1571 21 is_stmt 0             @ ../../../../Source/queue.c:1571:21
	str	r1, [sp, #20]
	.loc	3 1574 20 is_stmt 1             @ ../../../../Source/queue.c:1574:20
	str	r0, [sp, #16]
.Ltmp228:
	.loc	3 1578 5                        @ ../../../../Source/queue.c:1578:5
	ldr	r0, [sp, #20]
.Ltmp229:
	.loc	3 1578 5 is_stmt 0              @ ../../../../Source/queue.c:1578:5
	cbnz	r0, .LBB13_3
	b	.LBB13_1
.LBB13_1:
.Ltmp230:
	.loc	3 1578 5                        @ ../../../../Source/queue.c:1578:5
	@APP
	cpsid i
	@NO_APP
	b	.LBB13_2
.LBB13_2:                               @ =>This Inner Loop Header: Depth=1
.Ltmp231:
	.loc	3 1578 5                        @ ../../../../Source/queue.c:1578:5
	b	.LBB13_2
.Ltmp232:
.LBB13_3:
	.loc	3 1582 5 is_stmt 1              @ ../../../../Source/queue.c:1582:5
	ldr	r0, [sp, #20]
	ldr	r0, [r0, #64]
.Ltmp233:
	.loc	3 1582 5 is_stmt 0              @ ../../../../Source/queue.c:1582:5
	cbz	r0, .LBB13_6
	b	.LBB13_4
.LBB13_4:
.Ltmp234:
	.loc	3 1582 5                        @ ../../../../Source/queue.c:1582:5
	@APP
	cpsid i
	@NO_APP
	b	.LBB13_5
.LBB13_5:                               @ =>This Inner Loop Header: Depth=1
.Ltmp235:
	.loc	3 1582 5                        @ ../../../../Source/queue.c:1582:5
	b	.LBB13_5
.Ltmp236:
.LBB13_6:
	.loc	3 1587 9 is_stmt 1              @ ../../../../Source/queue.c:1587:9
	bl	xTaskGetSchedulerState
	mov	r1, r0
	movs	r0, #0
	str	r0, [sp, #4]                    @ 4-byte Spill
	cbnz	r1, .LBB13_8
	b	.LBB13_7
.LBB13_7:
	ldr	r0, [sp, #36]
	subs	r1, r0, #1
	sbcs	r0, r1
	str	r0, [sp, #4]                    @ 4-byte Spill
	b	.LBB13_8
.LBB13_8:
	.loc	3 0 0 is_stmt 0                 @ ../../../../Source/queue.c:0:0
	ldr	r0, [sp, #4]                    @ 4-byte Reload
.Ltmp237:
	.loc	3 1587 9                        @ ../../../../Source/queue.c:1587:9
	lsls	r0, r0, #31
	cbz	r0, .LBB13_11
	b	.LBB13_9
.LBB13_9:
.Ltmp238:
	.loc	3 1587 9                        @ ../../../../Source/queue.c:1587:9
	@APP
	cpsid i
	@NO_APP
	b	.LBB13_10
.LBB13_10:                              @ =>This Inner Loop Header: Depth=1
.Ltmp239:
	.loc	3 1587 9                        @ ../../../../Source/queue.c:1587:9
	b	.LBB13_10
.Ltmp240:
.LBB13_11:
	.loc	3 1594 5 is_stmt 1              @ ../../../../Source/queue.c:1594:5
	b	.LBB13_12
.LBB13_12:                              @ =>This Inner Loop Header: Depth=1
.Ltmp241:
	.loc	3 1596 9                        @ ../../../../Source/queue.c:1596:9
	bl	vPortEnterCritical
.Ltmp242:
	.loc	3 1600 50                       @ ../../../../Source/queue.c:1600:50
	ldr	r0, [sp, #20]
	.loc	3 1600 59 is_stmt 0             @ ../../../../Source/queue.c:1600:59
	ldr	r0, [r0, #56]
	.loc	3 1600 31                       @ ../../../../Source/queue.c:1600:31
	str	r0, [sp, #12]
.Ltmp243:
	.loc	3 1604 17 is_stmt 1             @ ../../../../Source/queue.c:1604:17
	ldr	r0, [sp, #12]
.Ltmp244:
	.loc	3 1604 17 is_stmt 0             @ ../../../../Source/queue.c:1604:17
	cbz	r0, .LBB13_23
	b	.LBB13_13
.LBB13_13:
.Ltmp245:
	.loc	3 1610 46 is_stmt 1             @ ../../../../Source/queue.c:1610:46
	ldr	r0, [sp, #12]
	.loc	3 1610 63 is_stmt 0             @ ../../../../Source/queue.c:1610:63
	subs	r0, r0, #1
	.loc	3 1610 17                       @ ../../../../Source/queue.c:1610:17
	ldr	r1, [sp, #20]
	.loc	3 1610 44                       @ ../../../../Source/queue.c:1610:44
	str	r0, [r1, #56]
.Ltmp246:
	.loc	3 1614 25 is_stmt 1             @ ../../../../Source/queue.c:1614:25
	ldr	r0, [sp, #20]
	.loc	3 1614 34 is_stmt 0             @ ../../../../Source/queue.c:1614:34
	ldr	r0, [r0]
.Ltmp247:
	.loc	3 1614 25                       @ ../../../../Source/queue.c:1614:25
	cbnz	r0, .LBB13_15
	b	.LBB13_14
.LBB13_14:
.Ltmp248:
	.loc	3 1618 62 is_stmt 1             @ ../../../../Source/queue.c:1618:62
	bl	pvTaskIncrementMutexHeldCount
	.loc	3 1618 25 is_stmt 0             @ ../../../../Source/queue.c:1618:25
	ldr	r1, [sp, #20]
	.loc	3 1618 60                       @ ../../../../Source/queue.c:1618:60
	str	r0, [r1, #8]
	.loc	3 1619 21 is_stmt 1             @ ../../../../Source/queue.c:1619:21
	b	.LBB13_16
.Ltmp249:
.LBB13_15:
	.loc	3 0 21 is_stmt 0                @ ../../../../Source/queue.c:0:21
	b	.LBB13_16
.LBB13_16:
.Ltmp250:
	.loc	3 1629 21 is_stmt 1             @ ../../../../Source/queue.c:1629:21
	ldr	r0, [sp, #20]
	ldr	r0, [r0, #16]
.Ltmp251:
	.loc	3 1629 21 is_stmt 0             @ ../../../../Source/queue.c:1629:21
	cbz	r0, .LBB13_21
	b	.LBB13_17
.LBB13_17:
.Ltmp252:
	.loc	3 1631 54 is_stmt 1             @ ../../../../Source/queue.c:1631:54
	ldr	r0, [sp, #20]
	.loc	3 1631 63 is_stmt 0             @ ../../../../Source/queue.c:1631:63
	adds	r0, #16
	.loc	3 1631 25                       @ ../../../../Source/queue.c:1631:25
	bl	xTaskRemoveFromEventList
.Ltmp253:
	.loc	3 1631 25                       @ ../../../../Source/queue.c:1631:25
	cbz	r0, .LBB13_19
	b	.LBB13_18
.LBB13_18:
.Ltmp254:
	.loc	3 1633 25 is_stmt 1             @ ../../../../Source/queue.c:1633:25
	bl	vPortYield
	.loc	3 1634 21                       @ ../../../../Source/queue.c:1634:21
	b	.LBB13_20
.Ltmp255:
.LBB13_19:
	.loc	3 0 21 is_stmt 0                @ ../../../../Source/queue.c:0:21
	b	.LBB13_20
.LBB13_20:
	.loc	3 1639 17 is_stmt 1             @ ../../../../Source/queue.c:1639:17
	b	.LBB13_22
.Ltmp256:
.LBB13_21:
	.loc	3 0 17 is_stmt 0                @ ../../../../Source/queue.c:0:17
	b	.LBB13_22
.LBB13_22:
	.loc	3 1645 17 is_stmt 1             @ ../../../../Source/queue.c:1645:17
	bl	vPortExitCritical
	movs	r0, #1
	.loc	3 1646 17                       @ ../../../../Source/queue.c:1646:17
	str	r0, [sp, #44]
	b	.LBB13_52
.Ltmp257:
.LBB13_23:                              @   in Loop: Header=BB13_12 Depth=1
	.loc	3 1650 21                       @ ../../../../Source/queue.c:1650:21
	ldr	r0, [sp, #36]
.Ltmp258:
	.loc	3 1650 21 is_stmt 0             @ ../../../../Source/queue.c:1650:21
	cbnz	r0, .LBB13_25
	b	.LBB13_24
.LBB13_24:
.Ltmp259:
	.loc	3 1654 21 is_stmt 1             @ ../../../../Source/queue.c:1654:21
	bl	vPortExitCritical
	movs	r0, #0
	.loc	3 1656 21                       @ ../../../../Source/queue.c:1656:21
	str	r0, [sp, #44]
	b	.LBB13_52
.Ltmp260:
.LBB13_25:                              @   in Loop: Header=BB13_12 Depth=1
	.loc	3 1658 26                       @ ../../../../Source/queue.c:1658:26
	ldr	r0, [sp, #32]
.Ltmp261:
	.loc	3 1658 26 is_stmt 0             @ ../../../../Source/queue.c:1658:26
	cbnz	r0, .LBB13_27
	b	.LBB13_26
.LBB13_26:                              @   in Loop: Header=BB13_12 Depth=1
	.loc	3 0 26                          @ ../../../../Source/queue.c:0:26
	add	r0, sp, #24
.Ltmp262:
	.loc	3 1662 21 is_stmt 1             @ ../../../../Source/queue.c:1662:21
	bl	vTaskInternalSetTimeOutState
	movs	r0, #1
	.loc	3 1663 35                       @ ../../../../Source/queue.c:1663:35
	str	r0, [sp, #32]
	.loc	3 1664 17                       @ ../../../../Source/queue.c:1664:17
	b	.LBB13_28
.Ltmp263:
.LBB13_27:                              @   in Loop: Header=BB13_12 Depth=1
	.loc	3 0 17 is_stmt 0                @ ../../../../Source/queue.c:0:17
	b	.LBB13_28
.LBB13_28:                              @   in Loop: Header=BB13_12 Depth=1
	b	.LBB13_29
.LBB13_29:                              @   in Loop: Header=BB13_12 Depth=1
	b	.LBB13_30
.LBB13_30:                              @   in Loop: Header=BB13_12 Depth=1
	.loc	3 1672 9 is_stmt 1              @ ../../../../Source/queue.c:1672:9
	bl	vPortExitCritical
	.loc	3 1677 9                        @ ../../../../Source/queue.c:1677:9
	bl	vTaskSuspendAll
	.loc	3 1678 9                        @ ../../../../Source/queue.c:1678:9
	bl	vPortEnterCritical
.Ltmp264:
	.loc	3 1678 9 is_stmt 0              @ ../../../../Source/queue.c:1678:9
	ldr	r0, [sp, #20]
	movs	r1, #68
	ldrsb	r0, [r0, r1]
.Ltmp265:
	.loc	3 1678 9                        @ ../../../../Source/queue.c:1678:9
	adds	r0, r0, #1
	cbnz	r0, .LBB13_32
	b	.LBB13_31
.LBB13_31:                              @   in Loop: Header=BB13_12 Depth=1
.Ltmp266:
	.loc	3 1678 9                        @ ../../../../Source/queue.c:1678:9
	ldr	r1, [sp, #20]
	movs	r2, #68
	movs	r0, #0
	strb	r0, [r1, r2]
	b	.LBB13_32
.Ltmp267:
.LBB13_32:                              @   in Loop: Header=BB13_12 Depth=1
	.loc	3 1678 9                        @ ../../../../Source/queue.c:1678:9
	ldr	r0, [sp, #20]
	movs	r1, #69
	ldrsb	r0, [r0, r1]
.Ltmp268:
	.loc	3 1678 9                        @ ../../../../Source/queue.c:1678:9
	adds	r0, r0, #1
	cbnz	r0, .LBB13_34
	b	.LBB13_33
.LBB13_33:                              @   in Loop: Header=BB13_12 Depth=1
.Ltmp269:
	.loc	3 1678 9                        @ ../../../../Source/queue.c:1678:9
	ldr	r1, [sp, #20]
	movs	r2, #69
	movs	r0, #0
	strb	r0, [r1, r2]
	b	.LBB13_34
.Ltmp270:
.LBB13_34:                              @   in Loop: Header=BB13_12 Depth=1
	.loc	3 1678 9                        @ ../../../../Source/queue.c:1678:9
	bl	vPortExitCritical
	add	r0, sp, #24
	add	r1, sp, #36
.Ltmp271:
	.loc	3 1681 13 is_stmt 1             @ ../../../../Source/queue.c:1681:13
	bl	xTaskCheckForTimeOut
.Ltmp272:
	.loc	3 1681 13 is_stmt 0             @ ../../../../Source/queue.c:1681:13
	cbnz	r0, .LBB13_45
	b	.LBB13_35
.LBB13_35:                              @   in Loop: Header=BB13_12 Depth=1
.Ltmp273:
	.loc	3 1687 34 is_stmt 1             @ ../../../../Source/queue.c:1687:34
	ldr	r0, [sp, #20]
	.loc	3 1687 17 is_stmt 0             @ ../../../../Source/queue.c:1687:17
	bl	prvIsQueueEmpty
.Ltmp274:
	.loc	3 1687 17                       @ ../../../../Source/queue.c:1687:17
	cbz	r0, .LBB13_43
	b	.LBB13_36
.LBB13_36:                              @   in Loop: Header=BB13_12 Depth=1
.Ltmp275:
	.loc	3 1693 25 is_stmt 1             @ ../../../../Source/queue.c:1693:25
	ldr	r0, [sp, #20]
	.loc	3 1693 34 is_stmt 0             @ ../../../../Source/queue.c:1693:34
	ldr	r0, [r0]
.Ltmp276:
	.loc	3 1693 25                       @ ../../../../Source/queue.c:1693:25
	cbnz	r0, .LBB13_38
	b	.LBB13_37
.LBB13_37:                              @   in Loop: Header=BB13_12 Depth=1
.Ltmp277:
	.loc	3 1695 25 is_stmt 1             @ ../../../../Source/queue.c:1695:25
	bl	vPortEnterCritical
.Ltmp278:
	.loc	3 1697 74                       @ ../../../../Source/queue.c:1697:74
	ldr	r0, [sp, #20]
	.loc	3 1697 96 is_stmt 0             @ ../../../../Source/queue.c:1697:96
	ldr	r0, [r0, #8]
	.loc	3 1697 52                       @ ../../../../Source/queue.c:1697:52
	bl	xTaskPriorityInherit
	.loc	3 1697 50                       @ ../../../../Source/queue.c:1697:50
	str	r0, [sp, #16]
.Ltmp279:
	.loc	3 1699 25 is_stmt 1             @ ../../../../Source/queue.c:1699:25
	bl	vPortExitCritical
	.loc	3 1700 21                       @ ../../../../Source/queue.c:1700:21
	b	.LBB13_39
.Ltmp280:
.LBB13_38:                              @   in Loop: Header=BB13_12 Depth=1
	.loc	3 0 21 is_stmt 0                @ ../../../../Source/queue.c:0:21
	b	.LBB13_39
.LBB13_39:                              @   in Loop: Header=BB13_12 Depth=1
	.loc	3 1708 43 is_stmt 1             @ ../../../../Source/queue.c:1708:43
	ldr	r0, [sp, #20]
	.loc	3 1708 52 is_stmt 0             @ ../../../../Source/queue.c:1708:52
	adds	r0, #36
	.loc	3 1708 78                       @ ../../../../Source/queue.c:1708:78
	ldr	r1, [sp, #36]
	.loc	3 1708 17                       @ ../../../../Source/queue.c:1708:17
	bl	vTaskPlaceOnEventList
	.loc	3 1709 33 is_stmt 1             @ ../../../../Source/queue.c:1709:33
	ldr	r0, [sp, #20]
	.loc	3 1709 17 is_stmt 0             @ ../../../../Source/queue.c:1709:17
	bl	prvUnlockQueue
.Ltmp281:
	.loc	3 1711 21 is_stmt 1             @ ../../../../Source/queue.c:1711:21
	bl	xTaskResumeAll
.Ltmp282:
	.loc	3 1711 21 is_stmt 0             @ ../../../../Source/queue.c:1711:21
	cbnz	r0, .LBB13_41
	b	.LBB13_40
.LBB13_40:                              @   in Loop: Header=BB13_12 Depth=1
.Ltmp283:
	.loc	3 1713 21 is_stmt 1             @ ../../../../Source/queue.c:1713:21
	bl	vPortYield
	.loc	3 1714 17                       @ ../../../../Source/queue.c:1714:17
	b	.LBB13_42
.Ltmp284:
.LBB13_41:                              @   in Loop: Header=BB13_12 Depth=1
	.loc	3 0 17 is_stmt 0                @ ../../../../Source/queue.c:0:17
	b	.LBB13_42
.LBB13_42:                              @   in Loop: Header=BB13_12 Depth=1
	.loc	3 1719 13 is_stmt 1             @ ../../../../Source/queue.c:1719:13
	b	.LBB13_44
.Ltmp285:
.LBB13_43:                              @   in Loop: Header=BB13_12 Depth=1
	.loc	3 1724 33                       @ ../../../../Source/queue.c:1724:33
	ldr	r0, [sp, #20]
	.loc	3 1724 17 is_stmt 0             @ ../../../../Source/queue.c:1724:17
	bl	prvUnlockQueue
	.loc	3 1725 26 is_stmt 1             @ ../../../../Source/queue.c:1725:26
	bl	xTaskResumeAll
	b	.LBB13_44
.Ltmp286:
.LBB13_44:                              @   in Loop: Header=BB13_12 Depth=1
	.loc	3 1727 9                        @ ../../../../Source/queue.c:1727:9
	b	.LBB13_51
.Ltmp287:
.LBB13_45:                              @   in Loop: Header=BB13_12 Depth=1
	.loc	3 1731 29                       @ ../../../../Source/queue.c:1731:29
	ldr	r0, [sp, #20]
	.loc	3 1731 13 is_stmt 0             @ ../../../../Source/queue.c:1731:13
	bl	prvUnlockQueue
	.loc	3 1732 22 is_stmt 1             @ ../../../../Source/queue.c:1732:22
	bl	xTaskResumeAll
.Ltmp288:
	.loc	3 1738 34                       @ ../../../../Source/queue.c:1738:34
	ldr	r0, [sp, #20]
	.loc	3 1738 17 is_stmt 0             @ ../../../../Source/queue.c:1738:17
	bl	prvIsQueueEmpty
.Ltmp289:
	.loc	3 1738 17                       @ ../../../../Source/queue.c:1738:17
	cbz	r0, .LBB13_49
	b	.LBB13_46
.LBB13_46:
.Ltmp290:
	.loc	3 1745 25 is_stmt 1             @ ../../../../Source/queue.c:1745:25
	ldr	r0, [sp, #16]
.Ltmp291:
	.loc	3 1745 25 is_stmt 0             @ ../../../../Source/queue.c:1745:25
	cbz	r0, .LBB13_48
	b	.LBB13_47
.LBB13_47:
.Ltmp292:
	.loc	3 1747 25 is_stmt 1             @ ../../../../Source/queue.c:1747:25
	bl	vPortEnterCritical
.Ltmp293:
	.loc	3 1756 94                       @ ../../../../Source/queue.c:1756:94
	ldr	r0, [sp, #20]
	.loc	3 1756 56 is_stmt 0             @ ../../../../Source/queue.c:1756:56
	bl	prvGetDisinheritPriorityAfterTimeout
	.loc	3 1756 54                       @ ../../../../Source/queue.c:1756:54
	str	r0, [sp, #8]
	.loc	3 1757 66 is_stmt 1             @ ../../../../Source/queue.c:1757:66
	ldr	r0, [sp, #20]
	.loc	3 1757 88 is_stmt 0             @ ../../../../Source/queue.c:1757:88
	ldr	r0, [r0, #8]
	.loc	3 1757 102                      @ ../../../../Source/queue.c:1757:102
	ldr	r1, [sp, #8]
	.loc	3 1757 29                       @ ../../../../Source/queue.c:1757:29
	bl	vTaskPriorityDisinheritAfterTimeout
.Ltmp294:
	.loc	3 1759 25 is_stmt 1             @ ../../../../Source/queue.c:1759:25
	bl	vPortExitCritical
	.loc	3 1760 21                       @ ../../../../Source/queue.c:1760:21
	b	.LBB13_48
.Ltmp295:
.LBB13_48:
	.loc	3 0 21 is_stmt 0                @ ../../../../Source/queue.c:0:21
	movs	r0, #0
	.loc	3 1765 17 is_stmt 1             @ ../../../../Source/queue.c:1765:17
	str	r0, [sp, #44]
	b	.LBB13_52
.Ltmp296:
.LBB13_49:                              @   in Loop: Header=BB13_12 Depth=1
	.loc	3 0 17 is_stmt 0                @ ../../../../Source/queue.c:0:17
	b	.LBB13_50
.LBB13_50:                              @   in Loop: Header=BB13_12 Depth=1
	b	.LBB13_51
.LBB13_51:                              @   in Loop: Header=BB13_12 Depth=1
	.loc	3 1594 5 is_stmt 1              @ ../../../../Source/queue.c:1594:5
	b	.LBB13_12
.Ltmp297:
.LBB13_52:
	.loc	3 1773 1                        @ ../../../../Source/queue.c:1773:1
	ldr	r0, [sp, #44]
	add	sp, #48
	pop	{r7, pc}
.Ltmp298:
.Lfunc_end13:
	.size	xQueueSemaphoreTake, .Lfunc_end13-xQueueSemaphoreTake
	.cfi_endproc
	.cantunwind
	.fnend
                                        @ -- End function
	.hidden	xQueueCreateCountingSemaphoreStatic @ -- Begin function xQueueCreateCountingSemaphoreStatic
	.globl	xQueueCreateCountingSemaphoreStatic
	.p2align	1
	.type	xQueueCreateCountingSemaphoreStatic,%function
	.code	16                              @ @xQueueCreateCountingSemaphoreStatic
	.thumb_func
xQueueCreateCountingSemaphoreStatic:
.Lfunc_begin14:
	.loc	3 814 0                         @ ../../../../Source/queue.c:814:0
	.fnstart
	.cfi_startproc
@ %bb.0:
	.save	{r7, lr}
	push	{r7, lr}
	.cfi_def_cfa_offset 8
	.cfi_offset lr, -4
	.cfi_offset r7, -8
	.pad	#24
	sub	sp, #24
	.cfi_def_cfa_offset 32
	str	r0, [sp, #20]
	str	r1, [sp, #16]
	str	r2, [sp, #12]
	movs	r0, #0
.Ltmp299:
	.loc	3 815 23 prologue_end           @ ../../../../Source/queue.c:815:23
	str	r0, [sp, #8]
.Ltmp300:
	.loc	3 817 15                        @ ../../../../Source/queue.c:817:15
	ldr	r0, [sp, #20]
	.loc	3 817 33 is_stmt 0              @ ../../../../Source/queue.c:817:33
	cbz	r0, .LBB14_6
	b	.LBB14_1
.LBB14_1:
	.loc	3 818 15 is_stmt 1              @ ../../../../Source/queue.c:818:15
	ldr	r0, [sp, #16]
	.loc	3 818 33 is_stmt 0              @ ../../../../Source/queue.c:818:33
	ldr	r1, [sp, #20]
.Ltmp301:
	.loc	3 817 13 is_stmt 1              @ ../../../../Source/queue.c:817:13
	cmp	r0, r1
	bhi	.LBB14_6
	b	.LBB14_2
.LBB14_2:
.Ltmp302:
	.loc	3 820 50                        @ ../../../../Source/queue.c:820:50
	ldr	r0, [sp, #20]
	.loc	3 820 102 is_stmt 0             @ ../../../../Source/queue.c:820:102
	ldr	r3, [sp, #12]
	movs	r1, #2
	.loc	3 820 23                        @ ../../../../Source/queue.c:820:23
	str	r1, [sp]
	movs	r2, #0
	mov	r1, r2
	bl	xQueueGenericCreateStatic
	.loc	3 820 21                        @ ../../../../Source/queue.c:820:21
	str	r0, [sp, #8]
.Ltmp303:
	.loc	3 822 17 is_stmt 1              @ ../../../../Source/queue.c:822:17
	ldr	r0, [sp, #8]
.Ltmp304:
	.loc	3 822 17 is_stmt 0              @ ../../../../Source/queue.c:822:17
	cbz	r0, .LBB14_4
	b	.LBB14_3
.LBB14_3:
.Ltmp305:
	.loc	3 824 64 is_stmt 1              @ ../../../../Source/queue.c:824:64
	ldr	r0, [sp, #16]
	.loc	3 824 33 is_stmt 0              @ ../../../../Source/queue.c:824:33
	ldr	r1, [sp, #8]
	.loc	3 824 62                        @ ../../../../Source/queue.c:824:62
	str	r0, [r1, #56]
	.loc	3 827 13 is_stmt 1              @ ../../../../Source/queue.c:827:13
	b	.LBB14_5
.Ltmp306:
.LBB14_4:
	.loc	3 0 13 is_stmt 0                @ ../../../../Source/queue.c:0:13
	b	.LBB14_5
.LBB14_5:
	.loc	3 832 9 is_stmt 1               @ ../../../../Source/queue.c:832:9
	b	.LBB14_10
.Ltmp307:
.LBB14_6:
	.loc	3 835 13                        @ ../../../../Source/queue.c:835:13
	ldr	r0, [sp, #8]
.Ltmp308:
	.loc	3 835 13 is_stmt 0              @ ../../../../Source/queue.c:835:13
	cbnz	r0, .LBB14_9
	b	.LBB14_7
.LBB14_7:
.Ltmp309:
	.loc	3 835 13                        @ ../../../../Source/queue.c:835:13
	@APP
	cpsid i
	@NO_APP
	b	.LBB14_8
.LBB14_8:                               @ =>This Inner Loop Header: Depth=1
.Ltmp310:
	.loc	3 835 13                        @ ../../../../Source/queue.c:835:13
	b	.LBB14_8
.Ltmp311:
.LBB14_9:
	.loc	3 0 13                          @ ../../../../Source/queue.c:0:13
	b	.LBB14_10
.LBB14_10:
	.loc	3 839 16 is_stmt 1              @ ../../../../Source/queue.c:839:16
	ldr	r0, [sp, #8]
	.loc	3 839 9 is_stmt 0               @ ../../../../Source/queue.c:839:9
	add	sp, #24
	pop	{r7, pc}
.Ltmp312:
.Lfunc_end14:
	.size	xQueueCreateCountingSemaphoreStatic, .Lfunc_end14-xQueueCreateCountingSemaphoreStatic
	.cfi_endproc
	.cantunwind
	.fnend
                                        @ -- End function
	.hidden	xQueueCreateCountingSemaphore   @ -- Begin function xQueueCreateCountingSemaphore
	.globl	xQueueCreateCountingSemaphore
	.p2align	1
	.type	xQueueCreateCountingSemaphore,%function
	.code	16                              @ @xQueueCreateCountingSemaphore
	.thumb_func
xQueueCreateCountingSemaphore:
.Lfunc_begin15:
	.loc	3 849 0 is_stmt 1               @ ../../../../Source/queue.c:849:0
	.fnstart
	.cfi_startproc
@ %bb.0:
	.save	{r7, lr}
	push	{r7, lr}
	.cfi_def_cfa_offset 8
	.cfi_offset lr, -4
	.cfi_offset r7, -8
	.pad	#16
	sub	sp, #16
	.cfi_def_cfa_offset 24
	str	r0, [sp, #12]
	str	r1, [sp, #8]
	movs	r0, #0
.Ltmp313:
	.loc	3 850 23 prologue_end           @ ../../../../Source/queue.c:850:23
	str	r0, [sp, #4]
.Ltmp314:
	.loc	3 852 15                        @ ../../../../Source/queue.c:852:15
	ldr	r0, [sp, #12]
	.loc	3 852 33 is_stmt 0              @ ../../../../Source/queue.c:852:33
	cbz	r0, .LBB15_6
	b	.LBB15_1
.LBB15_1:
	.loc	3 853 15 is_stmt 1              @ ../../../../Source/queue.c:853:15
	ldr	r0, [sp, #8]
	.loc	3 853 33 is_stmt 0              @ ../../../../Source/queue.c:853:33
	ldr	r1, [sp, #12]
.Ltmp315:
	.loc	3 852 13 is_stmt 1              @ ../../../../Source/queue.c:852:13
	cmp	r0, r1
	bhi	.LBB15_6
	b	.LBB15_2
.LBB15_2:
.Ltmp316:
	.loc	3 855 44                        @ ../../../../Source/queue.c:855:44
	ldr	r0, [sp, #12]
	movs	r1, #0
	movs	r2, #2
	.loc	3 855 23 is_stmt 0              @ ../../../../Source/queue.c:855:23
	bl	xQueueGenericCreate
	.loc	3 855 21                        @ ../../../../Source/queue.c:855:21
	str	r0, [sp, #4]
.Ltmp317:
	.loc	3 857 17 is_stmt 1              @ ../../../../Source/queue.c:857:17
	ldr	r0, [sp, #4]
.Ltmp318:
	.loc	3 857 17 is_stmt 0              @ ../../../../Source/queue.c:857:17
	cbz	r0, .LBB15_4
	b	.LBB15_3
.LBB15_3:
.Ltmp319:
	.loc	3 859 64 is_stmt 1              @ ../../../../Source/queue.c:859:64
	ldr	r0, [sp, #8]
	.loc	3 859 33 is_stmt 0              @ ../../../../Source/queue.c:859:33
	ldr	r1, [sp, #4]
	.loc	3 859 62                        @ ../../../../Source/queue.c:859:62
	str	r0, [r1, #56]
	.loc	3 862 13 is_stmt 1              @ ../../../../Source/queue.c:862:13
	b	.LBB15_5
.Ltmp320:
.LBB15_4:
	.loc	3 0 13 is_stmt 0                @ ../../../../Source/queue.c:0:13
	b	.LBB15_5
.LBB15_5:
	.loc	3 867 9 is_stmt 1               @ ../../../../Source/queue.c:867:9
	b	.LBB15_10
.Ltmp321:
.LBB15_6:
	.loc	3 870 13                        @ ../../../../Source/queue.c:870:13
	ldr	r0, [sp, #4]
.Ltmp322:
	.loc	3 870 13 is_stmt 0              @ ../../../../Source/queue.c:870:13
	cbnz	r0, .LBB15_9
	b	.LBB15_7
.LBB15_7:
.Ltmp323:
	.loc	3 870 13                        @ ../../../../Source/queue.c:870:13
	@APP
	cpsid i
	@NO_APP
	b	.LBB15_8
.LBB15_8:                               @ =>This Inner Loop Header: Depth=1
.Ltmp324:
	.loc	3 870 13                        @ ../../../../Source/queue.c:870:13
	b	.LBB15_8
.Ltmp325:
.LBB15_9:
	.loc	3 0 13                          @ ../../../../Source/queue.c:0:13
	b	.LBB15_10
.LBB15_10:
	.loc	3 874 16 is_stmt 1              @ ../../../../Source/queue.c:874:16
	ldr	r0, [sp, #4]
	.loc	3 874 9 is_stmt 0               @ ../../../../Source/queue.c:874:9
	add	sp, #16
	pop	{r7, pc}
.Ltmp326:
.Lfunc_end15:
	.size	xQueueCreateCountingSemaphore, .Lfunc_end15-xQueueCreateCountingSemaphore
	.cfi_endproc
	.cantunwind
	.fnend
                                        @ -- End function
	.p2align	1                               @ -- Begin function prvCopyDataToQueue
	.type	prvCopyDataToQueue,%function
	.code	16                              @ @prvCopyDataToQueue
	.thumb_func
prvCopyDataToQueue:
.Lfunc_begin16:
	.loc	3 2229 0 is_stmt 1              @ ../../../../Source/queue.c:2229:0
	.fnstart
	.cfi_startproc
@ %bb.0:
	.save	{r7, lr}
	push	{r7, lr}
	.cfi_def_cfa_offset 8
	.cfi_offset lr, -4
	.cfi_offset r7, -8
	.pad	#24
	sub	sp, #24
	.cfi_def_cfa_offset 32
	str	r0, [sp, #20]
	str	r1, [sp, #16]
	str	r2, [sp, #12]
	movs	r0, #0
.Ltmp327:
	.loc	3 2230 16 prologue_end          @ ../../../../Source/queue.c:2230:16
	str	r0, [sp, #8]
	.loc	3 2235 25                       @ ../../../../Source/queue.c:2235:25
	ldr	r0, [sp, #20]
	.loc	3 2235 34 is_stmt 0             @ ../../../../Source/queue.c:2235:34
	ldr	r0, [r0, #56]
	.loc	3 2235 23                       @ ../../../../Source/queue.c:2235:23
	str	r0, [sp, #4]
.Ltmp328:
	.loc	3 2237 9 is_stmt 1              @ ../../../../Source/queue.c:2237:9
	ldr	r0, [sp, #20]
	.loc	3 2237 18 is_stmt 0             @ ../../../../Source/queue.c:2237:18
	ldr	r0, [r0, #64]
.Ltmp329:
	.loc	3 2237 9                        @ ../../../../Source/queue.c:2237:9
	cbnz	r0, .LBB16_5
	b	.LBB16_1
.LBB16_1:
.Ltmp330:
	.loc	3 2241 17 is_stmt 1             @ ../../../../Source/queue.c:2241:17
	ldr	r0, [sp, #20]
	.loc	3 2241 26 is_stmt 0             @ ../../../../Source/queue.c:2241:26
	ldr	r0, [r0]
.Ltmp331:
	.loc	3 2241 17                       @ ../../../../Source/queue.c:2241:17
	cbnz	r0, .LBB16_3
	b	.LBB16_2
.LBB16_2:
.Ltmp332:
	.loc	3 2244 52 is_stmt 1             @ ../../../../Source/queue.c:2244:52
	ldr	r0, [sp, #20]
	.loc	3 2244 74 is_stmt 0             @ ../../../../Source/queue.c:2244:74
	ldr	r0, [r0, #8]
	.loc	3 2244 27                       @ ../../../../Source/queue.c:2244:27
	bl	xTaskPriorityDisinherit
	.loc	3 2244 25                       @ ../../../../Source/queue.c:2244:25
	str	r0, [sp, #8]
	.loc	3 2245 17 is_stmt 1             @ ../../../../Source/queue.c:2245:17
	ldr	r1, [sp, #20]
	movs	r0, #0
	.loc	3 2245 52 is_stmt 0             @ ../../../../Source/queue.c:2245:52
	str	r0, [r1, #8]
	.loc	3 2246 13 is_stmt 1             @ ../../../../Source/queue.c:2246:13
	b	.LBB16_4
.Ltmp333:
.LBB16_3:
	.loc	3 0 13 is_stmt 0                @ ../../../../Source/queue.c:0:13
	b	.LBB16_4
.LBB16_4:
	.loc	3 2253 5 is_stmt 1              @ ../../../../Source/queue.c:2253:5
	b	.LBB16_21
.Ltmp334:
.LBB16_5:
	.loc	3 2254 14                       @ ../../../../Source/queue.c:2254:14
	ldr	r0, [sp, #12]
.Ltmp335:
	.loc	3 2254 14 is_stmt 0             @ ../../../../Source/queue.c:2254:14
	cbnz	r0, .LBB16_10
	b	.LBB16_6
.LBB16_6:
.Ltmp336:
	.loc	3 2256 37 is_stmt 1             @ ../../../../Source/queue.c:2256:37
	ldr	r2, [sp, #20]
	.loc	3 2256 46 is_stmt 0             @ ../../../../Source/queue.c:2256:46
	ldr	r0, [r2, #4]
	.loc	3 2256 57                       @ ../../../../Source/queue.c:2256:57
	ldr	r1, [sp, #16]
	.loc	3 2256 92                       @ ../../../../Source/queue.c:2256:92
	ldr	r2, [r2, #64]
	.loc	3 2256 18                       @ ../../../../Source/queue.c:2256:18
	bl	__aeabi_memcpy
	.loc	3 2257 31 is_stmt 1             @ ../../../../Source/queue.c:2257:31
	ldr	r1, [sp, #20]
	.loc	3 2257 40 is_stmt 0             @ ../../../../Source/queue.c:2257:40
	ldr	r2, [r1, #64]
	.loc	3 2257 28                       @ ../../../../Source/queue.c:2257:28
	ldr	r0, [r1, #4]
	adds	r0, r0, r2
	str	r0, [r1, #4]
.Ltmp337:
	.loc	3 2259 13 is_stmt 1             @ ../../../../Source/queue.c:2259:13
	ldr	r1, [sp, #20]
	.loc	3 2259 22 is_stmt 0             @ ../../../../Source/queue.c:2259:22
	ldr	r0, [r1, #4]
	.loc	3 2259 53                       @ ../../../../Source/queue.c:2259:53
	ldr	r1, [r1, #8]
.Ltmp338:
	.loc	3 2259 13                       @ ../../../../Source/queue.c:2259:13
	cmp	r0, r1
	blo	.LBB16_8
	b	.LBB16_7
.LBB16_7:
.Ltmp339:
	.loc	3 2261 34 is_stmt 1             @ ../../../../Source/queue.c:2261:34
	ldr	r1, [sp, #20]
	.loc	3 2261 43 is_stmt 0             @ ../../../../Source/queue.c:2261:43
	ldr	r0, [r1]
	.loc	3 2261 32                       @ ../../../../Source/queue.c:2261:32
	str	r0, [r1, #4]
	.loc	3 2262 9 is_stmt 1              @ ../../../../Source/queue.c:2262:9
	b	.LBB16_9
.Ltmp340:
.LBB16_8:
	.loc	3 0 9 is_stmt 0                 @ ../../../../Source/queue.c:0:9
	b	.LBB16_9
.LBB16_9:
	.loc	3 2267 5 is_stmt 1              @ ../../../../Source/queue.c:2267:5
	b	.LBB16_20
.Ltmp341:
.LBB16_10:
	.loc	3 2270 37                       @ ../../../../Source/queue.c:2270:37
	ldr	r2, [sp, #20]
	.loc	3 2270 55 is_stmt 0             @ ../../../../Source/queue.c:2270:55
	ldr	r0, [r2, #12]
	.loc	3 2270 67                       @ ../../../../Source/queue.c:2270:67
	ldr	r1, [sp, #16]
	.loc	3 2270 102                      @ ../../../../Source/queue.c:2270:102
	ldr	r2, [r2, #64]
	.loc	3 2270 18                       @ ../../../../Source/queue.c:2270:18
	bl	__aeabi_memcpy
	.loc	3 2271 41 is_stmt 1             @ ../../../../Source/queue.c:2271:41
	ldr	r1, [sp, #20]
	.loc	3 2271 50 is_stmt 0             @ ../../../../Source/queue.c:2271:50
	ldr	r2, [r1, #64]
	.loc	3 2271 38                       @ ../../../../Source/queue.c:2271:38
	ldr	r0, [r1, #12]
	subs	r0, r0, r2
	str	r0, [r1, #12]
.Ltmp342:
	.loc	3 2273 13 is_stmt 1             @ ../../../../Source/queue.c:2273:13
	ldr	r1, [sp, #20]
	.loc	3 2273 31 is_stmt 0             @ ../../../../Source/queue.c:2273:31
	ldr	r0, [r1, #12]
	.loc	3 2273 53                       @ ../../../../Source/queue.c:2273:53
	ldr	r1, [r1]
.Ltmp343:
	.loc	3 2273 13                       @ ../../../../Source/queue.c:2273:13
	cmp	r0, r1
	bhs	.LBB16_12
	b	.LBB16_11
.LBB16_11:
.Ltmp344:
	.loc	3 2275 46 is_stmt 1             @ ../../../../Source/queue.c:2275:46
	ldr	r1, [sp, #20]
	.loc	3 2275 64 is_stmt 0             @ ../../../../Source/queue.c:2275:64
	ldr	r0, [r1, #8]
	.loc	3 2275 82                       @ ../../../../Source/queue.c:2275:82
	ldr	r2, [r1, #64]
	.loc	3 2275 71                       @ ../../../../Source/queue.c:2275:71
	subs	r0, r0, r2
	.loc	3 2275 42                       @ ../../../../Source/queue.c:2275:42
	str	r0, [r1, #12]
	.loc	3 2276 9 is_stmt 1              @ ../../../../Source/queue.c:2276:9
	b	.LBB16_13
.Ltmp345:
.LBB16_12:
	.loc	3 0 9 is_stmt 0                 @ ../../../../Source/queue.c:0:9
	b	.LBB16_13
.LBB16_13:
.Ltmp346:
	.loc	3 2282 13 is_stmt 1             @ ../../../../Source/queue.c:2282:13
	ldr	r0, [sp, #12]
.Ltmp347:
	.loc	3 2282 13 is_stmt 0             @ ../../../../Source/queue.c:2282:13
	cmp	r0, #2
	bne	.LBB16_18
	b	.LBB16_14
.LBB16_14:
.Ltmp348:
	.loc	3 2284 17 is_stmt 1             @ ../../../../Source/queue.c:2284:17
	ldr	r0, [sp, #4]
.Ltmp349:
	.loc	3 2284 17 is_stmt 0             @ ../../../../Source/queue.c:2284:17
	cbz	r0, .LBB16_16
	b	.LBB16_15
.LBB16_15:
.Ltmp350:
	.loc	3 2290 17 is_stmt 1             @ ../../../../Source/queue.c:2290:17
	ldr	r0, [sp, #4]
	subs	r0, r0, #1
	str	r0, [sp, #4]
	.loc	3 2291 13                       @ ../../../../Source/queue.c:2291:13
	b	.LBB16_17
.Ltmp351:
.LBB16_16:
	.loc	3 0 13 is_stmt 0                @ ../../../../Source/queue.c:0:13
	b	.LBB16_17
.LBB16_17:
	.loc	3 2296 9 is_stmt 1              @ ../../../../Source/queue.c:2296:9
	b	.LBB16_19
.Ltmp352:
.LBB16_18:
	.loc	3 0 9 is_stmt 0                 @ ../../../../Source/queue.c:0:9
	b	.LBB16_19
.LBB16_19:
	b	.LBB16_20
.LBB16_20:
	b	.LBB16_21
.LBB16_21:
	.loc	3 2303 34 is_stmt 1             @ ../../../../Source/queue.c:2303:34
	ldr	r0, [sp, #4]
	.loc	3 2303 52 is_stmt 0             @ ../../../../Source/queue.c:2303:52
	adds	r0, r0, #1
	.loc	3 2303 5                        @ ../../../../Source/queue.c:2303:5
	ldr	r1, [sp, #20]
	.loc	3 2303 32                       @ ../../../../Source/queue.c:2303:32
	str	r0, [r1, #56]
	.loc	3 2305 12 is_stmt 1             @ ../../../../Source/queue.c:2305:12
	ldr	r0, [sp, #8]
	.loc	3 2305 5 is_stmt 0              @ ../../../../Source/queue.c:2305:5
	add	sp, #24
	pop	{r7, pc}
.Ltmp353:
.Lfunc_end16:
	.size	prvCopyDataToQueue, .Lfunc_end16-prvCopyDataToQueue
	.cfi_endproc
	.cantunwind
	.fnend
                                        @ -- End function
	.p2align	1                               @ -- Begin function prvNotifyQueueSetContainer
	.type	prvNotifyQueueSetContainer,%function
	.code	16                              @ @prvNotifyQueueSetContainer
	.thumb_func
prvNotifyQueueSetContainer:
.Lfunc_begin17:
	.loc	3 2798 0 is_stmt 1              @ ../../../../Source/queue.c:2798:0
	.fnstart
	.cfi_startproc
@ %bb.0:
	.save	{r7, lr}
	push	{r7, lr}
	.cfi_def_cfa_offset 8
	.cfi_offset lr, -4
	.cfi_offset r7, -8
	.pad	#32
	sub	sp, #32
	.cfi_def_cfa_offset 40
	str	r0, [sp, #28]
.Ltmp354:
	.loc	3 2799 41 prologue_end          @ ../../../../Source/queue.c:2799:41
	ldr	r0, [sp, #28]
	.loc	3 2799 50 is_stmt 0             @ ../../../../Source/queue.c:2799:50
	ldr	r0, [r0, #72]
	.loc	3 2799 19                       @ ../../../../Source/queue.c:2799:19
	str	r0, [sp, #24]
	movs	r0, #0
	.loc	3 2800 20 is_stmt 1             @ ../../../../Source/queue.c:2800:20
	str	r0, [sp, #20]
.Ltmp355:
	.loc	3 2807 9                        @ ../../../../Source/queue.c:2807:9
	ldr	r0, [sp, #24]
.Ltmp356:
	.loc	3 2807 9 is_stmt 0              @ ../../../../Source/queue.c:2807:9
	cbnz	r0, .LBB17_3
	b	.LBB17_1
.LBB17_1:
.Ltmp357:
	.loc	3 2807 9                        @ ../../../../Source/queue.c:2807:9
	@APP
	cpsid i
	@NO_APP
	b	.LBB17_2
.LBB17_2:                               @ =>This Inner Loop Header: Depth=1
.Ltmp358:
	.loc	3 2807 9                        @ ../../../../Source/queue.c:2807:9
	b	.LBB17_2
.Ltmp359:
.LBB17_3:
	.loc	3 2808 9 is_stmt 1              @ ../../../../Source/queue.c:2808:9
	ldr	r0, [sp, #24]
	ldr	r0, [r0, #56]
	ldr	r1, [sp, #24]
	ldr	r1, [r1, #60]
.Ltmp360:
	.loc	3 2808 9 is_stmt 0              @ ../../../../Source/queue.c:2808:9
	cmp	r0, r1
	blo	.LBB17_6
	b	.LBB17_4
.LBB17_4:
.Ltmp361:
	.loc	3 2808 9                        @ ../../../../Source/queue.c:2808:9
	@APP
	cpsid i
	@NO_APP
	b	.LBB17_5
.LBB17_5:                               @ =>This Inner Loop Header: Depth=1
.Ltmp362:
	.loc	3 2808 9                        @ ../../../../Source/queue.c:2808:9
	b	.LBB17_5
.Ltmp363:
.LBB17_6:
	.loc	3 2810 13 is_stmt 1             @ ../../../../Source/queue.c:2810:13
	ldr	r0, [sp, #24]
	.loc	3 2810 34 is_stmt 0             @ ../../../../Source/queue.c:2810:34
	ldr	r0, [r0, #56]
	.loc	3 2810 54                       @ ../../../../Source/queue.c:2810:54
	ldr	r1, [sp, #24]
	.loc	3 2810 75                       @ ../../../../Source/queue.c:2810:75
	ldr	r1, [r1, #60]
.Ltmp364:
	.loc	3 2810 13                       @ ../../../../Source/queue.c:2810:13
	cmp	r0, r1
	bhs	.LBB17_24
	b	.LBB17_7
.LBB17_7:
.Ltmp365:
	.loc	3 2812 36 is_stmt 1             @ ../../../../Source/queue.c:2812:36
	ldr	r0, [sp, #24]
	movs	r1, #69
	.loc	3 2812 57 is_stmt 0             @ ../../../../Source/queue.c:2812:57
	ldrb	r0, [r0, r1]
	add	r1, sp, #16
	.loc	3 2812 26                       @ ../../../../Source/queue.c:2812:26
	str	r1, [sp, #8]                    @ 4-byte Spill
	strb	r0, [r1]
	.loc	3 2817 43 is_stmt 1             @ ../../../../Source/queue.c:2817:43
	ldr	r0, [sp, #24]
	add	r1, sp, #28
	movs	r2, #0
	.loc	3 2817 23 is_stmt 0             @ ../../../../Source/queue.c:2817:23
	str	r2, [sp, #4]                    @ 4-byte Spill
	bl	prvCopyDataToQueue
	ldr	r1, [sp, #4]                    @ 4-byte Reload
	mov	r2, r0
	.loc	3 2817 21                       @ ../../../../Source/queue.c:2817:21
	ldr	r0, [sp, #8]                    @ 4-byte Reload
	str	r2, [sp, #20]
.Ltmp366:
	.loc	3 2819 17 is_stmt 1             @ ../../../../Source/queue.c:2819:17
	ldrsb	r0, [r0, r1]
.Ltmp367:
	.loc	3 2819 17 is_stmt 0             @ ../../../../Source/queue.c:2819:17
	adds	r0, r0, #1
	cbnz	r0, .LBB17_15
	b	.LBB17_8
.LBB17_8:
.Ltmp368:
	.loc	3 2821 21 is_stmt 1             @ ../../../../Source/queue.c:2821:21
	ldr	r0, [sp, #24]
	ldr	r0, [r0, #36]
.Ltmp369:
	.loc	3 2821 21 is_stmt 0             @ ../../../../Source/queue.c:2821:21
	cbz	r0, .LBB17_13
	b	.LBB17_9
.LBB17_9:
.Ltmp370:
	.loc	3 2823 54 is_stmt 1             @ ../../../../Source/queue.c:2823:54
	ldr	r0, [sp, #24]
	.loc	3 2823 75 is_stmt 0             @ ../../../../Source/queue.c:2823:75
	adds	r0, #36
	.loc	3 2823 25                       @ ../../../../Source/queue.c:2823:25
	bl	xTaskRemoveFromEventList
.Ltmp371:
	.loc	3 2823 25                       @ ../../../../Source/queue.c:2823:25
	cbz	r0, .LBB17_11
	b	.LBB17_10
.LBB17_10:
	.loc	3 0 25                          @ ../../../../Source/queue.c:0:25
	movs	r0, #1
.Ltmp372:
	.loc	3 2826 33 is_stmt 1             @ ../../../../Source/queue.c:2826:33
	str	r0, [sp, #20]
	.loc	3 2827 21                       @ ../../../../Source/queue.c:2827:21
	b	.LBB17_12
.Ltmp373:
.LBB17_11:
	.loc	3 0 21 is_stmt 0                @ ../../../../Source/queue.c:0:21
	b	.LBB17_12
.LBB17_12:
	.loc	3 2832 17 is_stmt 1             @ ../../../../Source/queue.c:2832:17
	b	.LBB17_14
.Ltmp374:
.LBB17_13:
	.loc	3 0 17 is_stmt 0                @ ../../../../Source/queue.c:0:17
	b	.LBB17_14
.LBB17_14:
	.loc	3 2837 13 is_stmt 1             @ ../../../../Source/queue.c:2837:13
	b	.LBB17_23
.Ltmp375:
.LBB17_15:
	.loc	3 2840 17                       @ ../../../../Source/queue.c:2840:17
	b	.LBB17_16
.LBB17_16:
.Ltmp376:
	.loc	3 2840 17 is_stmt 0             @ ../../../../Source/queue.c:2840:17
	bl	uxTaskGetNumberOfTasks
	str	r0, [sp, #12]
.Ltmp377:
	.loc	3 2840 17                       @ ../../../../Source/queue.c:2840:17
	movs	r1, #0
	add	r0, sp, #16
	ldrsb	r0, [r0, r1]
	ldr	r1, [sp, #12]
.Ltmp378:
	.loc	3 2840 17                       @ ../../../../Source/queue.c:2840:17
	cmp	r0, r1
	bhs	.LBB17_21
	b	.LBB17_17
.LBB17_17:
.Ltmp379:
	.loc	3 2840 17                       @ ../../../../Source/queue.c:2840:17
	movs	r1, #0
	add	r0, sp, #16
	ldrsb	r0, [r0, r1]
.Ltmp380:
	.loc	3 2840 17                       @ ../../../../Source/queue.c:2840:17
	cmp	r0, #127
	bne	.LBB17_20
	b	.LBB17_18
.LBB17_18:
.Ltmp381:
	.loc	3 2840 17                       @ ../../../../Source/queue.c:2840:17
	@APP
	cpsid i
	@NO_APP
	b	.LBB17_19
.LBB17_19:                              @ =>This Inner Loop Header: Depth=1
.Ltmp382:
	.loc	3 2840 17                       @ ../../../../Source/queue.c:2840:17
	b	.LBB17_19
.Ltmp383:
.LBB17_20:
	.loc	3 2840 17                       @ ../../../../Source/queue.c:2840:17
	ldr	r0, [sp, #16]
	adds	r0, r0, #1
	ldr	r1, [sp, #24]
	movs	r2, #69
	strb	r0, [r1, r2]
	b	.LBB17_21
.Ltmp384:
.LBB17_21:
	.loc	3 2840 17                       @ ../../../../Source/queue.c:2840:17
	b	.LBB17_22
.Ltmp385:
.LBB17_22:
	.loc	3 0 17                          @ ../../../../Source/queue.c:0:17
	b	.LBB17_23
.LBB17_23:
	.loc	3 2842 9 is_stmt 1              @ ../../../../Source/queue.c:2842:9
	b	.LBB17_25
.Ltmp386:
.LBB17_24:
	.loc	3 0 9 is_stmt 0                 @ ../../../../Source/queue.c:0:9
	b	.LBB17_25
.LBB17_25:
	.loc	3 2848 16 is_stmt 1             @ ../../../../Source/queue.c:2848:16
	ldr	r0, [sp, #20]
	.loc	3 2848 9 is_stmt 0              @ ../../../../Source/queue.c:2848:9
	add	sp, #32
	pop	{r7, pc}
.Ltmp387:
.Lfunc_end17:
	.size	prvNotifyQueueSetContainer, .Lfunc_end17-prvNotifyQueueSetContainer
	.cfi_endproc
	.cantunwind
	.fnend
                                        @ -- End function
	.p2align	1                               @ -- Begin function prvIsQueueFull
	.type	prvIsQueueFull,%function
	.code	16                              @ @prvIsQueueFull
	.thumb_func
prvIsQueueFull:
.Lfunc_begin18:
	.loc	3 2492 0 is_stmt 1              @ ../../../../Source/queue.c:2492:0
	.fnstart
	.cfi_startproc
@ %bb.0:
	.save	{r7, lr}
	push	{r7, lr}
	.cfi_def_cfa_offset 8
	.cfi_offset lr, -4
	.cfi_offset r7, -8
	.pad	#8
	sub	sp, #8
	.cfi_def_cfa_offset 16
	str	r0, [sp, #4]
.Ltmp388:
	.loc	3 2495 5 prologue_end           @ ../../../../Source/queue.c:2495:5
	bl	vPortEnterCritical
.Ltmp389:
	.loc	3 2497 13                       @ ../../../../Source/queue.c:2497:13
	ldr	r0, [sp, #4]
	.loc	3 2497 22 is_stmt 0             @ ../../../../Source/queue.c:2497:22
	ldr	r0, [r0, #56]
	.loc	3 2497 43                       @ ../../../../Source/queue.c:2497:43
	ldr	r1, [sp, #4]
	.loc	3 2497 52                       @ ../../../../Source/queue.c:2497:52
	ldr	r1, [r1, #60]
.Ltmp390:
	.loc	3 2497 13                       @ ../../../../Source/queue.c:2497:13
	cmp	r0, r1
	bne	.LBB18_2
	b	.LBB18_1
.LBB18_1:
	.loc	3 0 13                          @ ../../../../Source/queue.c:0:13
	movs	r0, #1
.Ltmp391:
	.loc	3 2499 21 is_stmt 1             @ ../../../../Source/queue.c:2499:21
	str	r0, [sp]
	.loc	3 2500 9                        @ ../../../../Source/queue.c:2500:9
	b	.LBB18_3
.Ltmp392:
.LBB18_2:
	.loc	3 0 9 is_stmt 0                 @ ../../../../Source/queue.c:0:9
	movs	r0, #0
.Ltmp393:
	.loc	3 2503 21 is_stmt 1             @ ../../../../Source/queue.c:2503:21
	str	r0, [sp]
	b	.LBB18_3
.Ltmp394:
.LBB18_3:
	.loc	3 2506 5                        @ ../../../../Source/queue.c:2506:5
	bl	vPortExitCritical
	.loc	3 2508 12                       @ ../../../../Source/queue.c:2508:12
	ldr	r0, [sp]
	.loc	3 2508 5 is_stmt 0              @ ../../../../Source/queue.c:2508:5
	add	sp, #8
	pop	{r7, pc}
.Ltmp395:
.Lfunc_end18:
	.size	prvIsQueueFull, .Lfunc_end18-prvIsQueueFull
	.cfi_endproc
	.cantunwind
	.fnend
                                        @ -- End function
	.p2align	1                               @ -- Begin function prvUnlockQueue
	.type	prvUnlockQueue,%function
	.code	16                              @ @prvUnlockQueue
	.thumb_func
prvUnlockQueue:
.Lfunc_begin19:
	.loc	3 2331 0 is_stmt 1              @ ../../../../Source/queue.c:2331:0
	.fnstart
	.cfi_startproc
@ %bb.0:
	.save	{r7, lr}
	push	{r7, lr}
	.cfi_def_cfa_offset 8
	.cfi_offset lr, -4
	.cfi_offset r7, -8
	.pad	#16
	sub	sp, #16
	.cfi_def_cfa_offset 24
	str	r0, [sp, #12]
.Ltmp396:
	.loc	3 2338 5 prologue_end           @ ../../../../Source/queue.c:2338:5
	bl	vPortEnterCritical
.Ltmp397:
	.loc	3 2340 26                       @ ../../../../Source/queue.c:2340:26
	ldr	r0, [sp, #12]
	movs	r1, #69
	.loc	3 2340 35 is_stmt 0             @ ../../../../Source/queue.c:2340:35
	ldrb	r0, [r0, r1]
	add	r1, sp, #8
	.loc	3 2340 16                       @ ../../../../Source/queue.c:2340:16
	strb	r0, [r1]
	.loc	3 2343 9 is_stmt 1              @ ../../../../Source/queue.c:2343:9
	b	.LBB19_1
.LBB19_1:                               @ =>This Inner Loop Header: Depth=1
	.loc	3 2343 16 is_stmt 0             @ ../../../../Source/queue.c:2343:16
	movs	r1, #0
	add	r0, sp, #8
	ldrsb	r0, [r0, r1]
	.loc	3 2343 9                        @ ../../../../Source/queue.c:2343:9
	cmp	r0, #1
	blt	.LBB19_15
	b	.LBB19_2
.LBB19_2:                               @   in Loop: Header=BB19_1 Depth=1
.Ltmp398:
	.loc	3 2349 21 is_stmt 1             @ ../../../../Source/queue.c:2349:21
	ldr	r0, [sp, #12]
	.loc	3 2349 30 is_stmt 0             @ ../../../../Source/queue.c:2349:30
	ldr	r0, [r0, #72]
.Ltmp399:
	.loc	3 2349 21                       @ ../../../../Source/queue.c:2349:21
	cbz	r0, .LBB19_7
	b	.LBB19_3
.LBB19_3:                               @   in Loop: Header=BB19_1 Depth=1
.Ltmp400:
	.loc	3 2351 53 is_stmt 1             @ ../../../../Source/queue.c:2351:53
	ldr	r0, [sp, #12]
	.loc	3 2351 25 is_stmt 0             @ ../../../../Source/queue.c:2351:25
	bl	prvNotifyQueueSetContainer
.Ltmp401:
	.loc	3 2351 25                       @ ../../../../Source/queue.c:2351:25
	cbz	r0, .LBB19_5
	b	.LBB19_4
.LBB19_4:                               @   in Loop: Header=BB19_1 Depth=1
.Ltmp402:
	.loc	3 2356 25 is_stmt 1             @ ../../../../Source/queue.c:2356:25
	bl	vTaskMissedYield
	.loc	3 2357 21                       @ ../../../../Source/queue.c:2357:21
	b	.LBB19_6
.Ltmp403:
.LBB19_5:                               @   in Loop: Header=BB19_1 Depth=1
	.loc	3 0 21 is_stmt 0                @ ../../../../Source/queue.c:0:21
	b	.LBB19_6
.LBB19_6:                               @   in Loop: Header=BB19_1 Depth=1
	.loc	3 2362 17 is_stmt 1             @ ../../../../Source/queue.c:2362:17
	b	.LBB19_14
.Ltmp404:
.LBB19_7:                               @   in Loop: Header=BB19_1 Depth=1
	.loc	3 2368 25                       @ ../../../../Source/queue.c:2368:25
	ldr	r0, [sp, #12]
	ldr	r0, [r0, #36]
.Ltmp405:
	.loc	3 2368 25 is_stmt 0             @ ../../../../Source/queue.c:2368:25
	cbz	r0, .LBB19_12
	b	.LBB19_8
.LBB19_8:                               @   in Loop: Header=BB19_1 Depth=1
.Ltmp406:
	.loc	3 2370 58 is_stmt 1             @ ../../../../Source/queue.c:2370:58
	ldr	r0, [sp, #12]
	.loc	3 2370 67 is_stmt 0             @ ../../../../Source/queue.c:2370:67
	adds	r0, #36
	.loc	3 2370 29                       @ ../../../../Source/queue.c:2370:29
	bl	xTaskRemoveFromEventList
.Ltmp407:
	.loc	3 2370 29                       @ ../../../../Source/queue.c:2370:29
	cbz	r0, .LBB19_10
	b	.LBB19_9
.LBB19_9:                               @   in Loop: Header=BB19_1 Depth=1
.Ltmp408:
	.loc	3 2374 29 is_stmt 1             @ ../../../../Source/queue.c:2374:29
	bl	vTaskMissedYield
	.loc	3 2375 25                       @ ../../../../Source/queue.c:2375:25
	b	.LBB19_11
.Ltmp409:
.LBB19_10:                              @   in Loop: Header=BB19_1 Depth=1
	.loc	3 0 25 is_stmt 0                @ ../../../../Source/queue.c:0:25
	b	.LBB19_11
.LBB19_11:                              @   in Loop: Header=BB19_1 Depth=1
	.loc	3 2380 21 is_stmt 1             @ ../../../../Source/queue.c:2380:21
	b	.LBB19_13
.Ltmp410:
.LBB19_12:
	.loc	3 2383 25                       @ ../../../../Source/queue.c:2383:25
	b	.LBB19_15
.Ltmp411:
.LBB19_13:                              @   in Loop: Header=BB19_1 Depth=1
	.loc	3 0 25 is_stmt 0                @ ../../../../Source/queue.c:0:25
	b	.LBB19_14
.LBB19_14:                              @   in Loop: Header=BB19_1 Depth=1
	.loc	3 2411 13 is_stmt 1             @ ../../../../Source/queue.c:2411:13
	ldr	r0, [sp, #8]
	subs	r0, r0, #1
	add	r1, sp, #8
	strb	r0, [r1]
.Ltmp412:
	.loc	3 2343 9                        @ ../../../../Source/queue.c:2343:9
	b	.LBB19_1
.LBB19_15:
	.loc	3 2414 9                        @ ../../../../Source/queue.c:2414:9
	ldr	r1, [sp, #12]
	movs	r2, #69
	movs	r0, #255
	.loc	3 2414 26 is_stmt 0             @ ../../../../Source/queue.c:2414:26
	strb	r0, [r1, r2]
.Ltmp413:
	.loc	3 2416 5 is_stmt 1              @ ../../../../Source/queue.c:2416:5
	bl	vPortExitCritical
	.loc	3 2419 5                        @ ../../../../Source/queue.c:2419:5
	bl	vPortEnterCritical
.Ltmp414:
	.loc	3 2421 26                       @ ../../../../Source/queue.c:2421:26
	ldr	r0, [sp, #12]
	movs	r1, #68
	.loc	3 2421 35 is_stmt 0             @ ../../../../Source/queue.c:2421:35
	ldrb	r0, [r0, r1]
	add	r1, sp, #4
	.loc	3 2421 16                       @ ../../../../Source/queue.c:2421:16
	strb	r0, [r1]
	.loc	3 2423 9 is_stmt 1              @ ../../../../Source/queue.c:2423:9
	b	.LBB19_16
.LBB19_16:                              @ =>This Inner Loop Header: Depth=1
	.loc	3 2423 16 is_stmt 0             @ ../../../../Source/queue.c:2423:16
	movs	r1, #0
	add	r0, sp, #4
	ldrsb	r0, [r0, r1]
	.loc	3 2423 9                        @ ../../../../Source/queue.c:2423:9
	cmp	r0, #1
	blt	.LBB19_24
	b	.LBB19_17
.LBB19_17:                              @   in Loop: Header=BB19_16 Depth=1
.Ltmp415:
	.loc	3 2425 17 is_stmt 1             @ ../../../../Source/queue.c:2425:17
	ldr	r0, [sp, #12]
	ldr	r0, [r0, #16]
.Ltmp416:
	.loc	3 2425 17 is_stmt 0             @ ../../../../Source/queue.c:2425:17
	cbz	r0, .LBB19_22
	b	.LBB19_18
.LBB19_18:                              @   in Loop: Header=BB19_16 Depth=1
.Ltmp417:
	.loc	3 2427 50 is_stmt 1             @ ../../../../Source/queue.c:2427:50
	ldr	r0, [sp, #12]
	.loc	3 2427 59 is_stmt 0             @ ../../../../Source/queue.c:2427:59
	adds	r0, #16
	.loc	3 2427 21                       @ ../../../../Source/queue.c:2427:21
	bl	xTaskRemoveFromEventList
.Ltmp418:
	.loc	3 2427 21                       @ ../../../../Source/queue.c:2427:21
	cbz	r0, .LBB19_20
	b	.LBB19_19
.LBB19_19:                              @   in Loop: Header=BB19_16 Depth=1
.Ltmp419:
	.loc	3 2429 21 is_stmt 1             @ ../../../../Source/queue.c:2429:21
	bl	vTaskMissedYield
	.loc	3 2430 17                       @ ../../../../Source/queue.c:2430:17
	b	.LBB19_21
.Ltmp420:
.LBB19_20:                              @   in Loop: Header=BB19_16 Depth=1
	.loc	3 0 17 is_stmt 0                @ ../../../../Source/queue.c:0:17
	b	.LBB19_21
.LBB19_21:                              @   in Loop: Header=BB19_16 Depth=1
	.loc	3 2436 17 is_stmt 1             @ ../../../../Source/queue.c:2436:17
	ldr	r0, [sp, #4]
	subs	r0, r0, #1
	add	r1, sp, #4
	strb	r0, [r1]
	.loc	3 2437 13                       @ ../../../../Source/queue.c:2437:13
	b	.LBB19_23
.Ltmp421:
.LBB19_22:
	.loc	3 2440 17                       @ ../../../../Source/queue.c:2440:17
	b	.LBB19_24
.Ltmp422:
.LBB19_23:                              @   in Loop: Header=BB19_16 Depth=1
	.loc	3 2423 9                        @ ../../../../Source/queue.c:2423:9
	b	.LBB19_16
.LBB19_24:
	.loc	3 2444 9                        @ ../../../../Source/queue.c:2444:9
	ldr	r1, [sp, #12]
	movs	r2, #68
	movs	r0, #255
	.loc	3 2444 26 is_stmt 0             @ ../../../../Source/queue.c:2444:26
	strb	r0, [r1, r2]
.Ltmp423:
	.loc	3 2446 5 is_stmt 1              @ ../../../../Source/queue.c:2446:5
	bl	vPortExitCritical
	.loc	3 2447 1                        @ ../../../../Source/queue.c:2447:1
	add	sp, #16
	pop	{r7, pc}
.Ltmp424:
.Lfunc_end19:
	.size	prvUnlockQueue, .Lfunc_end19-prvUnlockQueue
	.cfi_endproc
	.cantunwind
	.fnend
                                        @ -- End function
	.hidden	xQueueGenericSendFromISR        @ -- Begin function xQueueGenericSendFromISR
	.globl	xQueueGenericSendFromISR
	.p2align	1
	.type	xQueueGenericSendFromISR,%function
	.code	16                              @ @xQueueGenericSendFromISR
	.thumb_func
xQueueGenericSendFromISR:
.Lfunc_begin20:
	.loc	3 1096 0                        @ ../../../../Source/queue.c:1096:0
	.fnstart
	.cfi_startproc
@ %bb.0:
	.save	{r7, lr}
	push	{r7, lr}
	.cfi_def_cfa_offset 8
	.cfi_offset lr, -4
	.cfi_offset r7, -8
	.pad	#56
	sub	sp, #56
	.cfi_def_cfa_offset 64
	str	r0, [sp, #52]
	str	r1, [sp, #48]
	str	r2, [sp, #44]
	str	r3, [sp, #40]
.Ltmp425:
	.loc	3 1099 31 prologue_end          @ ../../../../Source/queue.c:1099:31
	ldr	r0, [sp, #52]
	.loc	3 1099 21 is_stmt 0             @ ../../../../Source/queue.c:1099:21
	str	r0, [sp, #28]
.Ltmp426:
	.loc	3 1101 5 is_stmt 1              @ ../../../../Source/queue.c:1101:5
	ldr	r0, [sp, #28]
.Ltmp427:
	.loc	3 1101 5 is_stmt 0              @ ../../../../Source/queue.c:1101:5
	cbnz	r0, .LBB20_3
	b	.LBB20_1
.LBB20_1:
.Ltmp428:
	.loc	3 1101 5                        @ ../../../../Source/queue.c:1101:5
	@APP
	cpsid i
	@NO_APP
	b	.LBB20_2
.LBB20_2:                               @ =>This Inner Loop Header: Depth=1
.Ltmp429:
	.loc	3 1101 5                        @ ../../../../Source/queue.c:1101:5
	b	.LBB20_2
.Ltmp430:
.LBB20_3:
	.loc	3 1102 5 is_stmt 1              @ ../../../../Source/queue.c:1102:5
	ldr	r1, [sp, #48]
	movs	r0, #0
	str	r0, [sp, #12]                   @ 4-byte Spill
	cbnz	r1, .LBB20_5
	b	.LBB20_4
.LBB20_4:
	ldr	r0, [sp, #28]
	ldr	r0, [r0, #64]
	subs	r1, r0, #1
	sbcs	r0, r1
	str	r0, [sp, #12]                   @ 4-byte Spill
	b	.LBB20_5
.LBB20_5:
	.loc	3 0 0 is_stmt 0                 @ ../../../../Source/queue.c:0:0
	ldr	r0, [sp, #12]                   @ 4-byte Reload
.Ltmp431:
	.loc	3 1102 5                        @ ../../../../Source/queue.c:1102:5
	lsls	r0, r0, #31
	cbz	r0, .LBB20_8
	b	.LBB20_6
.LBB20_6:
.Ltmp432:
	.loc	3 1102 5                        @ ../../../../Source/queue.c:1102:5
	@APP
	cpsid i
	@NO_APP
	b	.LBB20_7
.LBB20_7:                               @ =>This Inner Loop Header: Depth=1
.Ltmp433:
	.loc	3 1102 5                        @ ../../../../Source/queue.c:1102:5
	b	.LBB20_7
.Ltmp434:
.LBB20_8:
	.loc	3 1103 5 is_stmt 1              @ ../../../../Source/queue.c:1103:5
	ldr	r1, [sp, #40]
	movs	r0, #0
	cmp	r1, #2
	str	r0, [sp, #8]                    @ 4-byte Spill
	bne	.LBB20_10
	b	.LBB20_9
.LBB20_9:
	ldr	r0, [sp, #28]
	ldr	r0, [r0, #60]
	subs	r0, r0, #1
	subs	r1, r0, #1
	sbcs	r0, r1
	str	r0, [sp, #8]                    @ 4-byte Spill
	b	.LBB20_10
.LBB20_10:
	.loc	3 0 0 is_stmt 0                 @ ../../../../Source/queue.c:0:0
	ldr	r0, [sp, #8]                    @ 4-byte Reload
.Ltmp435:
	.loc	3 1103 5                        @ ../../../../Source/queue.c:1103:5
	lsls	r0, r0, #31
	cbz	r0, .LBB20_13
	b	.LBB20_11
.LBB20_11:
.Ltmp436:
	.loc	3 1103 5                        @ ../../../../Source/queue.c:1103:5
	@APP
	cpsid i
	@NO_APP
	b	.LBB20_12
.LBB20_12:                              @ =>This Inner Loop Header: Depth=1
.Ltmp437:
	.loc	3 1103 5                        @ ../../../../Source/queue.c:1103:5
	b	.LBB20_12
.Ltmp438:
.LBB20_13:
	.loc	3 1126 29 is_stmt 1             @ ../../../../Source/queue.c:1126:29
	bl	ulSetInterruptMask
	.loc	3 1126 27 is_stmt 0             @ ../../../../Source/queue.c:1126:27
	str	r0, [sp, #32]
.Ltmp439:
	.loc	3 1128 15 is_stmt 1             @ ../../../../Source/queue.c:1128:15
	ldr	r0, [sp, #28]
	.loc	3 1128 24 is_stmt 0             @ ../../../../Source/queue.c:1128:24
	ldr	r0, [r0, #56]
	.loc	3 1128 44                       @ ../../../../Source/queue.c:1128:44
	ldr	r1, [sp, #28]
	.loc	3 1128 53                       @ ../../../../Source/queue.c:1128:53
	ldr	r1, [r1, #60]
	.loc	3 1128 64                       @ ../../../../Source/queue.c:1128:64
	cmp	r0, r1
	blo	.LBB20_15
	b	.LBB20_14
.LBB20_14:
	.loc	3 1128 69                       @ ../../../../Source/queue.c:1128:69
	ldr	r0, [sp, #40]
.Ltmp440:
	.loc	3 1128 13                       @ ../../../../Source/queue.c:1128:13
	cmp	r0, #2
	bne	.LBB20_48
	b	.LBB20_15
.LBB20_15:
.Ltmp441:
	.loc	3 1130 36 is_stmt 1             @ ../../../../Source/queue.c:1130:36
	ldr	r0, [sp, #28]
	movs	r1, #69
	.loc	3 1130 45 is_stmt 0             @ ../../../../Source/queue.c:1130:45
	ldrb	r0, [r0, r1]
	add	r1, sp, #24
	.loc	3 1130 26                       @ ../../../../Source/queue.c:1130:26
	str	r1, [sp, #4]                    @ 4-byte Spill
	strb	r0, [r1]
	.loc	3 1131 59 is_stmt 1             @ ../../../../Source/queue.c:1131:59
	ldr	r0, [sp, #28]
	.loc	3 1131 68 is_stmt 0             @ ../../../../Source/queue.c:1131:68
	ldr	r0, [r0, #56]
	.loc	3 1131 31                       @ ../../../../Source/queue.c:1131:31
	str	r0, [sp, #20]
	.loc	3 1140 42 is_stmt 1             @ ../../../../Source/queue.c:1140:42
	ldr	r0, [sp, #28]
	.loc	3 1140 51 is_stmt 0             @ ../../../../Source/queue.c:1140:51
	ldr	r1, [sp, #48]
	.loc	3 1140 66                       @ ../../../../Source/queue.c:1140:66
	ldr	r2, [sp, #40]
	.loc	3 1140 22                       @ ../../../../Source/queue.c:1140:22
	bl	prvCopyDataToQueue
                                        @ kill: def $r1 killed $r0
.Ltmp442:
	.loc	3 1144 17 is_stmt 1             @ ../../../../Source/queue.c:1144:17
	ldr	r0, [sp, #4]                    @ 4-byte Reload
	movs	r1, #0
	ldrsb	r0, [r0, r1]
.Ltmp443:
	.loc	3 1144 17 is_stmt 0             @ ../../../../Source/queue.c:1144:17
	adds	r0, r0, #1
	cbnz	r0, .LBB20_39
	b	.LBB20_16
.LBB20_16:
.Ltmp444:
	.loc	3 1148 25 is_stmt 1             @ ../../../../Source/queue.c:1148:25
	ldr	r0, [sp, #28]
	.loc	3 1148 34 is_stmt 0             @ ../../../../Source/queue.c:1148:34
	ldr	r0, [r0, #72]
.Ltmp445:
	.loc	3 1148 25                       @ ../../../../Source/queue.c:1148:25
	cbz	r0, .LBB20_28
	b	.LBB20_17
.LBB20_17:
.Ltmp446:
	.loc	3 1150 31 is_stmt 1             @ ../../../../Source/queue.c:1150:31
	ldr	r0, [sp, #40]
	.loc	3 1150 65 is_stmt 0             @ ../../../../Source/queue.c:1150:65
	cmp	r0, #2
	bne	.LBB20_20
	b	.LBB20_18
.LBB20_18:
	.loc	3 1150 70                       @ ../../../../Source/queue.c:1150:70
	ldr	r0, [sp, #20]
.Ltmp447:
	.loc	3 1150 29                       @ ../../../../Source/queue.c:1150:29
	cbz	r0, .LBB20_20
	b	.LBB20_19
.LBB20_19:
.Ltmp448:
	.loc	3 1156 25 is_stmt 1             @ ../../../../Source/queue.c:1156:25
	b	.LBB20_27
.Ltmp449:
.LBB20_20:
	.loc	3 1157 62                       @ ../../../../Source/queue.c:1157:62
	ldr	r0, [sp, #28]
	.loc	3 1157 34 is_stmt 0             @ ../../../../Source/queue.c:1157:34
	bl	prvNotifyQueueSetContainer
.Ltmp450:
	.loc	3 1157 34                       @ ../../../../Source/queue.c:1157:34
	cbz	r0, .LBB20_25
	b	.LBB20_21
.LBB20_21:
.Ltmp451:
	.loc	3 1162 33 is_stmt 1             @ ../../../../Source/queue.c:1162:33
	ldr	r0, [sp, #44]
.Ltmp452:
	.loc	3 1162 33 is_stmt 0             @ ../../../../Source/queue.c:1162:33
	cbz	r0, .LBB20_23
	b	.LBB20_22
.LBB20_22:
.Ltmp453:
	.loc	3 1164 34 is_stmt 1             @ ../../../../Source/queue.c:1164:34
	ldr	r1, [sp, #44]
	movs	r0, #1
	.loc	3 1164 60 is_stmt 0             @ ../../../../Source/queue.c:1164:60
	str	r0, [r1]
	.loc	3 1165 29 is_stmt 1             @ ../../../../Source/queue.c:1165:29
	b	.LBB20_24
.Ltmp454:
.LBB20_23:
	.loc	3 0 29 is_stmt 0                @ ../../../../Source/queue.c:0:29
	b	.LBB20_24
.LBB20_24:
	.loc	3 1170 25 is_stmt 1             @ ../../../../Source/queue.c:1170:25
	b	.LBB20_26
.Ltmp455:
.LBB20_25:
	.loc	3 0 25 is_stmt 0                @ ../../../../Source/queue.c:0:25
	b	.LBB20_26
.LBB20_26:
	b	.LBB20_27
.LBB20_27:
	.loc	3 1175 21 is_stmt 1             @ ../../../../Source/queue.c:1175:21
	b	.LBB20_38
.Ltmp456:
.LBB20_28:
	.loc	3 1178 29                       @ ../../../../Source/queue.c:1178:29
	ldr	r0, [sp, #28]
	ldr	r0, [r0, #36]
.Ltmp457:
	.loc	3 1178 29 is_stmt 0             @ ../../../../Source/queue.c:1178:29
	cbz	r0, .LBB20_36
	b	.LBB20_29
.LBB20_29:
.Ltmp458:
	.loc	3 1180 62 is_stmt 1             @ ../../../../Source/queue.c:1180:62
	ldr	r0, [sp, #28]
	.loc	3 1180 71 is_stmt 0             @ ../../../../Source/queue.c:1180:71
	adds	r0, #36
	.loc	3 1180 33                       @ ../../../../Source/queue.c:1180:33
	bl	xTaskRemoveFromEventList
.Ltmp459:
	.loc	3 1180 33                       @ ../../../../Source/queue.c:1180:33
	cbz	r0, .LBB20_34
	b	.LBB20_30
.LBB20_30:
.Ltmp460:
	.loc	3 1184 37 is_stmt 1             @ ../../../../Source/queue.c:1184:37
	ldr	r0, [sp, #44]
.Ltmp461:
	.loc	3 1184 37 is_stmt 0             @ ../../../../Source/queue.c:1184:37
	cbz	r0, .LBB20_32
	b	.LBB20_31
.LBB20_31:
.Ltmp462:
	.loc	3 1186 38 is_stmt 1             @ ../../../../Source/queue.c:1186:38
	ldr	r1, [sp, #44]
	movs	r0, #1
	.loc	3 1186 64 is_stmt 0             @ ../../../../Source/queue.c:1186:64
	str	r0, [r1]
	.loc	3 1187 33 is_stmt 1             @ ../../../../Source/queue.c:1187:33
	b	.LBB20_33
.Ltmp463:
.LBB20_32:
	.loc	3 0 33 is_stmt 0                @ ../../../../Source/queue.c:0:33
	b	.LBB20_33
.LBB20_33:
	.loc	3 1192 29 is_stmt 1             @ ../../../../Source/queue.c:1192:29
	b	.LBB20_35
.Ltmp464:
.LBB20_34:
	.loc	3 0 29 is_stmt 0                @ ../../../../Source/queue.c:0:29
	b	.LBB20_35
.LBB20_35:
	.loc	3 1197 25 is_stmt 1             @ ../../../../Source/queue.c:1197:25
	b	.LBB20_37
.Ltmp465:
.LBB20_36:
	.loc	3 0 25 is_stmt 0                @ ../../../../Source/queue.c:0:25
	b	.LBB20_37
.LBB20_37:
	b	.LBB20_38
.LBB20_38:
	.loc	3 1235 13 is_stmt 1             @ ../../../../Source/queue.c:1235:13
	b	.LBB20_47
.Ltmp466:
.LBB20_39:
	.loc	3 1240 17                       @ ../../../../Source/queue.c:1240:17
	b	.LBB20_40
.LBB20_40:
.Ltmp467:
	.loc	3 1240 17 is_stmt 0             @ ../../../../Source/queue.c:1240:17
	bl	uxTaskGetNumberOfTasks
	str	r0, [sp, #16]
.Ltmp468:
	.loc	3 1240 17                       @ ../../../../Source/queue.c:1240:17
	movs	r1, #0
	add	r0, sp, #24
	ldrsb	r0, [r0, r1]
	ldr	r1, [sp, #16]
.Ltmp469:
	.loc	3 1240 17                       @ ../../../../Source/queue.c:1240:17
	cmp	r0, r1
	bhs	.LBB20_45
	b	.LBB20_41
.LBB20_41:
.Ltmp470:
	.loc	3 1240 17                       @ ../../../../Source/queue.c:1240:17
	movs	r1, #0
	add	r0, sp, #24
	ldrsb	r0, [r0, r1]
.Ltmp471:
	.loc	3 1240 17                       @ ../../../../Source/queue.c:1240:17
	cmp	r0, #127
	bne	.LBB20_44
	b	.LBB20_42
.LBB20_42:
.Ltmp472:
	.loc	3 1240 17                       @ ../../../../Source/queue.c:1240:17
	@APP
	cpsid i
	@NO_APP
	b	.LBB20_43
.LBB20_43:                              @ =>This Inner Loop Header: Depth=1
.Ltmp473:
	.loc	3 1240 17                       @ ../../../../Source/queue.c:1240:17
	b	.LBB20_43
.Ltmp474:
.LBB20_44:
	.loc	3 1240 17                       @ ../../../../Source/queue.c:1240:17
	ldr	r0, [sp, #24]
	adds	r0, r0, #1
	ldr	r1, [sp, #28]
	movs	r2, #69
	strb	r0, [r1, r2]
	b	.LBB20_45
.Ltmp475:
.LBB20_45:
	.loc	3 1240 17                       @ ../../../../Source/queue.c:1240:17
	b	.LBB20_46
.Ltmp476:
.LBB20_46:
	.loc	3 0 17                          @ ../../../../Source/queue.c:0:17
	b	.LBB20_47
.LBB20_47:
	movs	r0, #1
	.loc	3 1243 21 is_stmt 1             @ ../../../../Source/queue.c:1243:21
	str	r0, [sp, #36]
	.loc	3 1244 9                        @ ../../../../Source/queue.c:1244:9
	b	.LBB20_49
.Ltmp477:
.LBB20_48:
	.loc	3 0 9 is_stmt 0                 @ ../../../../Source/queue.c:0:9
	movs	r0, #0
.Ltmp478:
	.loc	3 1248 21 is_stmt 1             @ ../../../../Source/queue.c:1248:21
	str	r0, [sp, #36]
	b	.LBB20_49
.Ltmp479:
.LBB20_49:
	.loc	3 1251 5                        @ ../../../../Source/queue.c:1251:5
	ldr	r0, [sp, #32]
	bl	vClearInterruptMask
	.loc	3 1253 12                       @ ../../../../Source/queue.c:1253:12
	ldr	r0, [sp, #36]
	.loc	3 1253 5 is_stmt 0              @ ../../../../Source/queue.c:1253:5
	add	sp, #56
	pop	{r7, pc}
.Ltmp480:
.Lfunc_end20:
	.size	xQueueGenericSendFromISR, .Lfunc_end20-xQueueGenericSendFromISR
	.cfi_endproc
	.cantunwind
	.fnend
                                        @ -- End function
	.hidden	xQueueGiveFromISR               @ -- Begin function xQueueGiveFromISR
	.globl	xQueueGiveFromISR
	.p2align	1
	.type	xQueueGiveFromISR,%function
	.code	16                              @ @xQueueGiveFromISR
	.thumb_func
xQueueGiveFromISR:
.Lfunc_begin21:
	.loc	3 1259 0 is_stmt 1              @ ../../../../Source/queue.c:1259:0
	.fnstart
	.cfi_startproc
@ %bb.0:
	.save	{r7, lr}
	push	{r7, lr}
	.cfi_def_cfa_offset 8
	.cfi_offset lr, -4
	.cfi_offset r7, -8
	.pad	#40
	sub	sp, #40
	.cfi_def_cfa_offset 48
	str	r0, [sp, #36]
	str	r1, [sp, #32]
.Ltmp481:
	.loc	3 1262 31 prologue_end          @ ../../../../Source/queue.c:1262:31
	ldr	r0, [sp, #36]
	.loc	3 1262 21 is_stmt 0             @ ../../../../Source/queue.c:1262:21
	str	r0, [sp, #20]
.Ltmp482:
	.loc	3 1270 5 is_stmt 1              @ ../../../../Source/queue.c:1270:5
	ldr	r0, [sp, #20]
.Ltmp483:
	.loc	3 1270 5 is_stmt 0              @ ../../../../Source/queue.c:1270:5
	cbnz	r0, .LBB21_3
	b	.LBB21_1
.LBB21_1:
.Ltmp484:
	.loc	3 1270 5                        @ ../../../../Source/queue.c:1270:5
	@APP
	cpsid i
	@NO_APP
	b	.LBB21_2
.LBB21_2:                               @ =>This Inner Loop Header: Depth=1
.Ltmp485:
	.loc	3 1270 5                        @ ../../../../Source/queue.c:1270:5
	b	.LBB21_2
.Ltmp486:
.LBB21_3:
	.loc	3 1274 5 is_stmt 1              @ ../../../../Source/queue.c:1274:5
	ldr	r0, [sp, #20]
	ldr	r0, [r0, #64]
.Ltmp487:
	.loc	3 1274 5 is_stmt 0              @ ../../../../Source/queue.c:1274:5
	cbz	r0, .LBB21_6
	b	.LBB21_4
.LBB21_4:
.Ltmp488:
	.loc	3 1274 5                        @ ../../../../Source/queue.c:1274:5
	@APP
	cpsid i
	@NO_APP
	b	.LBB21_5
.LBB21_5:                               @ =>This Inner Loop Header: Depth=1
.Ltmp489:
	.loc	3 1274 5                        @ ../../../../Source/queue.c:1274:5
	b	.LBB21_5
.Ltmp490:
.LBB21_6:
	.loc	3 1279 5 is_stmt 1              @ ../../../../Source/queue.c:1279:5
	ldr	r0, [sp, #20]
	ldr	r1, [r0]
	movs	r0, #0
	str	r0, [sp, #4]                    @ 4-byte Spill
	cbnz	r1, .LBB21_8
	b	.LBB21_7
.LBB21_7:
	ldr	r0, [sp, #20]
	ldr	r0, [r0, #8]
	subs	r1, r0, #1
	sbcs	r0, r1
	str	r0, [sp, #4]                    @ 4-byte Spill
	b	.LBB21_8
.LBB21_8:
	.loc	3 0 0 is_stmt 0                 @ ../../../../Source/queue.c:0:0
	ldr	r0, [sp, #4]                    @ 4-byte Reload
.Ltmp491:
	.loc	3 1279 5                        @ ../../../../Source/queue.c:1279:5
	lsls	r0, r0, #31
	cbz	r0, .LBB21_11
	b	.LBB21_9
.LBB21_9:
.Ltmp492:
	.loc	3 1279 5                        @ ../../../../Source/queue.c:1279:5
	@APP
	cpsid i
	@NO_APP
	b	.LBB21_10
.LBB21_10:                              @ =>This Inner Loop Header: Depth=1
.Ltmp493:
	.loc	3 1279 5                        @ ../../../../Source/queue.c:1279:5
	b	.LBB21_10
.Ltmp494:
.LBB21_11:
	.loc	3 1297 29 is_stmt 1             @ ../../../../Source/queue.c:1297:29
	bl	ulSetInterruptMask
	.loc	3 1297 27 is_stmt 0             @ ../../../../Source/queue.c:1297:27
	str	r0, [sp, #24]
.Ltmp495:
	.loc	3 1299 47 is_stmt 1             @ ../../../../Source/queue.c:1299:47
	ldr	r0, [sp, #20]
	.loc	3 1299 56 is_stmt 0             @ ../../../../Source/queue.c:1299:56
	ldr	r0, [r0, #56]
	.loc	3 1299 27                       @ ../../../../Source/queue.c:1299:27
	str	r0, [sp, #16]
.Ltmp496:
	.loc	3 1304 13 is_stmt 1             @ ../../../../Source/queue.c:1304:13
	ldr	r0, [sp, #16]
	.loc	3 1304 33 is_stmt 0             @ ../../../../Source/queue.c:1304:33
	ldr	r1, [sp, #20]
	.loc	3 1304 42                       @ ../../../../Source/queue.c:1304:42
	ldr	r1, [r1, #60]
.Ltmp497:
	.loc	3 1304 13                       @ ../../../../Source/queue.c:1304:13
	cmp	r0, r1
	bhs	.LBB21_41
	b	.LBB21_12
.LBB21_12:
.Ltmp498:
	.loc	3 1306 36 is_stmt 1             @ ../../../../Source/queue.c:1306:36
	ldr	r0, [sp, #20]
	movs	r1, #69
	.loc	3 1306 45 is_stmt 0             @ ../../../../Source/queue.c:1306:45
	ldrb	r1, [r0, r1]
	add	r0, sp, #12
	.loc	3 1306 26                       @ ../../../../Source/queue.c:1306:26
	strb	r1, [r0]
	.loc	3 1316 42 is_stmt 1             @ ../../../../Source/queue.c:1316:42
	ldr	r1, [sp, #16]
	.loc	3 1316 60 is_stmt 0             @ ../../../../Source/queue.c:1316:60
	adds	r1, r1, #1
	.loc	3 1316 13                       @ ../../../../Source/queue.c:1316:13
	ldr	r2, [sp, #20]
	.loc	3 1316 40                       @ ../../../../Source/queue.c:1316:40
	str	r1, [r2, #56]
.Ltmp499:
	.loc	3 1320 17 is_stmt 1             @ ../../../../Source/queue.c:1320:17
	movs	r1, #0
	ldrsb	r0, [r0, r1]
.Ltmp500:
	.loc	3 1320 17 is_stmt 0             @ ../../../../Source/queue.c:1320:17
	adds	r0, r0, #1
	cbnz	r0, .LBB21_32
	b	.LBB21_13
.LBB21_13:
.Ltmp501:
	.loc	3 1324 25 is_stmt 1             @ ../../../../Source/queue.c:1324:25
	ldr	r0, [sp, #20]
	.loc	3 1324 34 is_stmt 0             @ ../../../../Source/queue.c:1324:34
	ldr	r0, [r0, #72]
.Ltmp502:
	.loc	3 1324 25                       @ ../../../../Source/queue.c:1324:25
	cbz	r0, .LBB21_21
	b	.LBB21_14
.LBB21_14:
.Ltmp503:
	.loc	3 1326 57 is_stmt 1             @ ../../../../Source/queue.c:1326:57
	ldr	r0, [sp, #20]
	.loc	3 1326 29 is_stmt 0             @ ../../../../Source/queue.c:1326:29
	bl	prvNotifyQueueSetContainer
.Ltmp504:
	.loc	3 1326 29                       @ ../../../../Source/queue.c:1326:29
	cbz	r0, .LBB21_19
	b	.LBB21_15
.LBB21_15:
.Ltmp505:
	.loc	3 1331 33 is_stmt 1             @ ../../../../Source/queue.c:1331:33
	ldr	r0, [sp, #32]
.Ltmp506:
	.loc	3 1331 33 is_stmt 0             @ ../../../../Source/queue.c:1331:33
	cbz	r0, .LBB21_17
	b	.LBB21_16
.LBB21_16:
.Ltmp507:
	.loc	3 1333 34 is_stmt 1             @ ../../../../Source/queue.c:1333:34
	ldr	r1, [sp, #32]
	movs	r0, #1
	.loc	3 1333 60 is_stmt 0             @ ../../../../Source/queue.c:1333:60
	str	r0, [r1]
	.loc	3 1334 29 is_stmt 1             @ ../../../../Source/queue.c:1334:29
	b	.LBB21_18
.Ltmp508:
.LBB21_17:
	.loc	3 0 29 is_stmt 0                @ ../../../../Source/queue.c:0:29
	b	.LBB21_18
.LBB21_18:
	.loc	3 1339 25 is_stmt 1             @ ../../../../Source/queue.c:1339:25
	b	.LBB21_20
.Ltmp509:
.LBB21_19:
	.loc	3 0 25 is_stmt 0                @ ../../../../Source/queue.c:0:25
	b	.LBB21_20
.LBB21_20:
	.loc	3 1344 21 is_stmt 1             @ ../../../../Source/queue.c:1344:21
	b	.LBB21_31
.Ltmp510:
.LBB21_21:
	.loc	3 1347 29                       @ ../../../../Source/queue.c:1347:29
	ldr	r0, [sp, #20]
	ldr	r0, [r0, #36]
.Ltmp511:
	.loc	3 1347 29 is_stmt 0             @ ../../../../Source/queue.c:1347:29
	cbz	r0, .LBB21_29
	b	.LBB21_22
.LBB21_22:
.Ltmp512:
	.loc	3 1349 62 is_stmt 1             @ ../../../../Source/queue.c:1349:62
	ldr	r0, [sp, #20]
	.loc	3 1349 71 is_stmt 0             @ ../../../../Source/queue.c:1349:71
	adds	r0, #36
	.loc	3 1349 33                       @ ../../../../Source/queue.c:1349:33
	bl	xTaskRemoveFromEventList
.Ltmp513:
	.loc	3 1349 33                       @ ../../../../Source/queue.c:1349:33
	cbz	r0, .LBB21_27
	b	.LBB21_23
.LBB21_23:
.Ltmp514:
	.loc	3 1353 37 is_stmt 1             @ ../../../../Source/queue.c:1353:37
	ldr	r0, [sp, #32]
.Ltmp515:
	.loc	3 1353 37 is_stmt 0             @ ../../../../Source/queue.c:1353:37
	cbz	r0, .LBB21_25
	b	.LBB21_24
.LBB21_24:
.Ltmp516:
	.loc	3 1355 38 is_stmt 1             @ ../../../../Source/queue.c:1355:38
	ldr	r1, [sp, #32]
	movs	r0, #1
	.loc	3 1355 64 is_stmt 0             @ ../../../../Source/queue.c:1355:64
	str	r0, [r1]
	.loc	3 1356 33 is_stmt 1             @ ../../../../Source/queue.c:1356:33
	b	.LBB21_26
.Ltmp517:
.LBB21_25:
	.loc	3 0 33 is_stmt 0                @ ../../../../Source/queue.c:0:33
	b	.LBB21_26
.LBB21_26:
	.loc	3 1361 29 is_stmt 1             @ ../../../../Source/queue.c:1361:29
	b	.LBB21_28
.Ltmp518:
.LBB21_27:
	.loc	3 0 29 is_stmt 0                @ ../../../../Source/queue.c:0:29
	b	.LBB21_28
.LBB21_28:
	.loc	3 1366 25 is_stmt 1             @ ../../../../Source/queue.c:1366:25
	b	.LBB21_30
.Ltmp519:
.LBB21_29:
	.loc	3 0 25 is_stmt 0                @ ../../../../Source/queue.c:0:25
	b	.LBB21_30
.LBB21_30:
	b	.LBB21_31
.LBB21_31:
	.loc	3 1401 13 is_stmt 1             @ ../../../../Source/queue.c:1401:13
	b	.LBB21_40
.Ltmp520:
.LBB21_32:
	.loc	3 1406 17                       @ ../../../../Source/queue.c:1406:17
	b	.LBB21_33
.LBB21_33:
.Ltmp521:
	.loc	3 1406 17 is_stmt 0             @ ../../../../Source/queue.c:1406:17
	bl	uxTaskGetNumberOfTasks
	str	r0, [sp, #8]
.Ltmp522:
	.loc	3 1406 17                       @ ../../../../Source/queue.c:1406:17
	movs	r1, #0
	add	r0, sp, #12
	ldrsb	r0, [r0, r1]
	ldr	r1, [sp, #8]
.Ltmp523:
	.loc	3 1406 17                       @ ../../../../Source/queue.c:1406:17
	cmp	r0, r1
	bhs	.LBB21_38
	b	.LBB21_34
.LBB21_34:
.Ltmp524:
	.loc	3 1406 17                       @ ../../../../Source/queue.c:1406:17
	movs	r1, #0
	add	r0, sp, #12
	ldrsb	r0, [r0, r1]
.Ltmp525:
	.loc	3 1406 17                       @ ../../../../Source/queue.c:1406:17
	cmp	r0, #127
	bne	.LBB21_37
	b	.LBB21_35
.LBB21_35:
.Ltmp526:
	.loc	3 1406 17                       @ ../../../../Source/queue.c:1406:17
	@APP
	cpsid i
	@NO_APP
	b	.LBB21_36
.LBB21_36:                              @ =>This Inner Loop Header: Depth=1
.Ltmp527:
	.loc	3 1406 17                       @ ../../../../Source/queue.c:1406:17
	b	.LBB21_36
.Ltmp528:
.LBB21_37:
	.loc	3 1406 17                       @ ../../../../Source/queue.c:1406:17
	ldr	r0, [sp, #12]
	adds	r0, r0, #1
	ldr	r1, [sp, #20]
	movs	r2, #69
	strb	r0, [r1, r2]
	b	.LBB21_38
.Ltmp529:
.LBB21_38:
	.loc	3 1406 17                       @ ../../../../Source/queue.c:1406:17
	b	.LBB21_39
.Ltmp530:
.LBB21_39:
	.loc	3 0 17                          @ ../../../../Source/queue.c:0:17
	b	.LBB21_40
.LBB21_40:
	movs	r0, #1
	.loc	3 1409 21 is_stmt 1             @ ../../../../Source/queue.c:1409:21
	str	r0, [sp, #28]
	.loc	3 1410 9                        @ ../../../../Source/queue.c:1410:9
	b	.LBB21_42
.Ltmp531:
.LBB21_41:
	.loc	3 0 9 is_stmt 0                 @ ../../../../Source/queue.c:0:9
	movs	r0, #0
.Ltmp532:
	.loc	3 1414 21 is_stmt 1             @ ../../../../Source/queue.c:1414:21
	str	r0, [sp, #28]
	b	.LBB21_42
.Ltmp533:
.LBB21_42:
	.loc	3 1417 5                        @ ../../../../Source/queue.c:1417:5
	ldr	r0, [sp, #24]
	bl	vClearInterruptMask
	.loc	3 1419 12                       @ ../../../../Source/queue.c:1419:12
	ldr	r0, [sp, #28]
	.loc	3 1419 5 is_stmt 0              @ ../../../../Source/queue.c:1419:5
	add	sp, #40
	pop	{r7, pc}
.Ltmp534:
.Lfunc_end21:
	.size	xQueueGiveFromISR, .Lfunc_end21-xQueueGiveFromISR
	.cfi_endproc
	.cantunwind
	.fnend
                                        @ -- End function
	.hidden	xQueueReceive                   @ -- Begin function xQueueReceive
	.globl	xQueueReceive
	.p2align	1
	.type	xQueueReceive,%function
	.code	16                              @ @xQueueReceive
	.thumb_func
xQueueReceive:
.Lfunc_begin22:
	.loc	3 1426 0 is_stmt 1              @ ../../../../Source/queue.c:1426:0
	.fnstart
	.cfi_startproc
@ %bb.0:
	.save	{r7, lr}
	push	{r7, lr}
	.cfi_def_cfa_offset 8
	.cfi_offset lr, -4
	.cfi_offset r7, -8
	.pad	#48
	sub	sp, #48
	.cfi_def_cfa_offset 56
	str	r0, [sp, #40]
	str	r1, [sp, #36]
	str	r2, [sp, #32]
	movs	r0, #0
.Ltmp535:
	.loc	3 1427 16 prologue_end          @ ../../../../Source/queue.c:1427:16
	str	r0, [sp, #28]
	.loc	3 1429 31                       @ ../../../../Source/queue.c:1429:31
	ldr	r0, [sp, #40]
	.loc	3 1429 21 is_stmt 0             @ ../../../../Source/queue.c:1429:21
	str	r0, [sp, #16]
.Ltmp536:
	.loc	3 1432 5 is_stmt 1              @ ../../../../Source/queue.c:1432:5
	ldr	r0, [sp, #16]
.Ltmp537:
	.loc	3 1432 5 is_stmt 0              @ ../../../../Source/queue.c:1432:5
	cbnz	r0, .LBB22_3
	b	.LBB22_1
.LBB22_1:
.Ltmp538:
	.loc	3 1432 5                        @ ../../../../Source/queue.c:1432:5
	@APP
	cpsid i
	@NO_APP
	b	.LBB22_2
.LBB22_2:                               @ =>This Inner Loop Header: Depth=1
.Ltmp539:
	.loc	3 1432 5                        @ ../../../../Source/queue.c:1432:5
	b	.LBB22_2
.Ltmp540:
.LBB22_3:
	.loc	3 1436 5 is_stmt 1              @ ../../../../Source/queue.c:1436:5
	ldr	r1, [sp, #36]
	movs	r0, #0
	str	r0, [sp, #8]                    @ 4-byte Spill
	cbnz	r1, .LBB22_5
	b	.LBB22_4
.LBB22_4:
	ldr	r0, [sp, #16]
	ldr	r0, [r0, #64]
	subs	r1, r0, #1
	sbcs	r0, r1
	str	r0, [sp, #8]                    @ 4-byte Spill
	b	.LBB22_5
.LBB22_5:
	.loc	3 0 0 is_stmt 0                 @ ../../../../Source/queue.c:0:0
	ldr	r0, [sp, #8]                    @ 4-byte Reload
.Ltmp541:
	.loc	3 1436 5                        @ ../../../../Source/queue.c:1436:5
	lsls	r0, r0, #31
	cbz	r0, .LBB22_8
	b	.LBB22_6
.LBB22_6:
.Ltmp542:
	.loc	3 1436 5                        @ ../../../../Source/queue.c:1436:5
	@APP
	cpsid i
	@NO_APP
	b	.LBB22_7
.LBB22_7:                               @ =>This Inner Loop Header: Depth=1
.Ltmp543:
	.loc	3 1436 5                        @ ../../../../Source/queue.c:1436:5
	b	.LBB22_7
.Ltmp544:
.LBB22_8:
	.loc	3 1441 9 is_stmt 1              @ ../../../../Source/queue.c:1441:9
	bl	xTaskGetSchedulerState
	mov	r1, r0
	movs	r0, #0
	str	r0, [sp, #4]                    @ 4-byte Spill
	cbnz	r1, .LBB22_10
	b	.LBB22_9
.LBB22_9:
	ldr	r0, [sp, #32]
	subs	r1, r0, #1
	sbcs	r0, r1
	str	r0, [sp, #4]                    @ 4-byte Spill
	b	.LBB22_10
.LBB22_10:
	.loc	3 0 0 is_stmt 0                 @ ../../../../Source/queue.c:0:0
	ldr	r0, [sp, #4]                    @ 4-byte Reload
.Ltmp545:
	.loc	3 1441 9                        @ ../../../../Source/queue.c:1441:9
	lsls	r0, r0, #31
	cbz	r0, .LBB22_13
	b	.LBB22_11
.LBB22_11:
.Ltmp546:
	.loc	3 1441 9                        @ ../../../../Source/queue.c:1441:9
	@APP
	cpsid i
	@NO_APP
	b	.LBB22_12
.LBB22_12:                              @ =>This Inner Loop Header: Depth=1
.Ltmp547:
	.loc	3 1441 9                        @ ../../../../Source/queue.c:1441:9
	b	.LBB22_12
.Ltmp548:
.LBB22_13:
	.loc	3 1448 5 is_stmt 1              @ ../../../../Source/queue.c:1448:5
	b	.LBB22_14
.LBB22_14:                              @ =>This Inner Loop Header: Depth=1
.Ltmp549:
	.loc	3 1450 9                        @ ../../../../Source/queue.c:1450:9
	bl	vPortEnterCritical
.Ltmp550:
	.loc	3 1452 51                       @ ../../../../Source/queue.c:1452:51
	ldr	r0, [sp, #16]
	.loc	3 1452 60 is_stmt 0             @ ../../../../Source/queue.c:1452:60
	ldr	r0, [r0, #56]
	.loc	3 1452 31                       @ ../../../../Source/queue.c:1452:31
	str	r0, [sp, #12]
.Ltmp551:
	.loc	3 1456 17 is_stmt 1             @ ../../../../Source/queue.c:1456:17
	ldr	r0, [sp, #12]
.Ltmp552:
	.loc	3 1456 17 is_stmt 0             @ ../../../../Source/queue.c:1456:17
	cbz	r0, .LBB22_22
	b	.LBB22_15
.LBB22_15:
.Ltmp553:
	.loc	3 1459 39 is_stmt 1             @ ../../../../Source/queue.c:1459:39
	ldr	r0, [sp, #16]
	.loc	3 1459 48 is_stmt 0             @ ../../../../Source/queue.c:1459:48
	ldr	r1, [sp, #36]
	.loc	3 1459 17                       @ ../../../../Source/queue.c:1459:17
	bl	prvCopyDataFromQueue
	.loc	3 1461 46 is_stmt 1             @ ../../../../Source/queue.c:1461:46
	ldr	r0, [sp, #12]
	.loc	3 1461 64 is_stmt 0             @ ../../../../Source/queue.c:1461:64
	subs	r0, r0, #1
	.loc	3 1461 17                       @ ../../../../Source/queue.c:1461:17
	ldr	r1, [sp, #16]
	.loc	3 1461 44                       @ ../../../../Source/queue.c:1461:44
	str	r0, [r1, #56]
.Ltmp554:
	.loc	3 1466 21 is_stmt 1             @ ../../../../Source/queue.c:1466:21
	ldr	r0, [sp, #16]
	ldr	r0, [r0, #16]
.Ltmp555:
	.loc	3 1466 21 is_stmt 0             @ ../../../../Source/queue.c:1466:21
	cbz	r0, .LBB22_20
	b	.LBB22_16
.LBB22_16:
.Ltmp556:
	.loc	3 1468 54 is_stmt 1             @ ../../../../Source/queue.c:1468:54
	ldr	r0, [sp, #16]
	.loc	3 1468 63 is_stmt 0             @ ../../../../Source/queue.c:1468:63
	adds	r0, #16
	.loc	3 1468 25                       @ ../../../../Source/queue.c:1468:25
	bl	xTaskRemoveFromEventList
.Ltmp557:
	.loc	3 1468 25                       @ ../../../../Source/queue.c:1468:25
	cbz	r0, .LBB22_18
	b	.LBB22_17
.LBB22_17:
.Ltmp558:
	.loc	3 1470 25 is_stmt 1             @ ../../../../Source/queue.c:1470:25
	bl	vPortYield
	.loc	3 1471 21                       @ ../../../../Source/queue.c:1471:21
	b	.LBB22_19
.Ltmp559:
.LBB22_18:
	.loc	3 0 21 is_stmt 0                @ ../../../../Source/queue.c:0:21
	b	.LBB22_19
.LBB22_19:
	.loc	3 1476 17 is_stmt 1             @ ../../../../Source/queue.c:1476:17
	b	.LBB22_21
.Ltmp560:
.LBB22_20:
	.loc	3 0 17 is_stmt 0                @ ../../../../Source/queue.c:0:17
	b	.LBB22_21
.LBB22_21:
	.loc	3 1482 17 is_stmt 1             @ ../../../../Source/queue.c:1482:17
	bl	vPortExitCritical
	movs	r0, #1
	.loc	3 1483 17                       @ ../../../../Source/queue.c:1483:17
	str	r0, [sp, #44]
	b	.LBB22_46
.Ltmp561:
.LBB22_22:                              @   in Loop: Header=BB22_14 Depth=1
	.loc	3 1487 21                       @ ../../../../Source/queue.c:1487:21
	ldr	r0, [sp, #32]
.Ltmp562:
	.loc	3 1487 21 is_stmt 0             @ ../../../../Source/queue.c:1487:21
	cbnz	r0, .LBB22_24
	b	.LBB22_23
.LBB22_23:
.Ltmp563:
	.loc	3 1491 21 is_stmt 1             @ ../../../../Source/queue.c:1491:21
	bl	vPortExitCritical
	movs	r0, #0
	.loc	3 1493 21                       @ ../../../../Source/queue.c:1493:21
	str	r0, [sp, #44]
	b	.LBB22_46
.Ltmp564:
.LBB22_24:                              @   in Loop: Header=BB22_14 Depth=1
	.loc	3 1495 26                       @ ../../../../Source/queue.c:1495:26
	ldr	r0, [sp, #28]
.Ltmp565:
	.loc	3 1495 26 is_stmt 0             @ ../../../../Source/queue.c:1495:26
	cbnz	r0, .LBB22_26
	b	.LBB22_25
.LBB22_25:                              @   in Loop: Header=BB22_14 Depth=1
	.loc	3 0 26                          @ ../../../../Source/queue.c:0:26
	add	r0, sp, #20
.Ltmp566:
	.loc	3 1499 21 is_stmt 1             @ ../../../../Source/queue.c:1499:21
	bl	vTaskInternalSetTimeOutState
	movs	r0, #1
	.loc	3 1500 35                       @ ../../../../Source/queue.c:1500:35
	str	r0, [sp, #28]
	.loc	3 1501 17                       @ ../../../../Source/queue.c:1501:17
	b	.LBB22_27
.Ltmp567:
.LBB22_26:                              @   in Loop: Header=BB22_14 Depth=1
	.loc	3 0 17 is_stmt 0                @ ../../../../Source/queue.c:0:17
	b	.LBB22_27
.LBB22_27:                              @   in Loop: Header=BB22_14 Depth=1
	b	.LBB22_28
.LBB22_28:                              @   in Loop: Header=BB22_14 Depth=1
	b	.LBB22_29
.LBB22_29:                              @   in Loop: Header=BB22_14 Depth=1
	.loc	3 1509 9 is_stmt 1              @ ../../../../Source/queue.c:1509:9
	bl	vPortExitCritical
	.loc	3 1514 9                        @ ../../../../Source/queue.c:1514:9
	bl	vTaskSuspendAll
	.loc	3 1515 9                        @ ../../../../Source/queue.c:1515:9
	bl	vPortEnterCritical
.Ltmp568:
	.loc	3 1515 9 is_stmt 0              @ ../../../../Source/queue.c:1515:9
	ldr	r0, [sp, #16]
	movs	r1, #68
	ldrsb	r0, [r0, r1]
.Ltmp569:
	.loc	3 1515 9                        @ ../../../../Source/queue.c:1515:9
	adds	r0, r0, #1
	cbnz	r0, .LBB22_31
	b	.LBB22_30
.LBB22_30:                              @   in Loop: Header=BB22_14 Depth=1
.Ltmp570:
	.loc	3 1515 9                        @ ../../../../Source/queue.c:1515:9
	ldr	r1, [sp, #16]
	movs	r2, #68
	movs	r0, #0
	strb	r0, [r1, r2]
	b	.LBB22_31
.Ltmp571:
.LBB22_31:                              @   in Loop: Header=BB22_14 Depth=1
	.loc	3 1515 9                        @ ../../../../Source/queue.c:1515:9
	ldr	r0, [sp, #16]
	movs	r1, #69
	ldrsb	r0, [r0, r1]
.Ltmp572:
	.loc	3 1515 9                        @ ../../../../Source/queue.c:1515:9
	adds	r0, r0, #1
	cbnz	r0, .LBB22_33
	b	.LBB22_32
.LBB22_32:                              @   in Loop: Header=BB22_14 Depth=1
.Ltmp573:
	.loc	3 1515 9                        @ ../../../../Source/queue.c:1515:9
	ldr	r1, [sp, #16]
	movs	r2, #69
	movs	r0, #0
	strb	r0, [r1, r2]
	b	.LBB22_33
.Ltmp574:
.LBB22_33:                              @   in Loop: Header=BB22_14 Depth=1
	.loc	3 1515 9                        @ ../../../../Source/queue.c:1515:9
	bl	vPortExitCritical
	add	r0, sp, #20
	add	r1, sp, #32
.Ltmp575:
	.loc	3 1518 13 is_stmt 1             @ ../../../../Source/queue.c:1518:13
	bl	xTaskCheckForTimeOut
.Ltmp576:
	.loc	3 1518 13 is_stmt 0             @ ../../../../Source/queue.c:1518:13
	cbnz	r0, .LBB22_41
	b	.LBB22_34
.LBB22_34:                              @   in Loop: Header=BB22_14 Depth=1
.Ltmp577:
	.loc	3 1522 34 is_stmt 1             @ ../../../../Source/queue.c:1522:34
	ldr	r0, [sp, #16]
	.loc	3 1522 17 is_stmt 0             @ ../../../../Source/queue.c:1522:17
	bl	prvIsQueueEmpty
.Ltmp578:
	.loc	3 1522 17                       @ ../../../../Source/queue.c:1522:17
	cbz	r0, .LBB22_39
	b	.LBB22_35
.LBB22_35:                              @   in Loop: Header=BB22_14 Depth=1
.Ltmp579:
	.loc	3 1525 43 is_stmt 1             @ ../../../../Source/queue.c:1525:43
	ldr	r0, [sp, #16]
	.loc	3 1525 52 is_stmt 0             @ ../../../../Source/queue.c:1525:52
	adds	r0, #36
	.loc	3 1525 78                       @ ../../../../Source/queue.c:1525:78
	ldr	r1, [sp, #32]
	.loc	3 1525 17                       @ ../../../../Source/queue.c:1525:17
	bl	vTaskPlaceOnEventList
	.loc	3 1526 33 is_stmt 1             @ ../../../../Source/queue.c:1526:33
	ldr	r0, [sp, #16]
	.loc	3 1526 17 is_stmt 0             @ ../../../../Source/queue.c:1526:17
	bl	prvUnlockQueue
.Ltmp580:
	.loc	3 1528 21 is_stmt 1             @ ../../../../Source/queue.c:1528:21
	bl	xTaskResumeAll
.Ltmp581:
	.loc	3 1528 21 is_stmt 0             @ ../../../../Source/queue.c:1528:21
	cbnz	r0, .LBB22_37
	b	.LBB22_36
.LBB22_36:                              @   in Loop: Header=BB22_14 Depth=1
.Ltmp582:
	.loc	3 1530 21 is_stmt 1             @ ../../../../Source/queue.c:1530:21
	bl	vPortYield
	.loc	3 1531 17                       @ ../../../../Source/queue.c:1531:17
	b	.LBB22_38
.Ltmp583:
.LBB22_37:                              @   in Loop: Header=BB22_14 Depth=1
	.loc	3 0 17 is_stmt 0                @ ../../../../Source/queue.c:0:17
	b	.LBB22_38
.LBB22_38:                              @   in Loop: Header=BB22_14 Depth=1
	.loc	3 1536 13 is_stmt 1             @ ../../../../Source/queue.c:1536:13
	b	.LBB22_40
.Ltmp584:
.LBB22_39:                              @   in Loop: Header=BB22_14 Depth=1
	.loc	3 1541 33                       @ ../../../../Source/queue.c:1541:33
	ldr	r0, [sp, #16]
	.loc	3 1541 17 is_stmt 0             @ ../../../../Source/queue.c:1541:17
	bl	prvUnlockQueue
	.loc	3 1542 26 is_stmt 1             @ ../../../../Source/queue.c:1542:26
	bl	xTaskResumeAll
	b	.LBB22_40
.Ltmp585:
.LBB22_40:                              @   in Loop: Header=BB22_14 Depth=1
	.loc	3 1544 9                        @ ../../../../Source/queue.c:1544:9
	b	.LBB22_45
.Ltmp586:
.LBB22_41:                              @   in Loop: Header=BB22_14 Depth=1
	.loc	3 1549 29                       @ ../../../../Source/queue.c:1549:29
	ldr	r0, [sp, #16]
	.loc	3 1549 13 is_stmt 0             @ ../../../../Source/queue.c:1549:13
	bl	prvUnlockQueue
	.loc	3 1550 22 is_stmt 1             @ ../../../../Source/queue.c:1550:22
	bl	xTaskResumeAll
.Ltmp587:
	.loc	3 1552 34                       @ ../../../../Source/queue.c:1552:34
	ldr	r0, [sp, #16]
	.loc	3 1552 17 is_stmt 0             @ ../../../../Source/queue.c:1552:17
	bl	prvIsQueueEmpty
.Ltmp588:
	.loc	3 1552 17                       @ ../../../../Source/queue.c:1552:17
	cbz	r0, .LBB22_43
	b	.LBB22_42
.LBB22_42:
	.loc	3 0 17                          @ ../../../../Source/queue.c:0:17
	movs	r0, #0
.Ltmp589:
	.loc	3 1555 17 is_stmt 1             @ ../../../../Source/queue.c:1555:17
	str	r0, [sp, #44]
	b	.LBB22_46
.Ltmp590:
.LBB22_43:                              @   in Loop: Header=BB22_14 Depth=1
	.loc	3 0 17 is_stmt 0                @ ../../../../Source/queue.c:0:17
	b	.LBB22_44
.LBB22_44:                              @   in Loop: Header=BB22_14 Depth=1
	b	.LBB22_45
.LBB22_45:                              @   in Loop: Header=BB22_14 Depth=1
	.loc	3 1448 5 is_stmt 1              @ ../../../../Source/queue.c:1448:5
	b	.LBB22_14
.Ltmp591:
.LBB22_46:
	.loc	3 1563 1                        @ ../../../../Source/queue.c:1563:1
	ldr	r0, [sp, #44]
	add	sp, #48
	pop	{r7, pc}
.Ltmp592:
.Lfunc_end22:
	.size	xQueueReceive, .Lfunc_end22-xQueueReceive
	.cfi_endproc
	.cantunwind
	.fnend
                                        @ -- End function
	.p2align	1                               @ -- Begin function prvCopyDataFromQueue
	.type	prvCopyDataFromQueue,%function
	.code	16                              @ @prvCopyDataFromQueue
	.thumb_func
prvCopyDataFromQueue:
.Lfunc_begin23:
	.loc	3 2311 0                        @ ../../../../Source/queue.c:2311:0
	.fnstart
	.cfi_startproc
@ %bb.0:
	.save	{r7, lr}
	push	{r7, lr}
	.cfi_def_cfa_offset 8
	.cfi_offset lr, -4
	.cfi_offset r7, -8
	.pad	#8
	sub	sp, #8
	.cfi_def_cfa_offset 16
	str	r0, [sp, #4]
	str	r1, [sp]
.Ltmp593:
	.loc	3 2312 9 prologue_end           @ ../../../../Source/queue.c:2312:9
	ldr	r0, [sp, #4]
	.loc	3 2312 18 is_stmt 0             @ ../../../../Source/queue.c:2312:18
	ldr	r0, [r0, #64]
.Ltmp594:
	.loc	3 2312 9                        @ ../../../../Source/queue.c:2312:9
	cbz	r0, .LBB23_5
	b	.LBB23_1
.LBB23_1:
.Ltmp595:
	.loc	3 2314 41 is_stmt 1             @ ../../../../Source/queue.c:2314:41
	ldr	r1, [sp, #4]
	.loc	3 2314 50 is_stmt 0             @ ../../../../Source/queue.c:2314:50
	ldr	r2, [r1, #64]
	.loc	3 2314 38                       @ ../../../../Source/queue.c:2314:38
	ldr	r0, [r1, #12]
	adds	r0, r0, r2
	str	r0, [r1, #12]
.Ltmp596:
	.loc	3 2316 13 is_stmt 1             @ ../../../../Source/queue.c:2316:13
	ldr	r1, [sp, #4]
	.loc	3 2316 31 is_stmt 0             @ ../../../../Source/queue.c:2316:31
	ldr	r0, [r1, #12]
	.loc	3 2316 63                       @ ../../../../Source/queue.c:2316:63
	ldr	r1, [r1, #8]
.Ltmp597:
	.loc	3 2316 13                       @ ../../../../Source/queue.c:2316:13
	cmp	r0, r1
	blo	.LBB23_3
	b	.LBB23_2
.LBB23_2:
.Ltmp598:
	.loc	3 2318 44 is_stmt 1             @ ../../../../Source/queue.c:2318:44
	ldr	r1, [sp, #4]
	.loc	3 2318 53 is_stmt 0             @ ../../../../Source/queue.c:2318:53
	ldr	r0, [r1]
	.loc	3 2318 42                       @ ../../../../Source/queue.c:2318:42
	str	r0, [r1, #12]
	.loc	3 2319 9 is_stmt 1              @ ../../../../Source/queue.c:2319:9
	b	.LBB23_4
.Ltmp599:
.LBB23_3:
	.loc	3 0 9 is_stmt 0                 @ ../../../../Source/queue.c:0:9
	b	.LBB23_4
.LBB23_4:
	.loc	3 2325 37 is_stmt 1             @ ../../../../Source/queue.c:2325:37
	ldr	r0, [sp]
	.loc	3 2325 58 is_stmt 0             @ ../../../../Source/queue.c:2325:58
	ldr	r2, [sp, #4]
	.loc	3 2325 76                       @ ../../../../Source/queue.c:2325:76
	ldr	r1, [r2, #12]
	.loc	3 2325 108                      @ ../../../../Source/queue.c:2325:108
	ldr	r2, [r2, #64]
	.loc	3 2325 18                       @ ../../../../Source/queue.c:2325:18
	bl	__aeabi_memcpy
	.loc	3 2326 5 is_stmt 1              @ ../../../../Source/queue.c:2326:5
	b	.LBB23_5
.Ltmp600:
.LBB23_5:
	.loc	3 2327 1                        @ ../../../../Source/queue.c:2327:1
	add	sp, #8
	pop	{r7, pc}
.Ltmp601:
.Lfunc_end23:
	.size	prvCopyDataFromQueue, .Lfunc_end23-prvCopyDataFromQueue
	.cfi_endproc
	.cantunwind
	.fnend
                                        @ -- End function
	.p2align	1                               @ -- Begin function prvIsQueueEmpty
	.type	prvIsQueueEmpty,%function
	.code	16                              @ @prvIsQueueEmpty
	.thumb_func
prvIsQueueEmpty:
.Lfunc_begin24:
	.loc	3 2451 0                        @ ../../../../Source/queue.c:2451:0
	.fnstart
	.cfi_startproc
@ %bb.0:
	.save	{r7, lr}
	push	{r7, lr}
	.cfi_def_cfa_offset 8
	.cfi_offset lr, -4
	.cfi_offset r7, -8
	.pad	#8
	sub	sp, #8
	.cfi_def_cfa_offset 16
	str	r0, [sp, #4]
.Ltmp602:
	.loc	3 2454 5 prologue_end           @ ../../../../Source/queue.c:2454:5
	bl	vPortEnterCritical
.Ltmp603:
	.loc	3 2456 13                       @ ../../../../Source/queue.c:2456:13
	ldr	r0, [sp, #4]
	.loc	3 2456 22 is_stmt 0             @ ../../../../Source/queue.c:2456:22
	ldr	r0, [r0, #56]
.Ltmp604:
	.loc	3 2456 13                       @ ../../../../Source/queue.c:2456:13
	cbnz	r0, .LBB24_2
	b	.LBB24_1
.LBB24_1:
	.loc	3 0 13                          @ ../../../../Source/queue.c:0:13
	movs	r0, #1
.Ltmp605:
	.loc	3 2458 21 is_stmt 1             @ ../../../../Source/queue.c:2458:21
	str	r0, [sp]
	.loc	3 2459 9                        @ ../../../../Source/queue.c:2459:9
	b	.LBB24_3
.Ltmp606:
.LBB24_2:
	.loc	3 0 9 is_stmt 0                 @ ../../../../Source/queue.c:0:9
	movs	r0, #0
.Ltmp607:
	.loc	3 2462 21 is_stmt 1             @ ../../../../Source/queue.c:2462:21
	str	r0, [sp]
	b	.LBB24_3
.Ltmp608:
.LBB24_3:
	.loc	3 2465 5                        @ ../../../../Source/queue.c:2465:5
	bl	vPortExitCritical
	.loc	3 2467 12                       @ ../../../../Source/queue.c:2467:12
	ldr	r0, [sp]
	.loc	3 2467 5 is_stmt 0              @ ../../../../Source/queue.c:2467:5
	add	sp, #8
	pop	{r7, pc}
.Ltmp609:
.Lfunc_end24:
	.size	prvIsQueueEmpty, .Lfunc_end24-prvIsQueueEmpty
	.cfi_endproc
	.cantunwind
	.fnend
                                        @ -- End function
	.p2align	1                               @ -- Begin function prvGetDisinheritPriorityAfterTimeout
	.type	prvGetDisinheritPriorityAfterTimeout,%function
	.code	16                              @ @prvGetDisinheritPriorityAfterTimeout
	.thumb_func
prvGetDisinheritPriorityAfterTimeout:
.Lfunc_begin25:
	.loc	3 2202 0 is_stmt 1              @ ../../../../Source/queue.c:2202:0
	.fnstart
	.cfi_startproc
@ %bb.0:
	.pad	#8
	sub	sp, #8
	.cfi_def_cfa_offset 8
	str	r0, [sp, #4]
.Ltmp610:
	.loc	3 2211 13 prologue_end          @ ../../../../Source/queue.c:2211:13
	ldr	r0, [sp, #4]
	ldr	r0, [r0, #36]
.Ltmp611:
	.loc	3 2211 13 is_stmt 0             @ ../../../../Source/queue.c:2211:13
	cbz	r0, .LBB25_2
	b	.LBB25_1
.LBB25_1:
.Ltmp612:
	.loc	3 2213 102 is_stmt 1            @ ../../../../Source/queue.c:2213:102
	ldr	r0, [sp, #4]
	ldr	r0, [r0, #48]
	ldr	r1, [r0]
	movs	r0, #5
	.loc	3 2213 84 is_stmt 0             @ ../../../../Source/queue.c:2213:84
	subs	r0, r0, r1
	.loc	3 2213 45                       @ ../../../../Source/queue.c:2213:45
	str	r0, [sp]
	.loc	3 2214 9 is_stmt 1              @ ../../../../Source/queue.c:2214:9
	b	.LBB25_3
.Ltmp613:
.LBB25_2:
	.loc	3 0 9 is_stmt 0                 @ ../../../../Source/queue.c:0:9
	movs	r0, #0
.Ltmp614:
	.loc	3 2217 45 is_stmt 1             @ ../../../../Source/queue.c:2217:45
	str	r0, [sp]
	b	.LBB25_3
.Ltmp615:
.LBB25_3:
	.loc	3 2220 16                       @ ../../../../Source/queue.c:2220:16
	ldr	r0, [sp]
	.loc	3 2220 9 is_stmt 0              @ ../../../../Source/queue.c:2220:9
	add	sp, #8
	bx	lr
.Ltmp616:
.Lfunc_end25:
	.size	prvGetDisinheritPriorityAfterTimeout, .Lfunc_end25-prvGetDisinheritPriorityAfterTimeout
	.cfi_endproc
	.cantunwind
	.fnend
                                        @ -- End function
	.hidden	xQueuePeek                      @ -- Begin function xQueuePeek
	.globl	xQueuePeek
	.p2align	1
	.type	xQueuePeek,%function
	.code	16                              @ @xQueuePeek
	.thumb_func
xQueuePeek:
.Lfunc_begin26:
	.loc	3 1779 0 is_stmt 1              @ ../../../../Source/queue.c:1779:0
	.fnstart
	.cfi_startproc
@ %bb.0:
	.save	{r7, lr}
	push	{r7, lr}
	.cfi_def_cfa_offset 8
	.cfi_offset lr, -4
	.cfi_offset r7, -8
	.pad	#48
	sub	sp, #48
	.cfi_def_cfa_offset 56
	str	r0, [sp, #40]
	str	r1, [sp, #36]
	str	r2, [sp, #32]
	movs	r0, #0
.Ltmp617:
	.loc	3 1780 16 prologue_end          @ ../../../../Source/queue.c:1780:16
	str	r0, [sp, #28]
	.loc	3 1783 31                       @ ../../../../Source/queue.c:1783:31
	ldr	r0, [sp, #40]
	.loc	3 1783 21 is_stmt 0             @ ../../../../Source/queue.c:1783:21
	str	r0, [sp, #12]
.Ltmp618:
	.loc	3 1786 5 is_stmt 1              @ ../../../../Source/queue.c:1786:5
	ldr	r0, [sp, #12]
.Ltmp619:
	.loc	3 1786 5 is_stmt 0              @ ../../../../Source/queue.c:1786:5
	cbnz	r0, .LBB26_3
	b	.LBB26_1
.LBB26_1:
.Ltmp620:
	.loc	3 1786 5                        @ ../../../../Source/queue.c:1786:5
	@APP
	cpsid i
	@NO_APP
	b	.LBB26_2
.LBB26_2:                               @ =>This Inner Loop Header: Depth=1
.Ltmp621:
	.loc	3 1786 5                        @ ../../../../Source/queue.c:1786:5
	b	.LBB26_2
.Ltmp622:
.LBB26_3:
	.loc	3 1790 5 is_stmt 1              @ ../../../../Source/queue.c:1790:5
	ldr	r1, [sp, #36]
	movs	r0, #0
	str	r0, [sp, #4]                    @ 4-byte Spill
	cbnz	r1, .LBB26_5
	b	.LBB26_4
.LBB26_4:
	ldr	r0, [sp, #12]
	ldr	r0, [r0, #64]
	subs	r1, r0, #1
	sbcs	r0, r1
	str	r0, [sp, #4]                    @ 4-byte Spill
	b	.LBB26_5
.LBB26_5:
	.loc	3 0 0 is_stmt 0                 @ ../../../../Source/queue.c:0:0
	ldr	r0, [sp, #4]                    @ 4-byte Reload
.Ltmp623:
	.loc	3 1790 5                        @ ../../../../Source/queue.c:1790:5
	lsls	r0, r0, #31
	cbz	r0, .LBB26_8
	b	.LBB26_6
.LBB26_6:
.Ltmp624:
	.loc	3 1790 5                        @ ../../../../Source/queue.c:1790:5
	@APP
	cpsid i
	@NO_APP
	b	.LBB26_7
.LBB26_7:                               @ =>This Inner Loop Header: Depth=1
.Ltmp625:
	.loc	3 1790 5                        @ ../../../../Source/queue.c:1790:5
	b	.LBB26_7
.Ltmp626:
.LBB26_8:
	.loc	3 1795 9 is_stmt 1              @ ../../../../Source/queue.c:1795:9
	bl	xTaskGetSchedulerState
	mov	r1, r0
	movs	r0, #0
	str	r0, [sp]                        @ 4-byte Spill
	cbnz	r1, .LBB26_10
	b	.LBB26_9
.LBB26_9:
	ldr	r0, [sp, #32]
	subs	r1, r0, #1
	sbcs	r0, r1
	str	r0, [sp]                        @ 4-byte Spill
	b	.LBB26_10
.LBB26_10:
	.loc	3 0 0 is_stmt 0                 @ ../../../../Source/queue.c:0:0
	ldr	r0, [sp]                        @ 4-byte Reload
.Ltmp627:
	.loc	3 1795 9                        @ ../../../../Source/queue.c:1795:9
	lsls	r0, r0, #31
	cbz	r0, .LBB26_13
	b	.LBB26_11
.LBB26_11:
.Ltmp628:
	.loc	3 1795 9                        @ ../../../../Source/queue.c:1795:9
	@APP
	cpsid i
	@NO_APP
	b	.LBB26_12
.LBB26_12:                              @ =>This Inner Loop Header: Depth=1
.Ltmp629:
	.loc	3 1795 9                        @ ../../../../Source/queue.c:1795:9
	b	.LBB26_12
.Ltmp630:
.LBB26_13:
	.loc	3 1802 5 is_stmt 1              @ ../../../../Source/queue.c:1802:5
	b	.LBB26_14
.LBB26_14:                              @ =>This Inner Loop Header: Depth=1
.Ltmp631:
	.loc	3 1804 9                        @ ../../../../Source/queue.c:1804:9
	bl	vPortEnterCritical
.Ltmp632:
	.loc	3 1806 51                       @ ../../../../Source/queue.c:1806:51
	ldr	r0, [sp, #12]
	.loc	3 1806 60 is_stmt 0             @ ../../../../Source/queue.c:1806:60
	ldr	r0, [r0, #56]
	.loc	3 1806 31                       @ ../../../../Source/queue.c:1806:31
	str	r0, [sp, #8]
.Ltmp633:
	.loc	3 1810 17 is_stmt 1             @ ../../../../Source/queue.c:1810:17
	ldr	r0, [sp, #8]
.Ltmp634:
	.loc	3 1810 17 is_stmt 0             @ ../../../../Source/queue.c:1810:17
	cbz	r0, .LBB26_22
	b	.LBB26_15
.LBB26_15:
.Ltmp635:
	.loc	3 1815 42 is_stmt 1             @ ../../../../Source/queue.c:1815:42
	ldr	r0, [sp, #12]
	.loc	3 1815 60 is_stmt 0             @ ../../../../Source/queue.c:1815:60
	ldr	r0, [r0, #12]
	.loc	3 1815 40                       @ ../../../../Source/queue.c:1815:40
	str	r0, [sp, #16]
	.loc	3 1817 39 is_stmt 1             @ ../../../../Source/queue.c:1817:39
	ldr	r0, [sp, #12]
	.loc	3 1817 48 is_stmt 0             @ ../../../../Source/queue.c:1817:48
	ldr	r1, [sp, #36]
	.loc	3 1817 17                       @ ../../../../Source/queue.c:1817:17
	bl	prvCopyDataFromQueue
	.loc	3 1821 48 is_stmt 1             @ ../../../../Source/queue.c:1821:48
	ldr	r0, [sp, #16]
	.loc	3 1821 17 is_stmt 0             @ ../../../../Source/queue.c:1821:17
	ldr	r1, [sp, #12]
	.loc	3 1821 46                       @ ../../../../Source/queue.c:1821:46
	str	r0, [r1, #12]
.Ltmp636:
	.loc	3 1825 21 is_stmt 1             @ ../../../../Source/queue.c:1825:21
	ldr	r0, [sp, #12]
	ldr	r0, [r0, #36]
.Ltmp637:
	.loc	3 1825 21 is_stmt 0             @ ../../../../Source/queue.c:1825:21
	cbz	r0, .LBB26_20
	b	.LBB26_16
.LBB26_16:
.Ltmp638:
	.loc	3 1827 54 is_stmt 1             @ ../../../../Source/queue.c:1827:54
	ldr	r0, [sp, #12]
	.loc	3 1827 63 is_stmt 0             @ ../../../../Source/queue.c:1827:63
	adds	r0, #36
	.loc	3 1827 25                       @ ../../../../Source/queue.c:1827:25
	bl	xTaskRemoveFromEventList
.Ltmp639:
	.loc	3 1827 25                       @ ../../../../Source/queue.c:1827:25
	cbz	r0, .LBB26_18
	b	.LBB26_17
.LBB26_17:
.Ltmp640:
	.loc	3 1830 25 is_stmt 1             @ ../../../../Source/queue.c:1830:25
	bl	vPortYield
	.loc	3 1831 21                       @ ../../../../Source/queue.c:1831:21
	b	.LBB26_19
.Ltmp641:
.LBB26_18:
	.loc	3 0 21 is_stmt 0                @ ../../../../Source/queue.c:0:21
	b	.LBB26_19
.LBB26_19:
	.loc	3 1836 17 is_stmt 1             @ ../../../../Source/queue.c:1836:17
	b	.LBB26_21
.Ltmp642:
.LBB26_20:
	.loc	3 0 17 is_stmt 0                @ ../../../../Source/queue.c:0:17
	b	.LBB26_21
.LBB26_21:
	.loc	3 1842 17 is_stmt 1             @ ../../../../Source/queue.c:1842:17
	bl	vPortExitCritical
	movs	r0, #1
	.loc	3 1843 17                       @ ../../../../Source/queue.c:1843:17
	str	r0, [sp, #44]
	b	.LBB26_46
.Ltmp643:
.LBB26_22:                              @   in Loop: Header=BB26_14 Depth=1
	.loc	3 1847 21                       @ ../../../../Source/queue.c:1847:21
	ldr	r0, [sp, #32]
.Ltmp644:
	.loc	3 1847 21 is_stmt 0             @ ../../../../Source/queue.c:1847:21
	cbnz	r0, .LBB26_24
	b	.LBB26_23
.LBB26_23:
.Ltmp645:
	.loc	3 1851 21 is_stmt 1             @ ../../../../Source/queue.c:1851:21
	bl	vPortExitCritical
	movs	r0, #0
	.loc	3 1853 21                       @ ../../../../Source/queue.c:1853:21
	str	r0, [sp, #44]
	b	.LBB26_46
.Ltmp646:
.LBB26_24:                              @   in Loop: Header=BB26_14 Depth=1
	.loc	3 1855 26                       @ ../../../../Source/queue.c:1855:26
	ldr	r0, [sp, #28]
.Ltmp647:
	.loc	3 1855 26 is_stmt 0             @ ../../../../Source/queue.c:1855:26
	cbnz	r0, .LBB26_26
	b	.LBB26_25
.LBB26_25:                              @   in Loop: Header=BB26_14 Depth=1
	.loc	3 0 26                          @ ../../../../Source/queue.c:0:26
	add	r0, sp, #20
.Ltmp648:
	.loc	3 1860 21 is_stmt 1             @ ../../../../Source/queue.c:1860:21
	bl	vTaskInternalSetTimeOutState
	movs	r0, #1
	.loc	3 1861 35                       @ ../../../../Source/queue.c:1861:35
	str	r0, [sp, #28]
	.loc	3 1862 17                       @ ../../../../Source/queue.c:1862:17
	b	.LBB26_27
.Ltmp649:
.LBB26_26:                              @   in Loop: Header=BB26_14 Depth=1
	.loc	3 0 17 is_stmt 0                @ ../../../../Source/queue.c:0:17
	b	.LBB26_27
.LBB26_27:                              @   in Loop: Header=BB26_14 Depth=1
	b	.LBB26_28
.LBB26_28:                              @   in Loop: Header=BB26_14 Depth=1
	b	.LBB26_29
.LBB26_29:                              @   in Loop: Header=BB26_14 Depth=1
	.loc	3 1870 9 is_stmt 1              @ ../../../../Source/queue.c:1870:9
	bl	vPortExitCritical
	.loc	3 1875 9                        @ ../../../../Source/queue.c:1875:9
	bl	vTaskSuspendAll
	.loc	3 1876 9                        @ ../../../../Source/queue.c:1876:9
	bl	vPortEnterCritical
.Ltmp650:
	.loc	3 1876 9 is_stmt 0              @ ../../../../Source/queue.c:1876:9
	ldr	r0, [sp, #12]
	movs	r1, #68
	ldrsb	r0, [r0, r1]
.Ltmp651:
	.loc	3 1876 9                        @ ../../../../Source/queue.c:1876:9
	adds	r0, r0, #1
	cbnz	r0, .LBB26_31
	b	.LBB26_30
.LBB26_30:                              @   in Loop: Header=BB26_14 Depth=1
.Ltmp652:
	.loc	3 1876 9                        @ ../../../../Source/queue.c:1876:9
	ldr	r1, [sp, #12]
	movs	r2, #68
	movs	r0, #0
	strb	r0, [r1, r2]
	b	.LBB26_31
.Ltmp653:
.LBB26_31:                              @   in Loop: Header=BB26_14 Depth=1
	.loc	3 1876 9                        @ ../../../../Source/queue.c:1876:9
	ldr	r0, [sp, #12]
	movs	r1, #69
	ldrsb	r0, [r0, r1]
.Ltmp654:
	.loc	3 1876 9                        @ ../../../../Source/queue.c:1876:9
	adds	r0, r0, #1
	cbnz	r0, .LBB26_33
	b	.LBB26_32
.LBB26_32:                              @   in Loop: Header=BB26_14 Depth=1
.Ltmp655:
	.loc	3 1876 9                        @ ../../../../Source/queue.c:1876:9
	ldr	r1, [sp, #12]
	movs	r2, #69
	movs	r0, #0
	strb	r0, [r1, r2]
	b	.LBB26_33
.Ltmp656:
.LBB26_33:                              @   in Loop: Header=BB26_14 Depth=1
	.loc	3 1876 9                        @ ../../../../Source/queue.c:1876:9
	bl	vPortExitCritical
	add	r0, sp, #20
	add	r1, sp, #32
.Ltmp657:
	.loc	3 1879 13 is_stmt 1             @ ../../../../Source/queue.c:1879:13
	bl	xTaskCheckForTimeOut
.Ltmp658:
	.loc	3 1879 13 is_stmt 0             @ ../../../../Source/queue.c:1879:13
	cbnz	r0, .LBB26_41
	b	.LBB26_34
.LBB26_34:                              @   in Loop: Header=BB26_14 Depth=1
.Ltmp659:
	.loc	3 1883 34 is_stmt 1             @ ../../../../Source/queue.c:1883:34
	ldr	r0, [sp, #12]
	.loc	3 1883 17 is_stmt 0             @ ../../../../Source/queue.c:1883:17
	bl	prvIsQueueEmpty
.Ltmp660:
	.loc	3 1883 17                       @ ../../../../Source/queue.c:1883:17
	cbz	r0, .LBB26_39
	b	.LBB26_35
.LBB26_35:                              @   in Loop: Header=BB26_14 Depth=1
.Ltmp661:
	.loc	3 1886 43 is_stmt 1             @ ../../../../Source/queue.c:1886:43
	ldr	r0, [sp, #12]
	.loc	3 1886 52 is_stmt 0             @ ../../../../Source/queue.c:1886:52
	adds	r0, #36
	.loc	3 1886 78                       @ ../../../../Source/queue.c:1886:78
	ldr	r1, [sp, #32]
	.loc	3 1886 17                       @ ../../../../Source/queue.c:1886:17
	bl	vTaskPlaceOnEventList
	.loc	3 1887 33 is_stmt 1             @ ../../../../Source/queue.c:1887:33
	ldr	r0, [sp, #12]
	.loc	3 1887 17 is_stmt 0             @ ../../../../Source/queue.c:1887:17
	bl	prvUnlockQueue
.Ltmp662:
	.loc	3 1889 21 is_stmt 1             @ ../../../../Source/queue.c:1889:21
	bl	xTaskResumeAll
.Ltmp663:
	.loc	3 1889 21 is_stmt 0             @ ../../../../Source/queue.c:1889:21
	cbnz	r0, .LBB26_37
	b	.LBB26_36
.LBB26_36:                              @   in Loop: Header=BB26_14 Depth=1
.Ltmp664:
	.loc	3 1891 21 is_stmt 1             @ ../../../../Source/queue.c:1891:21
	bl	vPortYield
	.loc	3 1892 17                       @ ../../../../Source/queue.c:1892:17
	b	.LBB26_38
.Ltmp665:
.LBB26_37:                              @   in Loop: Header=BB26_14 Depth=1
	.loc	3 0 17 is_stmt 0                @ ../../../../Source/queue.c:0:17
	b	.LBB26_38
.LBB26_38:                              @   in Loop: Header=BB26_14 Depth=1
	.loc	3 1897 13 is_stmt 1             @ ../../../../Source/queue.c:1897:13
	b	.LBB26_40
.Ltmp666:
.LBB26_39:                              @   in Loop: Header=BB26_14 Depth=1
	.loc	3 1902 33                       @ ../../../../Source/queue.c:1902:33
	ldr	r0, [sp, #12]
	.loc	3 1902 17 is_stmt 0             @ ../../../../Source/queue.c:1902:17
	bl	prvUnlockQueue
	.loc	3 1903 26 is_stmt 1             @ ../../../../Source/queue.c:1903:26
	bl	xTaskResumeAll
	b	.LBB26_40
.Ltmp667:
.LBB26_40:                              @   in Loop: Header=BB26_14 Depth=1
	.loc	3 1905 9                        @ ../../../../Source/queue.c:1905:9
	b	.LBB26_45
.Ltmp668:
.LBB26_41:                              @   in Loop: Header=BB26_14 Depth=1
	.loc	3 1910 29                       @ ../../../../Source/queue.c:1910:29
	ldr	r0, [sp, #12]
	.loc	3 1910 13 is_stmt 0             @ ../../../../Source/queue.c:1910:13
	bl	prvUnlockQueue
	.loc	3 1911 22 is_stmt 1             @ ../../../../Source/queue.c:1911:22
	bl	xTaskResumeAll
.Ltmp669:
	.loc	3 1913 34                       @ ../../../../Source/queue.c:1913:34
	ldr	r0, [sp, #12]
	.loc	3 1913 17 is_stmt 0             @ ../../../../Source/queue.c:1913:17
	bl	prvIsQueueEmpty
.Ltmp670:
	.loc	3 1913 17                       @ ../../../../Source/queue.c:1913:17
	cbz	r0, .LBB26_43
	b	.LBB26_42
.LBB26_42:
	.loc	3 0 17                          @ ../../../../Source/queue.c:0:17
	movs	r0, #0
.Ltmp671:
	.loc	3 1916 17 is_stmt 1             @ ../../../../Source/queue.c:1916:17
	str	r0, [sp, #44]
	b	.LBB26_46
.Ltmp672:
.LBB26_43:                              @   in Loop: Header=BB26_14 Depth=1
	.loc	3 0 17 is_stmt 0                @ ../../../../Source/queue.c:0:17
	b	.LBB26_44
.LBB26_44:                              @   in Loop: Header=BB26_14 Depth=1
	b	.LBB26_45
.LBB26_45:                              @   in Loop: Header=BB26_14 Depth=1
	.loc	3 1802 5 is_stmt 1              @ ../../../../Source/queue.c:1802:5
	b	.LBB26_14
.Ltmp673:
.LBB26_46:
	.loc	3 1924 1                        @ ../../../../Source/queue.c:1924:1
	ldr	r0, [sp, #44]
	add	sp, #48
	pop	{r7, pc}
.Ltmp674:
.Lfunc_end26:
	.size	xQueuePeek, .Lfunc_end26-xQueuePeek
	.cfi_endproc
	.cantunwind
	.fnend
                                        @ -- End function
	.hidden	xQueueReceiveFromISR            @ -- Begin function xQueueReceiveFromISR
	.globl	xQueueReceiveFromISR
	.p2align	1
	.type	xQueueReceiveFromISR,%function
	.code	16                              @ @xQueueReceiveFromISR
	.thumb_func
xQueueReceiveFromISR:
.Lfunc_begin27:
	.loc	3 1930 0                        @ ../../../../Source/queue.c:1930:0
	.fnstart
	.cfi_startproc
@ %bb.0:
	.save	{r7, lr}
	push	{r7, lr}
	.cfi_def_cfa_offset 8
	.cfi_offset lr, -4
	.cfi_offset r7, -8
	.pad	#48
	sub	sp, #48
	.cfi_def_cfa_offset 56
	str	r0, [sp, #44]
	str	r1, [sp, #40]
	str	r2, [sp, #36]
.Ltmp675:
	.loc	3 1933 31 prologue_end          @ ../../../../Source/queue.c:1933:31
	ldr	r0, [sp, #44]
	.loc	3 1933 21 is_stmt 0             @ ../../../../Source/queue.c:1933:21
	str	r0, [sp, #24]
.Ltmp676:
	.loc	3 1935 5 is_stmt 1              @ ../../../../Source/queue.c:1935:5
	ldr	r0, [sp, #24]
.Ltmp677:
	.loc	3 1935 5 is_stmt 0              @ ../../../../Source/queue.c:1935:5
	cbnz	r0, .LBB27_3
	b	.LBB27_1
.LBB27_1:
.Ltmp678:
	.loc	3 1935 5                        @ ../../../../Source/queue.c:1935:5
	@APP
	cpsid i
	@NO_APP
	b	.LBB27_2
.LBB27_2:                               @ =>This Inner Loop Header: Depth=1
.Ltmp679:
	.loc	3 1935 5                        @ ../../../../Source/queue.c:1935:5
	b	.LBB27_2
.Ltmp680:
.LBB27_3:
	.loc	3 1936 5 is_stmt 1              @ ../../../../Source/queue.c:1936:5
	ldr	r1, [sp, #40]
	movs	r0, #0
	str	r0, [sp, #8]                    @ 4-byte Spill
	cbnz	r1, .LBB27_5
	b	.LBB27_4
.LBB27_4:
	ldr	r0, [sp, #24]
	ldr	r0, [r0, #64]
	subs	r1, r0, #1
	sbcs	r0, r1
	str	r0, [sp, #8]                    @ 4-byte Spill
	b	.LBB27_5
.LBB27_5:
	.loc	3 0 0 is_stmt 0                 @ ../../../../Source/queue.c:0:0
	ldr	r0, [sp, #8]                    @ 4-byte Reload
.Ltmp681:
	.loc	3 1936 5                        @ ../../../../Source/queue.c:1936:5
	lsls	r0, r0, #31
	cbz	r0, .LBB27_8
	b	.LBB27_6
.LBB27_6:
.Ltmp682:
	.loc	3 1936 5                        @ ../../../../Source/queue.c:1936:5
	@APP
	cpsid i
	@NO_APP
	b	.LBB27_7
.LBB27_7:                               @ =>This Inner Loop Header: Depth=1
.Ltmp683:
	.loc	3 1936 5                        @ ../../../../Source/queue.c:1936:5
	b	.LBB27_7
.Ltmp684:
.LBB27_8:
	.loc	3 1954 29 is_stmt 1             @ ../../../../Source/queue.c:1954:29
	bl	ulSetInterruptMask
	.loc	3 1954 27 is_stmt 0             @ ../../../../Source/queue.c:1954:27
	str	r0, [sp, #28]
.Ltmp685:
	.loc	3 1956 47 is_stmt 1             @ ../../../../Source/queue.c:1956:47
	ldr	r0, [sp, #24]
	.loc	3 1956 56 is_stmt 0             @ ../../../../Source/queue.c:1956:56
	ldr	r0, [r0, #56]
	.loc	3 1956 27                       @ ../../../../Source/queue.c:1956:27
	str	r0, [sp, #20]
.Ltmp686:
	.loc	3 1959 13 is_stmt 1             @ ../../../../Source/queue.c:1959:13
	ldr	r0, [sp, #20]
.Ltmp687:
	.loc	3 1959 13 is_stmt 0             @ ../../../../Source/queue.c:1959:13
	cmp	r0, #0
	beq	.LBB27_29
	b	.LBB27_9
.LBB27_9:
.Ltmp688:
	.loc	3 1961 36 is_stmt 1             @ ../../../../Source/queue.c:1961:36
	ldr	r0, [sp, #24]
	movs	r1, #68
	.loc	3 1961 45 is_stmt 0             @ ../../../../Source/queue.c:1961:45
	ldrb	r0, [r0, r1]
	add	r1, sp, #16
	.loc	3 1961 26                       @ ../../../../Source/queue.c:1961:26
	str	r1, [sp, #4]                    @ 4-byte Spill
	strb	r0, [r1]
	.loc	3 1965 35 is_stmt 1             @ ../../../../Source/queue.c:1965:35
	ldr	r0, [sp, #24]
	.loc	3 1965 44 is_stmt 0             @ ../../../../Source/queue.c:1965:44
	ldr	r1, [sp, #40]
	.loc	3 1965 13                       @ ../../../../Source/queue.c:1965:13
	bl	prvCopyDataFromQueue
	ldr	r0, [sp, #4]                    @ 4-byte Reload
	.loc	3 1966 42 is_stmt 1             @ ../../../../Source/queue.c:1966:42
	ldr	r1, [sp, #20]
	.loc	3 1966 60 is_stmt 0             @ ../../../../Source/queue.c:1966:60
	subs	r1, r1, #1
	.loc	3 1966 13                       @ ../../../../Source/queue.c:1966:13
	ldr	r2, [sp, #24]
	.loc	3 1966 40                       @ ../../../../Source/queue.c:1966:40
	str	r1, [r2, #56]
.Ltmp689:
	.loc	3 1972 17 is_stmt 1             @ ../../../../Source/queue.c:1972:17
	movs	r1, #0
	ldrsb	r0, [r0, r1]
.Ltmp690:
	.loc	3 1972 17 is_stmt 0             @ ../../../../Source/queue.c:1972:17
	adds	r0, r0, #1
	cbnz	r0, .LBB27_20
	b	.LBB27_10
.LBB27_10:
.Ltmp691:
	.loc	3 1974 21 is_stmt 1             @ ../../../../Source/queue.c:1974:21
	ldr	r0, [sp, #24]
	ldr	r0, [r0, #16]
.Ltmp692:
	.loc	3 1974 21 is_stmt 0             @ ../../../../Source/queue.c:1974:21
	cbz	r0, .LBB27_18
	b	.LBB27_11
.LBB27_11:
.Ltmp693:
	.loc	3 1976 54 is_stmt 1             @ ../../../../Source/queue.c:1976:54
	ldr	r0, [sp, #24]
	.loc	3 1976 63 is_stmt 0             @ ../../../../Source/queue.c:1976:63
	adds	r0, #16
	.loc	3 1976 25                       @ ../../../../Source/queue.c:1976:25
	bl	xTaskRemoveFromEventList
.Ltmp694:
	.loc	3 1976 25                       @ ../../../../Source/queue.c:1976:25
	cbz	r0, .LBB27_16
	b	.LBB27_12
.LBB27_12:
.Ltmp695:
	.loc	3 1980 29 is_stmt 1             @ ../../../../Source/queue.c:1980:29
	ldr	r0, [sp, #36]
.Ltmp696:
	.loc	3 1980 29 is_stmt 0             @ ../../../../Source/queue.c:1980:29
	cbz	r0, .LBB27_14
	b	.LBB27_13
.LBB27_13:
.Ltmp697:
	.loc	3 1982 30 is_stmt 1             @ ../../../../Source/queue.c:1982:30
	ldr	r1, [sp, #36]
	movs	r0, #1
	.loc	3 1982 56 is_stmt 0             @ ../../../../Source/queue.c:1982:56
	str	r0, [r1]
	.loc	3 1983 25 is_stmt 1             @ ../../../../Source/queue.c:1983:25
	b	.LBB27_15
.Ltmp698:
.LBB27_14:
	.loc	3 0 25 is_stmt 0                @ ../../../../Source/queue.c:0:25
	b	.LBB27_15
.LBB27_15:
	.loc	3 1988 21 is_stmt 1             @ ../../../../Source/queue.c:1988:21
	b	.LBB27_17
.Ltmp699:
.LBB27_16:
	.loc	3 0 21 is_stmt 0                @ ../../../../Source/queue.c:0:21
	b	.LBB27_17
.LBB27_17:
	.loc	3 1993 17 is_stmt 1             @ ../../../../Source/queue.c:1993:17
	b	.LBB27_19
.Ltmp700:
.LBB27_18:
	.loc	3 0 17 is_stmt 0                @ ../../../../Source/queue.c:0:17
	b	.LBB27_19
.LBB27_19:
	.loc	3 1998 13 is_stmt 1             @ ../../../../Source/queue.c:1998:13
	b	.LBB27_28
.Ltmp701:
.LBB27_20:
	.loc	3 2003 17                       @ ../../../../Source/queue.c:2003:17
	b	.LBB27_21
.LBB27_21:
.Ltmp702:
	.loc	3 2003 17 is_stmt 0             @ ../../../../Source/queue.c:2003:17
	bl	uxTaskGetNumberOfTasks
	str	r0, [sp, #12]
.Ltmp703:
	.loc	3 2003 17                       @ ../../../../Source/queue.c:2003:17
	movs	r1, #0
	add	r0, sp, #16
	ldrsb	r0, [r0, r1]
	ldr	r1, [sp, #12]
.Ltmp704:
	.loc	3 2003 17                       @ ../../../../Source/queue.c:2003:17
	cmp	r0, r1
	bhs	.LBB27_26
	b	.LBB27_22
.LBB27_22:
.Ltmp705:
	.loc	3 2003 17                       @ ../../../../Source/queue.c:2003:17
	movs	r1, #0
	add	r0, sp, #16
	ldrsb	r0, [r0, r1]
.Ltmp706:
	.loc	3 2003 17                       @ ../../../../Source/queue.c:2003:17
	cmp	r0, #127
	bne	.LBB27_25
	b	.LBB27_23
.LBB27_23:
.Ltmp707:
	.loc	3 2003 17                       @ ../../../../Source/queue.c:2003:17
	@APP
	cpsid i
	@NO_APP
	b	.LBB27_24
.LBB27_24:                              @ =>This Inner Loop Header: Depth=1
.Ltmp708:
	.loc	3 2003 17                       @ ../../../../Source/queue.c:2003:17
	b	.LBB27_24
.Ltmp709:
.LBB27_25:
	.loc	3 2003 17                       @ ../../../../Source/queue.c:2003:17
	ldr	r0, [sp, #16]
	adds	r0, r0, #1
	ldr	r1, [sp, #24]
	movs	r2, #68
	strb	r0, [r1, r2]
	b	.LBB27_26
.Ltmp710:
.LBB27_26:
	.loc	3 2003 17                       @ ../../../../Source/queue.c:2003:17
	b	.LBB27_27
.Ltmp711:
.LBB27_27:
	.loc	3 0 17                          @ ../../../../Source/queue.c:0:17
	b	.LBB27_28
.LBB27_28:
	movs	r0, #1
	.loc	3 2006 21 is_stmt 1             @ ../../../../Source/queue.c:2006:21
	str	r0, [sp, #32]
	.loc	3 2007 9                        @ ../../../../Source/queue.c:2007:9
	b	.LBB27_30
.Ltmp712:
.LBB27_29:
	.loc	3 0 9 is_stmt 0                 @ ../../../../Source/queue.c:0:9
	movs	r0, #0
.Ltmp713:
	.loc	3 2010 21 is_stmt 1             @ ../../../../Source/queue.c:2010:21
	str	r0, [sp, #32]
	b	.LBB27_30
.Ltmp714:
.LBB27_30:
	.loc	3 2014 5                        @ ../../../../Source/queue.c:2014:5
	ldr	r0, [sp, #28]
	bl	vClearInterruptMask
	.loc	3 2016 12                       @ ../../../../Source/queue.c:2016:12
	ldr	r0, [sp, #32]
	.loc	3 2016 5 is_stmt 0              @ ../../../../Source/queue.c:2016:5
	add	sp, #48
	pop	{r7, pc}
.Ltmp715:
.Lfunc_end27:
	.size	xQueueReceiveFromISR, .Lfunc_end27-xQueueReceiveFromISR
	.cfi_endproc
	.cantunwind
	.fnend
                                        @ -- End function
	.hidden	xQueuePeekFromISR               @ -- Begin function xQueuePeekFromISR
	.globl	xQueuePeekFromISR
	.p2align	1
	.type	xQueuePeekFromISR,%function
	.code	16                              @ @xQueuePeekFromISR
	.thumb_func
xQueuePeekFromISR:
.Lfunc_begin28:
	.loc	3 2022 0 is_stmt 1              @ ../../../../Source/queue.c:2022:0
	.fnstart
	.cfi_startproc
@ %bb.0:
	.save	{r7, lr}
	push	{r7, lr}
	.cfi_def_cfa_offset 8
	.cfi_offset lr, -4
	.cfi_offset r7, -8
	.pad	#32
	sub	sp, #32
	.cfi_def_cfa_offset 40
	str	r0, [sp, #28]
	str	r1, [sp, #24]
.Ltmp716:
	.loc	3 2026 31 prologue_end          @ ../../../../Source/queue.c:2026:31
	ldr	r0, [sp, #28]
	.loc	3 2026 21 is_stmt 0             @ ../../../../Source/queue.c:2026:21
	str	r0, [sp, #8]
.Ltmp717:
	.loc	3 2028 5 is_stmt 1              @ ../../../../Source/queue.c:2028:5
	ldr	r0, [sp, #8]
.Ltmp718:
	.loc	3 2028 5 is_stmt 0              @ ../../../../Source/queue.c:2028:5
	cbnz	r0, .LBB28_3
	b	.LBB28_1
.LBB28_1:
.Ltmp719:
	.loc	3 2028 5                        @ ../../../../Source/queue.c:2028:5
	@APP
	cpsid i
	@NO_APP
	b	.LBB28_2
.LBB28_2:                               @ =>This Inner Loop Header: Depth=1
.Ltmp720:
	.loc	3 2028 5                        @ ../../../../Source/queue.c:2028:5
	b	.LBB28_2
.Ltmp721:
.LBB28_3:
	.loc	3 2029 5 is_stmt 1              @ ../../../../Source/queue.c:2029:5
	ldr	r1, [sp, #24]
	movs	r0, #0
	str	r0, [sp, #4]                    @ 4-byte Spill
	cbnz	r1, .LBB28_5
	b	.LBB28_4
.LBB28_4:
	ldr	r0, [sp, #8]
	ldr	r0, [r0, #64]
	subs	r1, r0, #1
	sbcs	r0, r1
	str	r0, [sp, #4]                    @ 4-byte Spill
	b	.LBB28_5
.LBB28_5:
	.loc	3 0 0 is_stmt 0                 @ ../../../../Source/queue.c:0:0
	ldr	r0, [sp, #4]                    @ 4-byte Reload
.Ltmp722:
	.loc	3 2029 5                        @ ../../../../Source/queue.c:2029:5
	lsls	r0, r0, #31
	cbz	r0, .LBB28_8
	b	.LBB28_6
.LBB28_6:
.Ltmp723:
	.loc	3 2029 5                        @ ../../../../Source/queue.c:2029:5
	@APP
	cpsid i
	@NO_APP
	b	.LBB28_7
.LBB28_7:                               @ =>This Inner Loop Header: Depth=1
.Ltmp724:
	.loc	3 2029 5                        @ ../../../../Source/queue.c:2029:5
	b	.LBB28_7
.Ltmp725:
.LBB28_8:
	.loc	3 2030 5 is_stmt 1              @ ../../../../Source/queue.c:2030:5
	ldr	r0, [sp, #8]
	ldr	r0, [r0, #64]
.Ltmp726:
	.loc	3 2030 5 is_stmt 0              @ ../../../../Source/queue.c:2030:5
	cbnz	r0, .LBB28_11
	b	.LBB28_9
.LBB28_9:
.Ltmp727:
	.loc	3 2030 5                        @ ../../../../Source/queue.c:2030:5
	@APP
	cpsid i
	@NO_APP
	b	.LBB28_10
.LBB28_10:                              @ =>This Inner Loop Header: Depth=1
.Ltmp728:
	.loc	3 2030 5                        @ ../../../../Source/queue.c:2030:5
	b	.LBB28_10
.Ltmp729:
.LBB28_11:
	.loc	3 2048 29 is_stmt 1             @ ../../../../Source/queue.c:2048:29
	bl	ulSetInterruptMask
	.loc	3 2048 27 is_stmt 0             @ ../../../../Source/queue.c:2048:27
	str	r0, [sp, #16]
.Ltmp730:
	.loc	3 2051 13 is_stmt 1             @ ../../../../Source/queue.c:2051:13
	ldr	r0, [sp, #8]
	.loc	3 2051 22 is_stmt 0             @ ../../../../Source/queue.c:2051:22
	ldr	r0, [r0, #56]
.Ltmp731:
	.loc	3 2051 13                       @ ../../../../Source/queue.c:2051:13
	cbz	r0, .LBB28_13
	b	.LBB28_12
.LBB28_12:
.Ltmp732:
	.loc	3 2057 38 is_stmt 1             @ ../../../../Source/queue.c:2057:38
	ldr	r0, [sp, #8]
	.loc	3 2057 56 is_stmt 0             @ ../../../../Source/queue.c:2057:56
	ldr	r0, [r0, #12]
	.loc	3 2057 36                       @ ../../../../Source/queue.c:2057:36
	str	r0, [sp, #12]
	.loc	3 2058 35 is_stmt 1             @ ../../../../Source/queue.c:2058:35
	ldr	r0, [sp, #8]
	.loc	3 2058 44 is_stmt 0             @ ../../../../Source/queue.c:2058:44
	ldr	r1, [sp, #24]
	.loc	3 2058 13                       @ ../../../../Source/queue.c:2058:13
	bl	prvCopyDataFromQueue
	.loc	3 2059 44 is_stmt 1             @ ../../../../Source/queue.c:2059:44
	ldr	r0, [sp, #12]
	.loc	3 2059 13 is_stmt 0             @ ../../../../Source/queue.c:2059:13
	ldr	r1, [sp, #8]
	.loc	3 2059 42                       @ ../../../../Source/queue.c:2059:42
	str	r0, [r1, #12]
	movs	r0, #1
	.loc	3 2061 21 is_stmt 1             @ ../../../../Source/queue.c:2061:21
	str	r0, [sp, #20]
	.loc	3 2062 9                        @ ../../../../Source/queue.c:2062:9
	b	.LBB28_14
.Ltmp733:
.LBB28_13:
	.loc	3 0 9 is_stmt 0                 @ ../../../../Source/queue.c:0:9
	movs	r0, #0
.Ltmp734:
	.loc	3 2065 21 is_stmt 1             @ ../../../../Source/queue.c:2065:21
	str	r0, [sp, #20]
	b	.LBB28_14
.Ltmp735:
.LBB28_14:
	.loc	3 2069 5                        @ ../../../../Source/queue.c:2069:5
	ldr	r0, [sp, #16]
	bl	vClearInterruptMask
	.loc	3 2071 12                       @ ../../../../Source/queue.c:2071:12
	ldr	r0, [sp, #20]
	.loc	3 2071 5 is_stmt 0              @ ../../../../Source/queue.c:2071:5
	add	sp, #32
	pop	{r7, pc}
.Ltmp736:
.Lfunc_end28:
	.size	xQueuePeekFromISR, .Lfunc_end28-xQueuePeekFromISR
	.cfi_endproc
	.cantunwind
	.fnend
                                        @ -- End function
	.hidden	uxQueueMessagesWaiting          @ -- Begin function uxQueueMessagesWaiting
	.globl	uxQueueMessagesWaiting
	.p2align	1
	.type	uxQueueMessagesWaiting,%function
	.code	16                              @ @uxQueueMessagesWaiting
	.thumb_func
uxQueueMessagesWaiting:
.Lfunc_begin29:
	.loc	3 2076 0 is_stmt 1              @ ../../../../Source/queue.c:2076:0
	.fnstart
	.cfi_startproc
@ %bb.0:
	.save	{r7, lr}
	push	{r7, lr}
	.cfi_def_cfa_offset 8
	.cfi_offset lr, -4
	.cfi_offset r7, -8
	.pad	#8
	sub	sp, #8
	.cfi_def_cfa_offset 16
	str	r0, [sp, #4]
.Ltmp737:
	.loc	3 2079 5 prologue_end           @ ../../../../Source/queue.c:2079:5
	ldr	r0, [sp, #4]
.Ltmp738:
	.loc	3 2079 5 is_stmt 0              @ ../../../../Source/queue.c:2079:5
	cbnz	r0, .LBB29_3
	b	.LBB29_1
.LBB29_1:
.Ltmp739:
	.loc	3 2079 5                        @ ../../../../Source/queue.c:2079:5
	@APP
	cpsid i
	@NO_APP
	b	.LBB29_2
.LBB29_2:                               @ =>This Inner Loop Header: Depth=1
.Ltmp740:
	.loc	3 2079 5                        @ ../../../../Source/queue.c:2079:5
	b	.LBB29_2
.Ltmp741:
.LBB29_3:
	.loc	3 2081 5 is_stmt 1              @ ../../../../Source/queue.c:2081:5
	bl	vPortEnterCritical
.Ltmp742:
	.loc	3 2083 36                       @ ../../../../Source/queue.c:2083:36
	ldr	r0, [sp, #4]
	.loc	3 2083 46 is_stmt 0             @ ../../../../Source/queue.c:2083:46
	ldr	r0, [r0, #56]
	.loc	3 2083 18                       @ ../../../../Source/queue.c:2083:18
	str	r0, [sp]
.Ltmp743:
	.loc	3 2085 5 is_stmt 1              @ ../../../../Source/queue.c:2085:5
	bl	vPortExitCritical
	.loc	3 2087 12                       @ ../../../../Source/queue.c:2087:12
	ldr	r0, [sp]
	.loc	3 2087 5 is_stmt 0              @ ../../../../Source/queue.c:2087:5
	add	sp, #8
	pop	{r7, pc}
.Ltmp744:
.Lfunc_end29:
	.size	uxQueueMessagesWaiting, .Lfunc_end29-uxQueueMessagesWaiting
	.cfi_endproc
	.cantunwind
	.fnend
                                        @ -- End function
	.hidden	uxQueueSpacesAvailable          @ -- Begin function uxQueueSpacesAvailable
	.globl	uxQueueSpacesAvailable
	.p2align	1
	.type	uxQueueSpacesAvailable,%function
	.code	16                              @ @uxQueueSpacesAvailable
	.thumb_func
uxQueueSpacesAvailable:
.Lfunc_begin30:
	.loc	3 2092 0 is_stmt 1              @ ../../../../Source/queue.c:2092:0
	.fnstart
	.cfi_startproc
@ %bb.0:
	.save	{r7, lr}
	push	{r7, lr}
	.cfi_def_cfa_offset 8
	.cfi_offset lr, -4
	.cfi_offset r7, -8
	.pad	#16
	sub	sp, #16
	.cfi_def_cfa_offset 24
	str	r0, [sp, #12]
.Ltmp745:
	.loc	3 2094 31 prologue_end          @ ../../../../Source/queue.c:2094:31
	ldr	r0, [sp, #12]
	.loc	3 2094 21 is_stmt 0             @ ../../../../Source/queue.c:2094:21
	str	r0, [sp, #4]
.Ltmp746:
	.loc	3 2096 5 is_stmt 1              @ ../../../../Source/queue.c:2096:5
	ldr	r0, [sp, #4]
.Ltmp747:
	.loc	3 2096 5 is_stmt 0              @ ../../../../Source/queue.c:2096:5
	cbnz	r0, .LBB30_3
	b	.LBB30_1
.LBB30_1:
.Ltmp748:
	.loc	3 2096 5                        @ ../../../../Source/queue.c:2096:5
	@APP
	cpsid i
	@NO_APP
	b	.LBB30_2
.LBB30_2:                               @ =>This Inner Loop Header: Depth=1
.Ltmp749:
	.loc	3 2096 5                        @ ../../../../Source/queue.c:2096:5
	b	.LBB30_2
.Ltmp750:
.LBB30_3:
	.loc	3 2098 5 is_stmt 1              @ ../../../../Source/queue.c:2098:5
	bl	vPortEnterCritical
.Ltmp751:
	.loc	3 2100 20                       @ ../../../../Source/queue.c:2100:20
	ldr	r1, [sp, #4]
	.loc	3 2100 29 is_stmt 0             @ ../../../../Source/queue.c:2100:29
	ldr	r0, [r1, #60]
	.loc	3 2100 49                       @ ../../../../Source/queue.c:2100:49
	ldr	r1, [r1, #56]
	.loc	3 2100 38                       @ ../../../../Source/queue.c:2100:38
	subs	r0, r0, r1
	.loc	3 2100 18                       @ ../../../../Source/queue.c:2100:18
	str	r0, [sp, #8]
.Ltmp752:
	.loc	3 2102 5 is_stmt 1              @ ../../../../Source/queue.c:2102:5
	bl	vPortExitCritical
	.loc	3 2104 12                       @ ../../../../Source/queue.c:2104:12
	ldr	r0, [sp, #8]
	.loc	3 2104 5 is_stmt 0              @ ../../../../Source/queue.c:2104:5
	add	sp, #16
	pop	{r7, pc}
.Ltmp753:
.Lfunc_end30:
	.size	uxQueueSpacesAvailable, .Lfunc_end30-uxQueueSpacesAvailable
	.cfi_endproc
	.cantunwind
	.fnend
                                        @ -- End function
	.hidden	uxQueueMessagesWaitingFromISR   @ -- Begin function uxQueueMessagesWaitingFromISR
	.globl	uxQueueMessagesWaitingFromISR
	.p2align	1
	.type	uxQueueMessagesWaitingFromISR,%function
	.code	16                              @ @uxQueueMessagesWaitingFromISR
	.thumb_func
uxQueueMessagesWaitingFromISR:
.Lfunc_begin31:
	.loc	3 2109 0 is_stmt 1              @ ../../../../Source/queue.c:2109:0
	.fnstart
	.cfi_startproc
@ %bb.0:
	.pad	#12
	sub	sp, #12
	.cfi_def_cfa_offset 12
	str	r0, [sp, #8]
.Ltmp754:
	.loc	3 2111 31 prologue_end          @ ../../../../Source/queue.c:2111:31
	ldr	r0, [sp, #8]
	.loc	3 2111 21 is_stmt 0             @ ../../../../Source/queue.c:2111:21
	str	r0, [sp]
.Ltmp755:
	.loc	3 2113 5 is_stmt 1              @ ../../../../Source/queue.c:2113:5
	ldr	r0, [sp]
.Ltmp756:
	.loc	3 2113 5 is_stmt 0              @ ../../../../Source/queue.c:2113:5
	cbnz	r0, .LBB31_3
	b	.LBB31_1
.LBB31_1:
.Ltmp757:
	.loc	3 2113 5                        @ ../../../../Source/queue.c:2113:5
	@APP
	cpsid i
	@NO_APP
	b	.LBB31_2
.LBB31_2:                               @ =>This Inner Loop Header: Depth=1
.Ltmp758:
	.loc	3 2113 5                        @ ../../../../Source/queue.c:2113:5
	b	.LBB31_2
.Ltmp759:
.LBB31_3:
	.loc	3 2114 16 is_stmt 1             @ ../../../../Source/queue.c:2114:16
	ldr	r0, [sp]
	.loc	3 2114 25 is_stmt 0             @ ../../../../Source/queue.c:2114:25
	ldr	r0, [r0, #56]
	.loc	3 2114 14                       @ ../../../../Source/queue.c:2114:14
	str	r0, [sp, #4]
	.loc	3 2116 12 is_stmt 1             @ ../../../../Source/queue.c:2116:12
	ldr	r0, [sp, #4]
	.loc	3 2116 5 is_stmt 0              @ ../../../../Source/queue.c:2116:5
	add	sp, #12
	bx	lr
.Ltmp760:
.Lfunc_end31:
	.size	uxQueueMessagesWaitingFromISR, .Lfunc_end31-uxQueueMessagesWaitingFromISR
	.cfi_endproc
	.cantunwind
	.fnend
                                        @ -- End function
	.hidden	vQueueDelete                    @ -- Begin function vQueueDelete
	.globl	vQueueDelete
	.p2align	1
	.type	vQueueDelete,%function
	.code	16                              @ @vQueueDelete
	.thumb_func
vQueueDelete:
.Lfunc_begin32:
	.loc	3 2121 0 is_stmt 1              @ ../../../../Source/queue.c:2121:0
	.fnstart
	.cfi_startproc
@ %bb.0:
	.save	{r7, lr}
	push	{r7, lr}
	.cfi_def_cfa_offset 8
	.cfi_offset lr, -4
	.cfi_offset r7, -8
	.pad	#8
	sub	sp, #8
	.cfi_def_cfa_offset 16
	str	r0, [sp, #4]
.Ltmp761:
	.loc	3 2122 31 prologue_end          @ ../../../../Source/queue.c:2122:31
	ldr	r0, [sp, #4]
	.loc	3 2122 21 is_stmt 0             @ ../../../../Source/queue.c:2122:21
	str	r0, [sp]
.Ltmp762:
	.loc	3 2124 5 is_stmt 1              @ ../../../../Source/queue.c:2124:5
	ldr	r0, [sp]
.Ltmp763:
	.loc	3 2124 5 is_stmt 0              @ ../../../../Source/queue.c:2124:5
	cbnz	r0, .LBB32_3
	b	.LBB32_1
.LBB32_1:
.Ltmp764:
	.loc	3 2124 5                        @ ../../../../Source/queue.c:2124:5
	@APP
	cpsid i
	@NO_APP
	b	.LBB32_2
.LBB32_2:                               @ =>This Inner Loop Header: Depth=1
.Ltmp765:
	.loc	3 2124 5                        @ ../../../../Source/queue.c:2124:5
	b	.LBB32_2
.Ltmp766:
.LBB32_3:
	.loc	3 2143 13 is_stmt 1             @ ../../../../Source/queue.c:2143:13
	ldr	r0, [sp]
	movs	r1, #70
	.loc	3 2143 22 is_stmt 0             @ ../../../../Source/queue.c:2143:22
	ldrb	r0, [r0, r1]
.Ltmp767:
	.loc	3 2143 13                       @ ../../../../Source/queue.c:2143:13
	cbnz	r0, .LBB32_5
	b	.LBB32_4
.LBB32_4:
.Ltmp768:
	.loc	3 2145 24 is_stmt 1             @ ../../../../Source/queue.c:2145:24
	ldr	r0, [sp]
	.loc	3 2145 13 is_stmt 0             @ ../../../../Source/queue.c:2145:13
	bl	vPortFree
	.loc	3 2146 9 is_stmt 1              @ ../../../../Source/queue.c:2146:9
	b	.LBB32_6
.Ltmp769:
.LBB32_5:
	.loc	3 0 9 is_stmt 0                 @ ../../../../Source/queue.c:0:9
	b	.LBB32_6
.LBB32_6:
	.loc	3 2159 1 is_stmt 1              @ ../../../../Source/queue.c:2159:1
	add	sp, #8
	pop	{r7, pc}
.Ltmp770:
.Lfunc_end32:
	.size	vQueueDelete, .Lfunc_end32-vQueueDelete
	.cfi_endproc
	.cantunwind
	.fnend
                                        @ -- End function
	.hidden	uxQueueGetQueueNumber           @ -- Begin function uxQueueGetQueueNumber
	.globl	uxQueueGetQueueNumber
	.p2align	1
	.type	uxQueueGetQueueNumber,%function
	.code	16                              @ @uxQueueGetQueueNumber
	.thumb_func
uxQueueGetQueueNumber:
.Lfunc_begin33:
	.loc	3 2165 0                        @ ../../../../Source/queue.c:2165:0
	.fnstart
	.cfi_startproc
@ %bb.0:
	.pad	#4
	sub	sp, #4
	.cfi_def_cfa_offset 4
	str	r0, [sp]
.Ltmp771:
	.loc	3 2166 32 prologue_end          @ ../../../../Source/queue.c:2166:32
	ldr	r0, [sp]
	.loc	3 2166 42 is_stmt 0             @ ../../../../Source/queue.c:2166:42
	ldr	r0, [r0, #76]
	.loc	3 2166 9                        @ ../../../../Source/queue.c:2166:9
	add	sp, #4
	bx	lr
.Ltmp772:
.Lfunc_end33:
	.size	uxQueueGetQueueNumber, .Lfunc_end33-uxQueueGetQueueNumber
	.cfi_endproc
	.cantunwind
	.fnend
                                        @ -- End function
	.hidden	vQueueSetQueueNumber            @ -- Begin function vQueueSetQueueNumber
	.globl	vQueueSetQueueNumber
	.p2align	1
	.type	vQueueSetQueueNumber,%function
	.code	16                              @ @vQueueSetQueueNumber
	.thumb_func
vQueueSetQueueNumber:
.Lfunc_begin34:
	.loc	3 2176 0 is_stmt 1              @ ../../../../Source/queue.c:2176:0
	.fnstart
	.cfi_startproc
@ %bb.0:
	.pad	#8
	sub	sp, #8
	.cfi_def_cfa_offset 8
	str	r0, [sp, #4]
	str	r1, [sp]
.Ltmp773:
	.loc	3 2177 51 prologue_end          @ ../../../../Source/queue.c:2177:51
	ldr	r0, [sp]
	.loc	3 2177 25 is_stmt 0             @ ../../../../Source/queue.c:2177:25
	ldr	r1, [sp, #4]
	.loc	3 2177 49                       @ ../../../../Source/queue.c:2177:49
	str	r0, [r1, #76]
	.loc	3 2178 5 is_stmt 1              @ ../../../../Source/queue.c:2178:5
	add	sp, #8
	bx	lr
.Ltmp774:
.Lfunc_end34:
	.size	vQueueSetQueueNumber, .Lfunc_end34-vQueueSetQueueNumber
	.cfi_endproc
	.cantunwind
	.fnend
                                        @ -- End function
	.hidden	ucQueueGetQueueType             @ -- Begin function ucQueueGetQueueType
	.globl	ucQueueGetQueueType
	.p2align	1
	.type	ucQueueGetQueueType,%function
	.code	16                              @ @ucQueueGetQueueType
	.thumb_func
ucQueueGetQueueType:
.Lfunc_begin35:
	.loc	3 2186 0                        @ ../../../../Source/queue.c:2186:0
	.fnstart
	.cfi_startproc
@ %bb.0:
	.pad	#4
	sub	sp, #4
	.cfi_def_cfa_offset 4
	str	r0, [sp]
.Ltmp775:
	.loc	3 2187 32 prologue_end          @ ../../../../Source/queue.c:2187:32
	ldr	r0, [sp]
	movs	r1, #80
	.loc	3 2187 42 is_stmt 0             @ ../../../../Source/queue.c:2187:42
	ldrb	r0, [r0, r1]
	.loc	3 2187 9                        @ ../../../../Source/queue.c:2187:9
	add	sp, #4
	bx	lr
.Ltmp776:
.Lfunc_end35:
	.size	ucQueueGetQueueType, .Lfunc_end35-ucQueueGetQueueType
	.cfi_endproc
	.cantunwind
	.fnend
                                        @ -- End function
	.hidden	uxQueueGetQueueItemSize         @ -- Begin function uxQueueGetQueueItemSize
	.globl	uxQueueGetQueueItemSize
	.p2align	1
	.type	uxQueueGetQueueItemSize,%function
	.code	16                              @ @uxQueueGetQueueItemSize
	.thumb_func
uxQueueGetQueueItemSize:
.Lfunc_begin36:
	.loc	3 2194 0 is_stmt 1              @ ../../../../Source/queue.c:2194:0
	.fnstart
	.cfi_startproc
@ %bb.0:
	.pad	#4
	sub	sp, #4
	.cfi_def_cfa_offset 4
	str	r0, [sp]
.Ltmp777:
	.loc	3 2195 28 prologue_end          @ ../../../../Source/queue.c:2195:28
	ldr	r0, [sp]
	.loc	3 2195 38 is_stmt 0             @ ../../../../Source/queue.c:2195:38
	ldr	r0, [r0, #64]
	.loc	3 2195 5                        @ ../../../../Source/queue.c:2195:5
	add	sp, #4
	bx	lr
.Ltmp778:
.Lfunc_end36:
	.size	uxQueueGetQueueItemSize, .Lfunc_end36-uxQueueGetQueueItemSize
	.cfi_endproc
	.cantunwind
	.fnend
                                        @ -- End function
	.hidden	xQueueIsQueueEmptyFromISR       @ -- Begin function xQueueIsQueueEmptyFromISR
	.globl	xQueueIsQueueEmptyFromISR
	.p2align	1
	.type	xQueueIsQueueEmptyFromISR,%function
	.code	16                              @ @xQueueIsQueueEmptyFromISR
	.thumb_func
xQueueIsQueueEmptyFromISR:
.Lfunc_begin37:
	.loc	3 2472 0 is_stmt 1              @ ../../../../Source/queue.c:2472:0
	.fnstart
	.cfi_startproc
@ %bb.0:
	.pad	#12
	sub	sp, #12
	.cfi_def_cfa_offset 12
	str	r0, [sp, #8]
.Ltmp779:
	.loc	3 2474 31 prologue_end          @ ../../../../Source/queue.c:2474:31
	ldr	r0, [sp, #8]
	.loc	3 2474 21 is_stmt 0             @ ../../../../Source/queue.c:2474:21
	str	r0, [sp]
.Ltmp780:
	.loc	3 2476 5 is_stmt 1              @ ../../../../Source/queue.c:2476:5
	ldr	r0, [sp]
.Ltmp781:
	.loc	3 2476 5 is_stmt 0              @ ../../../../Source/queue.c:2476:5
	cbnz	r0, .LBB37_3
	b	.LBB37_1
.LBB37_1:
.Ltmp782:
	.loc	3 2476 5                        @ ../../../../Source/queue.c:2476:5
	@APP
	cpsid i
	@NO_APP
	b	.LBB37_2
.LBB37_2:                               @ =>This Inner Loop Header: Depth=1
.Ltmp783:
	.loc	3 2476 5                        @ ../../../../Source/queue.c:2476:5
	b	.LBB37_2
.Ltmp784:
.LBB37_3:
	.loc	3 2478 9 is_stmt 1              @ ../../../../Source/queue.c:2478:9
	ldr	r0, [sp]
	.loc	3 2478 18 is_stmt 0             @ ../../../../Source/queue.c:2478:18
	ldr	r0, [r0, #56]
.Ltmp785:
	.loc	3 2478 9                        @ ../../../../Source/queue.c:2478:9
	cbnz	r0, .LBB37_5
	b	.LBB37_4
.LBB37_4:
	.loc	3 0 9                           @ ../../../../Source/queue.c:0:9
	movs	r0, #1
.Ltmp786:
	.loc	3 2480 17 is_stmt 1             @ ../../../../Source/queue.c:2480:17
	str	r0, [sp, #4]
	.loc	3 2481 5                        @ ../../../../Source/queue.c:2481:5
	b	.LBB37_6
.Ltmp787:
.LBB37_5:
	.loc	3 0 5 is_stmt 0                 @ ../../../../Source/queue.c:0:5
	movs	r0, #0
.Ltmp788:
	.loc	3 2484 17 is_stmt 1             @ ../../../../Source/queue.c:2484:17
	str	r0, [sp, #4]
	b	.LBB37_6
.Ltmp789:
.LBB37_6:
	.loc	3 2487 12                       @ ../../../../Source/queue.c:2487:12
	ldr	r0, [sp, #4]
	.loc	3 2487 5 is_stmt 0              @ ../../../../Source/queue.c:2487:5
	add	sp, #12
	bx	lr
.Ltmp790:
.Lfunc_end37:
	.size	xQueueIsQueueEmptyFromISR, .Lfunc_end37-xQueueIsQueueEmptyFromISR
	.cfi_endproc
	.cantunwind
	.fnend
                                        @ -- End function
	.hidden	xQueueIsQueueFullFromISR        @ -- Begin function xQueueIsQueueFullFromISR
	.globl	xQueueIsQueueFullFromISR
	.p2align	1
	.type	xQueueIsQueueFullFromISR,%function
	.code	16                              @ @xQueueIsQueueFullFromISR
	.thumb_func
xQueueIsQueueFullFromISR:
.Lfunc_begin38:
	.loc	3 2513 0 is_stmt 1              @ ../../../../Source/queue.c:2513:0
	.fnstart
	.cfi_startproc
@ %bb.0:
	.pad	#12
	sub	sp, #12
	.cfi_def_cfa_offset 12
	str	r0, [sp, #8]
.Ltmp791:
	.loc	3 2515 31 prologue_end          @ ../../../../Source/queue.c:2515:31
	ldr	r0, [sp, #8]
	.loc	3 2515 21 is_stmt 0             @ ../../../../Source/queue.c:2515:21
	str	r0, [sp]
.Ltmp792:
	.loc	3 2517 5 is_stmt 1              @ ../../../../Source/queue.c:2517:5
	ldr	r0, [sp]
.Ltmp793:
	.loc	3 2517 5 is_stmt 0              @ ../../../../Source/queue.c:2517:5
	cbnz	r0, .LBB38_3
	b	.LBB38_1
.LBB38_1:
.Ltmp794:
	.loc	3 2517 5                        @ ../../../../Source/queue.c:2517:5
	@APP
	cpsid i
	@NO_APP
	b	.LBB38_2
.LBB38_2:                               @ =>This Inner Loop Header: Depth=1
.Ltmp795:
	.loc	3 2517 5                        @ ../../../../Source/queue.c:2517:5
	b	.LBB38_2
.Ltmp796:
.LBB38_3:
	.loc	3 2519 9 is_stmt 1              @ ../../../../Source/queue.c:2519:9
	ldr	r0, [sp]
	.loc	3 2519 18 is_stmt 0             @ ../../../../Source/queue.c:2519:18
	ldr	r0, [r0, #56]
	.loc	3 2519 39                       @ ../../../../Source/queue.c:2519:39
	ldr	r1, [sp]
	.loc	3 2519 48                       @ ../../../../Source/queue.c:2519:48
	ldr	r1, [r1, #60]
.Ltmp797:
	.loc	3 2519 9                        @ ../../../../Source/queue.c:2519:9
	cmp	r0, r1
	bne	.LBB38_5
	b	.LBB38_4
.LBB38_4:
	.loc	3 0 9                           @ ../../../../Source/queue.c:0:9
	movs	r0, #1
.Ltmp798:
	.loc	3 2521 17 is_stmt 1             @ ../../../../Source/queue.c:2521:17
	str	r0, [sp, #4]
	.loc	3 2522 5                        @ ../../../../Source/queue.c:2522:5
	b	.LBB38_6
.Ltmp799:
.LBB38_5:
	.loc	3 0 5 is_stmt 0                 @ ../../../../Source/queue.c:0:5
	movs	r0, #0
.Ltmp800:
	.loc	3 2525 17 is_stmt 1             @ ../../../../Source/queue.c:2525:17
	str	r0, [sp, #4]
	b	.LBB38_6
.Ltmp801:
.LBB38_6:
	.loc	3 2528 12                       @ ../../../../Source/queue.c:2528:12
	ldr	r0, [sp, #4]
	.loc	3 2528 5 is_stmt 0              @ ../../../../Source/queue.c:2528:5
	add	sp, #12
	bx	lr
.Ltmp802:
.Lfunc_end38:
	.size	xQueueIsQueueFullFromISR, .Lfunc_end38-xQueueIsQueueFullFromISR
	.cfi_endproc
	.cantunwind
	.fnend
                                        @ -- End function
	.hidden	vQueueWaitForMessageRestricted  @ -- Begin function vQueueWaitForMessageRestricted
	.globl	vQueueWaitForMessageRestricted
	.p2align	1
	.type	vQueueWaitForMessageRestricted,%function
	.code	16                              @ @vQueueWaitForMessageRestricted
	.thumb_func
vQueueWaitForMessageRestricted:
.Lfunc_begin39:
	.loc	3 2648 0 is_stmt 1              @ ../../../../Source/queue.c:2648:0
	.fnstart
	.cfi_startproc
@ %bb.0:
	.save	{r7, lr}
	push	{r7, lr}
	.cfi_def_cfa_offset 8
	.cfi_offset lr, -4
	.cfi_offset r7, -8
	.pad	#16
	sub	sp, #16
	.cfi_def_cfa_offset 24
	str	r0, [sp, #12]
	str	r1, [sp, #8]
	str	r2, [sp, #4]
.Ltmp803:
	.loc	3 2649 35 prologue_end          @ ../../../../Source/queue.c:2649:35
	ldr	r0, [sp, #12]
	.loc	3 2649 25 is_stmt 0             @ ../../../../Source/queue.c:2649:25
	str	r0, [sp]
	.loc	3 2665 9 is_stmt 1              @ ../../../../Source/queue.c:2665:9
	bl	vPortEnterCritical
.Ltmp804:
	.loc	3 2665 9 is_stmt 0              @ ../../../../Source/queue.c:2665:9
	ldr	r0, [sp]
	movs	r1, #68
	ldrsb	r0, [r0, r1]
.Ltmp805:
	.loc	3 2665 9                        @ ../../../../Source/queue.c:2665:9
	adds	r0, r0, #1
	cbnz	r0, .LBB39_2
	b	.LBB39_1
.LBB39_1:
.Ltmp806:
	.loc	3 2665 9                        @ ../../../../Source/queue.c:2665:9
	ldr	r1, [sp]
	movs	r2, #68
	movs	r0, #0
	strb	r0, [r1, r2]
	b	.LBB39_2
.Ltmp807:
.LBB39_2:
	.loc	3 2665 9                        @ ../../../../Source/queue.c:2665:9
	ldr	r0, [sp]
	movs	r1, #69
	ldrsb	r0, [r0, r1]
.Ltmp808:
	.loc	3 2665 9                        @ ../../../../Source/queue.c:2665:9
	adds	r0, r0, #1
	cbnz	r0, .LBB39_4
	b	.LBB39_3
.LBB39_3:
.Ltmp809:
	.loc	3 2665 9                        @ ../../../../Source/queue.c:2665:9
	ldr	r1, [sp]
	movs	r2, #69
	movs	r0, #0
	strb	r0, [r1, r2]
	b	.LBB39_4
.Ltmp810:
.LBB39_4:
	.loc	3 2665 9                        @ ../../../../Source/queue.c:2665:9
	bl	vPortExitCritical
.Ltmp811:
	.loc	3 2667 13 is_stmt 1             @ ../../../../Source/queue.c:2667:13
	ldr	r0, [sp]
	.loc	3 2667 22 is_stmt 0             @ ../../../../Source/queue.c:2667:22
	ldr	r0, [r0, #56]
.Ltmp812:
	.loc	3 2667 13                       @ ../../../../Source/queue.c:2667:13
	cbnz	r0, .LBB39_6
	b	.LBB39_5
.LBB39_5:
.Ltmp813:
	.loc	3 2670 49 is_stmt 1             @ ../../../../Source/queue.c:2670:49
	ldr	r0, [sp]
	.loc	3 2670 58 is_stmt 0             @ ../../../../Source/queue.c:2670:58
	adds	r0, #36
	.loc	3 2670 84                       @ ../../../../Source/queue.c:2670:84
	ldr	r1, [sp, #8]
	.loc	3 2670 98                       @ ../../../../Source/queue.c:2670:98
	ldr	r2, [sp, #4]
	.loc	3 2670 13                       @ ../../../../Source/queue.c:2670:13
	bl	vTaskPlaceOnEventListRestricted
	.loc	3 2671 9 is_stmt 1              @ ../../../../Source/queue.c:2671:9
	b	.LBB39_7
.Ltmp814:
.LBB39_6:
	.loc	3 0 9 is_stmt 0                 @ ../../../../Source/queue.c:0:9
	b	.LBB39_7
.LBB39_7:
	.loc	3 2677 25 is_stmt 1             @ ../../../../Source/queue.c:2677:25
	ldr	r0, [sp]
	.loc	3 2677 9 is_stmt 0              @ ../../../../Source/queue.c:2677:9
	bl	prvUnlockQueue
	.loc	3 2678 5 is_stmt 1              @ ../../../../Source/queue.c:2678:5
	add	sp, #16
	pop	{r7, pc}
.Ltmp815:
.Lfunc_end39:
	.size	vQueueWaitForMessageRestricted, .Lfunc_end39-vQueueWaitForMessageRestricted
	.cfi_endproc
	.cantunwind
	.fnend
                                        @ -- End function
	.hidden	xQueueCreateSet                 @ -- Begin function xQueueCreateSet
	.globl	xQueueCreateSet
	.p2align	1
	.type	xQueueCreateSet,%function
	.code	16                              @ @xQueueCreateSet
	.thumb_func
xQueueCreateSet:
.Lfunc_begin40:
	.loc	3 2686 0                        @ ../../../../Source/queue.c:2686:0
	.fnstart
	.cfi_startproc
@ %bb.0:
	.save	{r7, lr}
	push	{r7, lr}
	.cfi_def_cfa_offset 8
	.cfi_offset lr, -4
	.cfi_offset r7, -8
	.pad	#8
	sub	sp, #8
	.cfi_def_cfa_offset 16
	str	r0, [sp, #4]
.Ltmp816:
	.loc	3 2689 40 prologue_end          @ ../../../../Source/queue.c:2689:40
	ldr	r0, [sp, #4]
	movs	r1, #4
	movs	r2, #0
	.loc	3 2689 19 is_stmt 0             @ ../../../../Source/queue.c:2689:19
	bl	xQueueGenericCreate
	.loc	3 2689 17                       @ ../../../../Source/queue.c:2689:17
	str	r0, [sp]
	.loc	3 2691 16 is_stmt 1             @ ../../../../Source/queue.c:2691:16
	ldr	r0, [sp]
	.loc	3 2691 9 is_stmt 0              @ ../../../../Source/queue.c:2691:9
	add	sp, #8
	pop	{r7, pc}
.Ltmp817:
.Lfunc_end40:
	.size	xQueueCreateSet, .Lfunc_end40-xQueueCreateSet
	.cfi_endproc
	.cantunwind
	.fnend
                                        @ -- End function
	.hidden	xQueueAddToSet                  @ -- Begin function xQueueAddToSet
	.globl	xQueueAddToSet
	.p2align	1
	.type	xQueueAddToSet,%function
	.code	16                              @ @xQueueAddToSet
	.thumb_func
xQueueAddToSet:
.Lfunc_begin41:
	.loc	3 2701 0 is_stmt 1              @ ../../../../Source/queue.c:2701:0
	.fnstart
	.cfi_startproc
@ %bb.0:
	.save	{r7, lr}
	push	{r7, lr}
	.cfi_def_cfa_offset 8
	.cfi_offset lr, -4
	.cfi_offset r7, -8
	.pad	#16
	sub	sp, #16
	.cfi_def_cfa_offset 24
	str	r0, [sp, #12]
	str	r1, [sp, #8]
.Ltmp818:
	.loc	3 2704 9 prologue_end           @ ../../../../Source/queue.c:2704:9
	bl	vPortEnterCritical
.Ltmp819:
	.loc	3 2706 33                       @ ../../../../Source/queue.c:2706:33
	ldr	r0, [sp, #12]
	.loc	3 2706 54 is_stmt 0             @ ../../../../Source/queue.c:2706:54
	ldr	r0, [r0, #72]
.Ltmp820:
	.loc	3 2706 17                       @ ../../../../Source/queue.c:2706:17
	cbz	r0, .LBB41_2
	b	.LBB41_1
.LBB41_1:
	.loc	3 0 17                          @ ../../../../Source/queue.c:0:17
	movs	r0, #0
.Ltmp821:
	.loc	3 2709 25 is_stmt 1             @ ../../../../Source/queue.c:2709:25
	str	r0, [sp, #4]
	.loc	3 2710 13                       @ ../../../../Source/queue.c:2710:13
	b	.LBB41_6
.Ltmp822:
.LBB41_2:
	.loc	3 2711 38                       @ ../../../../Source/queue.c:2711:38
	ldr	r0, [sp, #12]
	.loc	3 2711 59 is_stmt 0             @ ../../../../Source/queue.c:2711:59
	ldr	r0, [r0, #56]
.Ltmp823:
	.loc	3 2711 22                       @ ../../../../Source/queue.c:2711:22
	cbz	r0, .LBB41_4
	b	.LBB41_3
.LBB41_3:
	.loc	3 0 22                          @ ../../../../Source/queue.c:0:22
	movs	r0, #0
.Ltmp824:
	.loc	3 2715 25 is_stmt 1             @ ../../../../Source/queue.c:2715:25
	str	r0, [sp, #4]
	.loc	3 2716 13                       @ ../../../../Source/queue.c:2716:13
	b	.LBB41_5
.Ltmp825:
.LBB41_4:
	.loc	3 2719 76                       @ ../../../../Source/queue.c:2719:76
	ldr	r0, [sp, #8]
	.loc	3 2719 33 is_stmt 0             @ ../../../../Source/queue.c:2719:33
	ldr	r1, [sp, #12]
	.loc	3 2719 74                       @ ../../../../Source/queue.c:2719:74
	str	r0, [r1, #72]
	movs	r0, #1
	.loc	3 2720 25 is_stmt 1             @ ../../../../Source/queue.c:2720:25
	str	r0, [sp, #4]
	b	.LBB41_5
.Ltmp826:
.LBB41_5:
	.loc	3 0 25 is_stmt 0                @ ../../../../Source/queue.c:0:25
	b	.LBB41_6
.LBB41_6:
	.loc	3 2723 9 is_stmt 1              @ ../../../../Source/queue.c:2723:9
	bl	vPortExitCritical
	.loc	3 2725 16                       @ ../../../../Source/queue.c:2725:16
	ldr	r0, [sp, #4]
	.loc	3 2725 9 is_stmt 0              @ ../../../../Source/queue.c:2725:9
	add	sp, #16
	pop	{r7, pc}
.Ltmp827:
.Lfunc_end41:
	.size	xQueueAddToSet, .Lfunc_end41-xQueueAddToSet
	.cfi_endproc
	.cantunwind
	.fnend
                                        @ -- End function
	.hidden	xQueueRemoveFromSet             @ -- Begin function xQueueRemoveFromSet
	.globl	xQueueRemoveFromSet
	.p2align	1
	.type	xQueueRemoveFromSet,%function
	.code	16                              @ @xQueueRemoveFromSet
	.thumb_func
xQueueRemoveFromSet:
.Lfunc_begin42:
	.loc	3 2735 0 is_stmt 1              @ ../../../../Source/queue.c:2735:0
	.fnstart
	.cfi_startproc
@ %bb.0:
	.save	{r7, lr}
	push	{r7, lr}
	.cfi_def_cfa_offset 8
	.cfi_offset lr, -4
	.cfi_offset r7, -8
	.pad	#16
	sub	sp, #16
	.cfi_def_cfa_offset 24
	str	r0, [sp, #12]
	str	r1, [sp, #8]
.Ltmp828:
	.loc	3 2737 60 prologue_end          @ ../../../../Source/queue.c:2737:60
	ldr	r0, [sp, #12]
	.loc	3 2737 25 is_stmt 0             @ ../../../../Source/queue.c:2737:25
	str	r0, [sp]
.Ltmp829:
	.loc	3 2739 13 is_stmt 1             @ ../../../../Source/queue.c:2739:13
	ldr	r0, [sp]
	.loc	3 2739 33 is_stmt 0             @ ../../../../Source/queue.c:2739:33
	ldr	r0, [r0, #72]
	.loc	3 2739 56                       @ ../../../../Source/queue.c:2739:56
	ldr	r1, [sp, #8]
.Ltmp830:
	.loc	3 2739 13                       @ ../../../../Source/queue.c:2739:13
	cmp	r0, r1
	beq	.LBB42_2
	b	.LBB42_1
.LBB42_1:
	.loc	3 0 13                          @ ../../../../Source/queue.c:0:13
	movs	r0, #0
.Ltmp831:
	.loc	3 2742 21 is_stmt 1             @ ../../../../Source/queue.c:2742:21
	str	r0, [sp, #4]
	.loc	3 2743 9                        @ ../../../../Source/queue.c:2743:9
	b	.LBB42_6
.Ltmp832:
.LBB42_2:
	.loc	3 2744 18                       @ ../../../../Source/queue.c:2744:18
	ldr	r0, [sp]
	.loc	3 2744 38 is_stmt 0             @ ../../../../Source/queue.c:2744:38
	ldr	r0, [r0, #56]
.Ltmp833:
	.loc	3 2744 18                       @ ../../../../Source/queue.c:2744:18
	cbz	r0, .LBB42_4
	b	.LBB42_3
.LBB42_3:
	.loc	3 0 18                          @ ../../../../Source/queue.c:0:18
	movs	r0, #0
.Ltmp834:
	.loc	3 2749 21 is_stmt 1             @ ../../../../Source/queue.c:2749:21
	str	r0, [sp, #4]
	.loc	3 2750 9                        @ ../../../../Source/queue.c:2750:9
	b	.LBB42_5
.Ltmp835:
.LBB42_4:
	.loc	3 2753 13                       @ ../../../../Source/queue.c:2753:13
	bl	vPortEnterCritical
.Ltmp836:
	.loc	3 2756 17                       @ ../../../../Source/queue.c:2756:17
	ldr	r1, [sp]
	movs	r0, #0
	.loc	3 2756 57 is_stmt 0             @ ../../../../Source/queue.c:2756:57
	str	r0, [r1, #72]
.Ltmp837:
	.loc	3 2758 13 is_stmt 1             @ ../../../../Source/queue.c:2758:13
	bl	vPortExitCritical
	movs	r0, #1
	.loc	3 2759 21                       @ ../../../../Source/queue.c:2759:21
	str	r0, [sp, #4]
	b	.LBB42_5
.Ltmp838:
.LBB42_5:
	.loc	3 0 21 is_stmt 0                @ ../../../../Source/queue.c:0:21
	b	.LBB42_6
.LBB42_6:
	.loc	3 2762 16 is_stmt 1             @ ../../../../Source/queue.c:2762:16
	ldr	r0, [sp, #4]
	.loc	3 2762 9 is_stmt 0              @ ../../../../Source/queue.c:2762:9
	add	sp, #16
	pop	{r7, pc}
.Ltmp839:
.Lfunc_end42:
	.size	xQueueRemoveFromSet, .Lfunc_end42-xQueueRemoveFromSet
	.cfi_endproc
	.cantunwind
	.fnend
                                        @ -- End function
	.hidden	xQueueSelectFromSet             @ -- Begin function xQueueSelectFromSet
	.globl	xQueueSelectFromSet
	.p2align	1
	.type	xQueueSelectFromSet,%function
	.code	16                              @ @xQueueSelectFromSet
	.thumb_func
xQueueSelectFromSet:
.Lfunc_begin43:
	.loc	3 2772 0 is_stmt 1              @ ../../../../Source/queue.c:2772:0
	.fnstart
	.cfi_startproc
@ %bb.0:
	.save	{r7, lr}
	push	{r7, lr}
	.cfi_def_cfa_offset 8
	.cfi_offset lr, -4
	.cfi_offset r7, -8
	.pad	#16
	sub	sp, #16
	.cfi_def_cfa_offset 24
	str	r0, [sp, #12]
	str	r1, [sp, #8]
	movs	r0, #0
.Ltmp840:
	.loc	3 2773 32 prologue_end          @ ../../../../Source/queue.c:2773:32
	str	r0, [sp, #4]
	.loc	3 2775 51                       @ ../../../../Source/queue.c:2775:51
	ldr	r0, [sp, #12]
	.loc	3 2775 72 is_stmt 0             @ ../../../../Source/queue.c:2775:72
	ldr	r2, [sp, #8]
	add	r1, sp, #4
	.loc	3 2775 18                       @ ../../../../Source/queue.c:2775:18
	bl	xQueueReceive
	.loc	3 2776 16 is_stmt 1             @ ../../../../Source/queue.c:2776:16
	ldr	r0, [sp, #4]
	.loc	3 2776 9 is_stmt 0              @ ../../../../Source/queue.c:2776:9
	add	sp, #16
	pop	{r7, pc}
.Ltmp841:
.Lfunc_end43:
	.size	xQueueSelectFromSet, .Lfunc_end43-xQueueSelectFromSet
	.cfi_endproc
	.cantunwind
	.fnend
                                        @ -- End function
	.hidden	xQueueSelectFromSetFromISR      @ -- Begin function xQueueSelectFromSetFromISR
	.globl	xQueueSelectFromSetFromISR
	.p2align	1
	.type	xQueueSelectFromSetFromISR,%function
	.code	16                              @ @xQueueSelectFromSetFromISR
	.thumb_func
xQueueSelectFromSetFromISR:
.Lfunc_begin44:
	.loc	3 2785 0 is_stmt 1              @ ../../../../Source/queue.c:2785:0
	.fnstart
	.cfi_startproc
@ %bb.0:
	.save	{r7, lr}
	push	{r7, lr}
	.cfi_def_cfa_offset 8
	.cfi_offset lr, -4
	.cfi_offset r7, -8
	.pad	#8
	sub	sp, #8
	.cfi_def_cfa_offset 16
	str	r0, [sp, #4]
	movs	r2, #0
.Ltmp842:
	.loc	3 2786 32 prologue_end          @ ../../../../Source/queue.c:2786:32
	str	r2, [sp]
	.loc	3 2788 58                       @ ../../../../Source/queue.c:2788:58
	ldr	r0, [sp, #4]
	mov	r1, sp
	.loc	3 2788 18 is_stmt 0             @ ../../../../Source/queue.c:2788:18
	bl	xQueueReceiveFromISR
	.loc	3 2789 16 is_stmt 1             @ ../../../../Source/queue.c:2789:16
	ldr	r0, [sp]
	.loc	3 2789 9 is_stmt 0              @ ../../../../Source/queue.c:2789:9
	add	sp, #8
	pop	{r7, pc}
.Ltmp843:
.Lfunc_end44:
	.size	xQueueSelectFromSetFromISR, .Lfunc_end44-xQueueSelectFromSetFromISR
	.cfi_endproc
	.cantunwind
	.fnend
                                        @ -- End function
	.section	".note.GNU-stack","",%progbits
	.eabi_attribute	30, 6	@ Tag_ABI_optimization_goals
	.ARM_attribute	16, 1	@ Tag_AV_eba