	.text
	.syntax unified
	.eabi_attribute	67, "2.09"	@ Tag_conformance
	.eabi_attribute	6, 16	@ Tag_CPU_arch
	.eabi_attribute	7, 77	@ Tag_CPU_arch_profile
	.eabi_attribute	8, 0	@ Tag_ARM_ISA_use
	.eabi_attribute	9, 3	@ Tag_THUMB_ISA_use
	.eabi_attribute	34, 0	@ Tag_CPU_unaligned_access
	.eabi_attribute	17, 1	@ Tag_ABI_PCS_GOT_use
	.eabi_attribute	20, 2	@ Tag_ABI_FP_denormal
	.eabi_attribute	21, 0	@ Tag_ABI_FP_exceptions
	.eabi_attribute	23, 1	@ Tag_ABI_FP_number_model
	.eabi_attribute	24, 1	@ Tag_ABI_align_needed
	.eabi_attribute	25, 1	@ Tag_ABI_align_preserved
	.eabi_attribute	38, 1	@ Tag_ABI_FP_16bit_format
	.eabi_attribute	18, 4	@ Tag_ABI_PCS_wchar_t
	.eabi_attribute	26, 2	@ Tag_ABI_enum_size
	.eabi_attribute	14, 0	@ Tag_ABI_PCS_R9_use
	.file	"QueueSet.c"
	.file	1 "C:\\Keil_v5\\ARM\\ARMCLANG\\Bin\\..\\include" "stdint.h"
	.file	2 "C:\\Users\\karahulx\\Downloads\\Kernel\\FreeRTOS\\FreeRTOS\\Demo\\CORTEX_MPU_M23_Nuvoton_NuMaker_PFM_M2351_IAR_GCC\\Projects_NTZ\\Keil" "../../../../Source/portable/GCC/ARM_CM23_NTZ/non_secure/portmacrocommon.h"
	.file	3 "C:\\Users\\karahulx\\Downloads\\Kernel\\FreeRTOS\\FreeRTOS\\Demo\\CORTEX_MPU_M23_Nuvoton_NuMaker_PFM_M2351_IAR_GCC\\Projects_NTZ\\Keil" "../../../CORTEX_MPU_M3_NUCLEO_L152RE_GCC/Demo/QueueSet.c"
	.file	4 "C:\\Users\\karahulx\\Downloads\\Kernel\\FreeRTOS\\FreeRTOS\\Demo\\CORTEX_MPU_M23_Nuvoton_NuMaker_PFM_M2351_IAR_GCC\\Projects_NTZ\\Keil" "../../../../Source/include/task.h"
	.file	5 "C:\\Keil_v5\\ARM\\ARMCLANG\\Bin\\..\\include" "stdlib.h"
	.file	6 "C:\\Users\\karahulx\\Downloads\\Kernel\\FreeRTOS\\FreeRTOS\\Demo\\CORTEX_MPU_M23_Nuvoton_NuMaker_PFM_M2351_IAR_GCC\\Projects_NTZ\\Keil" "../../../../Source/include\\queue.h"
	.section	.text.vStartQueueSetTasks,"ax",%progbits
	.hidden	vStartQueueSetTasks             @ -- Begin function vStartQueueSetTasks
	.globl	vStartQueueSetTasks
	.p2align	1
	.type	vStartQueueSetTasks,%function
	.code	16                              @ @vStartQueueSetTasks
	.thumb_func
vStartQueueSetTasks:
.Lfunc_begin0:
	.loc	3 222 0                         @ ../../../CORTEX_MPU_M3_NUCLEO_L152RE_GCC/Demo/QueueSet.c:222:0
	.fnstart
	.cfi_sections .debug_frame
	.cfi_startproc
@ %bb.0:
	.save	{r4, r5, r6, lr}
	push	{r4, r5, r6, lr}
	.cfi_def_cfa_offset 16
	.cfi_offset lr, -4
	.cfi_offset r6, -8
	.cfi_offset r5, -12
	.cfi_offset r4, -16
	.pad	#136
	sub	sp, #136
	.cfi_def_cfa_offset 152
.Ltmp0:
	.loc	3 227 26 prologue_end           @ ../../../CORTEX_MPU_M3_NUCLEO_L152RE_GCC/Demo/QueueSet.c:227:26
	movw	r2, :lower16:.L__const.vStartQueueSetTasks.xQueueSetSendingTaskParameters
	movt	r2, :upper16:.L__const.vStartQueueSetTasks.xQueueSetSendingTaskParameters
	add	r0, sp, #72
	mov	r1, r0
	ldm	r2!, {r3, r4, r5, r6}
	stm	r1!, {r3, r4, r5, r6}
	ldm	r2!, {r3, r4, r5, r6}
	stm	r1!, {r3, r4, r5, r6}
	ldm	r2!, {r3, r4, r5, r6}
	stm	r1!, {r3, r4, r5, r6}
	ldm	r2!, {r3, r4, r5, r6}
	stm	r1!, {r3, r4, r5, r6}
	.loc	3 243 26                        @ ../../../CORTEX_MPU_M3_NUCLEO_L152RE_GCC/Demo/QueueSet.c:243:26
	movw	r2, :lower16:.L__const.vStartQueueSetTasks.xQueueSetReceivingTaskParameters
	movt	r2, :upper16:.L__const.vStartQueueSetTasks.xQueueSetReceivingTaskParameters
	add	r1, sp, #8
	ldm	r2!, {r3, r4, r5, r6}
	stm	r1!, {r3, r4, r5, r6}
	ldm	r2!, {r3, r4, r5, r6}
	stm	r1!, {r3, r4, r5, r6}
	ldm	r2!, {r3, r4, r5, r6}
	stm	r1!, {r3, r4, r5, r6}
	ldm	r2!, {r3, r4, r5, r6}
	stm	r1!, {r3, r4, r5, r6}
	.loc	3 260 9                         @ ../../../CORTEX_MPU_M3_NUCLEO_L152RE_GCC/Demo/QueueSet.c:260:9
	movw	r1, :lower16:xLocalTaskHandles
	movt	r1, :upper16:xLocalTaskHandles
	str	r1, [sp, #4]                    @ 4-byte Spill
	bl	xTaskCreateRestricted
                                        @ kill: def $r1 killed $r0
.Ltmp1:
	.loc	3 262 13                        @ ../../../CORTEX_MPU_M3_NUCLEO_L152RE_GCC/Demo/QueueSet.c:262:13
	ldr	r0, [sp, #4]                    @ 4-byte Reload
	ldr	r0, [r0]
.Ltmp2:
	.loc	3 262 13 is_stmt 0              @ ../../../CORTEX_MPU_M3_NUCLEO_L152RE_GCC/Demo/QueueSet.c:262:13
	cbz	r0, .LBB0_2
	b	.LBB0_1
.LBB0_1:
.Ltmp3:
	.loc	3 264 72 is_stmt 1              @ ../../../CORTEX_MPU_M3_NUCLEO_L152RE_GCC/Demo/QueueSet.c:264:72
	movw	r0, :lower16:xLocalTaskHandles
	movt	r0, :upper16:xLocalTaskHandles
	str	r0, [sp]                        @ 4-byte Spill
	ldr	r1, [r0]
	.loc	3 264 59 is_stmt 0              @ ../../../CORTEX_MPU_M3_NUCLEO_L152RE_GCC/Demo/QueueSet.c:264:59
	str	r1, [sp, #20]
	.loc	3 265 13 is_stmt 1              @ ../../../CORTEX_MPU_M3_NUCLEO_L152RE_GCC/Demo/QueueSet.c:265:13
	adds	r1, r0, #4
	add	r0, sp, #8
	bl	xTaskCreateRestricted
                                        @ kill: def $r1 killed $r0
	.loc	3 272 27                        @ ../../../CORTEX_MPU_M3_NUCLEO_L152RE_GCC/Demo/QueueSet.c:272:27
	ldr	r0, [sp]                        @ 4-byte Reload
	ldr	r0, [r0]
	.loc	3 272 13 is_stmt 0              @ ../../../CORTEX_MPU_M3_NUCLEO_L152RE_GCC/Demo/QueueSet.c:272:13
	bl	MPU_vTaskSuspend
	.loc	3 273 9 is_stmt 1               @ ../../../CORTEX_MPU_M3_NUCLEO_L152RE_GCC/Demo/QueueSet.c:273:9
	b	.LBB0_2
.Ltmp4:
.LBB0_2:
	.loc	3 274 5                         @ ../../../CORTEX_MPU_M3_NUCLEO_L152RE_GCC/Demo/QueueSet.c:274:5
	add	sp, #136
	pop	{r4, r5, r6, pc}
.Ltmp5:
.Lfunc_end0:
	.size	vStartQueueSetTasks, .Lfunc_end0-vStartQueueSetTasks
	.cfi_endproc
	.cantunwind
	.fnend
                                        @ -- End function
	.section	.text.prvQueueSetSendingTask,"ax",%progbits
	.p2align	1                               @ -- Begin function prvQueueSetSendingTask
	.type	prvQueueSetSendingTask,%function
	.code	16                              @ @prvQueueSetSendingTask
	.thumb_func
prvQueueSetSendingTask:
.Lfunc_begin1:
	.loc	3 326 0                         @ ../../../CORTEX_MPU_M3_NUCLEO_L152RE_GCC/Demo/QueueSet.c:326:0
	.fnstart
	.cfi_startproc
@ %bb.0:
	.save	{r7, lr}
	push	{r7, lr}
	.cfi_def_cfa_offset 8
	.cfi_offset lr, -4
	.cfi_offset r7, -8
	.pad	#16
	sub	sp, #16
	.cfi_def_cfa_offset 24
	str	r0, [sp, #12]
	movs	r0, #0
.Ltmp6:
	.loc	3 327 18 prologue_end           @ ../../../CORTEX_MPU_M3_NUCLEO_L152RE_GCC/Demo/QueueSet.c:327:18
	str	r0, [sp, #8]
	add	r0, sp, #8
	.loc	3 335 9                         @ ../../../CORTEX_MPU_M3_NUCLEO_L152RE_GCC/Demo/QueueSet.c:335:9
	bl	prvSRand
	.loc	3 337 9                         @ ../../../CORTEX_MPU_M3_NUCLEO_L152RE_GCC/Demo/QueueSet.c:337:9
	b	.LBB1_1
.LBB1_1:                                @ =>This Inner Loop Header: Depth=1
.Ltmp7:
	.loc	3 340 32                        @ ../../../CORTEX_MPU_M3_NUCLEO_L152RE_GCC/Demo/QueueSet.c:340:32
	bl	prvRand
	movs	r1, #3
	.loc	3 340 42 is_stmt 0              @ ../../../CORTEX_MPU_M3_NUCLEO_L152RE_GCC/Demo/QueueSet.c:340:42
	udiv	r2, r0, r1
	muls	r1, r2, r1
	subs	r0, r0, r1
	.loc	3 340 30                        @ ../../../CORTEX_MPU_M3_NUCLEO_L152RE_GCC/Demo/QueueSet.c:340:30
	str	r0, [sp, #4]
	.loc	3 341 36 is_stmt 1              @ ../../../CORTEX_MPU_M3_NUCLEO_L152RE_GCC/Demo/QueueSet.c:341:36
	ldr	r0, [sp, #4]
	.loc	3 341 27 is_stmt 0              @ ../../../CORTEX_MPU_M3_NUCLEO_L152RE_GCC/Demo/QueueSet.c:341:27
	lsls	r1, r0, #2
	movw	r0, :lower16:xQueues
	movt	r0, :upper16:xQueues
	ldr	r0, [r0, r1]
	.loc	3 341 25                        @ ../../../CORTEX_MPU_M3_NUCLEO_L152RE_GCC/Demo/QueueSet.c:341:25
	str	r0, [sp]
	.loc	3 345 35 is_stmt 1              @ ../../../CORTEX_MPU_M3_NUCLEO_L152RE_GCC/Demo/QueueSet.c:345:35
	ldr	r0, [sp, #4]
	.loc	3 345 15 is_stmt 0              @ ../../../CORTEX_MPU_M3_NUCLEO_L152RE_GCC/Demo/QueueSet.c:345:15
	lsls	r2, r0, #2
	movw	r1, :lower16:ulQueueUsedCounter
	movt	r1, :upper16:ulQueueUsedCounter
	.loc	3 345 55                        @ ../../../CORTEX_MPU_M3_NUCLEO_L152RE_GCC/Demo/QueueSet.c:345:55
	ldr	r0, [r1, r2]
	adds	r0, r0, #1
	str	r0, [r1, r2]
.Ltmp8:
	.loc	3 349 17 is_stmt 1              @ ../../../CORTEX_MPU_M3_NUCLEO_L152RE_GCC/Demo/QueueSet.c:349:17
	ldr	r0, [sp]
	movs	r3, #0
	mvns	r2, r3
	add	r1, sp, #8
	bl	MPU_xQueueGenericSend
.Ltmp9:
	.loc	3 349 17 is_stmt 0              @ ../../../CORTEX_MPU_M3_NUCLEO_L152RE_GCC/Demo/QueueSet.c:349:17
	cmp	r0, #1
	beq	.LBB1_3
	b	.LBB1_2
.LBB1_2:                                @   in Loop: Header=BB1_1 Depth=1
.Ltmp10:
	.loc	3 353 43 is_stmt 1              @ ../../../CORTEX_MPU_M3_NUCLEO_L152RE_GCC/Demo/QueueSet.c:353:43
	movw	r1, :lower16:xQueueSetTasksStatus
	movt	r1, :upper16:xQueueSetTasksStatus
	movs	r0, #0
	str	r0, [r1]
	.loc	3 354 13                        @ ../../../CORTEX_MPU_M3_NUCLEO_L152RE_GCC/Demo/QueueSet.c:354:13
	b	.LBB1_3
.Ltmp11:
.LBB1_3:                                @   in Loop: Header=BB1_1 Depth=1
	.loc	3 360 26                        @ ../../../CORTEX_MPU_M3_NUCLEO_L152RE_GCC/Demo/QueueSet.c:360:26
	ldr	r0, [sp, #8]
	adds	r0, r0, #1
	str	r0, [sp, #8]
.Ltmp12:
	.loc	3 364 17                        @ ../../../CORTEX_MPU_M3_NUCLEO_L152RE_GCC/Demo/QueueSet.c:364:17
	ldr	r0, [sp, #8]
	movw	r1, #65535
.Ltmp13:
	.loc	3 364 17 is_stmt 0              @ ../../../CORTEX_MPU_M3_NUCLEO_L152RE_GCC/Demo/QueueSet.c:364:17
	cmp	r0, r1
	bne	.LBB1_5
	b	.LBB1_4
.LBB1_4:                                @   in Loop: Header=BB1_1 Depth=1
	.loc	3 0 17                          @ ../../../CORTEX_MPU_M3_NUCLEO_L152RE_GCC/Demo/QueueSet.c:0:17
	movs	r0, #0
.Ltmp14:
	.loc	3 366 31 is_stmt 1              @ ../../../CORTEX_MPU_M3_NUCLEO_L152RE_GCC/Demo/QueueSet.c:366:31
	str	r0, [sp, #8]
	.loc	3 367 13                        @ ../../../CORTEX_MPU_M3_NUCLEO_L152RE_GCC/Demo/QueueSet.c:367:13
	b	.LBB1_5
.Ltmp15:
.LBB1_5:                                @   in Loop: Header=BB1_1 Depth=1
	.loc	3 371 13                        @ ../../../CORTEX_MPU_M3_NUCLEO_L152RE_GCC/Demo/QueueSet.c:371:13
	bl	prvChangeRelativePriorities
.Ltmp16:
	.loc	3 337 9                         @ ../../../CORTEX_MPU_M3_NUCLEO_L152RE_GCC/Demo/QueueSet.c:337:9
	b	.LBB1_1
.Ltmp17:
.Lfunc_end1:
	.size	prvQueueSetSendingTask, .Lfunc_end1-prvQueueSetSendingTask
	.cfi_endproc
	.cantunwind
	.fnend
                                        @ -- End function
	.section	.text.prvQueueSetReceivingTask,"ax",%progbits
	.p2align	1                               @ -- Begin function prvQueueSetReceivingTask
	.type	prvQueueSetReceivingTask,%function
	.code	16                              @ @prvQueueSetReceivingTask
	.thumb_func
prvQueueSetReceivingTask:
.Lfunc_begin2:
	.loc	3 426 0                         @ ../../../CORTEX_MPU_M3_NUCLEO_L152RE_GCC/Demo/QueueSet.c:426:0
	.fnstart
	.cfi_startproc
@ %bb.0:
	.save	{r7, lr}
	push	{r7, lr}
	.cfi_def_cfa_offset 8
	.cfi_offset lr, -4
	.cfi_offset r7, -8
	.pad	#16
	sub	sp, #16
	.cfi_def_cfa_offset 24
	str	r0, [sp, #12]
.Ltmp18:
	.loc	3 436 9 prologue_end            @ ../../../CORTEX_MPU_M3_NUCLEO_L152RE_GCC/Demo/QueueSet.c:436:9
	bl	prvSetupTest
	.loc	3 438 9                         @ ../../../CORTEX_MPU_M3_NUCLEO_L152RE_GCC/Demo/QueueSet.c:438:9
	b	.LBB2_1
.LBB2_1:                                @ =>This Inner Loop Header: Depth=1
	.loc	3 0 9 is_stmt 0                 @ ../../../CORTEX_MPU_M3_NUCLEO_L152RE_GCC/Demo/QueueSet.c:0:9
	movs	r0, #0
.Ltmp19:
	.loc	3 443 17 is_stmt 1              @ ../../../CORTEX_MPU_M3_NUCLEO_L152RE_GCC/Demo/QueueSet.c:443:17
	bl	MPU_uxTaskPriorityGet
.Ltmp20:
	.loc	3 443 17 is_stmt 0              @ ../../../CORTEX_MPU_M3_NUCLEO_L152RE_GCC/Demo/QueueSet.c:443:17
	cbnz	r0, .LBB2_3
	b	.LBB2_2
.LBB2_2:                                @   in Loop: Header=BB2_1 Depth=1
	.loc	3 0 17                          @ ../../../CORTEX_MPU_M3_NUCLEO_L152RE_GCC/Demo/QueueSet.c:0:17
	movs	r0, #0
.Ltmp21:
	.loc	3 445 28 is_stmt 1              @ ../../../CORTEX_MPU_M3_NUCLEO_L152RE_GCC/Demo/QueueSet.c:445:28
	str	r0, [sp]
	.loc	3 446 13                        @ ../../../CORTEX_MPU_M3_NUCLEO_L152RE_GCC/Demo/QueueSet.c:446:13
	b	.LBB2_4
.Ltmp22:
.LBB2_3:                                @   in Loop: Header=BB2_1 Depth=1
	.loc	3 0 13 is_stmt 0                @ ../../../CORTEX_MPU_M3_NUCLEO_L152RE_GCC/Demo/QueueSet.c:0:13
	movs	r0, #0
	mvns	r0, r0
.Ltmp23:
	.loc	3 449 28 is_stmt 1              @ ../../../CORTEX_MPU_M3_NUCLEO_L152RE_GCC/Demo/QueueSet.c:449:28
	str	r0, [sp]
	b	.LBB2_4
.Ltmp24:
.LBB2_4:                                @   in Loop: Header=BB2_1 Depth=1
	.loc	3 453 52                        @ ../../../CORTEX_MPU_M3_NUCLEO_L152RE_GCC/Demo/QueueSet.c:453:52
	movw	r0, :lower16:xQueueSet
	movt	r0, :upper16:xQueueSet
	ldr	r0, [r0]
	movs	r1, #0
	mvns	r1, r1
	.loc	3 453 31 is_stmt 0              @ ../../../CORTEX_MPU_M3_NUCLEO_L152RE_GCC/Demo/QueueSet.c:453:31
	bl	MPU_xQueueSelectFromSet
	.loc	3 453 29                        @ ../../../CORTEX_MPU_M3_NUCLEO_L152RE_GCC/Demo/QueueSet.c:453:29
	str	r0, [sp, #4]
.Ltmp25:
	.loc	3 455 17 is_stmt 1              @ ../../../CORTEX_MPU_M3_NUCLEO_L152RE_GCC/Demo/QueueSet.c:455:17
	ldr	r0, [sp, #4]
.Ltmp26:
	.loc	3 455 17 is_stmt 0              @ ../../../CORTEX_MPU_M3_NUCLEO_L152RE_GCC/Demo/QueueSet.c:455:17
	cbnz	r0, .LBB2_8
	b	.LBB2_5
.LBB2_5:                                @   in Loop: Header=BB2_1 Depth=1
.Ltmp27:
	.loc	3 457 21 is_stmt 1              @ ../../../CORTEX_MPU_M3_NUCLEO_L152RE_GCC/Demo/QueueSet.c:457:21
	ldr	r0, [sp]
.Ltmp28:
	.loc	3 457 21 is_stmt 0              @ ../../../CORTEX_MPU_M3_NUCLEO_L152RE_GCC/Demo/QueueSet.c:457:21
	cbz	r0, .LBB2_7
	b	.LBB2_6
.LBB2_6:                                @   in Loop: Header=BB2_1 Depth=1
.Ltmp29:
	.loc	3 460 47 is_stmt 1              @ ../../../CORTEX_MPU_M3_NUCLEO_L152RE_GCC/Demo/QueueSet.c:460:47
	movw	r1, :lower16:xQueueSetTasksStatus
	movt	r1, :upper16:xQueueSetTasksStatus
	movs	r0, #0
	str	r0, [r1]
	.loc	3 461 17                        @ ../../../CORTEX_MPU_M3_NUCLEO_L152RE_GCC/Demo/QueueSet.c:461:17
	b	.LBB2_7
.Ltmp30:
.LBB2_7:                                @   in Loop: Header=BB2_1 Depth=1
	.loc	3 462 13                        @ ../../../CORTEX_MPU_M3_NUCLEO_L152RE_GCC/Demo/QueueSet.c:462:13
	b	.LBB2_13
.Ltmp31:
.LBB2_8:                                @   in Loop: Header=BB2_1 Depth=1
	.loc	3 468 36                        @ ../../../CORTEX_MPU_M3_NUCLEO_L152RE_GCC/Demo/QueueSet.c:468:36
	ldr	r0, [sp, #4]
	add	r1, sp, #8
	movs	r2, #0
	.loc	3 468 21 is_stmt 0              @ ../../../CORTEX_MPU_M3_NUCLEO_L152RE_GCC/Demo/QueueSet.c:468:21
	bl	MPU_xQueueReceive
.Ltmp32:
	.loc	3 468 21                        @ ../../../CORTEX_MPU_M3_NUCLEO_L152RE_GCC/Demo/QueueSet.c:468:21
	cmp	r0, #1
	beq	.LBB2_10
	b	.LBB2_9
.LBB2_9:                                @   in Loop: Header=BB2_1 Depth=1
.Ltmp33:
	.loc	3 470 47 is_stmt 1              @ ../../../CORTEX_MPU_M3_NUCLEO_L152RE_GCC/Demo/QueueSet.c:470:47
	movw	r1, :lower16:xQueueSetTasksStatus
	movt	r1, :upper16:xQueueSetTasksStatus
	movs	r0, #0
	str	r0, [r1]
	.loc	3 471 17                        @ ../../../CORTEX_MPU_M3_NUCLEO_L152RE_GCC/Demo/QueueSet.c:471:17
	b	.LBB2_10
.Ltmp34:
.LBB2_10:                               @   in Loop: Header=BB2_1 Depth=1
	.loc	3 476 17                        @ ../../../CORTEX_MPU_M3_NUCLEO_L152RE_GCC/Demo/QueueSet.c:476:17
	bl	vPortEnterCritical
.Ltmp35:
	.loc	3 478 44                        @ ../../../CORTEX_MPU_M3_NUCLEO_L152RE_GCC/Demo/QueueSet.c:478:44
	ldr	r0, [sp, #8]
	.loc	3 478 21 is_stmt 0              @ ../../../CORTEX_MPU_M3_NUCLEO_L152RE_GCC/Demo/QueueSet.c:478:21
	bl	prvCheckReceivedValue
.Ltmp36:
	.loc	3 480 17 is_stmt 1              @ ../../../CORTEX_MPU_M3_NUCLEO_L152RE_GCC/Demo/QueueSet.c:480:17
	bl	vPortExitCritical
.Ltmp37:
	.loc	3 482 21                        @ ../../../CORTEX_MPU_M3_NUCLEO_L152RE_GCC/Demo/QueueSet.c:482:21
	movw	r0, :lower16:xQueueSetTasksStatus
	movt	r0, :upper16:xQueueSetTasksStatus
	ldr	r0, [r0]
.Ltmp38:
	.loc	3 482 21 is_stmt 0              @ ../../../CORTEX_MPU_M3_NUCLEO_L152RE_GCC/Demo/QueueSet.c:482:21
	cmp	r0, #1
	bne	.LBB2_12
	b	.LBB2_11
.LBB2_11:                               @   in Loop: Header=BB2_1 Depth=1
.Ltmp39:
	.loc	3 484 40 is_stmt 1              @ ../../../CORTEX_MPU_M3_NUCLEO_L152RE_GCC/Demo/QueueSet.c:484:40
	movw	r1, :lower16:ulCycleCounter
	movt	r1, :upper16:ulCycleCounter
	ldr	r0, [r1]
	adds	r0, r0, #1
	str	r0, [r1]
	.loc	3 485 17                        @ ../../../CORTEX_MPU_M3_NUCLEO_L152RE_GCC/Demo/QueueSet.c:485:17
	b	.LBB2_12
.Ltmp40:
.LBB2_12:                               @   in Loop: Header=BB2_1 Depth=1
	.loc	3 0 17 is_stmt 0                @ ../../../CORTEX_MPU_M3_NUCLEO_L152RE_GCC/Demo/QueueSet.c:0:17
	b	.LBB2_13
.LBB2_13:                               @   in Loop: Header=BB2_1 Depth=1
	.loc	3 438 9 is_stmt 1               @ ../../../CORTEX_MPU_M3_NUCLEO_L152RE_GCC/Demo/QueueSet.c:438:9
	b	.LBB2_1
.Ltmp41:
.Lfunc_end2:
	.size	prvQueueSetReceivingTask, .Lfunc_end2-prvQueueSetReceivingTask
	.cfi_endproc
	.cantunwind
	.fnend
                                        @ -- End function
	.section	.text.xAreQueueSetTasksStillRunning,"ax",%progbits
	.hidden	xAreQueueSetTasksStillRunning   @ -- Begin function xAreQueueSetTasksStillRunning
	.globl	xAreQueueSetTasksStillRunning
	.p2align	1
	.type	xAreQueueSetTasksStillRunning,%function
	.code	16                              @ @xAreQueueSetTasksStillRunning
	.thumb_func
xAreQueueSetTasksStillRunning:
.Lfunc_begin3:
	.loc	3 278 0                         @ ../../../CORTEX_MPU_M3_NUCLEO_L152RE_GCC/Demo/QueueSet.c:278:0
	.fnstart
	.cfi_startproc
@ %bb.0:
	.pad	#8
	sub	sp, #8
	.cfi_def_cfa_offset 8
	movs	r0, #1
.Ltmp42:
	.loc	3 281 20 prologue_end           @ ../../../CORTEX_MPU_M3_NUCLEO_L152RE_GCC/Demo/QueueSet.c:281:20
	str	r0, [sp, #4]
.Ltmp43:
	.loc	3 283 13                        @ ../../../CORTEX_MPU_M3_NUCLEO_L152RE_GCC/Demo/QueueSet.c:283:13
	movw	r0, :lower16:xAreQueueSetTasksStillRunning.ulLastCycleCounter
	movt	r0, :upper16:xAreQueueSetTasksStillRunning.ulLastCycleCounter
	ldr	r0, [r0]
	.loc	3 283 35 is_stmt 0              @ ../../../CORTEX_MPU_M3_NUCLEO_L152RE_GCC/Demo/QueueSet.c:283:35
	movw	r1, :lower16:ulCycleCounter
	movt	r1, :upper16:ulCycleCounter
	ldr	r1, [r1]
.Ltmp44:
	.loc	3 283 13                        @ ../../../CORTEX_MPU_M3_NUCLEO_L152RE_GCC/Demo/QueueSet.c:283:13
	cmp	r0, r1
	bne	.LBB3_2
	b	.LBB3_1
.LBB3_1:
	.loc	3 0 13                          @ ../../../CORTEX_MPU_M3_NUCLEO_L152RE_GCC/Demo/QueueSet.c:0:13
	movs	r0, #0
.Ltmp45:
	.loc	3 287 21 is_stmt 1              @ ../../../CORTEX_MPU_M3_NUCLEO_L152RE_GCC/Demo/QueueSet.c:287:21
	str	r0, [sp, #4]
	.loc	3 288 9                         @ ../../../CORTEX_MPU_M3_NUCLEO_L152RE_GCC/Demo/QueueSet.c:288:9
	b	.LBB3_2
.Ltmp46:
.LBB3_2:
	.loc	3 290 30                        @ ../../../CORTEX_MPU_M3_NUCLEO_L152RE_GCC/Demo/QueueSet.c:290:30
	movw	r0, :lower16:ulCycleCounter
	movt	r0, :upper16:ulCycleCounter
	ldr	r0, [r0]
	.loc	3 290 28 is_stmt 0              @ ../../../CORTEX_MPU_M3_NUCLEO_L152RE_GCC/Demo/QueueSet.c:290:28
	movw	r1, :lower16:xAreQueueSetTasksStillRunning.ulLastCycleCounter
	movt	r1, :upper16:xAreQueueSetTasksStillRunning.ulLastCycleCounter
	str	r0, [r1]
	movs	r0, #0
.Ltmp47:
	.loc	3 295 16 is_stmt 1              @ ../../../CORTEX_MPU_M3_NUCLEO_L152RE_GCC/Demo/QueueSet.c:295:16
	str	r0, [sp]
	.loc	3 295 14 is_stmt 0              @ ../../../CORTEX_MPU_M3_NUCLEO_L152RE_GCC/Demo/QueueSet.c:295:14
	b	.LBB3_3
.LBB3_3:                                @ =>This Inner Loop Header: Depth=1
.Ltmp48:
	.loc	3 295 21                        @ ../../../CORTEX_MPU_M3_NUCLEO_L152RE_GCC/Demo/QueueSet.c:295:21
	ldr	r0, [sp]
.Ltmp49:
	.loc	3 295 9                         @ ../../../CORTEX_MPU_M3_NUCLEO_L152RE_GCC/Demo/QueueSet.c:295:9
	cmp	r0, #2
	bgt	.LBB3_8
	b	.LBB3_4
.LBB3_4:                                @   in Loop: Header=BB3_3 Depth=1
.Ltmp50:
	.loc	3 297 41 is_stmt 1              @ ../../../CORTEX_MPU_M3_NUCLEO_L152RE_GCC/Demo/QueueSet.c:297:41
	ldr	r0, [sp]
	.loc	3 297 17 is_stmt 0              @ ../../../CORTEX_MPU_M3_NUCLEO_L152RE_GCC/Demo/QueueSet.c:297:17
	lsls	r2, r0, #2
	movw	r0, :lower16:xAreQueueSetTasksStillRunning.ulLastQueueUsedCounter
	movt	r0, :upper16:xAreQueueSetTasksStillRunning.ulLastQueueUsedCounter
	ldr	r0, [r0, r2]
	.loc	3 297 48                        @ ../../../CORTEX_MPU_M3_NUCLEO_L152RE_GCC/Demo/QueueSet.c:297:48
	movw	r1, :lower16:ulQueueUsedCounter
	movt	r1, :upper16:ulQueueUsedCounter
	ldr	r1, [r1, r2]
.Ltmp51:
	.loc	3 297 17                        @ ../../../CORTEX_MPU_M3_NUCLEO_L152RE_GCC/Demo/QueueSet.c:297:17
	cmp	r0, r1
	bne	.LBB3_6
	b	.LBB3_5
.LBB3_5:                                @   in Loop: Header=BB3_3 Depth=1
	.loc	3 0 17                          @ ../../../CORTEX_MPU_M3_NUCLEO_L152RE_GCC/Demo/QueueSet.c:0:17
	movs	r0, #0
.Ltmp52:
	.loc	3 299 25 is_stmt 1              @ ../../../CORTEX_MPU_M3_NUCLEO_L152RE_GCC/Demo/QueueSet.c:299:25
	str	r0, [sp, #4]
	.loc	3 300 13                        @ ../../../CORTEX_MPU_M3_NUCLEO_L152RE_GCC/Demo/QueueSet.c:300:13
	b	.LBB3_6
.Ltmp53:
.LBB3_6:                                @   in Loop: Header=BB3_3 Depth=1
	.loc	3 302 63                        @ ../../../CORTEX_MPU_M3_NUCLEO_L152RE_GCC/Demo/QueueSet.c:302:63
	ldr	r0, [sp]
	.loc	3 302 43 is_stmt 0              @ ../../../CORTEX_MPU_M3_NUCLEO_L152RE_GCC/Demo/QueueSet.c:302:43
	lsls	r2, r0, #2
	movw	r0, :lower16:ulQueueUsedCounter
	movt	r0, :upper16:ulQueueUsedCounter
	ldr	r0, [r0, r2]
	.loc	3 302 13                        @ ../../../CORTEX_MPU_M3_NUCLEO_L152RE_GCC/Demo/QueueSet.c:302:13
	movw	r1, :lower16:xAreQueueSetTasksStillRunning.ulLastQueueUsedCounter
	movt	r1, :upper16:xAreQueueSetTasksStillRunning.ulLastQueueUsedCounter
	.loc	3 302 41                        @ ../../../CORTEX_MPU_M3_NUCLEO_L152RE_GCC/Demo/QueueSet.c:302:41
	str	r0, [r1, r2]
	.loc	3 303 9 is_stmt 1               @ ../../../CORTEX_MPU_M3_NUCLEO_L152RE_GCC/Demo/QueueSet.c:303:9
	b	.LBB3_7
.Ltmp54:
.LBB3_7:                                @   in Loop: Header=BB3_3 Depth=1
	.loc	3 295 53                        @ ../../../CORTEX_MPU_M3_NUCLEO_L152RE_GCC/Demo/QueueSet.c:295:53
	ldr	r0, [sp]
	adds	r0, r0, #1
	str	r0, [sp]
	.loc	3 295 9 is_stmt 0               @ ../../../CORTEX_MPU_M3_NUCLEO_L152RE_GCC/Demo/QueueSet.c:295:9
	b	.LBB3_3
.Ltmp55:
.LBB3_8:
	.loc	3 306 13 is_stmt 1              @ ../../../CORTEX_MPU_M3_NUCLEO_L152RE_GCC/Demo/QueueSet.c:306:13
	movw	r0, :lower16:xQueueSetTasksStatus
	movt	r0, :upper16:xQueueSetTasksStatus
	ldr	r0, [r0]
.Ltmp56:
	.loc	3 306 13 is_stmt 0              @ ../../../CORTEX_MPU_M3_NUCLEO_L152RE_GCC/Demo/QueueSet.c:306:13
	cmp	r0, #1
	beq	.LBB3_10
	b	.LBB3_9
.LBB3_9:
	.loc	3 0 13                          @ ../../../CORTEX_MPU_M3_NUCLEO_L152RE_GCC/Demo/QueueSet.c:0:13
	movs	r0, #0
.Ltmp57:
	.loc	3 308 21 is_stmt 1              @ ../../../CORTEX_MPU_M3_NUCLEO_L152RE_GCC/Demo/QueueSet.c:308:21
	str	r0, [sp, #4]
	.loc	3 309 9                         @ ../../../CORTEX_MPU_M3_NUCLEO_L152RE_GCC/Demo/QueueSet.c:309:9
	b	.LBB3_10
.Ltmp58:
.LBB3_10:
	.loc	3 312 13                        @ ../../../CORTEX_MPU_M3_NUCLEO_L152RE_GCC/Demo/QueueSet.c:312:13
	movw	r0, :lower16:ulISRTxValue
	movt	r0, :upper16:ulISRTxValue
	ldr	r0, [r0]
	.loc	3 312 29 is_stmt 0              @ ../../../CORTEX_MPU_M3_NUCLEO_L152RE_GCC/Demo/QueueSet.c:312:29
	movw	r1, :lower16:xAreQueueSetTasksStillRunning.ulLastISRTxValue
	movt	r1, :upper16:xAreQueueSetTasksStillRunning.ulLastISRTxValue
	ldr	r1, [r1]
.Ltmp59:
	.loc	3 312 13                        @ ../../../CORTEX_MPU_M3_NUCLEO_L152RE_GCC/Demo/QueueSet.c:312:13
	cmp	r0, r1
	bne	.LBB3_12
	b	.LBB3_11
.LBB3_11:
	.loc	3 0 13                          @ ../../../CORTEX_MPU_M3_NUCLEO_L152RE_GCC/Demo/QueueSet.c:0:13
	movs	r0, #0
.Ltmp60:
	.loc	3 314 21 is_stmt 1              @ ../../../CORTEX_MPU_M3_NUCLEO_L152RE_GCC/Demo/QueueSet.c:314:21
	str	r0, [sp, #4]
	.loc	3 315 9                         @ ../../../CORTEX_MPU_M3_NUCLEO_L152RE_GCC/Demo/QueueSet.c:315:9
	b	.LBB3_13
.Ltmp61:
.LBB3_12:
	.loc	3 318 32                        @ ../../../CORTEX_MPU_M3_NUCLEO_L152RE_GCC/Demo/QueueSet.c:318:32
	movw	r0, :lower16:ulISRTxValue
	movt	r0, :upper16:ulISRTxValue
	ldr	r0, [r0]
	.loc	3 318 30 is_stmt 0              @ ../../../CORTEX_MPU_M3_NUCLEO_L152RE_GCC/Demo/QueueSet.c:318:30
	movw	r1, :lower16:xAreQueueSetTasksStillRunning.ulLastISRTxValue
	movt	r1, :upper16:xAreQueueSetTasksStillRunning.ulLastISRTxValue
	str	r0, [r1]
	b	.LBB3_13
.Ltmp62:
.LBB3_13:
	.loc	3 321 16 is_stmt 1              @ ../../../CORTEX_MPU_M3_NUCLEO_L152RE_GCC/Demo/QueueSet.c:321:16
	ldr	r0, [sp, #4]
	.loc	3 321 9 is_stmt 0               @ ../../../CORTEX_MPU_M3_NUCLEO_L152RE_GCC/Demo/QueueSet.c:321:9
	add	sp, #8
	bx	lr
.Ltmp63:
.Lfunc_end3:
	.size	xAreQueueSetTasksStillRunning, .Lfunc_end3-xAreQueueSetTasksStillRunning
	.cfi_endproc
	.cantunwind
	.fnend
                                        @ -- End function
	.section	.text.vQueueSetAccessQueueSetFromISR,"ax",%progbits
	.hidden	vQueueSetAccessQueueSetFromISR  @ -- Begin function vQueueSetAccessQueueSetFromISR
	.globl	vQueueSetAccessQueueSetFromISR
	.p2align	1
	.type	vQueueSetAccessQueueSetFromISR,%function
	.code	16                              @ @vQueueSetAccessQueueSetFromISR
	.thumb_func
vQueueSetAccessQueueSetFromISR:
.Lfunc_begin4:
	.loc	3 492 0 is_stmt 1               @ ../../../CORTEX_MPU_M3_NUCLEO_L152RE_GCC/Demo/QueueSet.c:492:0
	.fnstart
	.cfi_startproc
@ %bb.0:
	.save	{r7, lr}
	push	{r7, lr}
	.cfi_def_cfa_offset 8
	.cfi_offset lr, -4
	.cfi_offset r7, -8
.Ltmp64:
	.loc	3 497 13 prologue_end           @ ../../../CORTEX_MPU_M3_NUCLEO_L152RE_GCC/Demo/QueueSet.c:497:13
	movw	r0, :lower16:xSetupComplete
	movt	r0, :upper16:xSetupComplete
	ldr	r0, [r0]
.Ltmp65:
	.loc	3 497 13 is_stmt 0              @ ../../../CORTEX_MPU_M3_NUCLEO_L152RE_GCC/Demo/QueueSet.c:497:13
	cmp	r0, #1
	bne	.LBB4_4
	b	.LBB4_1
.LBB4_1:
.Ltmp66:
	.loc	3 501 24 is_stmt 1              @ ../../../CORTEX_MPU_M3_NUCLEO_L152RE_GCC/Demo/QueueSet.c:501:24
	movw	r0, :lower16:vQueueSetAccessQueueSetFromISR.ulCallCount
	movt	r0, :upper16:vQueueSetAccessQueueSetFromISR.ulCallCount
	ldr	r1, [r0]
	adds	r1, r1, #1
	str	r1, [r0]
.Ltmp67:
	.loc	3 503 17                        @ ../../../CORTEX_MPU_M3_NUCLEO_L152RE_GCC/Demo/QueueSet.c:503:17
	ldr	r0, [r0]
.Ltmp68:
	.loc	3 503 17 is_stmt 0              @ ../../../CORTEX_MPU_M3_NUCLEO_L152RE_GCC/Demo/QueueSet.c:503:17
	cmp	r0, #101
	blo	.LBB4_3
	b	.LBB4_2
.LBB4_2:
.Ltmp69:
	.loc	3 505 29 is_stmt 1              @ ../../../CORTEX_MPU_M3_NUCLEO_L152RE_GCC/Demo/QueueSet.c:505:29
	movw	r1, :lower16:vQueueSetAccessQueueSetFromISR.ulCallCount
	movt	r1, :upper16:vQueueSetAccessQueueSetFromISR.ulCallCount
	movs	r0, #0
	str	r0, [r1]
	.loc	3 508 17                        @ ../../../CORTEX_MPU_M3_NUCLEO_L152RE_GCC/Demo/QueueSet.c:508:17
	bl	prvReceiveFromQueueInSetFromISR
	.loc	3 511 17                        @ ../../../CORTEX_MPU_M3_NUCLEO_L152RE_GCC/Demo/QueueSet.c:511:17
	bl	prvSendToQueueInSetFromISR
	.loc	3 512 13                        @ ../../../CORTEX_MPU_M3_NUCLEO_L152RE_GCC/Demo/QueueSet.c:512:13
	b	.LBB4_3
.Ltmp70:
.LBB4_3:
	.loc	3 513 9                         @ ../../../CORTEX_MPU_M3_NUCLEO_L152RE_GCC/Demo/QueueSet.c:513:9
	b	.LBB4_4
.Ltmp71:
.LBB4_4:
	.loc	3 514 5                         @ ../../../CORTEX_MPU_M3_NUCLEO_L152RE_GCC/Demo/QueueSet.c:514:5
	pop	{r7, pc}
.Ltmp72:
.Lfunc_end4:
	.size	vQueueSetAccessQueueSetFromISR, .Lfunc_end4-vQueueSetAccessQueueSetFromISR
	.cfi_endproc
	.cantunwind
	.fnend
                                        @ -- End function
	.section	.text.prvReceiveFromQueueInSetFromISR,"ax",%progbits
	.p2align	1                               @ -- Begin function prvReceiveFromQueueInSetFromISR
	.type	prvReceiveFromQueueInSetFromISR,%function
	.code	16                              @ @prvReceiveFromQueueInSetFromISR
	.thumb_func
prvReceiveFromQueueInSetFromISR:
.Lfunc_begin5:
	.loc	3 628 0                         @ ../../../CORTEX_MPU_M3_NUCLEO_L152RE_GCC/Demo/QueueSet.c:628:0
	.fnstart
	.cfi_startproc
@ %bb.0:
	.save	{r7, lr}
	push	{r7, lr}
	.cfi_def_cfa_offset 8
	.cfi_offset lr, -4
	.cfi_offset r7, -8
	.pad	#8
	sub	sp, #8
	.cfi_def_cfa_offset 16
.Ltmp73:
	.loc	3 633 55 prologue_end           @ ../../../CORTEX_MPU_M3_NUCLEO_L152RE_GCC/Demo/QueueSet.c:633:55
	movw	r0, :lower16:xQueueSet
	movt	r0, :upper16:xQueueSet
	ldr	r0, [r0]
	.loc	3 633 27 is_stmt 0              @ ../../../CORTEX_MPU_M3_NUCLEO_L152RE_GCC/Demo/QueueSet.c:633:27
	bl	xQueueSelectFromSetFromISR
	.loc	3 633 25                        @ ../../../CORTEX_MPU_M3_NUCLEO_L152RE_GCC/Demo/QueueSet.c:633:25
	str	r0, [sp, #4]
.Ltmp74:
	.loc	3 635 13 is_stmt 1              @ ../../../CORTEX_MPU_M3_NUCLEO_L152RE_GCC/Demo/QueueSet.c:635:13
	ldr	r0, [sp, #4]
.Ltmp75:
	.loc	3 635 13 is_stmt 0              @ ../../../CORTEX_MPU_M3_NUCLEO_L152RE_GCC/Demo/QueueSet.c:635:13
	cbz	r0, .LBB5_4
	b	.LBB5_1
.LBB5_1:
.Ltmp76:
	.loc	3 638 39 is_stmt 1              @ ../../../CORTEX_MPU_M3_NUCLEO_L152RE_GCC/Demo/QueueSet.c:638:39
	ldr	r0, [sp, #4]
	mov	r1, sp
	movs	r2, #0
	.loc	3 638 17 is_stmt 0              @ ../../../CORTEX_MPU_M3_NUCLEO_L152RE_GCC/Demo/QueueSet.c:638:17
	bl	xQueueReceiveFromISR
.Ltmp77:
	.loc	3 638 17                        @ ../../../CORTEX_MPU_M3_NUCLEO_L152RE_GCC/Demo/QueueSet.c:638:17
	cmp	r0, #1
	beq	.LBB5_3
	b	.LBB5_2
.LBB5_2:
.Ltmp78:
	.loc	3 642 43 is_stmt 1              @ ../../../CORTEX_MPU_M3_NUCLEO_L152RE_GCC/Demo/QueueSet.c:642:43
	movw	r1, :lower16:xQueueSetTasksStatus
	movt	r1, :upper16:xQueueSetTasksStatus
	movs	r0, #0
	str	r0, [r1]
	.loc	3 643 13                        @ ../../../CORTEX_MPU_M3_NUCLEO_L152RE_GCC/Demo/QueueSet.c:643:13
	b	.LBB5_3
.Ltmp79:
.LBB5_3:
	.loc	3 646 36                        @ ../../../CORTEX_MPU_M3_NUCLEO_L152RE_GCC/Demo/QueueSet.c:646:36
	ldr	r0, [sp]
	.loc	3 646 13 is_stmt 0              @ ../../../CORTEX_MPU_M3_NUCLEO_L152RE_GCC/Demo/QueueSet.c:646:13
	bl	prvCheckReceivedValue
	.loc	3 647 9 is_stmt 1               @ ../../../CORTEX_MPU_M3_NUCLEO_L152RE_GCC/Demo/QueueSet.c:647:9
	b	.LBB5_4
.Ltmp80:
.LBB5_4:
	.loc	3 648 5                         @ ../../../CORTEX_MPU_M3_NUCLEO_L152RE_GCC/Demo/QueueSet.c:648:5
	add	sp, #8
	pop	{r7, pc}
.Ltmp81:
.Lfunc_end5:
	.size	prvReceiveFromQueueInSetFromISR, .Lfunc_end5-prvReceiveFromQueueInSetFromISR
	.cfi_endproc
	.cantunwind
	.fnend
                                        @ -- End function
	.section	.text.prvSendToQueueInSetFromISR,"ax",%progbits
	.p2align	1                               @ -- Begin function prvSendToQueueInSetFromISR
	.type	prvSendToQueueInSetFromISR,%function
	.code	16                              @ @prvSendToQueueInSetFromISR
	.thumb_func
prvSendToQueueInSetFromISR:
.Lfunc_begin6:
	.loc	3 652 0                         @ ../../../CORTEX_MPU_M3_NUCLEO_L152RE_GCC/Demo/QueueSet.c:652:0
	.fnstart
	.cfi_startproc
@ %bb.0:
	.save	{r7, lr}
	push	{r7, lr}
	.cfi_def_cfa_offset 8
	.cfi_offset lr, -4
	.cfi_offset r7, -8
	.pad	#8
	sub	sp, #8
	.cfi_def_cfa_offset 16
.Ltmp82:
	.loc	3 654 38 prologue_end           @ ../../../CORTEX_MPU_M3_NUCLEO_L152RE_GCC/Demo/QueueSet.c:654:38
	movw	r0, :lower16:ulISRTxValue
	movt	r0, :upper16:ulISRTxValue
	ldr	r0, [r0]
	.loc	3 654 18 is_stmt 0              @ ../../../CORTEX_MPU_M3_NUCLEO_L152RE_GCC/Demo/QueueSet.c:654:18
	str	r0, [sp, #4]
.Ltmp83:
	.loc	3 656 13 is_stmt 1              @ ../../../CORTEX_MPU_M3_NUCLEO_L152RE_GCC/Demo/QueueSet.c:656:13
	movw	r0, :lower16:prvSendToQueueInSetFromISR.xQueueToWriteTo
	movt	r0, :upper16:prvSendToQueueInSetFromISR.xQueueToWriteTo
	ldr	r0, [r0]
	lsls	r1, r0, #2
	movw	r0, :lower16:xQueues
	movt	r0, :upper16:xQueues
	ldr	r0, [r0, r1]
	add	r1, sp, #4
	movs	r3, #0
	mov	r2, r3
	bl	xQueueGenericSendFromISR
.Ltmp84:
	.loc	3 656 13 is_stmt 0              @ ../../../CORTEX_MPU_M3_NUCLEO_L152RE_GCC/Demo/QueueSet.c:656:13
	cmp	r0, #1
	bne	.LBB6_6
	b	.LBB6_1
.LBB6_1:
.Ltmp85:
	.loc	3 658 25 is_stmt 1              @ ../../../CORTEX_MPU_M3_NUCLEO_L152RE_GCC/Demo/QueueSet.c:658:25
	movw	r0, :lower16:ulISRTxValue
	movt	r0, :upper16:ulISRTxValue
	ldr	r1, [r0]
	adds	r1, r1, #1
	str	r1, [r0]
.Ltmp86:
	.loc	3 661 17                        @ ../../../CORTEX_MPU_M3_NUCLEO_L152RE_GCC/Demo/QueueSet.c:661:17
	ldr	r0, [r0]
.Ltmp87:
	.loc	3 661 17 is_stmt 0              @ ../../../CORTEX_MPU_M3_NUCLEO_L152RE_GCC/Demo/QueueSet.c:661:17
	cbnz	r0, .LBB6_3
	b	.LBB6_2
.LBB6_2:
.Ltmp88:
	.loc	3 663 30 is_stmt 1              @ ../../../CORTEX_MPU_M3_NUCLEO_L152RE_GCC/Demo/QueueSet.c:663:30
	movw	r1, :lower16:ulISRTxValue
	movt	r1, :upper16:ulISRTxValue
	movw	r0, #65535
	str	r0, [r1]
	.loc	3 664 13                        @ ../../../CORTEX_MPU_M3_NUCLEO_L152RE_GCC/Demo/QueueSet.c:664:13
	b	.LBB6_3
.Ltmp89:
.LBB6_3:
	.loc	3 667 28                        @ ../../../CORTEX_MPU_M3_NUCLEO_L152RE_GCC/Demo/QueueSet.c:667:28
	movw	r0, :lower16:prvSendToQueueInSetFromISR.xQueueToWriteTo
	movt	r0, :upper16:prvSendToQueueInSetFromISR.xQueueToWriteTo
	ldr	r1, [r0]
	adds	r1, r1, #1
	str	r1, [r0]
.Ltmp90:
	.loc	3 669 17                        @ ../../../CORTEX_MPU_M3_NUCLEO_L152RE_GCC/Demo/QueueSet.c:669:17
	ldr	r0, [r0]
.Ltmp91:
	.loc	3 669 17 is_stmt 0              @ ../../../CORTEX_MPU_M3_NUCLEO_L152RE_GCC/Demo/QueueSet.c:669:17
	cmp	r0, #3
	blt	.LBB6_5
	b	.LBB6_4
.LBB6_4:
.Ltmp92:
	.loc	3 671 33 is_stmt 1              @ ../../../CORTEX_MPU_M3_NUCLEO_L152RE_GCC/Demo/QueueSet.c:671:33
	movw	r1, :lower16:prvSendToQueueInSetFromISR.xQueueToWriteTo
	movt	r1, :upper16:prvSendToQueueInSetFromISR.xQueueToWriteTo
	movs	r0, #0
	str	r0, [r1]
	.loc	3 672 13                        @ ../../../CORTEX_MPU_M3_NUCLEO_L152RE_GCC/Demo/QueueSet.c:672:13
	b	.LBB6_5
.Ltmp93:
.LBB6_5:
	.loc	3 673 9                         @ ../../../CORTEX_MPU_M3_NUCLEO_L152RE_GCC/Demo/QueueSet.c:673:9
	b	.LBB6_6
.Ltmp94:
.LBB6_6:
	.loc	3 674 5                         @ ../../../CORTEX_MPU_M3_NUCLEO_L152RE_GCC/Demo/QueueSet.c:674:5
	add	sp, #8
	pop	{r7, pc}
.Ltmp95:
.Lfunc_end6:
	.size	prvSendToQueueInSetFromISR, .Lfunc_end6-prvSendToQueueInSetFromISR
	.cfi_endproc
	.cantunwind
	.fnend
                                        @ -- End function
	.section	.text.prvSRand,"ax",%progbits
	.p2align	1                               @ -- Begin function prvSRand
	.type	prvSRand,%function
	.code	16                              @ @prvSRand
	.thumb_func
prvSRand:
.Lfunc_begin7:
	.loc	3 1201 0                        @ ../../../CORTEX_MPU_M3_NUCLEO_L152RE_GCC/Demo/QueueSet.c:1201:0
	.fnstart
	.cfi_startproc
@ %bb.0:
	.pad	#4
	sub	sp, #4
	.cfi_def_cfa_offset 4
	str	r0, [sp]
.Ltmp96:
	.loc	3 1202 27 prologue_end          @ ../../../CORTEX_MPU_M3_NUCLEO_L152RE_GCC/Demo/QueueSet.c:1202:27
	ldr	r0, [sp]
	.loc	3 1202 25 is_stmt 0             @ ../../../CORTEX_MPU_M3_NUCLEO_L152RE_GCC/Demo/QueueSet.c:1202:25
	movw	r1, :lower16:uxNextRand
	movt	r1, :upper16:uxNextRand
	str	r0, [r1]
	.loc	3 1203 5 is_stmt 1              @ ../../../CORTEX_MPU_M3_NUCLEO_L152RE_GCC/Demo/QueueSet.c:1203:5
	add	sp, #4
	bx	lr
.Ltmp97:
.Lfunc_end7:
	.size	prvSRand, .Lfunc_end7-prvSRand
	.cfi_endproc
	.cantunwind
	.fnend
                                        @ -- End function
	.section	.text.prvRand,"ax",%progbits
	.p2align	1                               @ -- Begin function prvRand
	.type	prvRand,%function
	.code	16                              @ @prvRand
	.thumb_func
prvRand:
.Lfunc_begin8:
	.loc	3 1194 0                        @ ../../../CORTEX_MPU_M3_NUCLEO_L152RE_GCC/Demo/QueueSet.c:1194:0
	.fnstart
	.cfi_startproc
@ %bb.0:
	.loc	3 1195 29 prologue_end          @ ../../../CORTEX_MPU_M3_NUCLEO_L152RE_GCC/Demo/QueueSet.c:1195:29
	movw	r0, :lower16:uxNextRand
	movt	r0, :upper16:uxNextRand
	ldr	r2, [r0]
	movw	r1, #20077
	movt	r1, #16838
	.loc	3 1195 45 is_stmt 0             @ ../../../CORTEX_MPU_M3_NUCLEO_L152RE_GCC/Demo/QueueSet.c:1195:45
	muls	r1, r2, r1
	movw	r2, #12345
	.loc	3 1195 71                       @ ../../../CORTEX_MPU_M3_NUCLEO_L152RE_GCC/Demo/QueueSet.c:1195:71
	adds	r1, r1, r2
	.loc	3 1195 25                       @ ../../../CORTEX_MPU_M3_NUCLEO_L152RE_GCC/Demo/QueueSet.c:1195:25
	str	r1, [r0]
	.loc	3 1196 18 is_stmt 1             @ ../../../CORTEX_MPU_M3_NUCLEO_L152RE_GCC/Demo/QueueSet.c:1196:18
	ldrh	r0, [r0, #2]
	movw	r1, #32767
	.loc	3 1196 55 is_stmt 0             @ ../../../CORTEX_MPU_M3_NUCLEO_L152RE_GCC/Demo/QueueSet.c:1196:55
	ands	r0, r1
	.loc	3 1196 9                        @ ../../../CORTEX_MPU_M3_NUCLEO_L152RE_GCC/Demo/QueueSet.c:1196:9
	bx	lr
.Ltmp98:
.Lfunc_end8:
	.size	prvRand, .Lfunc_end8-prvRand
	.cfi_endproc
	.cantunwind
	.fnend
                                        @ -- End function
	.section	.text.prvChangeRelativePriorities,"ax",%progbits
	.p2align	1                               @ -- Begin function prvChangeRelativePriorities
	.type	prvChangeRelativePriorities,%function
	.code	16                              @ @prvChangeRelativePriorities
	.thumb_func
prvChangeRelativePriorities:
.Lfunc_begin9:
	.loc	3 377 0 is_stmt 1               @ ../../../CORTEX_MPU_M3_NUCLEO_L152RE_GCC/Demo/QueueSet.c:377:0
	.fnstart
	.cfi_startproc
@ %bb.0:
	.save	{r7, lr}
	push	{r7, lr}
	.cfi_def_cfa_offset 8
	.cfi_offset lr, -4
	.cfi_offset r7, -8
	.pad	#8
	sub	sp, #8
	.cfi_def_cfa_offset 16
.Ltmp99:
	.loc	3 380 21 prologue_end           @ ../../../CORTEX_MPU_M3_NUCLEO_L152RE_GCC/Demo/QueueSet.c:380:21
	movw	r0, :lower16:ulLoops
	movt	r0, :upper16:ulLoops
	ldr	r1, [r0]
	adds	r1, r1, #1
	str	r1, [r0]
.Ltmp100:
	.loc	3 382 13                        @ ../../../CORTEX_MPU_M3_NUCLEO_L152RE_GCC/Demo/QueueSet.c:382:13
	ldr	r0, [r0]
.Ltmp101:
	.loc	3 382 13 is_stmt 0              @ ../../../CORTEX_MPU_M3_NUCLEO_L152RE_GCC/Demo/QueueSet.c:382:13
	cmp	r0, #18
	blo	.LBB9_8
	b	.LBB9_1
.LBB9_1:
.Ltmp102:
	.loc	3 384 26 is_stmt 1              @ ../../../CORTEX_MPU_M3_NUCLEO_L152RE_GCC/Demo/QueueSet.c:384:26
	movw	r1, :lower16:ulLoops
	movt	r1, :upper16:ulLoops
	movs	r0, #0
	str	r0, [r1]
	.loc	3 386 21                        @ ../../../CORTEX_MPU_M3_NUCLEO_L152RE_GCC/Demo/QueueSet.c:386:21
	movw	r0, :lower16:ePriorities
	movt	r0, :upper16:ePriorities
	ldr	r0, [r0]
	.loc	3 386 13 is_stmt 0              @ ../../../CORTEX_MPU_M3_NUCLEO_L152RE_GCC/Demo/QueueSet.c:386:13
	str	r0, [sp, #4]                    @ 4-byte Spill
	cbz	r0, .LBB9_4
	b	.LBB9_2
.LBB9_2:
	ldr	r0, [sp, #4]                    @ 4-byte Reload
	cmp	r0, #1
	beq	.LBB9_5
	b	.LBB9_3
.LBB9_3:
	ldr	r0, [sp, #4]                    @ 4-byte Reload
	cmp	r0, #2
	beq	.LBB9_6
	b	.LBB9_7
.LBB9_4:
.Ltmp103:
	.loc	3 393 39 is_stmt 1              @ ../../../CORTEX_MPU_M3_NUCLEO_L152RE_GCC/Demo/QueueSet.c:393:39
	movw	r0, :lower16:xLocalTaskHandles
	movt	r0, :upper16:xLocalTaskHandles
	ldr	r0, [r0, #4]
	movs	r1, #0
	.loc	3 393 21 is_stmt 0              @ ../../../CORTEX_MPU_M3_NUCLEO_L152RE_GCC/Demo/QueueSet.c:393:21
	bl	MPU_vTaskPrioritySet
	.loc	3 394 38 is_stmt 1              @ ../../../CORTEX_MPU_M3_NUCLEO_L152RE_GCC/Demo/QueueSet.c:394:38
	movw	r1, :lower16:ePriorities
	movt	r1, :upper16:ePriorities
	movs	r0, #1
	str	r0, [r1]
	.loc	3 395 21                        @ ../../../CORTEX_MPU_M3_NUCLEO_L152RE_GCC/Demo/QueueSet.c:395:21
	b	.LBB9_7
.LBB9_5:
	.loc	3 402 39                        @ ../../../CORTEX_MPU_M3_NUCLEO_L152RE_GCC/Demo/QueueSet.c:402:39
	movw	r0, :lower16:xLocalTaskHandles
	movt	r0, :upper16:xLocalTaskHandles
	str	r0, [sp]                        @ 4-byte Spill
	ldr	r0, [r0, #4]
	movs	r1, #1
	.loc	3 402 21 is_stmt 0              @ ../../../CORTEX_MPU_M3_NUCLEO_L152RE_GCC/Demo/QueueSet.c:402:21
	bl	MPU_vTaskPrioritySet
	ldr	r0, [sp]                        @ 4-byte Reload
	.loc	3 403 39 is_stmt 1              @ ../../../CORTEX_MPU_M3_NUCLEO_L152RE_GCC/Demo/QueueSet.c:403:39
	ldr	r0, [r0]
	movs	r1, #0
	.loc	3 403 21 is_stmt 0              @ ../../../CORTEX_MPU_M3_NUCLEO_L152RE_GCC/Demo/QueueSet.c:403:21
	bl	MPU_vTaskPrioritySet
	.loc	3 404 38 is_stmt 1              @ ../../../CORTEX_MPU_M3_NUCLEO_L152RE_GCC/Demo/QueueSet.c:404:38
	movw	r1, :lower16:ePriorities
	movt	r1, :upper16:ePriorities
	movs	r0, #2
	str	r0, [r1]
	.loc	3 405 21                        @ ../../../CORTEX_MPU_M3_NUCLEO_L152RE_GCC/Demo/QueueSet.c:405:21
	b	.LBB9_7
.LBB9_6:
	.loc	3 411 39                        @ ../../../CORTEX_MPU_M3_NUCLEO_L152RE_GCC/Demo/QueueSet.c:411:39
	movw	r0, :lower16:xLocalTaskHandles
	movt	r0, :upper16:xLocalTaskHandles
	ldr	r0, [r0]
	movs	r1, #1
	.loc	3 411 21 is_stmt 0              @ ../../../CORTEX_MPU_M3_NUCLEO_L152RE_GCC/Demo/QueueSet.c:411:21
	bl	MPU_vTaskPrioritySet
	.loc	3 412 38 is_stmt 1              @ ../../../CORTEX_MPU_M3_NUCLEO_L152RE_GCC/Demo/QueueSet.c:412:38
	movw	r1, :lower16:ePriorities
	movt	r1, :upper16:ePriorities
	movs	r0, #0
	str	r0, [r1]
	movs	r0, #20
	.loc	3 417 21                        @ ../../../CORTEX_MPU_M3_NUCLEO_L152RE_GCC/Demo/QueueSet.c:417:21
	bl	MPU_vTaskDelay
	.loc	3 419 21                        @ ../../../CORTEX_MPU_M3_NUCLEO_L152RE_GCC/Demo/QueueSet.c:419:21
	b	.LBB9_7
.Ltmp104:
.LBB9_7:
	.loc	3 421 9                         @ ../../../CORTEX_MPU_M3_NUCLEO_L152RE_GCC/Demo/QueueSet.c:421:9
	b	.LBB9_8
.Ltmp105:
.LBB9_8:
	.loc	3 422 5                         @ ../../../CORTEX_MPU_M3_NUCLEO_L152RE_GCC/Demo/QueueSet.c:422:5
	add	sp, #8
	pop	{r7, pc}
.Ltmp106:
.Lfunc_end9:
	.size	prvChangeRelativePriorities, .Lfunc_end9-prvChangeRelativePriorities
	.cfi_endproc
	.cantunwind
	.fnend
                                        @ -- End function
	.section	.text.prvSetupTest,"ax",%progbits
	.p2align	1                               @ -- Begin function prvSetupTest
	.type	prvSetupTest,%function
	.code	16                              @ @prvSetupTest
	.thumb_func
prvSetupTest:
.Lfunc_begin10:
	.loc	3 1094 0                        @ ../../../CORTEX_MPU_M3_NUCLEO_L152RE_GCC/Demo/QueueSet.c:1094:0
	.fnstart
	.cfi_startproc
@ %bb.0:
	.save	{r7, lr}
	push	{r7, lr}
	.cfi_def_cfa_offset 8
	.cfi_offset lr, -4
	.cfi_offset r7, -8
	.pad	#24
	sub	sp, #24
	.cfi_def_cfa_offset 32
	movs	r0, #0
.Ltmp107:
	.loc	3 1096 18 prologue_end          @ ../../../CORTEX_MPU_M3_NUCLEO_L152RE_GCC/Demo/QueueSet.c:1096:18
	str	r0, [sp, #12]                   @ 4-byte Spill
	str	r0, [sp, #16]
	movs	r0, #9
	.loc	3 1103 26                       @ ../../../CORTEX_MPU_M3_NUCLEO_L152RE_GCC/Demo/QueueSet.c:1103:26
	bl	MPU_xQueueCreateSet
	mov	r1, r0
	.loc	3 1103 24 is_stmt 0             @ ../../../CORTEX_MPU_M3_NUCLEO_L152RE_GCC/Demo/QueueSet.c:1103:24
	ldr	r0, [sp, #12]                   @ 4-byte Reload
	movw	r2, :lower16:xQueueSet
	movt	r2, :upper16:xQueueSet
	str	r1, [r2]
.Ltmp108:
	.loc	3 1105 16 is_stmt 1             @ ../../../CORTEX_MPU_M3_NUCLEO_L152RE_GCC/Demo/QueueSet.c:1105:16
	str	r0, [sp, #20]
	.loc	3 1105 14 is_stmt 0             @ ../../../CORTEX_MPU_M3_NUCLEO_L152RE_GCC/Demo/QueueSet.c:1105:14
	b	.LBB10_1
.LBB10_1:                               @ =>This Inner Loop Header: Depth=1
.Ltmp109:
	.loc	3 1105 21                       @ ../../../CORTEX_MPU_M3_NUCLEO_L152RE_GCC/Demo/QueueSet.c:1105:21
	ldr	r0, [sp, #20]
.Ltmp110:
	.loc	3 1105 9                        @ ../../../CORTEX_MPU_M3_NUCLEO_L152RE_GCC/Demo/QueueSet.c:1105:9
	cmp	r0, #2
	bgt	.LBB10_12
	b	.LBB10_2
.LBB10_2:                               @   in Loop: Header=BB10_1 Depth=1
	.loc	3 0 9                           @ ../../../CORTEX_MPU_M3_NUCLEO_L152RE_GCC/Demo/QueueSet.c:0:9
	movs	r0, #3
	movs	r1, #4
	movs	r2, #0
.Ltmp111:
	.loc	3 1109 28 is_stmt 1             @ ../../../CORTEX_MPU_M3_NUCLEO_L152RE_GCC/Demo/QueueSet.c:1109:28
	bl	MPU_xQueueGenericCreate
	mov	r1, r0
	.loc	3 1109 22 is_stmt 0             @ ../../../CORTEX_MPU_M3_NUCLEO_L152RE_GCC/Demo/QueueSet.c:1109:22
	ldr	r0, [sp, #20]
	.loc	3 1109 13                       @ ../../../CORTEX_MPU_M3_NUCLEO_L152RE_GCC/Demo/QueueSet.c:1109:13
	lsls	r2, r0, #2
	movw	r0, :lower16:xQueues
	movt	r0, :upper16:xQueues
	.loc	3 1109 26                       @ ../../../CORTEX_MPU_M3_NUCLEO_L152RE_GCC/Demo/QueueSet.c:1109:26
	str	r1, [r0, r2]
.Ltmp112:
	.loc	3 1110 13 is_stmt 1             @ ../../../CORTEX_MPU_M3_NUCLEO_L152RE_GCC/Demo/QueueSet.c:1110:13
	ldr	r1, [sp, #20]
	lsls	r1, r1, #2
	ldr	r0, [r0, r1]
.Ltmp113:
	.loc	3 1110 13 is_stmt 0             @ ../../../CORTEX_MPU_M3_NUCLEO_L152RE_GCC/Demo/QueueSet.c:1110:13
	cbnz	r0, .LBB10_5
	b	.LBB10_3
.LBB10_3:
.Ltmp114:
	.loc	3 1110 13                       @ ../../../CORTEX_MPU_M3_NUCLEO_L152RE_GCC/Demo/QueueSet.c:1110:13
	@APP
	cpsid i
	@NO_APP
	b	.LBB10_4
.LBB10_4:                               @ =>This Inner Loop Header: Depth=1
.Ltmp115:
	.loc	3 1110 13                       @ ../../../CORTEX_MPU_M3_NUCLEO_L152RE_GCC/Demo/QueueSet.c:1110:13
	b	.LBB10_4
.Ltmp116:
.LBB10_5:                               @   in Loop: Header=BB10_1 Depth=1
	.loc	3 1112 42 is_stmt 1             @ ../../../CORTEX_MPU_M3_NUCLEO_L152RE_GCC/Demo/QueueSet.c:1112:42
	ldr	r0, [sp, #20]
	.loc	3 1112 33 is_stmt 0             @ ../../../CORTEX_MPU_M3_NUCLEO_L152RE_GCC/Demo/QueueSet.c:1112:33
	lsls	r1, r0, #2
	movw	r0, :lower16:xQueues
	movt	r0, :upper16:xQueues
	ldr	r0, [r0, r1]
	.loc	3 1112 47                       @ ../../../CORTEX_MPU_M3_NUCLEO_L152RE_GCC/Demo/QueueSet.c:1112:47
	movw	r1, :lower16:xQueueSet
	movt	r1, :upper16:xQueueSet
	ldr	r1, [r1]
	.loc	3 1112 17                       @ ../../../CORTEX_MPU_M3_NUCLEO_L152RE_GCC/Demo/QueueSet.c:1112:17
	bl	MPU_xQueueAddToSet
.Ltmp117:
	.loc	3 1112 17                       @ ../../../CORTEX_MPU_M3_NUCLEO_L152RE_GCC/Demo/QueueSet.c:1112:17
	cmp	r0, #1
	beq	.LBB10_7
	b	.LBB10_6
.LBB10_6:                               @   in Loop: Header=BB10_1 Depth=1
.Ltmp118:
	.loc	3 1114 43 is_stmt 1             @ ../../../CORTEX_MPU_M3_NUCLEO_L152RE_GCC/Demo/QueueSet.c:1114:43
	movw	r1, :lower16:xQueueSetTasksStatus
	movt	r1, :upper16:xQueueSetTasksStatus
	movs	r0, #0
	str	r0, [r1]
	.loc	3 1115 13                       @ ../../../CORTEX_MPU_M3_NUCLEO_L152RE_GCC/Demo/QueueSet.c:1115:13
	b	.LBB10_10
.Ltmp119:
.LBB10_7:                               @   in Loop: Header=BB10_1 Depth=1
	.loc	3 1120 46                       @ ../../../CORTEX_MPU_M3_NUCLEO_L152RE_GCC/Demo/QueueSet.c:1120:46
	ldr	r0, [sp, #20]
	.loc	3 1120 37 is_stmt 0             @ ../../../CORTEX_MPU_M3_NUCLEO_L152RE_GCC/Demo/QueueSet.c:1120:37
	lsls	r1, r0, #2
	movw	r0, :lower16:xQueues
	movt	r0, :upper16:xQueues
	ldr	r0, [r0, r1]
	.loc	3 1120 51                       @ ../../../CORTEX_MPU_M3_NUCLEO_L152RE_GCC/Demo/QueueSet.c:1120:51
	movw	r1, :lower16:xQueueSet
	movt	r1, :upper16:xQueueSet
	ldr	r1, [r1]
	.loc	3 1120 21                       @ ../../../CORTEX_MPU_M3_NUCLEO_L152RE_GCC/Demo/QueueSet.c:1120:21
	bl	MPU_xQueueAddToSet
.Ltmp120:
	.loc	3 1120 21                       @ ../../../CORTEX_MPU_M3_NUCLEO_L152RE_GCC/Demo/QueueSet.c:1120:21
	cbz	r0, .LBB10_9
	b	.LBB10_8
.LBB10_8:                               @   in Loop: Header=BB10_1 Depth=1
.Ltmp121:
	.loc	3 1122 47 is_stmt 1             @ ../../../CORTEX_MPU_M3_NUCLEO_L152RE_GCC/Demo/QueueSet.c:1122:47
	movw	r1, :lower16:xQueueSetTasksStatus
	movt	r1, :upper16:xQueueSetTasksStatus
	movs	r0, #0
	str	r0, [r1]
	.loc	3 1123 17                       @ ../../../CORTEX_MPU_M3_NUCLEO_L152RE_GCC/Demo/QueueSet.c:1123:17
	b	.LBB10_9
.Ltmp122:
.LBB10_9:                               @   in Loop: Header=BB10_1 Depth=1
	.loc	3 0 17 is_stmt 0                @ ../../../CORTEX_MPU_M3_NUCLEO_L152RE_GCC/Demo/QueueSet.c:0:17
	b	.LBB10_10
.LBB10_10:                              @   in Loop: Header=BB10_1 Depth=1
	.loc	3 1125 9 is_stmt 1              @ ../../../CORTEX_MPU_M3_NUCLEO_L152RE_GCC/Demo/QueueSet.c:1125:9
	b	.LBB10_11
.Ltmp123:
.LBB10_11:                              @   in Loop: Header=BB10_1 Depth=1
	.loc	3 1105 53                       @ ../../../CORTEX_MPU_M3_NUCLEO_L152RE_GCC/Demo/QueueSet.c:1105:53
	ldr	r0, [sp, #20]
	adds	r0, r0, #1
	str	r0, [sp, #20]
	.loc	3 1105 9 is_stmt 0              @ ../../../CORTEX_MPU_M3_NUCLEO_L152RE_GCC/Demo/QueueSet.c:1105:9
	b	.LBB10_1
.Ltmp124:
.LBB10_12:
	.loc	3 1129 34 is_stmt 1             @ ../../../CORTEX_MPU_M3_NUCLEO_L152RE_GCC/Demo/QueueSet.c:1129:34
	movw	r0, :lower16:xQueues
	movt	r0, :upper16:xQueues
	ldr	r0, [r0]
	movs	r1, #0
	.loc	3 1129 13 is_stmt 0             @ ../../../CORTEX_MPU_M3_NUCLEO_L152RE_GCC/Demo/QueueSet.c:1129:13
	bl	MPU_xQueueRemoveFromSet
.Ltmp125:
	.loc	3 1129 13                       @ ../../../CORTEX_MPU_M3_NUCLEO_L152RE_GCC/Demo/QueueSet.c:1129:13
	cbz	r0, .LBB10_14
	b	.LBB10_13
.LBB10_13:
.Ltmp126:
	.loc	3 1133 39 is_stmt 1             @ ../../../CORTEX_MPU_M3_NUCLEO_L152RE_GCC/Demo/QueueSet.c:1133:39
	movw	r1, :lower16:xQueueSetTasksStatus
	movt	r1, :upper16:xQueueSetTasksStatus
	movs	r0, #0
	str	r0, [r1]
	.loc	3 1134 9                        @ ../../../CORTEX_MPU_M3_NUCLEO_L152RE_GCC/Demo/QueueSet.c:1134:9
	b	.LBB10_14
.Ltmp127:
.LBB10_14:
	.loc	3 1137 34                       @ ../../../CORTEX_MPU_M3_NUCLEO_L152RE_GCC/Demo/QueueSet.c:1137:34
	movw	r0, :lower16:xQueues
	movt	r0, :upper16:xQueues
	ldr	r0, [r0]
	.loc	3 1137 48 is_stmt 0             @ ../../../CORTEX_MPU_M3_NUCLEO_L152RE_GCC/Demo/QueueSet.c:1137:48
	movw	r1, :lower16:xQueueSet
	movt	r1, :upper16:xQueueSet
	ldr	r1, [r1]
	.loc	3 1137 13                       @ ../../../CORTEX_MPU_M3_NUCLEO_L152RE_GCC/Demo/QueueSet.c:1137:13
	bl	MPU_xQueueRemoveFromSet
.Ltmp128:
	.loc	3 1137 13                       @ ../../../CORTEX_MPU_M3_NUCLEO_L152RE_GCC/Demo/QueueSet.c:1137:13
	cmp	r0, #1
	beq	.LBB10_16
	b	.LBB10_15
.LBB10_15:
.Ltmp129:
	.loc	3 1141 39 is_stmt 1             @ ../../../CORTEX_MPU_M3_NUCLEO_L152RE_GCC/Demo/QueueSet.c:1141:39
	movw	r1, :lower16:xQueueSetTasksStatus
	movt	r1, :upper16:xQueueSetTasksStatus
	movs	r0, #0
	str	r0, [r1]
	.loc	3 1142 9                        @ ../../../CORTEX_MPU_M3_NUCLEO_L152RE_GCC/Demo/QueueSet.c:1142:9
	b	.LBB10_16
.Ltmp130:
.LBB10_16:
	.loc	3 1146 9                        @ ../../../CORTEX_MPU_M3_NUCLEO_L152RE_GCC/Demo/QueueSet.c:1146:9
	movw	r0, :lower16:xQueues
	movt	r0, :upper16:xQueues
	str	r0, [sp, #8]                    @ 4-byte Spill
	ldr	r0, [r0]
	add	r1, sp, #16
	movs	r3, #0
	mov	r2, r3
	bl	MPU_xQueueGenericSend
                                        @ kill: def $r1 killed $r0
.Ltmp131:
	.loc	3 1148 29                       @ ../../../CORTEX_MPU_M3_NUCLEO_L152RE_GCC/Demo/QueueSet.c:1148:29
	ldr	r0, [sp, #8]                    @ 4-byte Reload
	ldr	r0, [r0]
	.loc	3 1148 43 is_stmt 0             @ ../../../CORTEX_MPU_M3_NUCLEO_L152RE_GCC/Demo/QueueSet.c:1148:43
	movw	r1, :lower16:xQueueSet
	movt	r1, :upper16:xQueueSet
	ldr	r1, [r1]
	.loc	3 1148 13                       @ ../../../CORTEX_MPU_M3_NUCLEO_L152RE_GCC/Demo/QueueSet.c:1148:13
	bl	MPU_xQueueAddToSet
.Ltmp132:
	.loc	3 1148 13                       @ ../../../CORTEX_MPU_M3_NUCLEO_L152RE_GCC/Demo/QueueSet.c:1148:13
	cbz	r0, .LBB10_18
	b	.LBB10_17
.LBB10_17:
.Ltmp133:
	.loc	3 1151 39 is_stmt 1             @ ../../../CORTEX_MPU_M3_NUCLEO_L152RE_GCC/Demo/QueueSet.c:1151:39
	movw	r1, :lower16:xQueueSetTasksStatus
	movt	r1, :upper16:xQueueSetTasksStatus
	movs	r0, #0
	str	r0, [r1]
	.loc	3 1152 9                        @ ../../../CORTEX_MPU_M3_NUCLEO_L152RE_GCC/Demo/QueueSet.c:1152:9
	b	.LBB10_18
.Ltmp134:
.LBB10_18:
	.loc	3 1156 24                       @ ../../../CORTEX_MPU_M3_NUCLEO_L152RE_GCC/Demo/QueueSet.c:1156:24
	movw	r0, :lower16:xQueues
	movt	r0, :upper16:xQueues
	str	r0, [sp, #4]                    @ 4-byte Spill
	ldr	r0, [r0]
	add	r1, sp, #16
	movs	r2, #0
	.loc	3 1156 9 is_stmt 0              @ ../../../CORTEX_MPU_M3_NUCLEO_L152RE_GCC/Demo/QueueSet.c:1156:9
	bl	MPU_xQueueReceive
                                        @ kill: def $r1 killed $r0
.Ltmp135:
	.loc	3 1158 29 is_stmt 1             @ ../../../CORTEX_MPU_M3_NUCLEO_L152RE_GCC/Demo/QueueSet.c:1158:29
	ldr	r0, [sp, #4]                    @ 4-byte Reload
	ldr	r0, [r0]
	.loc	3 1158 43 is_stmt 0             @ ../../../CORTEX_MPU_M3_NUCLEO_L152RE_GCC/Demo/QueueSet.c:1158:43
	movw	r1, :lower16:xQueueSet
	movt	r1, :upper16:xQueueSet
	ldr	r1, [r1]
	.loc	3 1158 13                       @ ../../../CORTEX_MPU_M3_NUCLEO_L152RE_GCC/Demo/QueueSet.c:1158:13
	bl	MPU_xQueueAddToSet
.Ltmp136:
	.loc	3 1158 13                       @ ../../../CORTEX_MPU_M3_NUCLEO_L152RE_GCC/Demo/QueueSet.c:1158:13
	cmp	r0, #1
	beq	.LBB10_20
	b	.LBB10_19
.LBB10_19:
.Ltmp137:
	.loc	3 1162 39 is_stmt 1             @ ../../../CORTEX_MPU_M3_NUCLEO_L152RE_GCC/Demo/QueueSet.c:1162:39
	movw	r1, :lower16:xQueueSetTasksStatus
	movt	r1, :upper16:xQueueSetTasksStatus
	movs	r0, #0
	str	r0, [r1]
	.loc	3 1163 9                        @ ../../../CORTEX_MPU_M3_NUCLEO_L152RE_GCC/Demo/QueueSet.c:1163:9
	b	.LBB10_20
.Ltmp138:
.LBB10_20:
	.loc	3 1167 34                       @ ../../../CORTEX_MPU_M3_NUCLEO_L152RE_GCC/Demo/QueueSet.c:1167:34
	movw	r0, :lower16:xQueueSet
	movt	r0, :upper16:xQueueSet
	ldr	r0, [r0]
	movs	r1, #200
	.loc	3 1167 13 is_stmt 0             @ ../../../CORTEX_MPU_M3_NUCLEO_L152RE_GCC/Demo/QueueSet.c:1167:13
	bl	MPU_xQueueSelectFromSet
.Ltmp139:
	.loc	3 1167 13                       @ ../../../CORTEX_MPU_M3_NUCLEO_L152RE_GCC/Demo/QueueSet.c:1167:13
	cbz	r0, .LBB10_22
	b	.LBB10_21
.LBB10_21:
.Ltmp140:
	.loc	3 1169 39 is_stmt 1             @ ../../../CORTEX_MPU_M3_NUCLEO_L152RE_GCC/Demo/QueueSet.c:1169:39
	movw	r1, :lower16:xQueueSetTasksStatus
	movt	r1, :upper16:xQueueSetTasksStatus
	movs	r0, #0
	str	r0, [r1]
	.loc	3 1170 9                        @ ../../../CORTEX_MPU_M3_NUCLEO_L152RE_GCC/Demo/QueueSet.c:1170:9
	b	.LBB10_22
.Ltmp141:
.LBB10_22:
	.loc	3 1175 9                        @ ../../../CORTEX_MPU_M3_NUCLEO_L152RE_GCC/Demo/QueueSet.c:1175:9
	bl	prvTestQueueOverwriteWithQueueSet
	.loc	3 1179 9                        @ ../../../CORTEX_MPU_M3_NUCLEO_L152RE_GCC/Demo/QueueSet.c:1179:9
	bl	prvTestQueueOverwriteOnTwoQueusInQueueSet
.Ltmp142:
	.loc	3 1183 9                        @ ../../../CORTEX_MPU_M3_NUCLEO_L152RE_GCC/Demo/QueueSet.c:1183:9
	movw	r0, :lower16:xQueueSetTasksStatus
	movt	r0, :upper16:xQueueSetTasksStatus
	ldr	r0, [r0]
.Ltmp143:
	.loc	3 1183 9 is_stmt 0              @ ../../../CORTEX_MPU_M3_NUCLEO_L152RE_GCC/Demo/QueueSet.c:1183:9
	cbnz	r0, .LBB10_25
	b	.LBB10_23
.LBB10_23:
.Ltmp144:
	.loc	3 1183 9                        @ ../../../CORTEX_MPU_M3_NUCLEO_L152RE_GCC/Demo/QueueSet.c:1183:9
	@APP
	cpsid i
	@NO_APP
	b	.LBB10_24
.LBB10_24:                              @ =>This Inner Loop Header: Depth=1
.Ltmp145:
	.loc	3 1183 9                        @ ../../../CORTEX_MPU_M3_NUCLEO_L152RE_GCC/Demo/QueueSet.c:1183:9
	b	.LBB10_24
.Ltmp146:
.LBB10_25:
	.loc	3 1186 22 is_stmt 1             @ ../../../CORTEX_MPU_M3_NUCLEO_L152RE_GCC/Demo/QueueSet.c:1186:22
	movw	r0, :lower16:xLocalTaskHandles
	movt	r0, :upper16:xLocalTaskHandles
	ldr	r0, [r0]
	.loc	3 1186 9 is_stmt 0              @ ../../../CORTEX_MPU_M3_NUCLEO_L152RE_GCC/Demo/QueueSet.c:1186:9
	bl	MPU_vTaskResume
	.loc	3 1189 29 is_stmt 1             @ ../../../CORTEX_MPU_M3_NUCLEO_L152RE_GCC/Demo/QueueSet.c:1189:29
	movw	r1, :lower16:xSetupComplete
	movt	r1, :upper16:xSetupComplete
	movs	r0, #1
	str	r0, [r1]
	.loc	3 1190 5                        @ ../../../CORTEX_MPU_M3_NUCLEO_L152RE_GCC/Demo/QueueSet.c:1190:5
	add	sp, #24
	pop	{r7, pc}
.Ltmp147:
.Lfunc_end10:
	.size	prvSetupTest, .Lfunc_end10-prvSetupTest
	.cfi_endproc
	.cantunwind
	.fnend
                                        @ -- End function
	.section	.text.prvCheckReceivedValue,"ax",%progbits
	.p2align	1                               @ -- Begin function prvCheckReceivedValue
	.type	prvCheckReceivedValue,%function
	.code	16                              @ @prvCheckReceivedValue
	.thumb_func
prvCheckReceivedValue:
.Lfunc_begin11:
	.loc	3 518 0                         @ ../../../CORTEX_MPU_M3_NUCLEO_L152RE_GCC/Demo/QueueSet.c:518:0
	.fnstart
	.cfi_startproc
@ %bb.0:
	.save	{r7, lr}
	push	{r7, lr}
	.cfi_def_cfa_offset 8
	.cfi_offset lr, -4
	.cfi_offset r7, -8
	.pad	#8
	sub	sp, #8
	.cfi_def_cfa_offset 16
	str	r0, [sp, #4]
.Ltmp148:
	.loc	3 532 13 prologue_end           @ ../../../CORTEX_MPU_M3_NUCLEO_L152RE_GCC/Demo/QueueSet.c:532:13
	ldr	r0, [sp, #4]
	movw	r1, #65535
.Ltmp149:
	.loc	3 532 13 is_stmt 0              @ ../../../CORTEX_MPU_M3_NUCLEO_L152RE_GCC/Demo/QueueSet.c:532:13
	cmp	r0, r1
	blo	.LBB11_15
	b	.LBB11_1
.LBB11_1:
.Ltmp150:
	.loc	3 535 19 is_stmt 1              @ ../../../CORTEX_MPU_M3_NUCLEO_L152RE_GCC/Demo/QueueSet.c:535:19
	ldr	r0, [sp, #4]
	.loc	3 535 30 is_stmt 0              @ ../../../CORTEX_MPU_M3_NUCLEO_L152RE_GCC/Demo/QueueSet.c:535:30
	movw	r1, #65535
	subs	r0, r0, r1
.Ltmp151:
	.loc	3 535 17                        @ ../../../CORTEX_MPU_M3_NUCLEO_L152RE_GCC/Demo/QueueSet.c:535:17
	cmp	r0, #5
	bhi	.LBB11_3
	b	.LBB11_2
.LBB11_2:
.Ltmp152:
	.loc	3 539 13 is_stmt 1              @ ../../../CORTEX_MPU_M3_NUCLEO_L152RE_GCC/Demo/QueueSet.c:539:13
	b	.LBB11_9
.Ltmp153:
.LBB11_3:
	.loc	3 540 36                        @ ../../../CORTEX_MPU_M3_NUCLEO_L152RE_GCC/Demo/QueueSet.c:540:36
	ldr	r0, [sp, #4]
	.loc	3 540 34 is_stmt 0              @ ../../../CORTEX_MPU_M3_NUCLEO_L152RE_GCC/Demo/QueueSet.c:540:34
	mvns	r0, r0
.Ltmp154:
	.loc	3 540 22                        @ ../../../CORTEX_MPU_M3_NUCLEO_L152RE_GCC/Demo/QueueSet.c:540:22
	cmp	r0, #6
	bhi	.LBB11_5
	b	.LBB11_4
.LBB11_4:
.Ltmp155:
	.loc	3 544 13 is_stmt 1              @ ../../../CORTEX_MPU_M3_NUCLEO_L152RE_GCC/Demo/QueueSet.c:544:13
	b	.LBB11_8
.Ltmp156:
.LBB11_5:
	.loc	3 548 63                        @ ../../../CORTEX_MPU_M3_NUCLEO_L152RE_GCC/Demo/QueueSet.c:548:63
	ldr	r0, [sp, #4]
	.loc	3 548 75 is_stmt 0              @ ../../../CORTEX_MPU_M3_NUCLEO_L152RE_GCC/Demo/QueueSet.c:548:75
	movw	r1, :lower16:ulExpectedReceivedFromISR
	movt	r1, :upper16:ulExpectedReceivedFromISR
	ldr	r1, [r1]
	.loc	3 548 21                        @ ../../../CORTEX_MPU_M3_NUCLEO_L152RE_GCC/Demo/QueueSet.c:548:21
	bl	prvCheckReceivedValueWithinExpectedRange
.Ltmp157:
	.loc	3 548 21                        @ ../../../CORTEX_MPU_M3_NUCLEO_L152RE_GCC/Demo/QueueSet.c:548:21
	cmp	r0, #1
	beq	.LBB11_7
	b	.LBB11_6
.LBB11_6:
.Ltmp158:
	.loc	3 550 47 is_stmt 1              @ ../../../CORTEX_MPU_M3_NUCLEO_L152RE_GCC/Demo/QueueSet.c:550:47
	movw	r1, :lower16:xQueueSetTasksStatus
	movt	r1, :upper16:xQueueSetTasksStatus
	movs	r0, #0
	str	r0, [r1]
	.loc	3 551 17                        @ ../../../CORTEX_MPU_M3_NUCLEO_L152RE_GCC/Demo/QueueSet.c:551:17
	b	.LBB11_7
.Ltmp159:
.LBB11_7:
	.loc	3 0 17 is_stmt 0                @ ../../../CORTEX_MPU_M3_NUCLEO_L152RE_GCC/Demo/QueueSet.c:0:17
	b	.LBB11_8
.LBB11_8:
	b	.LBB11_9
.LBB11_9:
.Ltmp160:
	.loc	3 554 13 is_stmt 1              @ ../../../CORTEX_MPU_M3_NUCLEO_L152RE_GCC/Demo/QueueSet.c:554:13
	movw	r0, :lower16:xQueueSetTasksStatus
	movt	r0, :upper16:xQueueSetTasksStatus
	ldr	r0, [r0]
.Ltmp161:
	.loc	3 554 13 is_stmt 0              @ ../../../CORTEX_MPU_M3_NUCLEO_L152RE_GCC/Demo/QueueSet.c:554:13
	cbnz	r0, .LBB11_12
	b	.LBB11_10
.LBB11_10:
.Ltmp162:
	.loc	3 554 13                        @ ../../../CORTEX_MPU_M3_NUCLEO_L152RE_GCC/Demo/QueueSet.c:554:13
	@APP
	cpsid i
	@NO_APP
	b	.LBB11_11
.LBB11_11:                              @ =>This Inner Loop Header: Depth=1
.Ltmp163:
	.loc	3 554 13                        @ ../../../CORTEX_MPU_M3_NUCLEO_L152RE_GCC/Demo/QueueSet.c:554:13
	b	.LBB11_11
.Ltmp164:
.LBB11_12:
	.loc	3 557 43 is_stmt 1              @ ../../../CORTEX_MPU_M3_NUCLEO_L152RE_GCC/Demo/QueueSet.c:557:43
	movw	r0, :lower16:ulExpectedReceivedFromISR
	movt	r0, :upper16:ulExpectedReceivedFromISR
	ldr	r1, [r0]
	adds	r1, r1, #1
	str	r1, [r0]
.Ltmp165:
	.loc	3 559 17                        @ ../../../CORTEX_MPU_M3_NUCLEO_L152RE_GCC/Demo/QueueSet.c:559:17
	ldr	r0, [r0]
.Ltmp166:
	.loc	3 559 17 is_stmt 0              @ ../../../CORTEX_MPU_M3_NUCLEO_L152RE_GCC/Demo/QueueSet.c:559:17
	cbnz	r0, .LBB11_14
	b	.LBB11_13
.LBB11_13:
.Ltmp167:
	.loc	3 561 48 is_stmt 1              @ ../../../CORTEX_MPU_M3_NUCLEO_L152RE_GCC/Demo/QueueSet.c:561:48
	movw	r1, :lower16:ulExpectedReceivedFromISR
	movt	r1, :upper16:ulExpectedReceivedFromISR
	movw	r0, #65535
	str	r0, [r1]
	.loc	3 562 13                        @ ../../../CORTEX_MPU_M3_NUCLEO_L152RE_GCC/Demo/QueueSet.c:562:13
	b	.LBB11_14
.Ltmp168:
.LBB11_14:
	.loc	3 563 9                         @ ../../../CORTEX_MPU_M3_NUCLEO_L152RE_GCC/Demo/QueueSet.c:563:9
	b	.LBB11_29
.Ltmp169:
.LBB11_15:
	.loc	3 567 17                        @ ../../../CORTEX_MPU_M3_NUCLEO_L152RE_GCC/Demo/QueueSet.c:567:17
	ldr	r0, [sp, #4]
.Ltmp170:
	.loc	3 567 17 is_stmt 0              @ ../../../CORTEX_MPU_M3_NUCLEO_L152RE_GCC/Demo/QueueSet.c:567:17
	cmp	r0, #5
	bhi	.LBB11_17
	b	.LBB11_16
.LBB11_16:
.Ltmp171:
	.loc	3 571 13 is_stmt 1              @ ../../../CORTEX_MPU_M3_NUCLEO_L152RE_GCC/Demo/QueueSet.c:571:13
	b	.LBB11_23
.Ltmp172:
.LBB11_17:
	.loc	3 572 63                        @ ../../../CORTEX_MPU_M3_NUCLEO_L152RE_GCC/Demo/QueueSet.c:572:63
	ldr	r1, [sp, #4]
	movw	r0, #65534
	.loc	3 572 61 is_stmt 0              @ ../../../CORTEX_MPU_M3_NUCLEO_L152RE_GCC/Demo/QueueSet.c:572:61
	subs	r0, r0, r1
.Ltmp173:
	.loc	3 572 22                        @ ../../../CORTEX_MPU_M3_NUCLEO_L152RE_GCC/Demo/QueueSet.c:572:22
	cmp	r0, #6
	bhi	.LBB11_19
	b	.LBB11_18
.LBB11_18:
.Ltmp174:
	.loc	3 576 13 is_stmt 1              @ ../../../CORTEX_MPU_M3_NUCLEO_L152RE_GCC/Demo/QueueSet.c:576:13
	b	.LBB11_22
.Ltmp175:
.LBB11_19:
	.loc	3 580 63                        @ ../../../CORTEX_MPU_M3_NUCLEO_L152RE_GCC/Demo/QueueSet.c:580:63
	ldr	r0, [sp, #4]
	.loc	3 580 75 is_stmt 0              @ ../../../CORTEX_MPU_M3_NUCLEO_L152RE_GCC/Demo/QueueSet.c:580:75
	movw	r1, :lower16:ulExpectedReceivedFromTask
	movt	r1, :upper16:ulExpectedReceivedFromTask
	ldr	r1, [r1]
	.loc	3 580 21                        @ ../../../CORTEX_MPU_M3_NUCLEO_L152RE_GCC/Demo/QueueSet.c:580:21
	bl	prvCheckReceivedValueWithinExpectedRange
.Ltmp176:
	.loc	3 580 21                        @ ../../../CORTEX_MPU_M3_NUCLEO_L152RE_GCC/Demo/QueueSet.c:580:21
	cmp	r0, #1
	beq	.LBB11_21
	b	.LBB11_20
.LBB11_20:
.Ltmp177:
	.loc	3 582 47 is_stmt 1              @ ../../../CORTEX_MPU_M3_NUCLEO_L152RE_GCC/Demo/QueueSet.c:582:47
	movw	r1, :lower16:xQueueSetTasksStatus
	movt	r1, :upper16:xQueueSetTasksStatus
	movs	r0, #0
	str	r0, [r1]
	.loc	3 583 17                        @ ../../../CORTEX_MPU_M3_NUCLEO_L152RE_GCC/Demo/QueueSet.c:583:17
	b	.LBB11_21
.Ltmp178:
.LBB11_21:
	.loc	3 0 17 is_stmt 0                @ ../../../CORTEX_MPU_M3_NUCLEO_L152RE_GCC/Demo/QueueSet.c:0:17
	b	.LBB11_22
.LBB11_22:
	b	.LBB11_23
.LBB11_23:
.Ltmp179:
	.loc	3 586 13 is_stmt 1              @ ../../../CORTEX_MPU_M3_NUCLEO_L152RE_GCC/Demo/QueueSet.c:586:13
	movw	r0, :lower16:xQueueSetTasksStatus
	movt	r0, :upper16:xQueueSetTasksStatus
	ldr	r0, [r0]
.Ltmp180:
	.loc	3 586 13 is_stmt 0              @ ../../../CORTEX_MPU_M3_NUCLEO_L152RE_GCC/Demo/QueueSet.c:586:13
	cbnz	r0, .LBB11_26
	b	.LBB11_24
.LBB11_24:
.Ltmp181:
	.loc	3 586 13                        @ ../../../CORTEX_MPU_M3_NUCLEO_L152RE_GCC/Demo/QueueSet.c:586:13
	@APP
	cpsid i
	@NO_APP
	b	.LBB11_25
.LBB11_25:                              @ =>This Inner Loop Header: Depth=1
.Ltmp182:
	.loc	3 586 13                        @ ../../../CORTEX_MPU_M3_NUCLEO_L152RE_GCC/Demo/QueueSet.c:586:13
	b	.LBB11_25
.Ltmp183:
.LBB11_26:
	.loc	3 589 44 is_stmt 1              @ ../../../CORTEX_MPU_M3_NUCLEO_L152RE_GCC/Demo/QueueSet.c:589:44
	movw	r0, :lower16:ulExpectedReceivedFromTask
	movt	r0, :upper16:ulExpectedReceivedFromTask
	ldr	r1, [r0]
	adds	r1, r1, #1
	str	r1, [r0]
.Ltmp184:
	.loc	3 591 17                        @ ../../../CORTEX_MPU_M3_NUCLEO_L152RE_GCC/Demo/QueueSet.c:591:17
	ldr	r0, [r0]
	movw	r1, #65535
.Ltmp185:
	.loc	3 591 17 is_stmt 0              @ ../../../CORTEX_MPU_M3_NUCLEO_L152RE_GCC/Demo/QueueSet.c:591:17
	cmp	r0, r1
	blo	.LBB11_28
	b	.LBB11_27
.LBB11_27:
.Ltmp186:
	.loc	3 593 49 is_stmt 1              @ ../../../CORTEX_MPU_M3_NUCLEO_L152RE_GCC/Demo/QueueSet.c:593:49
	movw	r1, :lower16:ulExpectedReceivedFromTask
	movt	r1, :upper16:ulExpectedReceivedFromTask
	movs	r0, #0
	str	r0, [r1]
	.loc	3 594 13                        @ ../../../CORTEX_MPU_M3_NUCLEO_L152RE_GCC/Demo/QueueSet.c:594:13
	b	.LBB11_28
.Ltmp187:
.LBB11_28:
	.loc	3 0 13 is_stmt 0                @ ../../../CORTEX_MPU_M3_NUCLEO_L152RE_GCC/Demo/QueueSet.c:0:13
	b	.LBB11_29
.LBB11_29:
	.loc	3 596 5 is_stmt 1               @ ../../../CORTEX_MPU_M3_NUCLEO_L152RE_GCC/Demo/QueueSet.c:596:5
	add	sp, #8
	pop	{r7, pc}
.Ltmp188:
.Lfunc_end11:
	.size	prvCheckReceivedValue, .Lfunc_end11-prvCheckReceivedValue
	.cfi_endproc
	.cantunwind
	.fnend
                                        @ -- End function
	.section	.text.prvTestQueueOverwriteWithQueueSet,"ax",%progbits
	.p2align	1                               @ -- Begin function prvTestQueueOverwriteWithQueueSet
	.type	prvTestQueueOverwriteWithQueueSet,%function
	.code	16                              @ @prvTestQueueOverwriteWithQueueSet
	.thumb_func
prvTestQueueOverwriteWithQueueSet:
.Lfunc_begin12:
	.loc	3 678 0                         @ ../../../CORTEX_MPU_M3_NUCLEO_L152RE_GCC/Demo/QueueSet.c:678:0
	.fnstart
	.cfi_startproc
@ %bb.0:
	.save	{r7, lr}
	push	{r7, lr}
	.cfi_def_cfa_offset 8
	.cfi_offset lr, -4
	.cfi_offset r7, -8
	.pad	#32
	sub	sp, #32
	.cfi_def_cfa_offset 40
	movs	r2, #0
.Ltmp189:
	.loc	3 679 18 prologue_end           @ ../../../CORTEX_MPU_M3_NUCLEO_L152RE_GCC/Demo/QueueSet.c:679:18
	str	r2, [sp, #28]
	.loc	3 679 37 is_stmt 0              @ ../../../CORTEX_MPU_M3_NUCLEO_L152RE_GCC/Demo/QueueSet.c:679:37
	str	r2, [sp, #24]
	.loc	3 680 23 is_stmt 1              @ ../../../CORTEX_MPU_M3_NUCLEO_L152RE_GCC/Demo/QueueSet.c:680:23
	str	r2, [sp, #20]
	.loc	3 680 44 is_stmt 0              @ ../../../CORTEX_MPU_M3_NUCLEO_L152RE_GCC/Demo/QueueSet.c:680:44
	str	r2, [sp, #16]
	movs	r0, #1
	.loc	3 681 27 is_stmt 1              @ ../../../CORTEX_MPU_M3_NUCLEO_L152RE_GCC/Demo/QueueSet.c:681:27
	str	r0, [sp, #12]
	movs	r1, #4
	.loc	3 685 24                        @ ../../../CORTEX_MPU_M3_NUCLEO_L152RE_GCC/Demo/QueueSet.c:685:24
	bl	MPU_xQueueGenericCreate
	.loc	3 685 22 is_stmt 0              @ ../../../CORTEX_MPU_M3_NUCLEO_L152RE_GCC/Demo/QueueSet.c:685:22
	str	r0, [sp, #20]
.Ltmp190:
	.loc	3 686 9 is_stmt 1               @ ../../../CORTEX_MPU_M3_NUCLEO_L152RE_GCC/Demo/QueueSet.c:686:9
	ldr	r0, [sp, #20]
.Ltmp191:
	.loc	3 686 9 is_stmt 0               @ ../../../CORTEX_MPU_M3_NUCLEO_L152RE_GCC/Demo/QueueSet.c:686:9
	cbnz	r0, .LBB12_3
	b	.LBB12_1
.LBB12_1:
.Ltmp192:
	.loc	3 686 9                         @ ../../../CORTEX_MPU_M3_NUCLEO_L152RE_GCC/Demo/QueueSet.c:686:9
	@APP
	cpsid i
	@NO_APP
	b	.LBB12_2
.LBB12_2:                               @ =>This Inner Loop Header: Depth=1
.Ltmp193:
	.loc	3 686 9                         @ ../../../CORTEX_MPU_M3_NUCLEO_L152RE_GCC/Demo/QueueSet.c:686:9
	b	.LBB12_2
.Ltmp194:
.LBB12_3:
	.loc	3 688 13 is_stmt 1              @ ../../../CORTEX_MPU_M3_NUCLEO_L152RE_GCC/Demo/QueueSet.c:688:13
	ldr	r0, [sp, #20]
.Ltmp195:
	.loc	3 688 13 is_stmt 0              @ ../../../CORTEX_MPU_M3_NUCLEO_L152RE_GCC/Demo/QueueSet.c:688:13
	cbnz	r0, .LBB12_4
	b	.LBB12_17
.LBB12_4:
.Ltmp196:
	.loc	3 690 29 is_stmt 1              @ ../../../CORTEX_MPU_M3_NUCLEO_L152RE_GCC/Demo/QueueSet.c:690:29
	ldr	r0, [sp, #20]
	.loc	3 690 43 is_stmt 0              @ ../../../CORTEX_MPU_M3_NUCLEO_L152RE_GCC/Demo/QueueSet.c:690:43
	movw	r1, :lower16:xQueueSet
	movt	r1, :upper16:xQueueSet
	str	r1, [sp, #8]                    @ 4-byte Spill
	ldr	r1, [r1]
	.loc	3 690 13                        @ ../../../CORTEX_MPU_M3_NUCLEO_L152RE_GCC/Demo/QueueSet.c:690:13
	bl	MPU_xQueueAddToSet
	.loc	3 695 13 is_stmt 1              @ ../../../CORTEX_MPU_M3_NUCLEO_L152RE_GCC/Demo/QueueSet.c:695:13
	ldr	r0, [sp, #20]
	add	r1, sp, #28
	movs	r2, #0
	movs	r3, #2
	bl	MPU_xQueueGenericSend
                                        @ kill: def $r1 killed $r0
.Ltmp197:
	.loc	3 697 41                        @ ../../../CORTEX_MPU_M3_NUCLEO_L152RE_GCC/Demo/QueueSet.c:697:41
	ldr	r0, [sp, #8]                    @ 4-byte Reload
	ldr	r0, [r0]
	.loc	3 697 17 is_stmt 0              @ ../../../CORTEX_MPU_M3_NUCLEO_L152RE_GCC/Demo/QueueSet.c:697:17
	bl	MPU_uxQueueMessagesWaiting
.Ltmp198:
	.loc	3 697 17                        @ ../../../CORTEX_MPU_M3_NUCLEO_L152RE_GCC/Demo/QueueSet.c:697:17
	cmp	r0, #1
	beq	.LBB12_6
	b	.LBB12_5
.LBB12_5:
.Ltmp199:
	.loc	3 700 43 is_stmt 1              @ ../../../CORTEX_MPU_M3_NUCLEO_L152RE_GCC/Demo/QueueSet.c:700:43
	movw	r1, :lower16:xQueueSetTasksStatus
	movt	r1, :upper16:xQueueSetTasksStatus
	movs	r0, #0
	str	r0, [r1]
	.loc	3 701 13                        @ ../../../CORTEX_MPU_M3_NUCLEO_L152RE_GCC/Demo/QueueSet.c:701:13
	b	.LBB12_6
.Ltmp200:
.LBB12_6:
	.loc	3 703 25                        @ ../../../CORTEX_MPU_M3_NUCLEO_L152RE_GCC/Demo/QueueSet.c:703:25
	movw	r0, :lower16:xQueueSet
	movt	r0, :upper16:xQueueSet
	str	r0, [sp, #4]                    @ 4-byte Spill
	ldr	r0, [r0]
	add	r1, sp, #16
	movs	r2, #0
	.loc	3 703 13 is_stmt 0              @ ../../../CORTEX_MPU_M3_NUCLEO_L152RE_GCC/Demo/QueueSet.c:703:13
	str	r2, [sp]                        @ 4-byte Spill
	bl	MPU_xQueuePeek
	ldr	r2, [sp]                        @ 4-byte Reload
	.loc	3 715 26 is_stmt 1              @ ../../../CORTEX_MPU_M3_NUCLEO_L152RE_GCC/Demo/QueueSet.c:715:26
	ldr	r0, [sp, #28]
	adds	r0, r0, #1
	str	r0, [sp, #28]
	.loc	3 716 13                        @ ../../../CORTEX_MPU_M3_NUCLEO_L152RE_GCC/Demo/QueueSet.c:716:13
	ldr	r0, [sp, #20]
	add	r1, sp, #28
	movs	r3, #2
	bl	MPU_xQueueGenericSend
                                        @ kill: def $r1 killed $r0
.Ltmp201:
	.loc	3 718 41                        @ ../../../CORTEX_MPU_M3_NUCLEO_L152RE_GCC/Demo/QueueSet.c:718:41
	ldr	r0, [sp, #4]                    @ 4-byte Reload
	ldr	r0, [r0]
	.loc	3 718 17 is_stmt 0              @ ../../../CORTEX_MPU_M3_NUCLEO_L152RE_GCC/Demo/QueueSet.c:718:17
	bl	MPU_uxQueueMessagesWaiting
.Ltmp202:
	.loc	3 718 17                        @ ../../../CORTEX_MPU_M3_NUCLEO_L152RE_GCC/Demo/QueueSet.c:718:17
	cmp	r0, #1
	beq	.LBB12_8
	b	.LBB12_7
.LBB12_7:
.Ltmp203:
	.loc	3 721 43 is_stmt 1              @ ../../../CORTEX_MPU_M3_NUCLEO_L152RE_GCC/Demo/QueueSet.c:721:43
	movw	r1, :lower16:xQueueSetTasksStatus
	movt	r1, :upper16:xQueueSetTasksStatus
	movs	r0, #0
	str	r0, [r1]
	.loc	3 722 13                        @ ../../../CORTEX_MPU_M3_NUCLEO_L152RE_GCC/Demo/QueueSet.c:722:13
	b	.LBB12_8
.Ltmp204:
.LBB12_8:
	.loc	3 724 52                        @ ../../../CORTEX_MPU_M3_NUCLEO_L152RE_GCC/Demo/QueueSet.c:724:52
	movw	r0, :lower16:xQueueSet
	movt	r0, :upper16:xQueueSet
	ldr	r0, [r0]
	movs	r1, #0
	.loc	3 724 31 is_stmt 0              @ ../../../CORTEX_MPU_M3_NUCLEO_L152RE_GCC/Demo/QueueSet.c:724:31
	bl	MPU_xQueueSelectFromSet
	.loc	3 724 29                        @ ../../../CORTEX_MPU_M3_NUCLEO_L152RE_GCC/Demo/QueueSet.c:724:29
	str	r0, [sp, #16]
.Ltmp205:
	.loc	3 726 17 is_stmt 1              @ ../../../CORTEX_MPU_M3_NUCLEO_L152RE_GCC/Demo/QueueSet.c:726:17
	ldr	r0, [sp, #16]
	.loc	3 726 36 is_stmt 0              @ ../../../CORTEX_MPU_M3_NUCLEO_L152RE_GCC/Demo/QueueSet.c:726:36
	ldr	r1, [sp, #20]
.Ltmp206:
	.loc	3 726 17                        @ ../../../CORTEX_MPU_M3_NUCLEO_L152RE_GCC/Demo/QueueSet.c:726:17
	cmp	r0, r1
	beq	.LBB12_10
	b	.LBB12_9
.LBB12_9:
.Ltmp207:
	.loc	3 730 43 is_stmt 1              @ ../../../CORTEX_MPU_M3_NUCLEO_L152RE_GCC/Demo/QueueSet.c:730:43
	movw	r1, :lower16:xQueueSetTasksStatus
	movt	r1, :upper16:xQueueSetTasksStatus
	movs	r0, #0
	str	r0, [r1]
	.loc	3 731 13                        @ ../../../CORTEX_MPU_M3_NUCLEO_L152RE_GCC/Demo/QueueSet.c:731:13
	b	.LBB12_10
.Ltmp208:
.LBB12_10:
	.loc	3 735 28                        @ ../../../CORTEX_MPU_M3_NUCLEO_L152RE_GCC/Demo/QueueSet.c:735:28
	ldr	r0, [sp, #20]
	add	r1, sp, #24
	movs	r2, #0
	.loc	3 735 13 is_stmt 0              @ ../../../CORTEX_MPU_M3_NUCLEO_L152RE_GCC/Demo/QueueSet.c:735:13
	bl	MPU_xQueueReceive
.Ltmp209:
	.loc	3 737 17 is_stmt 1              @ ../../../CORTEX_MPU_M3_NUCLEO_L152RE_GCC/Demo/QueueSet.c:737:17
	ldr	r0, [sp, #24]
	.loc	3 737 36 is_stmt 0              @ ../../../CORTEX_MPU_M3_NUCLEO_L152RE_GCC/Demo/QueueSet.c:737:36
	ldr	r1, [sp, #28]
.Ltmp210:
	.loc	3 737 17                        @ ../../../CORTEX_MPU_M3_NUCLEO_L152RE_GCC/Demo/QueueSet.c:737:17
	cmp	r0, r1
	beq	.LBB12_12
	b	.LBB12_11
.LBB12_11:
.Ltmp211:
	.loc	3 740 43 is_stmt 1              @ ../../../CORTEX_MPU_M3_NUCLEO_L152RE_GCC/Demo/QueueSet.c:740:43
	movw	r1, :lower16:xQueueSetTasksStatus
	movt	r1, :upper16:xQueueSetTasksStatus
	movs	r0, #0
	str	r0, [r1]
	.loc	3 741 13                        @ ../../../CORTEX_MPU_M3_NUCLEO_L152RE_GCC/Demo/QueueSet.c:741:13
	b	.LBB12_12
.Ltmp212:
.LBB12_12:
	.loc	3 744 41                        @ ../../../CORTEX_MPU_M3_NUCLEO_L152RE_GCC/Demo/QueueSet.c:744:41
	movw	r0, :lower16:xQueueSet
	movt	r0, :upper16:xQueueSet
	ldr	r0, [r0]
	.loc	3 744 17 is_stmt 0              @ ../../../CORTEX_MPU_M3_NUCLEO_L152RE_GCC/Demo/QueueSet.c:744:17
	bl	MPU_uxQueueMessagesWaiting
.Ltmp213:
	.loc	3 744 17                        @ ../../../CORTEX_MPU_M3_NUCLEO_L152RE_GCC/Demo/QueueSet.c:744:17
	cbz	r0, .LBB12_14
	b	.LBB12_13
.LBB12_13:
.Ltmp214:
	.loc	3 746 43 is_stmt 1              @ ../../../CORTEX_MPU_M3_NUCLEO_L152RE_GCC/Demo/QueueSet.c:746:43
	movw	r1, :lower16:xQueueSetTasksStatus
	movt	r1, :upper16:xQueueSetTasksStatus
	movs	r0, #0
	str	r0, [r1]
	.loc	3 747 13                        @ ../../../CORTEX_MPU_M3_NUCLEO_L152RE_GCC/Demo/QueueSet.c:747:13
	b	.LBB12_14
.Ltmp215:
.LBB12_14:
	.loc	3 749 52                        @ ../../../CORTEX_MPU_M3_NUCLEO_L152RE_GCC/Demo/QueueSet.c:749:52
	movw	r0, :lower16:xQueueSet
	movt	r0, :upper16:xQueueSet
	ldr	r0, [r0]
	movs	r1, #0
	.loc	3 749 31 is_stmt 0              @ ../../../CORTEX_MPU_M3_NUCLEO_L152RE_GCC/Demo/QueueSet.c:749:31
	bl	MPU_xQueueSelectFromSet
	.loc	3 749 29                        @ ../../../CORTEX_MPU_M3_NUCLEO_L152RE_GCC/Demo/QueueSet.c:749:29
	str	r0, [sp, #16]
.Ltmp216:
	.loc	3 751 17 is_stmt 1              @ ../../../CORTEX_MPU_M3_NUCLEO_L152RE_GCC/Demo/QueueSet.c:751:17
	ldr	r0, [sp, #16]
.Ltmp217:
	.loc	3 751 17 is_stmt 0              @ ../../../CORTEX_MPU_M3_NUCLEO_L152RE_GCC/Demo/QueueSet.c:751:17
	cbz	r0, .LBB12_16
	b	.LBB12_15
.LBB12_15:
.Ltmp218:
	.loc	3 753 43 is_stmt 1              @ ../../../CORTEX_MPU_M3_NUCLEO_L152RE_GCC/Demo/QueueSet.c:753:43
	movw	r1, :lower16:xQueueSetTasksStatus
	movt	r1, :upper16:xQueueSetTasksStatus
	movs	r0, #0
	str	r0, [r1]
	.loc	3 754 13                        @ ../../../CORTEX_MPU_M3_NUCLEO_L152RE_GCC/Demo/QueueSet.c:754:13
	b	.LBB12_16
.Ltmp219:
.LBB12_16:
	.loc	3 757 34                        @ ../../../CORTEX_MPU_M3_NUCLEO_L152RE_GCC/Demo/QueueSet.c:757:34
	ldr	r0, [sp, #20]
	.loc	3 757 48 is_stmt 0              @ ../../../CORTEX_MPU_M3_NUCLEO_L152RE_GCC/Demo/QueueSet.c:757:48
	movw	r1, :lower16:xQueueSet
	movt	r1, :upper16:xQueueSet
	ldr	r1, [r1]
	.loc	3 757 13                        @ ../../../CORTEX_MPU_M3_NUCLEO_L152RE_GCC/Demo/QueueSet.c:757:13
	bl	MPU_xQueueRemoveFromSet
	.loc	3 758 27 is_stmt 1              @ ../../../CORTEX_MPU_M3_NUCLEO_L152RE_GCC/Demo/QueueSet.c:758:27
	ldr	r0, [sp, #20]
	.loc	3 758 13 is_stmt 0              @ ../../../CORTEX_MPU_M3_NUCLEO_L152RE_GCC/Demo/QueueSet.c:758:13
	bl	MPU_vQueueDelete
	.loc	3 759 9 is_stmt 1               @ ../../../CORTEX_MPU_M3_NUCLEO_L152RE_GCC/Demo/QueueSet.c:759:9
	b	.LBB12_17
.Ltmp220:
.LBB12_17:
	.loc	3 760 5                         @ ../../../CORTEX_MPU_M3_NUCLEO_L152RE_GCC/Demo/QueueSet.c:760:5
	add	sp, #32
	pop	{r7, pc}
.Ltmp221:
.Lfunc_end12:
	.size	prvTestQueueOverwriteWithQueueSet, .Lfunc_end12-prvTestQueueOverwriteWithQueueSet
	.cfi_endproc
	.cantunwind
	.fnend
                                        @ -- End function
	.section	.text.prvTestQueueOverwriteOnTwoQueusInQueueSet,"ax",%progbits
	.p2align	1                               @ -- Begin function prvTestQueueOverwriteOnTwoQueusInQueueSet
	.type	prvTestQueueOverwriteOnTwoQueusInQueueSet,%function
	.code	16                              @ @prvTestQueueOverwriteOnTwoQueusInQueueSet
	.thumb_func
prvTestQueueOverwriteOnTwoQueusInQueueSet:
.Lfunc_begin13:
	.loc	3 764 0                         @ ../../../CORTEX_MPU_M3_NUCLEO_L152RE_GCC/Demo/QueueSet.c:764:0
	.fnstart
	.cfi_startproc
@ %bb.0:
	.save	{r7, lr}
	push	{r7, lr}
	.cfi_def_cfa_offset 8
	.cfi_offset lr, -4
	.cfi_offset r7, -8
	.pad	#56
	sub	sp, #56
	.cfi_def_cfa_offset 64
	movs	r0, #1
.Ltmp222:
	.loc	3 765 18 prologue_end           @ ../../../CORTEX_MPU_M3_NUCLEO_L152RE_GCC/Demo/QueueSet.c:765:18
	str	r0, [sp, #52]
	movs	r1, #2
	.loc	3 765 38 is_stmt 0              @ ../../../CORTEX_MPU_M3_NUCLEO_L152RE_GCC/Demo/QueueSet.c:765:38
	str	r1, [sp, #48]
	movs	r2, #0
	.loc	3 765 60                        @ ../../../CORTEX_MPU_M3_NUCLEO_L152RE_GCC/Demo/QueueSet.c:765:60
	str	r2, [sp, #44]
	.loc	3 766 23 is_stmt 1              @ ../../../CORTEX_MPU_M3_NUCLEO_L152RE_GCC/Demo/QueueSet.c:766:23
	str	r2, [sp, #40]
	.loc	3 766 45 is_stmt 0              @ ../../../CORTEX_MPU_M3_NUCLEO_L152RE_GCC/Demo/QueueSet.c:766:45
	str	r2, [sp, #36]
	.loc	3 766 67                        @ ../../../CORTEX_MPU_M3_NUCLEO_L152RE_GCC/Demo/QueueSet.c:766:67
	str	r2, [sp, #32]
	.loc	3 767 27 is_stmt 1              @ ../../../CORTEX_MPU_M3_NUCLEO_L152RE_GCC/Demo/QueueSet.c:767:27
	str	r0, [sp, #28]
	movs	r1, #4
	.loc	3 771 25                        @ ../../../CORTEX_MPU_M3_NUCLEO_L152RE_GCC/Demo/QueueSet.c:771:25
	bl	MPU_xQueueGenericCreate
	.loc	3 771 23 is_stmt 0              @ ../../../CORTEX_MPU_M3_NUCLEO_L152RE_GCC/Demo/QueueSet.c:771:23
	str	r0, [sp, #40]
.Ltmp223:
	.loc	3 772 9 is_stmt 1               @ ../../../CORTEX_MPU_M3_NUCLEO_L152RE_GCC/Demo/QueueSet.c:772:9
	ldr	r0, [sp, #40]
.Ltmp224:
	.loc	3 772 9 is_stmt 0               @ ../../../CORTEX_MPU_M3_NUCLEO_L152RE_GCC/Demo/QueueSet.c:772:9
	cbnz	r0, .LBB13_3
	b	.LBB13_1
.LBB13_1:
.Ltmp225:
	.loc	3 772 9                         @ ../../../CORTEX_MPU_M3_NUCLEO_L152RE_GCC/Demo/QueueSet.c:772:9
	@APP
	cpsid i
	@NO_APP
	b	.LBB13_2
.LBB13_2:                               @ =>This Inner Loop Header: Depth=1
.Ltmp226:
	.loc	3 772 9                         @ ../../../CORTEX_MPU_M3_NUCLEO_L152RE_GCC/Demo/QueueSet.c:772:9
	b	.LBB13_2
.Ltmp227:
.LBB13_3:
	.loc	3 0 9                           @ ../../../CORTEX_MPU_M3_NUCLEO_L152RE_GCC/Demo/QueueSet.c:0:9
	movs	r0, #1
	movs	r1, #4
	movs	r2, #0
	.loc	3 773 25 is_stmt 1              @ ../../../CORTEX_MPU_M3_NUCLEO_L152RE_GCC/Demo/QueueSet.c:773:25
	bl	MPU_xQueueGenericCreate
	.loc	3 773 23 is_stmt 0              @ ../../../CORTEX_MPU_M3_NUCLEO_L152RE_GCC/Demo/QueueSet.c:773:23
	str	r0, [sp, #36]
.Ltmp228:
	.loc	3 774 9 is_stmt 1               @ ../../../CORTEX_MPU_M3_NUCLEO_L152RE_GCC/Demo/QueueSet.c:774:9
	ldr	r0, [sp, #36]
.Ltmp229:
	.loc	3 774 9 is_stmt 0               @ ../../../CORTEX_MPU_M3_NUCLEO_L152RE_GCC/Demo/QueueSet.c:774:9
	cbnz	r0, .LBB13_6
	b	.LBB13_4
.LBB13_4:
.Ltmp230:
	.loc	3 774 9                         @ ../../../CORTEX_MPU_M3_NUCLEO_L152RE_GCC/Demo/QueueSet.c:774:9
	@APP
	cpsid i
	@NO_APP
	b	.LBB13_5
.LBB13_5:                               @ =>This Inner Loop Header: Depth=1
.Ltmp231:
	.loc	3 774 9                         @ ../../../CORTEX_MPU_M3_NUCLEO_L152RE_GCC/Demo/QueueSet.c:774:9
	b	.LBB13_5
.Ltmp232:
.LBB13_6:
	.loc	3 776 15 is_stmt 1              @ ../../../CORTEX_MPU_M3_NUCLEO_L152RE_GCC/Demo/QueueSet.c:776:15
	ldr	r0, [sp, #40]
	.loc	3 776 39 is_stmt 0              @ ../../../CORTEX_MPU_M3_NUCLEO_L152RE_GCC/Demo/QueueSet.c:776:39
	cbnz	r0, .LBB13_7
	b	.LBB13_35
.LBB13_7:
	.loc	3 776 44                        @ ../../../CORTEX_MPU_M3_NUCLEO_L152RE_GCC/Demo/QueueSet.c:776:44
	ldr	r0, [sp, #36]
.Ltmp233:
	.loc	3 776 13                        @ ../../../CORTEX_MPU_M3_NUCLEO_L152RE_GCC/Demo/QueueSet.c:776:13
	cbnz	r0, .LBB13_8
	b	.LBB13_35
.LBB13_8:
.Ltmp234:
	.loc	3 779 29 is_stmt 1              @ ../../../CORTEX_MPU_M3_NUCLEO_L152RE_GCC/Demo/QueueSet.c:779:29
	ldr	r0, [sp, #40]
	.loc	3 779 44 is_stmt 0              @ ../../../CORTEX_MPU_M3_NUCLEO_L152RE_GCC/Demo/QueueSet.c:779:44
	movw	r1, :lower16:xQueueSet
	movt	r1, :upper16:xQueueSet
	str	r1, [sp, #24]                   @ 4-byte Spill
	ldr	r1, [r1]
	.loc	3 779 13                        @ ../../../CORTEX_MPU_M3_NUCLEO_L152RE_GCC/Demo/QueueSet.c:779:13
	bl	MPU_xQueueAddToSet
	ldr	r1, [sp, #24]                   @ 4-byte Reload
	.loc	3 780 29 is_stmt 1              @ ../../../CORTEX_MPU_M3_NUCLEO_L152RE_GCC/Demo/QueueSet.c:780:29
	ldr	r0, [sp, #36]
	.loc	3 780 44 is_stmt 0              @ ../../../CORTEX_MPU_M3_NUCLEO_L152RE_GCC/Demo/QueueSet.c:780:44
	ldr	r1, [r1]
	.loc	3 780 13                        @ ../../../CORTEX_MPU_M3_NUCLEO_L152RE_GCC/Demo/QueueSet.c:780:13
	bl	MPU_xQueueAddToSet
	.loc	3 783 13 is_stmt 1              @ ../../../CORTEX_MPU_M3_NUCLEO_L152RE_GCC/Demo/QueueSet.c:783:13
	ldr	r0, [sp, #40]
	add	r1, sp, #52
	movs	r2, #0
	movs	r3, #2
	bl	MPU_xQueueGenericSend
                                        @ kill: def $r1 killed $r0
.Ltmp235:
	.loc	3 785 41                        @ ../../../CORTEX_MPU_M3_NUCLEO_L152RE_GCC/Demo/QueueSet.c:785:41
	ldr	r0, [sp, #24]                   @ 4-byte Reload
	ldr	r0, [r0]
	.loc	3 785 17 is_stmt 0              @ ../../../CORTEX_MPU_M3_NUCLEO_L152RE_GCC/Demo/QueueSet.c:785:17
	bl	MPU_uxQueueMessagesWaiting
.Ltmp236:
	.loc	3 785 17                        @ ../../../CORTEX_MPU_M3_NUCLEO_L152RE_GCC/Demo/QueueSet.c:785:17
	cmp	r0, #1
	beq	.LBB13_10
	b	.LBB13_9
.LBB13_9:
.Ltmp237:
	.loc	3 788 43 is_stmt 1              @ ../../../CORTEX_MPU_M3_NUCLEO_L152RE_GCC/Demo/QueueSet.c:788:43
	movw	r1, :lower16:xQueueSetTasksStatus
	movt	r1, :upper16:xQueueSetTasksStatus
	movs	r0, #0
	str	r0, [r1]
	.loc	3 789 13                        @ ../../../CORTEX_MPU_M3_NUCLEO_L152RE_GCC/Demo/QueueSet.c:789:13
	b	.LBB13_10
.Ltmp238:
.LBB13_10:
	.loc	3 791 25                        @ ../../../CORTEX_MPU_M3_NUCLEO_L152RE_GCC/Demo/QueueSet.c:791:25
	movw	r0, :lower16:xQueueSet
	movt	r0, :upper16:xQueueSet
	str	r0, [sp, #20]                   @ 4-byte Spill
	ldr	r0, [r0]
	add	r1, sp, #32
	movs	r2, #0
	.loc	3 791 13 is_stmt 0              @ ../../../CORTEX_MPU_M3_NUCLEO_L152RE_GCC/Demo/QueueSet.c:791:13
	str	r2, [sp, #16]                   @ 4-byte Spill
	bl	MPU_xQueuePeek
	ldr	r2, [sp, #16]                   @ 4-byte Reload
	.loc	3 801 13 is_stmt 1              @ ../../../CORTEX_MPU_M3_NUCLEO_L152RE_GCC/Demo/QueueSet.c:801:13
	ldr	r0, [sp, #36]
	add	r1, sp, #48
	movs	r3, #2
	bl	MPU_xQueueGenericSend
                                        @ kill: def $r1 killed $r0
.Ltmp239:
	.loc	3 803 41                        @ ../../../CORTEX_MPU_M3_NUCLEO_L152RE_GCC/Demo/QueueSet.c:803:41
	ldr	r0, [sp, #20]                   @ 4-byte Reload
	ldr	r0, [r0]
	.loc	3 803 17 is_stmt 0              @ ../../../CORTEX_MPU_M3_NUCLEO_L152RE_GCC/Demo/QueueSet.c:803:17
	bl	MPU_uxQueueMessagesWaiting
.Ltmp240:
	.loc	3 803 17                        @ ../../../CORTEX_MPU_M3_NUCLEO_L152RE_GCC/Demo/QueueSet.c:803:17
	cmp	r0, #2
	beq	.LBB13_12
	b	.LBB13_11
.LBB13_11:
.Ltmp241:
	.loc	3 806 43 is_stmt 1              @ ../../../CORTEX_MPU_M3_NUCLEO_L152RE_GCC/Demo/QueueSet.c:806:43
	movw	r1, :lower16:xQueueSetTasksStatus
	movt	r1, :upper16:xQueueSetTasksStatus
	movs	r0, #0
	str	r0, [r1]
	.loc	3 807 13                        @ ../../../CORTEX_MPU_M3_NUCLEO_L152RE_GCC/Demo/QueueSet.c:807:13
	b	.LBB13_12
.Ltmp242:
.LBB13_12:
	.loc	3 810 25                        @ ../../../CORTEX_MPU_M3_NUCLEO_L152RE_GCC/Demo/QueueSet.c:810:25
	movw	r0, :lower16:xQueueSet
	movt	r0, :upper16:xQueueSet
	str	r0, [sp, #12]                   @ 4-byte Spill
	ldr	r0, [r0]
	add	r1, sp, #32
	movs	r2, #0
	.loc	3 810 13 is_stmt 0              @ ../../../CORTEX_MPU_M3_NUCLEO_L152RE_GCC/Demo/QueueSet.c:810:13
	str	r2, [sp, #8]                    @ 4-byte Spill
	bl	MPU_xQueuePeek
	ldr	r2, [sp, #8]                    @ 4-byte Reload
	.loc	3 823 13 is_stmt 1              @ ../../../CORTEX_MPU_M3_NUCLEO_L152RE_GCC/Demo/QueueSet.c:823:13
	ldr	r0, [sp, #40]
	add	r1, sp, #48
	movs	r3, #2
	bl	MPU_xQueueGenericSend
                                        @ kill: def $r1 killed $r0
.Ltmp243:
	.loc	3 825 41                        @ ../../../CORTEX_MPU_M3_NUCLEO_L152RE_GCC/Demo/QueueSet.c:825:41
	ldr	r0, [sp, #12]                   @ 4-byte Reload
	ldr	r0, [r0]
	.loc	3 825 17 is_stmt 0              @ ../../../CORTEX_MPU_M3_NUCLEO_L152RE_GCC/Demo/QueueSet.c:825:17
	bl	MPU_uxQueueMessagesWaiting
.Ltmp244:
	.loc	3 825 17                        @ ../../../CORTEX_MPU_M3_NUCLEO_L152RE_GCC/Demo/QueueSet.c:825:17
	cmp	r0, #2
	beq	.LBB13_14
	b	.LBB13_13
.LBB13_13:
.Ltmp245:
	.loc	3 828 43 is_stmt 1              @ ../../../CORTEX_MPU_M3_NUCLEO_L152RE_GCC/Demo/QueueSet.c:828:43
	movw	r1, :lower16:xQueueSetTasksStatus
	movt	r1, :upper16:xQueueSetTasksStatus
	movs	r0, #0
	str	r0, [r1]
	.loc	3 829 13                        @ ../../../CORTEX_MPU_M3_NUCLEO_L152RE_GCC/Demo/QueueSet.c:829:13
	b	.LBB13_14
.Ltmp246:
.LBB13_14:
	.loc	3 831 13                        @ ../../../CORTEX_MPU_M3_NUCLEO_L152RE_GCC/Demo/QueueSet.c:831:13
	ldr	r0, [sp, #36]
	add	r1, sp, #52
	movs	r2, #0
	movs	r3, #2
	bl	MPU_xQueueGenericSend
.Ltmp247:
	.loc	3 833 41                        @ ../../../CORTEX_MPU_M3_NUCLEO_L152RE_GCC/Demo/QueueSet.c:833:41
	movw	r0, :lower16:xQueueSet
	movt	r0, :upper16:xQueueSet
	ldr	r0, [r0]
	.loc	3 833 17 is_stmt 0              @ ../../../CORTEX_MPU_M3_NUCLEO_L152RE_GCC/Demo/QueueSet.c:833:17
	bl	MPU_uxQueueMessagesWaiting
.Ltmp248:
	.loc	3 833 17                        @ ../../../CORTEX_MPU_M3_NUCLEO_L152RE_GCC/Demo/QueueSet.c:833:17
	cmp	r0, #2
	beq	.LBB13_16
	b	.LBB13_15
.LBB13_15:
.Ltmp249:
	.loc	3 836 43 is_stmt 1              @ ../../../CORTEX_MPU_M3_NUCLEO_L152RE_GCC/Demo/QueueSet.c:836:43
	movw	r1, :lower16:xQueueSetTasksStatus
	movt	r1, :upper16:xQueueSetTasksStatus
	movs	r0, #0
	str	r0, [r1]
	.loc	3 837 13                        @ ../../../CORTEX_MPU_M3_NUCLEO_L152RE_GCC/Demo/QueueSet.c:837:13
	b	.LBB13_16
.Ltmp250:
.LBB13_16:
	.loc	3 840 13                        @ ../../../CORTEX_MPU_M3_NUCLEO_L152RE_GCC/Demo/QueueSet.c:840:13
	ldr	r0, [sp, #40]
	add	r1, sp, #48
	movs	r2, #0
	movs	r3, #2
	bl	MPU_xQueueGenericSend
.Ltmp251:
	.loc	3 842 41                        @ ../../../CORTEX_MPU_M3_NUCLEO_L152RE_GCC/Demo/QueueSet.c:842:41
	movw	r0, :lower16:xQueueSet
	movt	r0, :upper16:xQueueSet
	ldr	r0, [r0]
	.loc	3 842 17 is_stmt 0              @ ../../../CORTEX_MPU_M3_NUCLEO_L152RE_GCC/Demo/QueueSet.c:842:17
	bl	MPU_uxQueueMessagesWaiting
.Ltmp252:
	.loc	3 842 17                        @ ../../../CORTEX_MPU_M3_NUCLEO_L152RE_GCC/Demo/QueueSet.c:842:17
	cmp	r0, #2
	beq	.LBB13_18
	b	.LBB13_17
.LBB13_17:
.Ltmp253:
	.loc	3 845 43 is_stmt 1              @ ../../../CORTEX_MPU_M3_NUCLEO_L152RE_GCC/Demo/QueueSet.c:845:43
	movw	r1, :lower16:xQueueSetTasksStatus
	movt	r1, :upper16:xQueueSetTasksStatus
	movs	r0, #0
	str	r0, [r1]
	.loc	3 846 13                        @ ../../../CORTEX_MPU_M3_NUCLEO_L152RE_GCC/Demo/QueueSet.c:846:13
	b	.LBB13_18
.Ltmp254:
.LBB13_18:
	.loc	3 848 13                        @ ../../../CORTEX_MPU_M3_NUCLEO_L152RE_GCC/Demo/QueueSet.c:848:13
	ldr	r0, [sp, #36]
	add	r1, sp, #52
	movs	r2, #0
	movs	r3, #2
	bl	MPU_xQueueGenericSend
.Ltmp255:
	.loc	3 850 41                        @ ../../../CORTEX_MPU_M3_NUCLEO_L152RE_GCC/Demo/QueueSet.c:850:41
	movw	r0, :lower16:xQueueSet
	movt	r0, :upper16:xQueueSet
	ldr	r0, [r0]
	.loc	3 850 17 is_stmt 0              @ ../../../CORTEX_MPU_M3_NUCLEO_L152RE_GCC/Demo/QueueSet.c:850:17
	bl	MPU_uxQueueMessagesWaiting
.Ltmp256:
	.loc	3 850 17                        @ ../../../CORTEX_MPU_M3_NUCLEO_L152RE_GCC/Demo/QueueSet.c:850:17
	cmp	r0, #2
	beq	.LBB13_20
	b	.LBB13_19
.LBB13_19:
.Ltmp257:
	.loc	3 853 43 is_stmt 1              @ ../../../CORTEX_MPU_M3_NUCLEO_L152RE_GCC/Demo/QueueSet.c:853:43
	movw	r1, :lower16:xQueueSetTasksStatus
	movt	r1, :upper16:xQueueSetTasksStatus
	movs	r0, #0
	str	r0, [r1]
	.loc	3 854 13                        @ ../../../CORTEX_MPU_M3_NUCLEO_L152RE_GCC/Demo/QueueSet.c:854:13
	b	.LBB13_20
.Ltmp258:
.LBB13_20:
	.loc	3 861 52                        @ ../../../CORTEX_MPU_M3_NUCLEO_L152RE_GCC/Demo/QueueSet.c:861:52
	movw	r0, :lower16:xQueueSet
	movt	r0, :upper16:xQueueSet
	ldr	r0, [r0]
	movs	r1, #0
	.loc	3 861 31 is_stmt 0              @ ../../../CORTEX_MPU_M3_NUCLEO_L152RE_GCC/Demo/QueueSet.c:861:31
	bl	MPU_xQueueSelectFromSet
	.loc	3 861 29                        @ ../../../CORTEX_MPU_M3_NUCLEO_L152RE_GCC/Demo/QueueSet.c:861:29
	str	r0, [sp, #32]
.Ltmp259:
	.loc	3 863 17 is_stmt 1              @ ../../../CORTEX_MPU_M3_NUCLEO_L152RE_GCC/Demo/QueueSet.c:863:17
	ldr	r0, [sp, #32]
	.loc	3 863 36 is_stmt 0              @ ../../../CORTEX_MPU_M3_NUCLEO_L152RE_GCC/Demo/QueueSet.c:863:36
	ldr	r1, [sp, #40]
.Ltmp260:
	.loc	3 863 17                        @ ../../../CORTEX_MPU_M3_NUCLEO_L152RE_GCC/Demo/QueueSet.c:863:17
	cmp	r0, r1
	beq	.LBB13_22
	b	.LBB13_21
.LBB13_21:
.Ltmp261:
	.loc	3 867 43 is_stmt 1              @ ../../../CORTEX_MPU_M3_NUCLEO_L152RE_GCC/Demo/QueueSet.c:867:43
	movw	r1, :lower16:xQueueSetTasksStatus
	movt	r1, :upper16:xQueueSetTasksStatus
	movs	r0, #0
	str	r0, [r1]
	.loc	3 868 13                        @ ../../../CORTEX_MPU_M3_NUCLEO_L152RE_GCC/Demo/QueueSet.c:868:13
	b	.LBB13_22
.Ltmp262:
.LBB13_22:
	.loc	3 870 41                        @ ../../../CORTEX_MPU_M3_NUCLEO_L152RE_GCC/Demo/QueueSet.c:870:41
	movw	r0, :lower16:xQueueSet
	movt	r0, :upper16:xQueueSet
	ldr	r0, [r0]
	.loc	3 870 17 is_stmt 0              @ ../../../CORTEX_MPU_M3_NUCLEO_L152RE_GCC/Demo/QueueSet.c:870:17
	bl	MPU_uxQueueMessagesWaiting
.Ltmp263:
	.loc	3 870 17                        @ ../../../CORTEX_MPU_M3_NUCLEO_L152RE_GCC/Demo/QueueSet.c:870:17
	cmp	r0, #1
	beq	.LBB13_24
	b	.LBB13_23
.LBB13_23:
.Ltmp264:
	.loc	3 874 43 is_stmt 1              @ ../../../CORTEX_MPU_M3_NUCLEO_L152RE_GCC/Demo/QueueSet.c:874:43
	movw	r1, :lower16:xQueueSetTasksStatus
	movt	r1, :upper16:xQueueSetTasksStatus
	movs	r0, #0
	str	r0, [r1]
	.loc	3 875 13                        @ ../../../CORTEX_MPU_M3_NUCLEO_L152RE_GCC/Demo/QueueSet.c:875:13
	b	.LBB13_24
.Ltmp265:
.LBB13_24:
	.loc	3 877 28                        @ ../../../CORTEX_MPU_M3_NUCLEO_L152RE_GCC/Demo/QueueSet.c:877:28
	ldr	r0, [sp, #32]
	add	r1, sp, #44
	movs	r2, #0
	.loc	3 877 13 is_stmt 0              @ ../../../CORTEX_MPU_M3_NUCLEO_L152RE_GCC/Demo/QueueSet.c:877:13
	bl	MPU_xQueueReceive
.Ltmp266:
	.loc	3 879 17 is_stmt 1              @ ../../../CORTEX_MPU_M3_NUCLEO_L152RE_GCC/Demo/QueueSet.c:879:17
	ldr	r0, [sp, #44]
	.loc	3 879 36 is_stmt 0              @ ../../../CORTEX_MPU_M3_NUCLEO_L152RE_GCC/Demo/QueueSet.c:879:36
	ldr	r1, [sp, #48]
.Ltmp267:
	.loc	3 879 17                        @ ../../../CORTEX_MPU_M3_NUCLEO_L152RE_GCC/Demo/QueueSet.c:879:17
	cmp	r0, r1
	beq	.LBB13_26
	b	.LBB13_25
.LBB13_25:
.Ltmp268:
	.loc	3 883 43 is_stmt 1              @ ../../../CORTEX_MPU_M3_NUCLEO_L152RE_GCC/Demo/QueueSet.c:883:43
	movw	r1, :lower16:xQueueSetTasksStatus
	movt	r1, :upper16:xQueueSetTasksStatus
	movs	r0, #0
	str	r0, [r1]
	.loc	3 884 13                        @ ../../../CORTEX_MPU_M3_NUCLEO_L152RE_GCC/Demo/QueueSet.c:884:13
	b	.LBB13_26
.Ltmp269:
.LBB13_26:
	.loc	3 886 52                        @ ../../../CORTEX_MPU_M3_NUCLEO_L152RE_GCC/Demo/QueueSet.c:886:52
	movw	r0, :lower16:xQueueSet
	movt	r0, :upper16:xQueueSet
	ldr	r0, [r0]
	movs	r1, #0
	.loc	3 886 31 is_stmt 0              @ ../../../CORTEX_MPU_M3_NUCLEO_L152RE_GCC/Demo/QueueSet.c:886:31
	bl	MPU_xQueueSelectFromSet
	.loc	3 886 29                        @ ../../../CORTEX_MPU_M3_NUCLEO_L152RE_GCC/Demo/QueueSet.c:886:29
	str	r0, [sp, #32]
.Ltmp270:
	.loc	3 888 17 is_stmt 1              @ ../../../CORTEX_MPU_M3_NUCLEO_L152RE_GCC/Demo/QueueSet.c:888:17
	ldr	r0, [sp, #32]
	.loc	3 888 36 is_stmt 0              @ ../../../CORTEX_MPU_M3_NUCLEO_L152RE_GCC/Demo/QueueSet.c:888:36
	ldr	r1, [sp, #36]
.Ltmp271:
	.loc	3 888 17                        @ ../../../CORTEX_MPU_M3_NUCLEO_L152RE_GCC/Demo/QueueSet.c:888:17
	cmp	r0, r1
	beq	.LBB13_28
	b	.LBB13_27
.LBB13_27:
.Ltmp272:
	.loc	3 892 43 is_stmt 1              @ ../../../CORTEX_MPU_M3_NUCLEO_L152RE_GCC/Demo/QueueSet.c:892:43
	movw	r1, :lower16:xQueueSetTasksStatus
	movt	r1, :upper16:xQueueSetTasksStatus
	movs	r0, #0
	str	r0, [r1]
	.loc	3 893 13                        @ ../../../CORTEX_MPU_M3_NUCLEO_L152RE_GCC/Demo/QueueSet.c:893:13
	b	.LBB13_28
.Ltmp273:
.LBB13_28:
	.loc	3 895 41                        @ ../../../CORTEX_MPU_M3_NUCLEO_L152RE_GCC/Demo/QueueSet.c:895:41
	movw	r0, :lower16:xQueueSet
	movt	r0, :upper16:xQueueSet
	ldr	r0, [r0]
	.loc	3 895 17 is_stmt 0              @ ../../../CORTEX_MPU_M3_NUCLEO_L152RE_GCC/Demo/QueueSet.c:895:17
	bl	MPU_uxQueueMessagesWaiting
.Ltmp274:
	.loc	3 895 17                        @ ../../../CORTEX_MPU_M3_NUCLEO_L152RE_GCC/Demo/QueueSet.c:895:17
	cbz	r0, .LBB13_30
	b	.LBB13_29
.LBB13_29:
.Ltmp275:
	.loc	3 898 43 is_stmt 1              @ ../../../CORTEX_MPU_M3_NUCLEO_L152RE_GCC/Demo/QueueSet.c:898:43
	movw	r1, :lower16:xQueueSetTasksStatus
	movt	r1, :upper16:xQueueSetTasksStatus
	movs	r0, #0
	str	r0, [r1]
	.loc	3 899 13                        @ ../../../CORTEX_MPU_M3_NUCLEO_L152RE_GCC/Demo/QueueSet.c:899:13
	b	.LBB13_30
.Ltmp276:
.LBB13_30:
	.loc	3 901 28                        @ ../../../CORTEX_MPU_M3_NUCLEO_L152RE_GCC/Demo/QueueSet.c:901:28
	ldr	r0, [sp, #32]
	add	r1, sp, #44
	movs	r2, #0
	.loc	3 901 13 is_stmt 0              @ ../../../CORTEX_MPU_M3_NUCLEO_L152RE_GCC/Demo/QueueSet.c:901:13
	bl	MPU_xQueueReceive
.Ltmp277:
	.loc	3 903 17 is_stmt 1              @ ../../../CORTEX_MPU_M3_NUCLEO_L152RE_GCC/Demo/QueueSet.c:903:17
	ldr	r0, [sp, #44]
	.loc	3 903 36 is_stmt 0              @ ../../../CORTEX_MPU_M3_NUCLEO_L152RE_GCC/Demo/QueueSet.c:903:36
	ldr	r1, [sp, #52]
.Ltmp278:
	.loc	3 903 17                        @ ../../../CORTEX_MPU_M3_NUCLEO_L152RE_GCC/Demo/QueueSet.c:903:17
	cmp	r0, r1
	beq	.LBB13_32
	b	.LBB13_31
.LBB13_31:
.Ltmp279:
	.loc	3 907 43 is_stmt 1              @ ../../../CORTEX_MPU_M3_NUCLEO_L152RE_GCC/Demo/QueueSet.c:907:43
	movw	r1, :lower16:xQueueSetTasksStatus
	movt	r1, :upper16:xQueueSetTasksStatus
	movs	r0, #0
	str	r0, [r1]
	.loc	3 908 13                        @ ../../../CORTEX_MPU_M3_NUCLEO_L152RE_GCC/Demo/QueueSet.c:908:13
	b	.LBB13_32
.Ltmp280:
.LBB13_32:
	.loc	3 911 52                        @ ../../../CORTEX_MPU_M3_NUCLEO_L152RE_GCC/Demo/QueueSet.c:911:52
	movw	r0, :lower16:xQueueSet
	movt	r0, :upper16:xQueueSet
	ldr	r0, [r0]
	movs	r1, #0
	.loc	3 911 31 is_stmt 0              @ ../../../CORTEX_MPU_M3_NUCLEO_L152RE_GCC/Demo/QueueSet.c:911:31
	bl	MPU_xQueueSelectFromSet
	.loc	3 911 29                        @ ../../../CORTEX_MPU_M3_NUCLEO_L152RE_GCC/Demo/QueueSet.c:911:29
	str	r0, [sp, #32]
.Ltmp281:
	.loc	3 913 17 is_stmt 1              @ ../../../CORTEX_MPU_M3_NUCLEO_L152RE_GCC/Demo/QueueSet.c:913:17
	ldr	r0, [sp, #32]
.Ltmp282:
	.loc	3 913 17 is_stmt 0              @ ../../../CORTEX_MPU_M3_NUCLEO_L152RE_GCC/Demo/QueueSet.c:913:17
	cbz	r0, .LBB13_34
	b	.LBB13_33
.LBB13_33:
.Ltmp283:
	.loc	3 915 43 is_stmt 1              @ ../../../CORTEX_MPU_M3_NUCLEO_L152RE_GCC/Demo/QueueSet.c:915:43
	movw	r1, :lower16:xQueueSetTasksStatus
	movt	r1, :upper16:xQueueSetTasksStatus
	movs	r0, #0
	str	r0, [r1]
	.loc	3 916 13                        @ ../../../CORTEX_MPU_M3_NUCLEO_L152RE_GCC/Demo/QueueSet.c:916:13
	b	.LBB13_34
.Ltmp284:
.LBB13_34:
	.loc	3 919 34                        @ ../../../CORTEX_MPU_M3_NUCLEO_L152RE_GCC/Demo/QueueSet.c:919:34
	ldr	r0, [sp, #40]
	.loc	3 919 49 is_stmt 0              @ ../../../CORTEX_MPU_M3_NUCLEO_L152RE_GCC/Demo/QueueSet.c:919:49
	movw	r1, :lower16:xQueueSet
	movt	r1, :upper16:xQueueSet
	str	r1, [sp, #4]                    @ 4-byte Spill
	ldr	r1, [r1]
	.loc	3 919 13                        @ ../../../CORTEX_MPU_M3_NUCLEO_L152RE_GCC/Demo/QueueSet.c:919:13
	bl	MPU_xQueueRemoveFromSet
	ldr	r1, [sp, #4]                    @ 4-byte Reload
	.loc	3 920 34 is_stmt 1              @ ../../../CORTEX_MPU_M3_NUCLEO_L152RE_GCC/Demo/QueueSet.c:920:34
	ldr	r0, [sp, #36]
	.loc	3 920 49 is_stmt 0              @ ../../../CORTEX_MPU_M3_NUCLEO_L152RE_GCC/Demo/QueueSet.c:920:49
	ldr	r1, [r1]
	.loc	3 920 13                        @ ../../../CORTEX_MPU_M3_NUCLEO_L152RE_GCC/Demo/QueueSet.c:920:13
	bl	MPU_xQueueRemoveFromSet
	.loc	3 921 27 is_stmt 1              @ ../../../CORTEX_MPU_M3_NUCLEO_L152RE_GCC/Demo/QueueSet.c:921:27
	ldr	r0, [sp, #40]
	.loc	3 921 13 is_stmt 0              @ ../../../CORTEX_MPU_M3_NUCLEO_L152RE_GCC/Demo/QueueSet.c:921:13
	bl	MPU_vQueueDelete
	.loc	3 922 27 is_stmt 1              @ ../../../CORTEX_MPU_M3_NUCLEO_L152RE_GCC/Demo/QueueSet.c:922:27
	ldr	r0, [sp, #36]
	.loc	3 922 13 is_stmt 0              @ ../../../CORTEX_MPU_M3_NUCLEO_L152RE_GCC/Demo/QueueSet.c:922:13
	bl	MPU_vQueueDelete
	.loc	3 923 9 is_stmt 1               @ ../../../CORTEX_MPU_M3_NUCLEO_L152RE_GCC/Demo/QueueSet.c:923:9
	b	.LBB13_35
.Ltmp285:
.LBB13_35:
	.loc	3 924 5                         @ ../../../CORTEX_MPU_M3_NUCLEO_L152RE_GCC/Demo/QueueSet.c:924:5
	add	sp, #56
	pop	{r7, pc}
.Ltmp286:
.Lfunc_end13:
	.size	prvTestQueueOverwriteOnTwoQueusInQueueSet, .Lfunc_end13-prvTestQueueOverwriteOnTwoQueusInQueueSet
	.cfi_endproc
	.cantunwind
	.fnend
                                        @ -- End function
	.section	.text.prvCheckReceivedValueWithinExpectedRange,"ax",%progbits
	.p2align	1                               @ -- Begin function prvCheckReceivedValueWithinExpectedRange
	.type	prvCheckReceivedValueWithinExpectedRange,%function
	.code	16                              @ @prvCheckReceivedValueWithinExpectedRange
	.thumb_func
prvCheckReceivedValueWithinExpectedRange:
.Lfunc_begin14:
	.loc	3 601 0                         @ ../../../CORTEX_MPU_M3_NUCLEO_L152RE_GCC/Demo/QueueSet.c:601:0
	.fnstart
	.cfi_startproc
@ %bb.0:
	.pad	#12
	sub	sp, #12
	.cfi_def_cfa_offset 12
	str	r0, [sp, #8]
	str	r1, [sp, #4]
	movs	r0, #1
.Ltmp287:
	.loc	3 602 20 prologue_end           @ ../../../CORTEX_MPU_M3_NUCLEO_L152RE_GCC/Demo/QueueSet.c:602:20
	str	r0, [sp]
.Ltmp288:
	.loc	3 604 13                        @ ../../../CORTEX_MPU_M3_NUCLEO_L152RE_GCC/Demo/QueueSet.c:604:13
	ldr	r0, [sp, #8]
	.loc	3 604 26 is_stmt 0              @ ../../../CORTEX_MPU_M3_NUCLEO_L152RE_GCC/Demo/QueueSet.c:604:26
	ldr	r1, [sp, #4]
.Ltmp289:
	.loc	3 604 13                        @ ../../../CORTEX_MPU_M3_NUCLEO_L152RE_GCC/Demo/QueueSet.c:604:13
	cmp	r0, r1
	bls	.LBB14_7
	b	.LBB14_1
.LBB14_1:
.Ltmp290:
	.loc	3 606 13 is_stmt 1              @ ../../../CORTEX_MPU_M3_NUCLEO_L152RE_GCC/Demo/QueueSet.c:606:13
	ldr	r0, [sp, #8]
	ldr	r1, [sp, #4]
	subs	r0, r0, r1
.Ltmp291:
	.loc	3 606 13 is_stmt 0              @ ../../../CORTEX_MPU_M3_NUCLEO_L152RE_GCC/Demo/QueueSet.c:606:13
	cmp	r0, #4
	blo	.LBB14_4
	b	.LBB14_2
.LBB14_2:
.Ltmp292:
	.loc	3 606 13                        @ ../../../CORTEX_MPU_M3_NUCLEO_L152RE_GCC/Demo/QueueSet.c:606:13
	@APP
	cpsid i
	@NO_APP
	b	.LBB14_3
.LBB14_3:                               @ =>This Inner Loop Header: Depth=1
.Ltmp293:
	.loc	3 606 13                        @ ../../../CORTEX_MPU_M3_NUCLEO_L152RE_GCC/Demo/QueueSet.c:606:13
	b	.LBB14_3
.Ltmp294:
.LBB14_4:
	.loc	3 608 19 is_stmt 1              @ ../../../CORTEX_MPU_M3_NUCLEO_L152RE_GCC/Demo/QueueSet.c:608:19
	ldr	r0, [sp, #8]
	.loc	3 608 32 is_stmt 0              @ ../../../CORTEX_MPU_M3_NUCLEO_L152RE_GCC/Demo/QueueSet.c:608:32
	ldr	r1, [sp, #4]
	.loc	3 608 30                        @ ../../../CORTEX_MPU_M3_NUCLEO_L152RE_GCC/Demo/QueueSet.c:608:30
	subs	r0, r0, r1
.Ltmp295:
	.loc	3 608 17                        @ ../../../CORTEX_MPU_M3_NUCLEO_L152RE_GCC/Demo/QueueSet.c:608:17
	cmp	r0, #4
	blo	.LBB14_6
	b	.LBB14_5
.LBB14_5:
	.loc	3 0 17                          @ ../../../CORTEX_MPU_M3_NUCLEO_L152RE_GCC/Demo/QueueSet.c:0:17
	movs	r0, #0
.Ltmp296:
	.loc	3 610 25 is_stmt 1              @ ../../../CORTEX_MPU_M3_NUCLEO_L152RE_GCC/Demo/QueueSet.c:610:25
	str	r0, [sp]
	.loc	3 611 13                        @ ../../../CORTEX_MPU_M3_NUCLEO_L152RE_GCC/Demo/QueueSet.c:611:13
	b	.LBB14_6
.Ltmp297:
.LBB14_6:
	.loc	3 612 9                         @ ../../../CORTEX_MPU_M3_NUCLEO_L152RE_GCC/Demo/QueueSet.c:612:9
	b	.LBB14_13
.Ltmp298:
.LBB14_7:
	.loc	3 615 13                        @ ../../../CORTEX_MPU_M3_NUCLEO_L152RE_GCC/Demo/QueueSet.c:615:13
	ldr	r0, [sp, #4]
	ldr	r1, [sp, #8]
	subs	r0, r0, r1
.Ltmp299:
	.loc	3 615 13 is_stmt 0              @ ../../../CORTEX_MPU_M3_NUCLEO_L152RE_GCC/Demo/QueueSet.c:615:13
	cmp	r0, #4
	blo	.LBB14_10
	b	.LBB14_8
.LBB14_8:
.Ltmp300:
	.loc	3 615 13                        @ ../../../CORTEX_MPU_M3_NUCLEO_L152RE_GCC/Demo/QueueSet.c:615:13
	@APP
	cpsid i
	@NO_APP
	b	.LBB14_9
.LBB14_9:                               @ =>This Inner Loop Header: Depth=1
.Ltmp301:
	.loc	3 615 13                        @ ../../../CORTEX_MPU_M3_NUCLEO_L152RE_GCC/Demo/QueueSet.c:615:13
	b	.LBB14_9
.Ltmp302:
.LBB14_10:
	.loc	3 617 19 is_stmt 1              @ ../../../CORTEX_MPU_M3_NUCLEO_L152RE_GCC/Demo/QueueSet.c:617:19
	ldr	r0, [sp, #4]
	.loc	3 617 40 is_stmt 0              @ ../../../CORTEX_MPU_M3_NUCLEO_L152RE_GCC/Demo/QueueSet.c:617:40
	ldr	r1, [sp, #8]
	.loc	3 617 38                        @ ../../../CORTEX_MPU_M3_NUCLEO_L152RE_GCC/Demo/QueueSet.c:617:38
	subs	r0, r0, r1
.Ltmp303:
	.loc	3 617 17                        @ ../../../CORTEX_MPU_M3_NUCLEO_L152RE_GCC/Demo/QueueSet.c:617:17
	cmp	r0, #4
	blo	.LBB14_12
	b	.LBB14_11
.LBB14_11:
	.loc	3 0 17                          @ ../../../CORTEX_MPU_M3_NUCLEO_L152RE_GCC/Demo/QueueSet.c:0:17
	movs	r0, #0
.Ltmp304:
	.loc	3 619 25 is_stmt 1              @ ../../../CORTEX_MPU_M3_NUCLEO_L152RE_GCC/Demo/QueueSet.c:619:25
	str	r0, [sp]
	.loc	3 620 13                        @ ../../../CORTEX_MPU_M3_NUCLEO_L152RE_GCC/Demo/QueueSet.c:620:13
	b	.LBB14_12
.Ltmp305:
.LBB14_12:
	.loc	3 0 13 is_stmt 0                @ ../../../CORTEX_MPU_M3_NUCLEO_L152RE_GCC/Demo/QueueSet.c:0:13
	b	.LBB14_13
.LBB14_13:
	.loc	3 623 16 is_stmt 1              @ ../../../CORTEX_MPU_M3_NUCLEO_L152RE_GCC/Demo/QueueSet.c:623:16
	ldr	r0, [sp]
	.loc	3 623 9 is_stmt 0               @ ../../../CORTEX_MPU_M3_NUCLEO_L152RE_GCC/Demo/QueueSet.c:623:9
	add	sp, #12
	bx	lr
.Ltmp306:
.Lfunc_end14:
	.size	prvCheckReceivedValueWithinExpectedRange, .Lfunc_end14-prvCheckReceivedValueWithinExpectedRange
	.cfi_endproc
	.cantunwind
	.fnend
                                        @ -- End function
	.type	vStartQueueSetTasks.xQueueSetSendingTaskStack,%object @ @vStartQueueSetTasks.xQueueSetSendingTaskStack
	.section	.bss.vStartQueueSetTasks.xQueueSetSendingTaskStack,"aw",%nobits
	.p2align	9, 0x0
vStartQueueSetTasks.xQueueSetSendingTaskStack:
	.zero	512
	.size	vStartQueueSetTasks.xQueueSetSendingTaskStack, 512

	.type	vStartQueueSetTasks.xQueueSetRecevingTaskStack,%object @ @vStartQueueSetTasks.xQueueSetRecevingTaskStack
	.section	.bss.vStartQueueSetTasks.xQueueSetRecevingTaskStack,"aw",%nobits
	.p2align	9, 0x0
vStartQueueSetTasks.xQueueSetRecevingTaskStack:
	.zero	512
	.size	vStartQueueSetTasks.xQueueSetRecevingTaskStack, 512

	.type	.L.str,%object                  @ @.str
	.section	.rodata.str1.1,"aMS",%progbits,1
.L.str:
	.asciz	"SetTx"
	.size	.L.str, 6

	.type	.L__const.vStartQueueSetTasks.xQueueSetSendingTaskParameters,%object @ @__const.vStartQueueSetTasks.xQueueSetSendingTaskParameters
	.section	.rodata..L__const.vStartQueueSetTasks.xQueueSetSendingTaskParameters,"a",%progbits
	.p2align	2, 0x0
.L__const.vStartQueueSetTasks.xQueueSetSendingTaskParameters:
	.long	prvQueueSetSendingTask
	.long	.L.str
	.short	128                             @ 0x80
	.zero	2
	.long	0
	.long	2147483649                      @ 0x80000001
	.long	vStartQueueSetTasks.xQueueSetSendingTaskStack
	.zero	36
	.long	0
	.size	.L__const.vStartQueueSetTasks.xQueueSetSendingTaskParameters, 64

	.type	.L.str.1,%object                @ @.str.1
	.section	.rodata.str1.1,"aMS",%progbits,1
.L.str.1:
	.asciz	"SetRx"
	.size	.L.str.1, 6

	.type	.L__const.vStartQueueSetTasks.xQueueSetReceivingTaskParameters,%object @ @__const.vStartQueueSetTasks.xQueueSetReceivingTaskParameters
	.section	.rodata..L__const.vStartQueueSetTasks.xQueueSetReceivingTaskParameters,"a",%progbits
	.p2align	2, 0x0
.L__const.vStartQueueSetTasks.xQueueSetReceivingTaskParameters:
	.long	prvQueueSetReceivingTask
	.long	.L.str.1
	.short	128                             @ 0x80
	.zero	2
	.long	0
	.long	2147483649                      @ 0x80000001
	.long	vStartQueueSetTasks.xQueueSetRecevingTaskStack
	.zero	36
	.long	0
	.size	.L__const.vStartQueueSetTasks.xQueueSetReceivingTaskParameters, 64

	.type	xLocalTaskHandles,%object       @ @xLocalTaskHandles
	.section	.bss.xLocalTaskHandles,"aw",%nobits
	.p2align	5, 0x0
xLocalTaskHandles:
	.zero	32
	.size	xLocalTaskHandles, 32

	.type	xAreQueueSetTasksStillRunning.ulLastCycleCounter,%object @ @xAreQueueSetTasksStillRunning.ulLastCycleCounter
	.section	.bss.xAreQueueSetTasksStillRunning.ulLastCycleCounter,"aw",%nobits
	.p2align	2, 0x0
xAreQueueSetTasksStillRunning.ulLastCycleCounter:
	.long	0                               @ 0x0
	.size	xAreQueueSetTasksStillRunning.ulLastCycleCounter, 4

	.type	xAreQueueSetTasksStillRunning.ulLastISRTxValue,%object @ @xAreQueueSetTasksStillRunning.ulLastISRTxValue
	.section	.bss.xAreQueueSetTasksStillRunning.ulLastISRTxValue,"aw",%nobits
	.p2align	2, 0x0
xAreQueueSetTasksStillRunning.ulLastISRTxValue:
	.long	0                               @ 0x0
	.size	xAreQueueSetTasksStillRunning.ulLastISRTxValue, 4

	.type	xAreQueueSetTasksStillRunning.ulLastQueueUsedCounter,%object @ @xAreQueueSetTasksStillRunning.ulLastQueueUsedCounter
	.section	.bss.xAreQueueSetTasksStillRunning.ulLastQueueUsedCounter,"aw",%nobits
	.p2align	2, 0x0
xAreQueueSetTasksStillRunning.ulLastQueueUsedCounter:
	.zero	12
	.size	xAreQueueSetTasksStillRunning.ulLastQueueUsedCounter, 12

	.type	ulCycleCounter,%object          @ @ulCycleCounter
	.section	.bss.ulCycleCounter,"aw",%nobits
	.p2align	5, 0x0
ulCycleCounter:
	.zero	32
	.size	ulCycleCounter, 32

	.type	ulQueueUsedCounter,%object      @ @ulQueueUsedCounter
	.section	.bss.ulQueueUsedCounter,"aw",%nobits
	.p2align	5, 0x0
ulQueueUsedCounter:
	.zero	32
	.size	ulQueueUsedCounter, 32

	.type	xQueueSetTasksStatus,%object    @ @xQueueSetTasksStatus
	.section	.data.xQueueSetTasksStatus,"aw",%progbits
	.p2align	5, 0x0
xQueueSetTasksStatus:
	.long	1                               @ 0x1
	.long	0                               @ 0x0
	.long	0                               @ 0x0
	.long	0                               @ 0x0
	.long	0                               @ 0x0
	.long	0                               @ 0x0
	.long	0                               @ 0x0
	.long	0                               @ 0x0
	.size	xQueueSetTasksStatus, 32

	.type	ulISRTxValue,%object            @ @ulISRTxValue
	.section	.data.ulISRTxValue,"aw",%progbits
	.p2align	2, 0x0
ulISRTxValue:
	.long	65535                           @ 0xffff
	.size	ulISRTxValue, 4

	.type	vQueueSetAccessQueueSetFromISR.ulCallCount,%object @ @vQueueSetAccessQueueSetFromISR.ulCallCount
	.section	.bss.vQueueSetAccessQueueSetFromISR.ulCallCount,"aw",%nobits
	.p2align	2, 0x0
vQueueSetAccessQueueSetFromISR.ulCallCount:
	.long	0                               @ 0x0
	.size	vQueueSetAccessQueueSetFromISR.ulCallCount, 4

	.type	xSetupComplete,%object          @ @xSetupComplete
	.section	.bss.xSetupComplete,"aw",%nobits
	.p2align	5, 0x0
xSetupComplete:
	.zero	32
	.size	xSetupComplete, 32

	.type	xQueues,%object                 @ @xQueues
	.section	.bss.xQueues,"aw",%nobits
	.p2align	5, 0x0
xQueues:
	.zero	32
	.size	xQueues, 32

	.type	uxNextRand,%object              @ @uxNextRand
	.section	.bss.uxNextRand,"aw",%nobits
	.p2align	5, 0x0
uxNextRand:
	.zero	32
	.size	uxNextRand, 32

	.type	ulLoops,%object                 @ @ulLoops
	.section	.bss.ulLoops,"aw",%nobits
	.p2align	5, 0x0
ulLoops:
	.zero	32
	.size	ulLoops, 32

	.type	ePriorities,%object             @ @ePriorities
	.section	.bss.ePriorities,"aw",%nobits
	.p2align	5, 0x0
ePriorities:
	.zero	32
	.size	ePriorities, 32

	.type	xQueueSet,%object               @ @xQueueSet
	.section	.bss.xQueueSet,"aw",%nobits
	.p2align	5, 0x0
xQueueSet:
	.zero	32
	.size	xQueueSet, 32

	.type	ulExpectedReceivedFromISR,%object @ @ulExpectedReceivedFromISR
	.section	.data.ulExpectedReceivedFromISR,"aw",%progbits
	.p2align	5, 0x0
ulExpectedReceivedFromISR:
	.long	65535                           @ 0xffff
	.long	0                               @ 0x0
	.long	0                               @ 0x0
	.long	0                               @ 0x0
	.long	0                               @ 0x0
	.long	0                               @ 0x0
	.long	0                               @ 0x0
	.long	0                               @ 0x0
	.size	ulExpectedReceivedFromISR, 32

	.type	ulExpectedReceivedFromTask,%object @ @ulExpectedReceivedFromTask
	.section	.bss.ulExpectedReceivedFromTask,"aw",%nobits
	.p2align	5, 0x0
ulExpectedReceivedFromTask:
	.zero	32
	.size	ulExpectedReceivedFromTask, 32

	.type	prvSendToQueueInSetFromISR.xQueueToWriteTo,%object @ @prvSendToQueueInSetFromISR.xQueueToWriteTo
	.section	.bss.prvSendToQueueInSetFromISR.xQueueToWriteTo,"aw",%nobits
	.p2align	2, 0x0
prvSendToQueueInSetFromISR.xQueueToWriteTo:
	.long	0                               @ 0x0
	.size	prvSendToQueueInSetFromISR.xQueueToWriteTo, 4

	.file	7 "C:\\Users\\karahulx\\Downloads\\Kernel\\FreeRTOS\\FreeRTOS\\Demo\\CORTEX_MPU_M23_Nuvoton_NuMaker_PFM_M2351_IAR_GCC\\Projects_NTZ\\Keil" "../../../../Source/include/projdefs.h"
	.file	8 "C:\\Users\\karahulx\\Downloads\\Kernel\\FreeRTOS\\FreeRTOS\\Demo\\CORTEX_MPU_M23_Nuvoton_NuMaker_PFM_M2351_IAR_GCC\\Projects_NTZ\\Keil" "../../../../Source/include\\FreeRTOS.h"
	.section	".note.GNU-stack","",%progbits
	.eabi_attribute	30, 6	@ Tag_ABI_optimization_goals
	.ARM_attribute	16, 1	@ Tag_AV_eba