	.text
	.syntax unified
	.eabi_attribute	67, "2.09"	@ Tag_conformance
	.eabi_attribute	6, 16	@ Tag_CPU_arch
	.eabi_attribute	7, 77	@ Tag_CPU_arch_profile
	.eabi_attribute	8, 0	@ Tag_ARM_ISA_use
	.eabi_attribute	9, 3	@ Tag_THUMB_ISA_use
	.eabi_attribute	34, 0	@ Tag_CPU_unaligned_access
	.eabi_attribute	17, 1	@ Tag_ABI_PCS_GOT_use
	.eabi_attribute	20, 2	@ Tag_ABI_FP_denormal
	.eabi_attribute	21, 0	@ Tag_ABI_FP_exceptions
	.eabi_attribute	23, 1	@ Tag_ABI_FP_number_model
	.eabi_attribute	24, 1	@ Tag_ABI_align_needed
	.eabi_attribute	25, 1	@ Tag_ABI_align_preserved
	.eabi_attribute	38, 1	@ Tag_ABI_FP_16bit_format
	.eabi_attribute	18, 4	@ Tag_ABI_PCS_wchar_t
	.eabi_attribute	26, 2	@ Tag_ABI_enum_size
	.eabi_attribute	14, 0	@ Tag_ABI_PCS_R9_use
	.file	"recmutex.c"
	.file	1 "C:\\Keil_v5\\ARM\\ARMCLANG\\Bin\\..\\include" "stdint.h"
	.file	2 "C:\\Users\\karahulx\\Downloads\\Kernel\\FreeRTOS\\FreeRTOS\\Demo\\CORTEX_MPU_M23_Nuvoton_NuMaker_PFM_M2351_IAR_GCC\\Projects_NTZ\\Keil" "../../../../Source/portable/GCC/ARM_CM23_NTZ/non_secure/portmacrocommon.h"
	.file	3 "C:\\Users\\karahulx\\Downloads\\Kernel\\FreeRTOS\\FreeRTOS\\Demo\\CORTEX_MPU_M23_Nuvoton_NuMaker_PFM_M2351_IAR_GCC\\Projects_NTZ\\Keil" "../../../CORTEX_MPU_M3_NUCLEO_L152RE_GCC/Demo/recmutex.c"
	.file	4 "C:\\Users\\karahulx\\Downloads\\Kernel\\FreeRTOS\\FreeRTOS\\Demo\\CORTEX_MPU_M23_Nuvoton_NuMaker_PFM_M2351_IAR_GCC\\Projects_NTZ\\Keil" "../../../../Source/include/queue.h"
	.file	5 "C:\\Users\\karahulx\\Downloads\\Kernel\\FreeRTOS\\FreeRTOS\\Demo\\CORTEX_MPU_M23_Nuvoton_NuMaker_PFM_M2351_IAR_GCC\\Projects_NTZ\\Keil" "../../../../Source/include\\semphr.h"
	.file	6 "C:\\Users\\karahulx\\Downloads\\Kernel\\FreeRTOS\\FreeRTOS\\Demo\\CORTEX_MPU_M23_Nuvoton_NuMaker_PFM_M2351_IAR_GCC\\Projects_NTZ\\Keil" "../../../../Source/include/task.h"
	.section	.text.vStartRecursiveMutexTasks,"ax",%progbits
	.hidden	vStartRecursiveMutexTasks       @ -- Begin function vStartRecursiveMutexTasks
	.globl	vStartRecursiveMutexTasks
	.p2align	1
	.type	vStartRecursiveMutexTasks,%function
	.code	16                              @ @vStartRecursiveMutexTasks
	.thumb_func
vStartRecursiveMutexTasks:
.Lfunc_begin0:
	.loc	3 128 0                         @ ../../../CORTEX_MPU_M3_NUCLEO_L152RE_GCC/Demo/recmutex.c:128:0
	.fnstart
	.cfi_sections .debug_frame
	.cfi_startproc
@ %bb.0:
	.save	{r4, r5, r6, lr}
	push	{r4, r5, r6, lr}
	.cfi_def_cfa_offset 16
	.cfi_offset lr, -4
	.cfi_offset r6, -8
	.cfi_offset r5, -12
	.cfi_offset r4, -16
	.pad	#200
	sub	sp, #200
	.cfi_def_cfa_offset 216
	movs	r0, #4
.Ltmp0:
	.loc	3 131 19 prologue_end           @ ../../../CORTEX_MPU_M3_NUCLEO_L152RE_GCC/Demo/recmutex.c:131:19
	bl	MPU_xQueueCreateMutex
	mov	r1, r0
	.loc	3 131 17 is_stmt 0              @ ../../../CORTEX_MPU_M3_NUCLEO_L152RE_GCC/Demo/recmutex.c:131:17
	movw	r0, :lower16:xMutex
	movt	r0, :upper16:xMutex
	str	r1, [r0]
	.loc	3 137 22 is_stmt 1              @ ../../../CORTEX_MPU_M3_NUCLEO_L152RE_GCC/Demo/recmutex.c:137:22
	movw	r2, :lower16:.L__const.vStartRecursiveMutexTasks.xRecursiveMutexControllingTaskParameters
	movt	r2, :upper16:.L__const.vStartRecursiveMutexTasks.xRecursiveMutexControllingTaskParameters
	add	r1, sp, #136
	ldm	r2!, {r3, r4, r5, r6}
	stm	r1!, {r3, r4, r5, r6}
	ldm	r2!, {r3, r4, r5, r6}
	stm	r1!, {r3, r4, r5, r6}
	ldm	r2!, {r3, r4, r5, r6}
	stm	r1!, {r3, r4, r5, r6}
	ldm	r2!, {r3, r4, r5, r6}
	stm	r1!, {r3, r4, r5, r6}
	.loc	3 154 22                        @ ../../../CORTEX_MPU_M3_NUCLEO_L152RE_GCC/Demo/recmutex.c:154:22
	movw	r2, :lower16:.L__const.vStartRecursiveMutexTasks.xRecursiveMutexBlockingTaskParameters
	movt	r2, :upper16:.L__const.vStartRecursiveMutexTasks.xRecursiveMutexBlockingTaskParameters
	add	r1, sp, #72
	ldm	r2!, {r3, r4, r5, r6}
	stm	r1!, {r3, r4, r5, r6}
	ldm	r2!, {r3, r4, r5, r6}
	stm	r1!, {r3, r4, r5, r6}
	ldm	r2!, {r3, r4, r5, r6}
	stm	r1!, {r3, r4, r5, r6}
	ldm	r2!, {r3, r4, r5, r6}
	stm	r1!, {r3, r4, r5, r6}
	.loc	3 171 22                        @ ../../../CORTEX_MPU_M3_NUCLEO_L152RE_GCC/Demo/recmutex.c:171:22
	movw	r2, :lower16:.L__const.vStartRecursiveMutexTasks.xRecursiveMutexPollingTaskParameters
	movt	r2, :upper16:.L__const.vStartRecursiveMutexTasks.xRecursiveMutexPollingTaskParameters
	add	r1, sp, #8
	ldm	r2!, {r3, r4, r5, r6}
	stm	r1!, {r3, r4, r5, r6}
	ldm	r2!, {r3, r4, r5, r6}
	stm	r1!, {r3, r4, r5, r6}
	ldm	r2!, {r3, r4, r5, r6}
	stm	r1!, {r3, r4, r5, r6}
	ldm	r2!, {r3, r4, r5, r6}
	stm	r1!, {r3, r4, r5, r6}
.Ltmp1:
	.loc	3 190 9                         @ ../../../CORTEX_MPU_M3_NUCLEO_L152RE_GCC/Demo/recmutex.c:190:9
	ldr	r0, [r0]
.Ltmp2:
	.loc	3 190 9 is_stmt 0               @ ../../../CORTEX_MPU_M3_NUCLEO_L152RE_GCC/Demo/recmutex.c:190:9
	cbz	r0, .LBB0_2
	b	.LBB0_1
.LBB0_1:
.Ltmp3:
	.loc	3 200 9 is_stmt 1               @ ../../../CORTEX_MPU_M3_NUCLEO_L152RE_GCC/Demo/recmutex.c:200:9
	movw	r1, :lower16:xLocalTaskHandles
	movt	r1, :upper16:xLocalTaskHandles
	str	r1, [sp, #4]                    @ 4-byte Spill
	add	r0, sp, #136
	bl	xTaskCreateRestricted
                                        @ kill: def $r1 killed $r0
	.loc	3 201 9                         @ ../../../CORTEX_MPU_M3_NUCLEO_L152RE_GCC/Demo/recmutex.c:201:9
	ldr	r0, [sp, #4]                    @ 4-byte Reload
	adds	r1, r0, #4
	add	r0, sp, #72
	bl	xTaskCreateRestricted
	add	r0, sp, #8
	movs	r1, #0
	.loc	3 202 9                         @ ../../../CORTEX_MPU_M3_NUCLEO_L152RE_GCC/Demo/recmutex.c:202:9
	bl	xTaskCreateRestricted
	.loc	3 203 5                         @ ../../../CORTEX_MPU_M3_NUCLEO_L152RE_GCC/Demo/recmutex.c:203:5
	b	.LBB0_2
.Ltmp4:
.LBB0_2:
	.loc	3 204 1                         @ ../../../CORTEX_MPU_M3_NUCLEO_L152RE_GCC/Demo/recmutex.c:204:1
	add	sp, #200
	pop	{r4, r5, r6, pc}
.Ltmp5:
.Lfunc_end0:
	.size	vStartRecursiveMutexTasks, .Lfunc_end0-vStartRecursiveMutexTasks
	.cfi_endproc
	.cantunwind
	.fnend
                                        @ -- End function
	.section	.text.prvRecursiveMutexControllingTask,"ax",%progbits
	.p2align	1                               @ -- Begin function prvRecursiveMutexControllingTask
	.type	prvRecursiveMutexControllingTask,%function
	.code	16                              @ @prvRecursiveMutexControllingTask
	.thumb_func
prvRecursiveMutexControllingTask:
.Lfunc_begin1:
	.loc	3 208 0                         @ ../../../CORTEX_MPU_M3_NUCLEO_L152RE_GCC/Demo/recmutex.c:208:0
	.fnstart
	.cfi_startproc
@ %bb.0:
	.save	{r7, lr}
	push	{r7, lr}
	.cfi_def_cfa_offset 8
	.cfi_offset lr, -4
	.cfi_offset r7, -8
	.pad	#16
	sub	sp, #16
	.cfi_def_cfa_offset 24
	str	r0, [sp, #12]
.Ltmp6:
	.loc	3 214 5 prologue_end            @ ../../../CORTEX_MPU_M3_NUCLEO_L152RE_GCC/Demo/recmutex.c:214:5
	b	.LBB1_1
.LBB1_1:                                @ =>This Loop Header: Depth=1
                                        @     Child Loop BB1_4 Depth 2
                                        @     Child Loop BB1_10 Depth 2
.Ltmp7:
	.loc	3 220 13                        @ ../../../CORTEX_MPU_M3_NUCLEO_L152RE_GCC/Demo/recmutex.c:220:13
	movw	r0, :lower16:xMutex
	movt	r0, :upper16:xMutex
	ldr	r0, [r0]
	bl	MPU_xQueueGiveMutexRecursive
.Ltmp8:
	.loc	3 220 13 is_stmt 0              @ ../../../CORTEX_MPU_M3_NUCLEO_L152RE_GCC/Demo/recmutex.c:220:13
	cmp	r0, #1
	bne	.LBB1_3
	b	.LBB1_2
.LBB1_2:                                @   in Loop: Header=BB1_1 Depth=1
.Ltmp9:
	.loc	3 222 40 is_stmt 1              @ ../../../CORTEX_MPU_M3_NUCLEO_L152RE_GCC/Demo/recmutex.c:222:40
	movw	r1, :lower16:uxHelper
	movt	r1, :upper16:uxHelper
	movs	r0, #1
	str	r0, [r1]
	.loc	3 223 9                         @ ../../../CORTEX_MPU_M3_NUCLEO_L152RE_GCC/Demo/recmutex.c:223:9
	b	.LBB1_3
.Ltmp10:
.LBB1_3:                                @   in Loop: Header=BB1_1 Depth=1
	.loc	3 0 9 is_stmt 0                 @ ../../../CORTEX_MPU_M3_NUCLEO_L152RE_GCC/Demo/recmutex.c:0:9
	movs	r0, #0
.Ltmp11:
	.loc	3 225 17 is_stmt 1              @ ../../../CORTEX_MPU_M3_NUCLEO_L152RE_GCC/Demo/recmutex.c:225:17
	str	r0, [sp, #8]
	.loc	3 225 14 is_stmt 0              @ ../../../CORTEX_MPU_M3_NUCLEO_L152RE_GCC/Demo/recmutex.c:225:14
	b	.LBB1_4
.LBB1_4:                                @   Parent Loop BB1_1 Depth=1
                                        @ =>  This Inner Loop Header: Depth=2
.Ltmp12:
	.loc	3 225 22                        @ ../../../CORTEX_MPU_M3_NUCLEO_L152RE_GCC/Demo/recmutex.c:225:22
	ldr	r0, [sp, #8]
.Ltmp13:
	.loc	3 225 9                         @ ../../../CORTEX_MPU_M3_NUCLEO_L152RE_GCC/Demo/recmutex.c:225:9
	cmp	r0, #9
	bhi	.LBB1_9
	b	.LBB1_5
.LBB1_5:                                @   in Loop: Header=BB1_4 Depth=2
.Ltmp14:
	.loc	3 237 17 is_stmt 1              @ ../../../CORTEX_MPU_M3_NUCLEO_L152RE_GCC/Demo/recmutex.c:237:17
	movw	r0, :lower16:xMutex
	movt	r0, :upper16:xMutex
	ldr	r0, [r0]
	movs	r1, #1
	bl	MPU_xQueueTakeMutexRecursive
.Ltmp15:
	.loc	3 237 17 is_stmt 0              @ ../../../CORTEX_MPU_M3_NUCLEO_L152RE_GCC/Demo/recmutex.c:237:17
	cmp	r0, #1
	beq	.LBB1_7
	b	.LBB1_6
.LBB1_6:                                @   in Loop: Header=BB1_4 Depth=2
.Ltmp16:
	.loc	3 239 44 is_stmt 1              @ ../../../CORTEX_MPU_M3_NUCLEO_L152RE_GCC/Demo/recmutex.c:239:44
	movw	r1, :lower16:uxHelper
	movt	r1, :upper16:uxHelper
	movs	r0, #1
	str	r0, [r1]
	.loc	3 240 13                        @ ../../../CORTEX_MPU_M3_NUCLEO_L152RE_GCC/Demo/recmutex.c:240:13
	b	.LBB1_7
.Ltmp17:
.LBB1_7:                                @   in Loop: Header=BB1_4 Depth=2
	.loc	3 0 13 is_stmt 0                @ ../../../CORTEX_MPU_M3_NUCLEO_L152RE_GCC/Demo/recmutex.c:0:13
	movs	r0, #2
	.loc	3 246 13 is_stmt 1              @ ../../../CORTEX_MPU_M3_NUCLEO_L152RE_GCC/Demo/recmutex.c:246:13
	bl	MPU_vTaskDelay
	.loc	3 247 9                         @ ../../../CORTEX_MPU_M3_NUCLEO_L152RE_GCC/Demo/recmutex.c:247:9
	b	.LBB1_8
.Ltmp18:
.LBB1_8:                                @   in Loop: Header=BB1_4 Depth=2
	.loc	3 225 45                        @ ../../../CORTEX_MPU_M3_NUCLEO_L152RE_GCC/Demo/recmutex.c:225:45
	ldr	r0, [sp, #8]
	adds	r0, r0, #1
	str	r0, [sp, #8]
	.loc	3 225 9 is_stmt 0               @ ../../../CORTEX_MPU_M3_NUCLEO_L152RE_GCC/Demo/recmutex.c:225:9
	b	.LBB1_4
.Ltmp19:
.LBB1_9:                                @   in Loop: Header=BB1_1 Depth=1
	.loc	3 0 9                           @ ../../../CORTEX_MPU_M3_NUCLEO_L152RE_GCC/Demo/recmutex.c:0:9
	movs	r0, #0
.Ltmp20:
	.loc	3 250 17 is_stmt 1              @ ../../../CORTEX_MPU_M3_NUCLEO_L152RE_GCC/Demo/recmutex.c:250:17
	str	r0, [sp, #8]
	.loc	3 250 14 is_stmt 0              @ ../../../CORTEX_MPU_M3_NUCLEO_L152RE_GCC/Demo/recmutex.c:250:14
	b	.LBB1_10
.LBB1_10:                               @   Parent Loop BB1_1 Depth=1
                                        @ =>  This Inner Loop Header: Depth=2
.Ltmp21:
	.loc	3 250 22                        @ ../../../CORTEX_MPU_M3_NUCLEO_L152RE_GCC/Demo/recmutex.c:250:22
	ldr	r0, [sp, #8]
.Ltmp22:
	.loc	3 250 9                         @ ../../../CORTEX_MPU_M3_NUCLEO_L152RE_GCC/Demo/recmutex.c:250:9
	cmp	r0, #9
	bhi	.LBB1_15
	b	.LBB1_11
.LBB1_11:                               @   in Loop: Header=BB1_10 Depth=2
	.loc	3 0 9                           @ ../../../CORTEX_MPU_M3_NUCLEO_L152RE_GCC/Demo/recmutex.c:0:9
	movs	r0, #2
.Ltmp23:
	.loc	3 254 13 is_stmt 1              @ ../../../CORTEX_MPU_M3_NUCLEO_L152RE_GCC/Demo/recmutex.c:254:13
	bl	MPU_vTaskDelay
.Ltmp24:
	.loc	3 261 17                        @ ../../../CORTEX_MPU_M3_NUCLEO_L152RE_GCC/Demo/recmutex.c:261:17
	movw	r0, :lower16:xMutex
	movt	r0, :upper16:xMutex
	ldr	r0, [r0]
	bl	MPU_xQueueGiveMutexRecursive
.Ltmp25:
	.loc	3 261 17 is_stmt 0              @ ../../../CORTEX_MPU_M3_NUCLEO_L152RE_GCC/Demo/recmutex.c:261:17
	cmp	r0, #1
	beq	.LBB1_13
	b	.LBB1_12
.LBB1_12:                               @   in Loop: Header=BB1_10 Depth=2
.Ltmp26:
	.loc	3 263 44 is_stmt 1              @ ../../../CORTEX_MPU_M3_NUCLEO_L152RE_GCC/Demo/recmutex.c:263:44
	movw	r1, :lower16:uxHelper
	movt	r1, :upper16:uxHelper
	movs	r0, #1
	str	r0, [r1]
	.loc	3 264 13                        @ ../../../CORTEX_MPU_M3_NUCLEO_L152RE_GCC/Demo/recmutex.c:264:13
	b	.LBB1_13
.Ltmp27:
.LBB1_13:                               @   in Loop: Header=BB1_10 Depth=2
	.loc	3 269 9                         @ ../../../CORTEX_MPU_M3_NUCLEO_L152RE_GCC/Demo/recmutex.c:269:9
	b	.LBB1_14
.Ltmp28:
.LBB1_14:                               @   in Loop: Header=BB1_10 Depth=2
	.loc	3 250 45                        @ ../../../CORTEX_MPU_M3_NUCLEO_L152RE_GCC/Demo/recmutex.c:250:45
	ldr	r0, [sp, #8]
	adds	r0, r0, #1
	str	r0, [sp, #8]
	.loc	3 250 9 is_stmt 0               @ ../../../CORTEX_MPU_M3_NUCLEO_L152RE_GCC/Demo/recmutex.c:250:9
	b	.LBB1_10
.Ltmp29:
.LBB1_15:                               @   in Loop: Header=BB1_1 Depth=1
	.loc	3 273 13 is_stmt 1              @ ../../../CORTEX_MPU_M3_NUCLEO_L152RE_GCC/Demo/recmutex.c:273:13
	movw	r0, :lower16:xMutex
	movt	r0, :upper16:xMutex
	ldr	r0, [r0]
	bl	MPU_xQueueGiveMutexRecursive
.Ltmp30:
	.loc	3 273 13 is_stmt 0              @ ../../../CORTEX_MPU_M3_NUCLEO_L152RE_GCC/Demo/recmutex.c:273:13
	cmp	r0, #1
	bne	.LBB1_17
	b	.LBB1_16
.LBB1_16:                               @   in Loop: Header=BB1_1 Depth=1
.Ltmp31:
	.loc	3 275 40 is_stmt 1              @ ../../../CORTEX_MPU_M3_NUCLEO_L152RE_GCC/Demo/recmutex.c:275:40
	movw	r1, :lower16:uxHelper
	movt	r1, :upper16:uxHelper
	movs	r0, #1
	str	r0, [r1]
	.loc	3 276 9                         @ ../../../CORTEX_MPU_M3_NUCLEO_L152RE_GCC/Demo/recmutex.c:276:9
	b	.LBB1_17
.Ltmp32:
.LBB1_17:                               @   in Loop: Header=BB1_1 Depth=1
	.loc	3 280 39                        @ ../../../CORTEX_MPU_M3_NUCLEO_L152RE_GCC/Demo/recmutex.c:280:39
	movw	r1, :lower16:uxHelper
	movt	r1, :upper16:uxHelper
	str	r1, [sp]                        @ 4-byte Spill
	ldr	r0, [r1, #12]
	adds	r0, r0, #1
	str	r0, [r1, #12]
	movs	r0, #1
	.loc	3 283 48                        @ ../../../CORTEX_MPU_M3_NUCLEO_L152RE_GCC/Demo/recmutex.c:283:48
	str	r0, [r1, #4]
	movs	r0, #0
	.loc	3 284 9                         @ ../../../CORTEX_MPU_M3_NUCLEO_L152RE_GCC/Demo/recmutex.c:284:9
	str	r0, [sp, #4]                    @ 4-byte Spill
	bl	MPU_vTaskSuspend
	ldr	r1, [sp]                        @ 4-byte Reload
	ldr	r0, [sp, #4]                    @ 4-byte Reload
	.loc	3 285 48                        @ ../../../CORTEX_MPU_M3_NUCLEO_L152RE_GCC/Demo/recmutex.c:285:48
	str	r0, [r1, #4]
.Ltmp33:
	.loc	3 214 5                         @ ../../../CORTEX_MPU_M3_NUCLEO_L152RE_GCC/Demo/recmutex.c:214:5
	b	.LBB1_1
.Ltmp34:
.Lfunc_end1:
	.size	prvRecursiveMutexControllingTask, .Lfunc_end1-prvRecursiveMutexControllingTask
	.cfi_endproc
	.cantunwind
	.fnend
                                        @ -- End function
	.section	.text.prvRecursiveMutexBlockingTask,"ax",%progbits
	.p2align	1                               @ -- Begin function prvRecursiveMutexBlockingTask
	.type	prvRecursiveMutexBlockingTask,%function
	.code	16                              @ @prvRecursiveMutexBlockingTask
	.thumb_func
prvRecursiveMutexBlockingTask:
.Lfunc_begin2:
	.loc	3 291 0                         @ ../../../CORTEX_MPU_M3_NUCLEO_L152RE_GCC/Demo/recmutex.c:291:0
	.fnstart
	.cfi_startproc
@ %bb.0:
	.save	{r7, lr}
	push	{r7, lr}
	.cfi_def_cfa_offset 8
	.cfi_offset lr, -4
	.cfi_offset r7, -8
	.pad	#16
	sub	sp, #16
	.cfi_def_cfa_offset 24
	str	r0, [sp, #12]
.Ltmp35:
	.loc	3 295 5 prologue_end            @ ../../../CORTEX_MPU_M3_NUCLEO_L152RE_GCC/Demo/recmutex.c:295:5
	b	.LBB2_1
.LBB2_1:                                @ =>This Inner Loop Header: Depth=1
.Ltmp36:
	.loc	3 304 13                        @ ../../../CORTEX_MPU_M3_NUCLEO_L152RE_GCC/Demo/recmutex.c:304:13
	movw	r0, :lower16:xMutex
	movt	r0, :upper16:xMutex
	ldr	r0, [r0]
	movs	r1, #1
	mvns	r1, r1
	bl	MPU_xQueueTakeMutexRecursive
.Ltmp37:
	.loc	3 304 13 is_stmt 0              @ ../../../CORTEX_MPU_M3_NUCLEO_L152RE_GCC/Demo/recmutex.c:304:13
	cmp	r0, #1
	bne	.LBB2_8
	b	.LBB2_2
.LBB2_2:                                @   in Loop: Header=BB2_1 Depth=1
.Ltmp38:
	.loc	3 306 17 is_stmt 1              @ ../../../CORTEX_MPU_M3_NUCLEO_L152RE_GCC/Demo/recmutex.c:306:17
	movw	r0, :lower16:uxHelper
	movt	r0, :upper16:uxHelper
	ldr	r0, [r0, #4]
.Ltmp39:
	.loc	3 306 17 is_stmt 0              @ ../../../CORTEX_MPU_M3_NUCLEO_L152RE_GCC/Demo/recmutex.c:306:17
	cmp	r0, #1
	beq	.LBB2_4
	b	.LBB2_3
.LBB2_3:                                @   in Loop: Header=BB2_1 Depth=1
.Ltmp40:
	.loc	3 310 44 is_stmt 1              @ ../../../CORTEX_MPU_M3_NUCLEO_L152RE_GCC/Demo/recmutex.c:310:44
	movw	r1, :lower16:uxHelper
	movt	r1, :upper16:uxHelper
	movs	r0, #1
	str	r0, [r1]
	.loc	3 311 13                        @ ../../../CORTEX_MPU_M3_NUCLEO_L152RE_GCC/Demo/recmutex.c:311:13
	b	.LBB2_7
.Ltmp41:
.LBB2_4:                                @   in Loop: Header=BB2_1 Depth=1
	.loc	3 316 21                        @ ../../../CORTEX_MPU_M3_NUCLEO_L152RE_GCC/Demo/recmutex.c:316:21
	movw	r0, :lower16:xMutex
	movt	r0, :upper16:xMutex
	ldr	r0, [r0]
	bl	MPU_xQueueGiveMutexRecursive
.Ltmp42:
	.loc	3 316 21 is_stmt 0              @ ../../../CORTEX_MPU_M3_NUCLEO_L152RE_GCC/Demo/recmutex.c:316:21
	cmp	r0, #1
	beq	.LBB2_6
	b	.LBB2_5
.LBB2_5:                                @   in Loop: Header=BB2_1 Depth=1
.Ltmp43:
	.loc	3 318 48 is_stmt 1              @ ../../../CORTEX_MPU_M3_NUCLEO_L152RE_GCC/Demo/recmutex.c:318:48
	movw	r1, :lower16:uxHelper
	movt	r1, :upper16:uxHelper
	movs	r0, #1
	str	r0, [r1]
	.loc	3 319 17                        @ ../../../CORTEX_MPU_M3_NUCLEO_L152RE_GCC/Demo/recmutex.c:319:17
	b	.LBB2_6
.Ltmp44:
.LBB2_6:                                @   in Loop: Header=BB2_1 Depth=1
	.loc	3 321 53                        @ ../../../CORTEX_MPU_M3_NUCLEO_L152RE_GCC/Demo/recmutex.c:321:53
	movw	r1, :lower16:uxHelper
	movt	r1, :upper16:uxHelper
	str	r1, [sp, #4]                    @ 4-byte Spill
	movs	r0, #1
	str	r0, [r1, #8]
	movs	r0, #0
	.loc	3 322 17                        @ ../../../CORTEX_MPU_M3_NUCLEO_L152RE_GCC/Demo/recmutex.c:322:17
	str	r0, [sp, #8]                    @ 4-byte Spill
	bl	MPU_vTaskSuspend
	ldr	r1, [sp, #4]                    @ 4-byte Reload
	ldr	r0, [sp, #8]                    @ 4-byte Reload
	.loc	3 323 53                        @ ../../../CORTEX_MPU_M3_NUCLEO_L152RE_GCC/Demo/recmutex.c:323:53
	str	r0, [r1, #8]
	b	.LBB2_7
.Ltmp45:
.LBB2_7:                                @   in Loop: Header=BB2_1 Depth=1
	.loc	3 325 9                         @ ../../../CORTEX_MPU_M3_NUCLEO_L152RE_GCC/Demo/recmutex.c:325:9
	b	.LBB2_9
.Ltmp46:
.LBB2_8:                                @   in Loop: Header=BB2_1 Depth=1
	.loc	3 330 40                        @ ../../../CORTEX_MPU_M3_NUCLEO_L152RE_GCC/Demo/recmutex.c:330:40
	movw	r1, :lower16:uxHelper
	movt	r1, :upper16:uxHelper
	movs	r0, #1
	str	r0, [r1]
	b	.LBB2_9
.Ltmp47:
.LBB2_9:                                @   in Loop: Header=BB2_1 Depth=1
	.loc	3 334 13                        @ ../../../CORTEX_MPU_M3_NUCLEO_L152RE_GCC/Demo/recmutex.c:334:13
	movw	r1, :lower16:uxHelper
	movt	r1, :upper16:uxHelper
	ldr	r0, [r1, #12]
	.loc	3 334 65 is_stmt 0              @ ../../../CORTEX_MPU_M3_NUCLEO_L152RE_GCC/Demo/recmutex.c:334:65
	ldr	r1, [r1, #16]
	.loc	3 334 93                        @ ../../../CORTEX_MPU_M3_NUCLEO_L152RE_GCC/Demo/recmutex.c:334:93
	adds	r1, r1, #1
.Ltmp48:
	.loc	3 334 13                        @ ../../../CORTEX_MPU_M3_NUCLEO_L152RE_GCC/Demo/recmutex.c:334:13
	cmp	r0, r1
	beq	.LBB2_11
	b	.LBB2_10
.LBB2_10:                               @   in Loop: Header=BB2_1 Depth=1
.Ltmp49:
	.loc	3 336 40 is_stmt 1              @ ../../../CORTEX_MPU_M3_NUCLEO_L152RE_GCC/Demo/recmutex.c:336:40
	movw	r1, :lower16:uxHelper
	movt	r1, :upper16:uxHelper
	movs	r0, #1
	str	r0, [r1]
	.loc	3 337 9                         @ ../../../CORTEX_MPU_M3_NUCLEO_L152RE_GCC/Demo/recmutex.c:337:9
	b	.LBB2_11
.Ltmp50:
.LBB2_11:                               @   in Loop: Header=BB2_1 Depth=1
	.loc	3 341 36                        @ ../../../CORTEX_MPU_M3_NUCLEO_L152RE_GCC/Demo/recmutex.c:341:36
	movw	r1, :lower16:uxHelper
	movt	r1, :upper16:uxHelper
	ldr	r0, [r1, #16]
	adds	r0, r0, #1
	str	r0, [r1, #16]
.Ltmp51:
	.loc	3 295 5                         @ ../../../CORTEX_MPU_M3_NUCLEO_L152RE_GCC/Demo/recmutex.c:295:5
	b	.LBB2_1
.Ltmp52:
.Lfunc_end2:
	.size	prvRecursiveMutexBlockingTask, .Lfunc_end2-prvRecursiveMutexBlockingTask
	.cfi_endproc
	.cantunwind
	.fnend
                                        @ -- End function
	.section	.text.prvRecursiveMutexPollingTask,"ax",%progbits
	.p2align	1                               @ -- Begin function prvRecursiveMutexPollingTask
	.type	prvRecursiveMutexPollingTask,%function
	.code	16                              @ @prvRecursiveMutexPollingTask
	.thumb_func
prvRecursiveMutexPollingTask:
.Lfunc_begin3:
	.loc	3 347 0                         @ ../../../CORTEX_MPU_M3_NUCLEO_L152RE_GCC/Demo/recmutex.c:347:0
	.fnstart
	.cfi_startproc
@ %bb.0:
	.save	{r7, lr}
	push	{r7, lr}
	.cfi_def_cfa_offset 8
	.cfi_offset lr, -4
	.cfi_offset r7, -8
	.pad	#16
	sub	sp, #16
	.cfi_def_cfa_offset 24
	str	r0, [sp, #12]
.Ltmp53:
	.loc	3 351 5 prologue_end            @ ../../../CORTEX_MPU_M3_NUCLEO_L152RE_GCC/Demo/recmutex.c:351:5
	b	.LBB3_1
.LBB3_1:                                @ =>This Inner Loop Header: Depth=1
.Ltmp54:
	.loc	3 356 13                        @ ../../../CORTEX_MPU_M3_NUCLEO_L152RE_GCC/Demo/recmutex.c:356:13
	movw	r0, :lower16:xMutex
	movt	r0, :upper16:xMutex
	ldr	r0, [r0]
	movs	r1, #0
	bl	MPU_xQueueTakeMutexRecursive
.Ltmp55:
	.loc	3 356 13 is_stmt 0              @ ../../../CORTEX_MPU_M3_NUCLEO_L152RE_GCC/Demo/recmutex.c:356:13
	cmp	r0, #1
	beq	.LBB3_2
	b	.LBB3_30
.LBB3_2:                                @   in Loop: Header=BB3_1 Depth=1
.Ltmp56:
	.loc	3 360 21 is_stmt 1              @ ../../../CORTEX_MPU_M3_NUCLEO_L152RE_GCC/Demo/recmutex.c:360:21
	movw	r0, :lower16:xLocalTaskHandles
	movt	r0, :upper16:xLocalTaskHandles
	ldr	r0, [r0]
	bl	MPU_eTaskGetState
.Ltmp57:
	.loc	3 360 21 is_stmt 0              @ ../../../CORTEX_MPU_M3_NUCLEO_L152RE_GCC/Demo/recmutex.c:360:21
	cmp	r0, #3
	beq	.LBB3_5
	b	.LBB3_3
.LBB3_3:
.Ltmp58:
	.loc	3 360 21                        @ ../../../CORTEX_MPU_M3_NUCLEO_L152RE_GCC/Demo/recmutex.c:360:21
	@APP
	cpsid i
	@NO_APP
	b	.LBB3_4
.LBB3_4:                                @ =>This Inner Loop Header: Depth=1
.Ltmp59:
	.loc	3 360 21                        @ ../../../CORTEX_MPU_M3_NUCLEO_L152RE_GCC/Demo/recmutex.c:360:21
	b	.LBB3_4
.Ltmp60:
.LBB3_5:                                @   in Loop: Header=BB3_1 Depth=1
	.loc	3 361 21 is_stmt 1              @ ../../../CORTEX_MPU_M3_NUCLEO_L152RE_GCC/Demo/recmutex.c:361:21
	movw	r0, :lower16:xLocalTaskHandles
	movt	r0, :upper16:xLocalTaskHandles
	ldr	r0, [r0, #4]
	bl	MPU_eTaskGetState
.Ltmp61:
	.loc	3 361 21 is_stmt 0              @ ../../../CORTEX_MPU_M3_NUCLEO_L152RE_GCC/Demo/recmutex.c:361:21
	cmp	r0, #3
	beq	.LBB3_8
	b	.LBB3_6
.LBB3_6:
.Ltmp62:
	.loc	3 361 21                        @ ../../../CORTEX_MPU_M3_NUCLEO_L152RE_GCC/Demo/recmutex.c:361:21
	@APP
	cpsid i
	@NO_APP
	b	.LBB3_7
.LBB3_7:                                @ =>This Inner Loop Header: Depth=1
.Ltmp63:
	.loc	3 361 21                        @ ../../../CORTEX_MPU_M3_NUCLEO_L152RE_GCC/Demo/recmutex.c:361:21
	b	.LBB3_7
.Ltmp64:
.LBB3_8:                                @   in Loop: Header=BB3_1 Depth=1
	.loc	3 366 19 is_stmt 1              @ ../../../CORTEX_MPU_M3_NUCLEO_L152RE_GCC/Demo/recmutex.c:366:19
	movw	r0, :lower16:uxHelper
	movt	r0, :upper16:uxHelper
	ldr	r0, [r0, #8]
	.loc	3 366 67 is_stmt 0              @ ../../../CORTEX_MPU_M3_NUCLEO_L152RE_GCC/Demo/recmutex.c:366:67
	cmp	r0, #1
	bne	.LBB3_10
	b	.LBB3_9
.LBB3_9:                                @   in Loop: Header=BB3_1 Depth=1
	.loc	3 366 72                        @ ../../../CORTEX_MPU_M3_NUCLEO_L152RE_GCC/Demo/recmutex.c:366:72
	movw	r0, :lower16:uxHelper
	movt	r0, :upper16:uxHelper
	ldr	r0, [r0, #4]
.Ltmp65:
	.loc	3 366 17                        @ ../../../CORTEX_MPU_M3_NUCLEO_L152RE_GCC/Demo/recmutex.c:366:17
	cmp	r0, #1
	beq	.LBB3_11
	b	.LBB3_10
.LBB3_10:                               @   in Loop: Header=BB3_1 Depth=1
.Ltmp66:
	.loc	3 368 44 is_stmt 1              @ ../../../CORTEX_MPU_M3_NUCLEO_L152RE_GCC/Demo/recmutex.c:368:44
	movw	r1, :lower16:uxHelper
	movt	r1, :upper16:uxHelper
	movs	r0, #1
	str	r0, [r1]
	.loc	3 369 13                        @ ../../../CORTEX_MPU_M3_NUCLEO_L152RE_GCC/Demo/recmutex.c:369:13
	b	.LBB3_29
.Ltmp67:
.LBB3_11:                               @   in Loop: Header=BB3_1 Depth=1
	.loc	3 374 43                        @ ../../../CORTEX_MPU_M3_NUCLEO_L152RE_GCC/Demo/recmutex.c:374:43
	movw	r1, :lower16:uxHelper
	movt	r1, :upper16:uxHelper
	str	r1, [sp, #8]                    @ 4-byte Spill
	ldr	r0, [r1, #20]
	adds	r0, r0, #1
	str	r0, [r1, #20]
	.loc	3 385 30                        @ ../../../CORTEX_MPU_M3_NUCLEO_L152RE_GCC/Demo/recmutex.c:385:30
	movw	r0, :lower16:xLocalTaskHandles
	movt	r0, :upper16:xLocalTaskHandles
	str	r0, [sp, #4]                    @ 4-byte Spill
	ldr	r0, [r0, #4]
	.loc	3 385 17 is_stmt 0              @ ../../../CORTEX_MPU_M3_NUCLEO_L152RE_GCC/Demo/recmutex.c:385:17
	bl	MPU_vTaskResume
	ldr	r0, [sp, #4]                    @ 4-byte Reload
	.loc	3 390 30 is_stmt 1              @ ../../../CORTEX_MPU_M3_NUCLEO_L152RE_GCC/Demo/recmutex.c:390:30
	ldr	r0, [r0]
	.loc	3 390 17 is_stmt 0              @ ../../../CORTEX_MPU_M3_NUCLEO_L152RE_GCC/Demo/recmutex.c:390:17
	bl	MPU_vTaskResume
	ldr	r0, [sp, #8]                    @ 4-byte Reload
.Ltmp68:
	.loc	3 397 23 is_stmt 1              @ ../../../CORTEX_MPU_M3_NUCLEO_L152RE_GCC/Demo/recmutex.c:397:23
	ldr	r0, [r0, #8]
	.loc	3 397 71 is_stmt 0              @ ../../../CORTEX_MPU_M3_NUCLEO_L152RE_GCC/Demo/recmutex.c:397:71
	cmp	r0, #1
	beq	.LBB3_13
	b	.LBB3_12
.LBB3_12:                               @   in Loop: Header=BB3_1 Depth=1
	.loc	3 397 76                        @ ../../../CORTEX_MPU_M3_NUCLEO_L152RE_GCC/Demo/recmutex.c:397:76
	movw	r0, :lower16:uxHelper
	movt	r0, :upper16:uxHelper
	ldr	r0, [r0, #4]
.Ltmp69:
	.loc	3 397 21                        @ ../../../CORTEX_MPU_M3_NUCLEO_L152RE_GCC/Demo/recmutex.c:397:21
	cmp	r0, #1
	bne	.LBB3_14
	b	.LBB3_13
.LBB3_13:                               @   in Loop: Header=BB3_1 Depth=1
.Ltmp70:
	.loc	3 399 48 is_stmt 1              @ ../../../CORTEX_MPU_M3_NUCLEO_L152RE_GCC/Demo/recmutex.c:399:48
	movw	r1, :lower16:uxHelper
	movt	r1, :upper16:uxHelper
	movs	r0, #1
	str	r0, [r1]
	.loc	3 400 17                        @ ../../../CORTEX_MPU_M3_NUCLEO_L152RE_GCC/Demo/recmutex.c:400:17
	b	.LBB3_14
.Ltmp71:
.LBB3_14:                               @   in Loop: Header=BB3_1 Depth=1
	.loc	3 0 17 is_stmt 0                @ ../../../CORTEX_MPU_M3_NUCLEO_L152RE_GCC/Demo/recmutex.c:0:17
	movs	r0, #0
.Ltmp72:
	.loc	3 405 25 is_stmt 1              @ ../../../CORTEX_MPU_M3_NUCLEO_L152RE_GCC/Demo/recmutex.c:405:25
	bl	MPU_uxTaskPriorityGet
.Ltmp73:
	.loc	3 405 25 is_stmt 0              @ ../../../CORTEX_MPU_M3_NUCLEO_L152RE_GCC/Demo/recmutex.c:405:25
	cmp	r0, #2
	beq	.LBB3_17
	b	.LBB3_15
.LBB3_15:
.Ltmp74:
	.loc	3 405 25                        @ ../../../CORTEX_MPU_M3_NUCLEO_L152RE_GCC/Demo/recmutex.c:405:25
	@APP
	cpsid i
	@NO_APP
	b	.LBB3_16
.LBB3_16:                               @ =>This Inner Loop Header: Depth=1
.Ltmp75:
	.loc	3 405 25                        @ ../../../CORTEX_MPU_M3_NUCLEO_L152RE_GCC/Demo/recmutex.c:405:25
	b	.LBB3_16
.Ltmp76:
.LBB3_17:                               @   in Loop: Header=BB3_1 Depth=1
	.loc	3 411 25 is_stmt 1              @ ../../../CORTEX_MPU_M3_NUCLEO_L152RE_GCC/Demo/recmutex.c:411:25
	movw	r0, :lower16:xLocalTaskHandles
	movt	r0, :upper16:xLocalTaskHandles
	ldr	r0, [r0]
	bl	MPU_eTaskGetState
.Ltmp77:
	.loc	3 411 25 is_stmt 0              @ ../../../CORTEX_MPU_M3_NUCLEO_L152RE_GCC/Demo/recmutex.c:411:25
	cmp	r0, #2
	beq	.LBB3_20
	b	.LBB3_18
.LBB3_18:
.Ltmp78:
	.loc	3 411 25                        @ ../../../CORTEX_MPU_M3_NUCLEO_L152RE_GCC/Demo/recmutex.c:411:25
	@APP
	cpsid i
	@NO_APP
	b	.LBB3_19
.LBB3_19:                               @ =>This Inner Loop Header: Depth=1
.Ltmp79:
	.loc	3 411 25                        @ ../../../CORTEX_MPU_M3_NUCLEO_L152RE_GCC/Demo/recmutex.c:411:25
	b	.LBB3_19
.Ltmp80:
.LBB3_20:                               @   in Loop: Header=BB3_1 Depth=1
	.loc	3 412 25 is_stmt 1              @ ../../../CORTEX_MPU_M3_NUCLEO_L152RE_GCC/Demo/recmutex.c:412:25
	movw	r0, :lower16:xLocalTaskHandles
	movt	r0, :upper16:xLocalTaskHandles
	ldr	r0, [r0, #4]
	bl	MPU_eTaskGetState
.Ltmp81:
	.loc	3 412 25 is_stmt 0              @ ../../../CORTEX_MPU_M3_NUCLEO_L152RE_GCC/Demo/recmutex.c:412:25
	cmp	r0, #2
	beq	.LBB3_23
	b	.LBB3_21
.LBB3_21:
.Ltmp82:
	.loc	3 412 25                        @ ../../../CORTEX_MPU_M3_NUCLEO_L152RE_GCC/Demo/recmutex.c:412:25
	@APP
	cpsid i
	@NO_APP
	b	.LBB3_22
.LBB3_22:                               @ =>This Inner Loop Header: Depth=1
.Ltmp83:
	.loc	3 412 25                        @ ../../../CORTEX_MPU_M3_NUCLEO_L152RE_GCC/Demo/recmutex.c:412:25
	b	.LBB3_22
.Ltmp84:
.LBB3_23:                               @   in Loop: Header=BB3_1 Depth=1
	.loc	3 417 21 is_stmt 1              @ ../../../CORTEX_MPU_M3_NUCLEO_L152RE_GCC/Demo/recmutex.c:417:21
	movw	r0, :lower16:xMutex
	movt	r0, :upper16:xMutex
	ldr	r0, [r0]
	bl	MPU_xQueueGiveMutexRecursive
.Ltmp85:
	.loc	3 417 21 is_stmt 0              @ ../../../CORTEX_MPU_M3_NUCLEO_L152RE_GCC/Demo/recmutex.c:417:21
	cmp	r0, #1
	beq	.LBB3_25
	b	.LBB3_24
.LBB3_24:                               @   in Loop: Header=BB3_1 Depth=1
.Ltmp86:
	.loc	3 419 48 is_stmt 1              @ ../../../CORTEX_MPU_M3_NUCLEO_L152RE_GCC/Demo/recmutex.c:419:48
	movw	r1, :lower16:uxHelper
	movt	r1, :upper16:uxHelper
	movs	r0, #1
	str	r0, [r1]
	.loc	3 420 17                        @ ../../../CORTEX_MPU_M3_NUCLEO_L152RE_GCC/Demo/recmutex.c:420:17
	b	.LBB3_25
.Ltmp87:
.LBB3_25:                               @   in Loop: Header=BB3_1 Depth=1
	.loc	3 0 17 is_stmt 0                @ ../../../CORTEX_MPU_M3_NUCLEO_L152RE_GCC/Demo/recmutex.c:0:17
	movs	r0, #0
.Ltmp88:
	.loc	3 425 25 is_stmt 1              @ ../../../CORTEX_MPU_M3_NUCLEO_L152RE_GCC/Demo/recmutex.c:425:25
	bl	MPU_uxTaskPriorityGet
.Ltmp89:
	.loc	3 425 25 is_stmt 0              @ ../../../CORTEX_MPU_M3_NUCLEO_L152RE_GCC/Demo/recmutex.c:425:25
	cbz	r0, .LBB3_28
	b	.LBB3_26
.LBB3_26:
.Ltmp90:
	.loc	3 425 25                        @ ../../../CORTEX_MPU_M3_NUCLEO_L152RE_GCC/Demo/recmutex.c:425:25
	@APP
	cpsid i
	@NO_APP
	b	.LBB3_27
.LBB3_27:                               @ =>This Inner Loop Header: Depth=1
.Ltmp91:
	.loc	3 425 25                        @ ../../../CORTEX_MPU_M3_NUCLEO_L152RE_GCC/Demo/recmutex.c:425:25
	b	.LBB3_27
.Ltmp92:
.LBB3_28:                               @   in Loop: Header=BB3_1 Depth=1
	.loc	3 0 25                          @ ../../../CORTEX_MPU_M3_NUCLEO_L152RE_GCC/Demo/recmutex.c:0:25
	b	.LBB3_29
.LBB3_29:                               @   in Loop: Header=BB3_1 Depth=1
	.loc	3 429 9 is_stmt 1               @ ../../../CORTEX_MPU_M3_NUCLEO_L152RE_GCC/Demo/recmutex.c:429:9
	b	.LBB3_30
.Ltmp93:
.LBB3_30:                               @   in Loop: Header=BB3_1 Depth=1
	.loc	3 351 5                         @ ../../../CORTEX_MPU_M3_NUCLEO_L152RE_GCC/Demo/recmutex.c:351:5
	b	.LBB3_1
.Ltmp94:
.Lfunc_end3:
	.size	prvRecursiveMutexPollingTask, .Lfunc_end3-prvRecursiveMutexPollingTask
	.cfi_endproc
	.cantunwind
	.fnend
                                        @ -- End function
	.section	.text.xAreRecursiveMutexTasksStillRunning,"ax",%progbits
	.hidden	xAreRecursiveMutexTasksStillRunning @ -- Begin function xAreRecursiveMutexTasksStillRunning
	.globl	xAreRecursiveMutexTasksStillRunning
	.p2align	1
	.type	xAreRecursiveMutexTasksStillRunning,%function
	.code	16                              @ @xAreRecursiveMutexTasksStillRunning
	.thumb_func
xAreRecursiveMutexTasksStillRunning:
.Lfunc_begin4:
	.loc	3 442 0                         @ ../../../CORTEX_MPU_M3_NUCLEO_L152RE_GCC/Demo/recmutex.c:442:0
	.fnstart
	.cfi_startproc
@ %bb.0:
	.pad	#4
	sub	sp, #4
	.cfi_def_cfa_offset 4
.Ltmp95:
	.loc	3 447 9 prologue_end            @ ../../../CORTEX_MPU_M3_NUCLEO_L152RE_GCC/Demo/recmutex.c:447:9
	movw	r0, :lower16:xAreRecursiveMutexTasksStillRunning.uxLastControllingCycles
	movt	r0, :upper16:xAreRecursiveMutexTasksStillRunning.uxLastControllingCycles
	ldr	r0, [r0]
	.loc	3 447 36 is_stmt 0              @ ../../../CORTEX_MPU_M3_NUCLEO_L152RE_GCC/Demo/recmutex.c:447:36
	movw	r1, :lower16:uxHelper
	movt	r1, :upper16:uxHelper
	ldr	r1, [r1, #12]
.Ltmp96:
	.loc	3 447 9                         @ ../../../CORTEX_MPU_M3_NUCLEO_L152RE_GCC/Demo/recmutex.c:447:9
	cmp	r0, r1
	bne	.LBB4_2
	b	.LBB4_1
.LBB4_1:
.Ltmp97:
	.loc	3 449 36 is_stmt 1              @ ../../../CORTEX_MPU_M3_NUCLEO_L152RE_GCC/Demo/recmutex.c:449:36
	movw	r1, :lower16:uxHelper
	movt	r1, :upper16:uxHelper
	movs	r0, #1
	str	r0, [r1]
	.loc	3 450 5                         @ ../../../CORTEX_MPU_M3_NUCLEO_L152RE_GCC/Demo/recmutex.c:450:5
	b	.LBB4_3
.Ltmp98:
.LBB4_2:
	.loc	3 453 35                        @ ../../../CORTEX_MPU_M3_NUCLEO_L152RE_GCC/Demo/recmutex.c:453:35
	movw	r0, :lower16:uxHelper
	movt	r0, :upper16:uxHelper
	ldr	r0, [r0, #12]
	.loc	3 453 33 is_stmt 0              @ ../../../CORTEX_MPU_M3_NUCLEO_L152RE_GCC/Demo/recmutex.c:453:33
	movw	r1, :lower16:xAreRecursiveMutexTasksStillRunning.uxLastControllingCycles
	movt	r1, :upper16:xAreRecursiveMutexTasksStillRunning.uxLastControllingCycles
	str	r0, [r1]
	b	.LBB4_3
.Ltmp99:
.LBB4_3:
	.loc	3 457 9 is_stmt 1               @ ../../../CORTEX_MPU_M3_NUCLEO_L152RE_GCC/Demo/recmutex.c:457:9
	movw	r0, :lower16:xAreRecursiveMutexTasksStillRunning.uxLastBlockingCycles
	movt	r0, :upper16:xAreRecursiveMutexTasksStillRunning.uxLastBlockingCycles
	ldr	r0, [r0]
	.loc	3 457 33 is_stmt 0              @ ../../../CORTEX_MPU_M3_NUCLEO_L152RE_GCC/Demo/recmutex.c:457:33
	movw	r1, :lower16:uxHelper
	movt	r1, :upper16:uxHelper
	ldr	r1, [r1, #16]
.Ltmp100:
	.loc	3 457 9                         @ ../../../CORTEX_MPU_M3_NUCLEO_L152RE_GCC/Demo/recmutex.c:457:9
	cmp	r0, r1
	bne	.LBB4_5
	b	.LBB4_4
.LBB4_4:
.Ltmp101:
	.loc	3 459 36 is_stmt 1              @ ../../../CORTEX_MPU_M3_NUCLEO_L152RE_GCC/Demo/recmutex.c:459:36
	movw	r1, :lower16:uxHelper
	movt	r1, :upper16:uxHelper
	movs	r0, #1
	str	r0, [r1]
	.loc	3 460 5                         @ ../../../CORTEX_MPU_M3_NUCLEO_L152RE_GCC/Demo/recmutex.c:460:5
	b	.LBB4_6
.Ltmp102:
.LBB4_5:
	.loc	3 463 32                        @ ../../../CORTEX_MPU_M3_NUCLEO_L152RE_GCC/Demo/recmutex.c:463:32
	movw	r0, :lower16:uxHelper
	movt	r0, :upper16:uxHelper
	ldr	r0, [r0, #16]
	.loc	3 463 30 is_stmt 0              @ ../../../CORTEX_MPU_M3_NUCLEO_L152RE_GCC/Demo/recmutex.c:463:30
	movw	r1, :lower16:xAreRecursiveMutexTasksStillRunning.uxLastBlockingCycles
	movt	r1, :upper16:xAreRecursiveMutexTasksStillRunning.uxLastBlockingCycles
	str	r0, [r1]
	b	.LBB4_6
.Ltmp103:
.LBB4_6:
	.loc	3 467 9 is_stmt 1               @ ../../../CORTEX_MPU_M3_NUCLEO_L152RE_GCC/Demo/recmutex.c:467:9
	movw	r0, :lower16:xAreRecursiveMutexTasksStillRunning.uxLastPollingCycles
	movt	r0, :upper16:xAreRecursiveMutexTasksStillRunning.uxLastPollingCycles
	ldr	r0, [r0]
	.loc	3 467 32 is_stmt 0              @ ../../../CORTEX_MPU_M3_NUCLEO_L152RE_GCC/Demo/recmutex.c:467:32
	movw	r1, :lower16:uxHelper
	movt	r1, :upper16:uxHelper
	ldr	r1, [r1, #20]
.Ltmp104:
	.loc	3 467 9                         @ ../../../CORTEX_MPU_M3_NUCLEO_L152RE_GCC/Demo/recmutex.c:467:9
	cmp	r0, r1
	bne	.LBB4_8
	b	.LBB4_7
.LBB4_7:
.Ltmp105:
	.loc	3 469 36 is_stmt 1              @ ../../../CORTEX_MPU_M3_NUCLEO_L152RE_GCC/Demo/recmutex.c:469:36
	movw	r1, :lower16:uxHelper
	movt	r1, :upper16:uxHelper
	movs	r0, #1
	str	r0, [r1]
	.loc	3 470 5                         @ ../../../CORTEX_MPU_M3_NUCLEO_L152RE_GCC/Demo/recmutex.c:470:5
	b	.LBB4_9
.Ltmp106:
.LBB4_8:
	.loc	3 473 31                        @ ../../../CORTEX_MPU_M3_NUCLEO_L152RE_GCC/Demo/recmutex.c:473:31
	movw	r0, :lower16:uxHelper
	movt	r0, :upper16:uxHelper
	ldr	r0, [r0, #20]
	.loc	3 473 29 is_stmt 0              @ ../../../CORTEX_MPU_M3_NUCLEO_L152RE_GCC/Demo/recmutex.c:473:29
	movw	r1, :lower16:xAreRecursiveMutexTasksStillRunning.uxLastPollingCycles
	movt	r1, :upper16:xAreRecursiveMutexTasksStillRunning.uxLastPollingCycles
	str	r0, [r1]
	b	.LBB4_9
.Ltmp107:
.LBB4_9:
	.loc	3 476 9 is_stmt 1               @ ../../../CORTEX_MPU_M3_NUCLEO_L152RE_GCC/Demo/recmutex.c:476:9
	movw	r0, :lower16:uxHelper
	movt	r0, :upper16:uxHelper
	ldr	r0, [r0]
.Ltmp108:
	.loc	3 476 9 is_stmt 0               @ ../../../CORTEX_MPU_M3_NUCLEO_L152RE_GCC/Demo/recmutex.c:476:9
	cmp	r0, #1
	bne	.LBB4_11
	b	.LBB4_10
.LBB4_10:
	.loc	3 0 9                           @ ../../../CORTEX_MPU_M3_NUCLEO_L152RE_GCC/Demo/recmutex.c:0:9
	movs	r0, #0
.Ltmp109:
	.loc	3 478 17 is_stmt 1              @ ../../../CORTEX_MPU_M3_NUCLEO_L152RE_GCC/Demo/recmutex.c:478:17
	str	r0, [sp]
	.loc	3 479 5                         @ ../../../CORTEX_MPU_M3_NUCLEO_L152RE_GCC/Demo/recmutex.c:479:5
	b	.LBB4_12
.Ltmp110:
.LBB4_11:
	.loc	3 0 5 is_stmt 0                 @ ../../../CORTEX_MPU_M3_NUCLEO_L152RE_GCC/Demo/recmutex.c:0:5
	movs	r0, #1
.Ltmp111:
	.loc	3 482 17 is_stmt 1              @ ../../../CORTEX_MPU_M3_NUCLEO_L152RE_GCC/Demo/recmutex.c:482:17
	str	r0, [sp]
	b	.LBB4_12
.Ltmp112:
.LBB4_12:
	.loc	3 485 12                        @ ../../../CORTEX_MPU_M3_NUCLEO_L152RE_GCC/Demo/recmutex.c:485:12
	ldr	r0, [sp]
	.loc	3 485 5 is_stmt 0               @ ../../../CORTEX_MPU_M3_NUCLEO_L152RE_GCC/Demo/recmutex.c:485:5
	add	sp, #4
	bx	lr
.Ltmp113:
.Lfunc_end4:
	.size	xAreRecursiveMutexTasksStillRunning, .Lfunc_end4-xAreRecursiveMutexTasksStillRunning
	.cfi_endproc
	.cantunwind
	.fnend
                                        @ -- End function
	.type	xMutex,%object                  @ @xMutex
	.section	.bss.xMutex,"aw",%nobits
	.p2align	5, 0x0
xMutex:
	.zero	32
	.size	xMutex, 32

	.type	vStartRecursiveMutexTasks.xRecursiveMutexControllingTaskStack,%object @ @vStartRecursiveMutexTasks.xRecursiveMutexControllingTaskStack
	.section	.bss.vStartRecursiveMutexTasks.xRecursiveMutexControllingTaskStack,"aw",%nobits
	.p2align	9, 0x0
vStartRecursiveMutexTasks.xRecursiveMutexControllingTaskStack:
	.zero	512
	.size	vStartRecursiveMutexTasks.xRecursiveMutexControllingTaskStack, 512

	.type	vStartRecursiveMutexTasks.xRecursiveMutexBlockingStack,%object @ @vStartRecursiveMutexTasks.xRecursiveMutexBlockingStack
	.section	.bss.vStartRecursiveMutexTasks.xRecursiveMutexBlockingStack,"aw",%nobits
	.p2align	9, 0x0
vStartRecursiveMutexTasks.xRecursiveMutexBlockingStack:
	.zero	512
	.size	vStartRecursiveMutexTasks.xRecursiveMutexBlockingStack, 512

	.type	vStartRecursiveMutexTasks.xRecursiveMutexPollingTask,%object @ @vStartRecursiveMutexTasks.xRecursiveMutexPollingTask
	.section	.bss.vStartRecursiveMutexTasks.xRecursiveMutexPollingTask,"aw",%nobits
	.p2align	9, 0x0
vStartRecursiveMutexTasks.xRecursiveMutexPollingTask:
	.zero	512
	.size	vStartRecursiveMutexTasks.xRecursiveMutexPollingTask, 512

	.type	.L.str,%object                  @ @.str
	.section	.rodata.str1.1,"aMS",%progbits,1
.L.str:
	.asciz	"Rec1"
	.size	.L.str, 5

	.type	uxHelper,%object                @ @uxHelper
	.section	.bss.uxHelper,"aw",%nobits
	.p2align	5, 0x0
uxHelper:
	.zero	32
	.size	uxHelper, 32

	.type	.L__const.vStartRecursiveMutexTasks.xRecursiveMutexControllingTaskParameters,%object @ @__const.vStartRecursiveMutexTasks.xRecursiveMutexControllingTaskParameters
	.section	.rodata..L__const.vStartRecursiveMutexTasks.xRecursiveMutexControllingTaskParameters,"a",%progbits
	.p2align	2, 0x0
.L__const.vStartRecursiveMutexTasks.xRecursiveMutexControllingTaskParameters:
	.long	prvRecursiveMutexControllingTask
	.long	.L.str
	.short	128                             @ 0x80
	.zero	2
	.long	0
	.long	2                               @ 0x2
	.long	vStartRecursiveMutexTasks.xRecursiveMutexControllingTaskStack
	.long	uxHelper
	.long	32                              @ 0x20
	.long	3                               @ 0x3
	.long	xMutex
	.long	32                              @ 0x20
	.long	3                               @ 0x3
	.zero	12
	.long	0
	.size	.L__const.vStartRecursiveMutexTasks.xRecursiveMutexControllingTaskParameters, 64

	.type	.L.str.1,%object                @ @.str.1
	.section	.rodata.str1.1,"aMS",%progbits,1
.L.str.1:
	.asciz	"Rec2"
	.size	.L.str.1, 5

	.type	.L__const.vStartRecursiveMutexTasks.xRecursiveMutexBlockingTaskParameters,%object @ @__const.vStartRecursiveMutexTasks.xRecursiveMutexBlockingTaskParameters
	.section	.rodata..L__const.vStartRecursiveMutexTasks.xRecursiveMutexBlockingTaskParameters,"a",%progbits
	.p2align	2, 0x0
.L__const.vStartRecursiveMutexTasks.xRecursiveMutexBlockingTaskParameters:
	.long	prvRecursiveMutexBlockingTask
	.long	.L.str.1
	.short	128                             @ 0x80
	.zero	2
	.long	0
	.long	1                               @ 0x1
	.long	vStartRecursiveMutexTasks.xRecursiveMutexBlockingStack
	.long	uxHelper
	.long	32                              @ 0x20
	.long	3                               @ 0x3
	.long	xMutex
	.long	32                              @ 0x20
	.long	3                               @ 0x3
	.zero	12
	.long	0
	.size	.L__const.vStartRecursiveMutexTasks.xRecursiveMutexBlockingTaskParameters, 64

	.type	.L.str.2,%object                @ @.str.2
	.section	.rodata.str1.1,"aMS",%progbits,1
.L.str.2:
	.asciz	"Rec3"
	.size	.L.str.2, 5

	.type	xLocalTaskHandles,%object       @ @xLocalTaskHandles
	.section	.bss.xLocalTaskHandles,"aw",%nobits
	.p2align	5, 0x0
xLocalTaskHandles:
	.zero	32
	.size	xLocalTaskHandles, 32

	.type	.L__const.vStartRecursiveMutexTasks.xRecursiveMutexPollingTaskParameters,%object @ @__const.vStartRecursiveMutexTasks.xRecursiveMutexPollingTaskParameters
	.section	.rodata..L__const.vStartRecursiveMutexTasks.xRecursiveMutexPollingTaskParameters,"a",%progbits
	.p2align	2, 0x0
.L__const.vStartRecursiveMutexTasks.xRecursiveMutexPollingTaskParameters:
	.long	prvRecursiveMutexPollingTask
	.long	.L.str.2
	.short	128                             @ 0x80
	.zero	2
	.long	0
	.long	0                               @ 0x0
	.long	vStartRecursiveMutexTasks.xRecursiveMutexPollingTask
	.long	uxHelper
	.long	32                              @ 0x20
	.long	3                               @ 0x3
	.long	xMutex
	.long	32                              @ 0x20
	.long	3                               @ 0x3
	.long	xLocalTaskHandles
	.long	32                              @ 0x20
	.long	3                               @ 0x3
	.long	0
	.size	.L__const.vStartRecursiveMutexTasks.xRecursiveMutexPollingTaskParameters, 64

	.type	xAreRecursiveMutexTasksStillRunning.uxLastControllingCycles,%object @ @xAreRecursiveMutexTasksStillRunning.uxLastControllingCycles
	.section	.bss.xAreRecursiveMutexTasksStillRunning.uxLastControllingCycles,"aw",%nobits
	.p2align	2, 0x0
xAreRecursiveMutexTasksStillRunning.uxLastControllingCycles:
	.long	0                               @ 0x0
	.size	xAreRecursiveMutexTasksStillRunning.uxLastControllingCycles, 4

	.type	xAreRecursiveMutexTasksStillRunning.uxLastBlockingCycles,%object @ @xAreRecursiveMutexTasksStillRunning.uxLastBlockingCycles
	.section	.bss.xAreRecursiveMutexTasksStillRunning.uxLastBlockingCycles,"aw",%nobits
	.p2align	2, 0x0
xAreRecursiveMutexTasksStillRunning.uxLastBlockingCycles:
	.long	0                               @ 0x0
	.size	xAreRecursiveMutexTasksStillRunning.uxLastBlockingCycles, 4

	.type	xAreRecursiveMutexTasksStillRunning.uxLastPollingCycles,%object @ @xAreRecursiveMutexTasksStillRunning.uxLastPollingCycles
	.section	.bss.xAreRecursiveMutexTasksStillRunning.uxLastPollingCycles,"aw",%nobits
	.p2align	2, 0x0
xAreRecursiveMutexTasksStillRunning.uxLastPollingCycles:
	.long	0                               @ 0x0
	.size	xAreRecursiveMutexTasksStillRunning.uxLastPollingCycles, 4

	.file	7 "C:\\Users\\karahulx\\Downloads\\Kernel\\FreeRTOS\\FreeRTOS\\Demo\\CORTEX_MPU_M23_Nuvoton_NuMaker_PFM_M2351_IAR_GCC\\Projects_NTZ\\Keil" "../../../../Source/include/projdefs.h"
	.file	8 "C:\\Users\\karahulx\\Downloads\\Kernel\\FreeRTOS\\FreeRTOS\\Demo\\CORTEX_MPU_M23_Nuvoton_NuMaker_PFM_M2351_IAR_GCC\\Projects_NTZ\\Keil" "../../../../Source/include\\FreeRTOS.h"
	.section	".note.GNU-stack","",%progbits
	.eabi_attribute	30, 6	@ Tag_ABI_optimization_goals
	.ARM_attribute	16, 1	@ Tag_AV_eba