	.text
	.syntax unified
	.eabi_attribute	67, "2.09"	@ Tag_conformance
	.eabi_attribute	6, 16	@ Tag_CPU_arch
	.eabi_attribute	7, 77	@ Tag_CPU_arch_profile
	.eabi_attribute	8, 0	@ Tag_ARM_ISA_use
	.eabi_attribute	9, 3	@ Tag_THUMB_ISA_use
	.eabi_attribute	34, 0	@ Tag_CPU_unaligned_access
	.eabi_attribute	17, 1	@ Tag_ABI_PCS_GOT_use
	.eabi_attribute	20, 2	@ Tag_ABI_FP_denormal
	.eabi_attribute	21, 0	@ Tag_ABI_FP_exceptions
	.eabi_attribute	23, 1	@ Tag_ABI_FP_number_model
	.eabi_attribute	24, 1	@ Tag_ABI_align_needed
	.eabi_attribute	25, 1	@ Tag_ABI_align_preserved
	.eabi_attribute	38, 1	@ Tag_ABI_FP_16bit_format
	.eabi_attribute	18, 4	@ Tag_ABI_PCS_wchar_t
	.eabi_attribute	26, 2	@ Tag_ABI_enum_size
	.eabi_attribute	14, 0	@ Tag_ABI_PCS_R9_use
	.file	"reg_tests.c"
	.file	1 "C:\\Users\\karahulx\\Downloads\\Kernel\\FreeRTOS\\FreeRTOS\\Demo\\CORTEX_MPU_M23_Nuvoton_NuMaker_PFM_M2351_IAR_GCC\\Projects_NTZ\\Keil" "../../RegTests/reg_tests.c"
	.file	2 "C:\\Keil_v5\\ARM\\ARMCLANG\\Bin\\..\\include" "stdint.h"
	.file	3 "C:\\Users\\karahulx\\Downloads\\Kernel\\FreeRTOS\\FreeRTOS\\Demo\\CORTEX_MPU_M23_Nuvoton_NuMaker_PFM_M2351_IAR_GCC\\Projects_NTZ\\Keil" "../../../../Source/portable/GCC/ARM_CM23_NTZ/non_secure/portmacrocommon.h"
	.file	4 "C:\\Users\\karahulx\\Downloads\\Kernel\\FreeRTOS\\FreeRTOS\\Demo\\CORTEX_MPU_M23_Nuvoton_NuMaker_PFM_M2351_IAR_GCC\\Projects_NTZ\\Keil" "../../Nuvoton_Code/Device/Nuvoton/M2351/Include/gpio_reg.h"
	.section	.text.vStartRegisterTasks,"ax",%progbits
	.hidden	vStartRegisterTasks             @ -- Begin function vStartRegisterTasks
	.globl	vStartRegisterTasks
	.p2align	1
	.type	vStartRegisterTasks,%function
	.code	16                              @ @vStartRegisterTasks
	.thumb_func
vStartRegisterTasks:
.Lfunc_begin0:
	.loc	1 104 0                         @ ../../RegTests/reg_tests.c:104:0
	.fnstart
	.cfi_sections .debug_frame
	.cfi_startproc
@ %bb.0:
	.save	{r4, r5, r7, lr}
	push	{r4, r5, r7, lr}
	.cfi_def_cfa_offset 16
	.cfi_offset lr, -4
	.cfi_offset r7, -8
	.cfi_offset r5, -12
	.cfi_offset r4, -16
	.pad	#152
	sub	sp, #152
	.cfi_def_cfa_offset 168
	str	r0, [sp, #148]
.Ltmp0:
	.loc	1 114 22 prologue_end           @ ../../RegTests/reg_tests.c:114:22
	movw	r1, :lower16:.L__const.vStartRegisterTasks.xRegTest1TaskParameters
	movt	r1, :upper16:.L__const.vStartRegisterTasks.xRegTest1TaskParameters
	add	r0, sp, #84
	str	r0, [sp, #8]                    @ 4-byte Spill
	ldm	r1!, {r2, r3, r4, r5}
	stm	r0!, {r2, r3, r4, r5}
	ldm	r1!, {r2, r3, r4, r5}
	stm	r0!, {r2, r3, r4, r5}
	ldm	r1!, {r2, r3, r4, r5}
	stm	r0!, {r2, r3, r4, r5}
	ldm	r1!, {r2, r3, r4, r5}
	stm	r0!, {r2, r3, r4, r5}
	.loc	1 129 22                        @ ../../RegTests/reg_tests.c:129:22
	movw	r1, :lower16:.L__const.vStartRegisterTasks.xRegTest2TaskParameters
	movt	r1, :upper16:.L__const.vStartRegisterTasks.xRegTest2TaskParameters
	add	r0, sp, #20
	str	r0, [sp, #16]                   @ 4-byte Spill
	ldm	r1!, {r2, r3, r4, r5}
	stm	r0!, {r2, r3, r4, r5}
	ldm	r1!, {r2, r3, r4, r5}
	stm	r0!, {r2, r3, r4, r5}
	ldm	r1!, {r2, r3, r4, r5}
	stm	r0!, {r2, r3, r4, r5}
	ldm	r1!, {r2, r3, r4, r5}
	stm	r0!, {r2, r3, r4, r5}
	movw	r0, #16384
	movt	r0, #16384
	movw	r1, #3072
	movs	r2, #1
	.loc	1 182 9                         @ ../../RegTests/reg_tests.c:182:9
	str	r2, [sp, #4]                    @ 4-byte Spill
	bl	GPIO_SetMode
	ldr	r1, [sp, #4]                    @ 4-byte Reload
	ldr	r0, [sp, #8]                    @ 4-byte Reload
	movw	r2, #18476
	movt	r2, #16384
	.loc	1 186 16                        @ ../../RegTests/reg_tests.c:186:16
	str	r1, [r2]
	movw	r2, #18472
	movt	r2, #16384
	.loc	1 187 15                        @ ../../RegTests/reg_tests.c:187:15
	str	r1, [r2]
	movs	r1, #0
	.loc	1 189 5                         @ ../../RegTests/reg_tests.c:189:5
	str	r1, [sp, #12]                   @ 4-byte Spill
	bl	xTaskCreateRestricted
	ldr	r1, [sp, #12]                   @ 4-byte Reload
                                        @ kill: def $r2 killed $r0
	.loc	1 190 5                         @ ../../RegTests/reg_tests.c:190:5
	ldr	r0, [sp, #16]                   @ 4-byte Reload
	bl	xTaskCreateRestricted
	.loc	1 195 1                         @ ../../RegTests/reg_tests.c:195:1
	add	sp, #152
	pop	{r4, r5, r7, pc}
.Ltmp1:
.Lfunc_end0:
	.size	vStartRegisterTasks, .Lfunc_end0-vStartRegisterTasks
	.cfi_endproc
	.cantunwind
	.fnend
                                        @ -- End function
	.section	.text.prvRegTest1_Task,"ax",%progbits
	.p2align	1                               @ -- Begin function prvRegTest1_Task
	.type	prvRegTest1_Task,%function
	.code	16                              @ @prvRegTest1_Task
	.thumb_func
prvRegTest1_Task:
.Lfunc_begin1:
	.loc	1 199 0                         @ ../../RegTests/reg_tests.c:199:0
	.fnstart
	.cfi_startproc
@ %bb.0:
	.save	{r7, lr}
	push	{r7, lr}
	.cfi_def_cfa_offset 8
	.cfi_offset lr, -4
	.cfi_offset r7, -8
	.pad	#8
	sub	sp, #8
	.cfi_def_cfa_offset 16
	str	r0, [sp, #4]
.Ltmp2:
	.loc	1 203 9 prologue_end            @ ../../RegTests/reg_tests.c:203:9
	ldr	r0, [sp, #4]
	movw	r1, #22136
	movt	r1, #4660
.Ltmp3:
	.loc	1 203 9 is_stmt 0               @ ../../RegTests/reg_tests.c:203:9
	cmp	r0, r1
	bne	.LBB1_2
	b	.LBB1_1
.LBB1_1:
.Ltmp4:
	.loc	1 206 9 is_stmt 1               @ ../../RegTests/reg_tests.c:206:9
	bl	vRegTest1Asm_NonSecure
	.loc	1 207 5                         @ ../../RegTests/reg_tests.c:207:5
	b	.LBB1_2
.Ltmp5:
.LBB1_2:
	.loc	1 0 5 is_stmt 0                 @ ../../RegTests/reg_tests.c:0:5
	movs	r0, #0
	.loc	1 213 5 is_stmt 1               @ ../../RegTests/reg_tests.c:213:5
	bl	MPU_vTaskDelete
	.loc	1 214 1                         @ ../../RegTests/reg_tests.c:214:1
	add	sp, #8
	pop	{r7, pc}
.Ltmp6:
.Lfunc_end1:
	.size	prvRegTest1_Task, .Lfunc_end1-prvRegTest1_Task
	.cfi_endproc
	.cantunwind
	.fnend
                                        @ -- End function
	.section	.text.prvRegTest2_Task,"ax",%progbits
	.p2align	1                               @ -- Begin function prvRegTest2_Task
	.type	prvRegTest2_Task,%function
	.code	16                              @ @prvRegTest2_Task
	.thumb_func
prvRegTest2_Task:
.Lfunc_begin2:
	.loc	1 218 0                         @ ../../RegTests/reg_tests.c:218:0
	.fnstart
	.cfi_startproc
@ %bb.0:
	.save	{r7, lr}
	push	{r7, lr}
	.cfi_def_cfa_offset 8
	.cfi_offset lr, -4
	.cfi_offset r7, -8
	.pad	#8
	sub	sp, #8
	.cfi_def_cfa_offset 16
	str	r0, [sp, #4]
.Ltmp7:
	.loc	1 222 9 prologue_end            @ ../../RegTests/reg_tests.c:222:9
	ldr	r0, [sp, #4]
	movw	r1, #17185
	movt	r1, #34661
.Ltmp8:
	.loc	1 222 9 is_stmt 0               @ ../../RegTests/reg_tests.c:222:9
	cmp	r0, r1
	bne	.LBB2_2
	b	.LBB2_1
.LBB2_1:
.Ltmp9:
	.loc	1 225 9 is_stmt 1               @ ../../RegTests/reg_tests.c:225:9
	bl	vRegTest2Asm_NonSecure
	.loc	1 226 5                         @ ../../RegTests/reg_tests.c:226:5
	b	.LBB2_2
.Ltmp10:
.LBB2_2:
	.loc	1 0 5 is_stmt 0                 @ ../../RegTests/reg_tests.c:0:5
	movs	r0, #0
	.loc	1 232 5 is_stmt 1               @ ../../RegTests/reg_tests.c:232:5
	bl	MPU_vTaskDelete
	.loc	1 233 1                         @ ../../RegTests/reg_tests.c:233:1
	add	sp, #8
	pop	{r7, pc}
.Ltmp11:
.Lfunc_end2:
	.size	prvRegTest2_Task, .Lfunc_end2-prvRegTest2_Task
	.cfi_endproc
	.cantunwind
	.fnend
                                        @ -- End function
	.section	.text.xAreRegisterTasksStillRunning,"ax",%progbits
	.hidden	xAreRegisterTasksStillRunning   @ -- Begin function xAreRegisterTasksStillRunning
	.globl	xAreRegisterTasksStillRunning
	.p2align	1
	.type	xAreRegisterTasksStillRunning,%function
	.code	16                              @ @xAreRegisterTasksStillRunning
	.thumb_func
xAreRegisterTasksStillRunning:
.Lfunc_begin3:
	.loc	1 310 0                         @ ../../RegTests/reg_tests.c:310:0
	.fnstart
	.cfi_startproc
@ %bb.0:
	.save	{r7, lr}
	push	{r7, lr}
	.cfi_def_cfa_offset 8
	.cfi_offset lr, -4
	.cfi_offset r7, -8
	.pad	#16
	sub	sp, #16
	.cfi_def_cfa_offset 24
	movw	r0, #500
.Ltmp12:
	.loc	1 311 16 prologue_end           @ ../../RegTests/reg_tests.c:311:16
	str	r0, [sp, #12]
	movs	r0, #0
	.loc	1 313 19                        @ ../../RegTests/reg_tests.c:313:19
	str	r0, [sp, #4]
	.loc	1 322 26                        @ ../../RegTests/reg_tests.c:322:26
	bl	MPU_xTaskGetTickCount
	.loc	1 322 24 is_stmt 0              @ ../../RegTests/reg_tests.c:322:24
	str	r0, [sp, #8]
	.loc	1 330 5 is_stmt 1               @ ../../RegTests/reg_tests.c:330:5
	b	.LBB3_1
.LBB3_1:
.Ltmp13:
	.loc	1 333 9                         @ ../../RegTests/reg_tests.c:333:9
	b	.LBB3_2
.LBB3_2:
.Ltmp14:
	.loc	1 333 9 is_stmt 0               @ ../../RegTests/reg_tests.c:333:9
	ldr	r1, [sp, #12]
	add	r0, sp, #8
	bl	MPU_xTaskDelayUntil
	b	.LBB3_3
.Ltmp15:
.LBB3_3:
	.loc	1 336 13 is_stmt 1              @ ../../RegTests/reg_tests.c:336:13
	movw	r0, :lower16:xAreRegisterTasksStillRunning.ulLastRegTest1Value
	movt	r0, :upper16:xAreRegisterTasksStillRunning.ulLastRegTest1Value
	ldr	r0, [r0]
	.loc	1 336 36 is_stmt 0              @ ../../RegTests/reg_tests.c:336:36
	movw	r1, :lower16:ulRegTest1LoopCounter
	movt	r1, :upper16:ulRegTest1LoopCounter
	ldr	r1, [r1]
.Ltmp16:
	.loc	1 336 13                        @ ../../RegTests/reg_tests.c:336:13
	cmp	r0, r1
	bne	.LBB3_5
	b	.LBB3_4
.LBB3_4:
.Ltmp17:
	.loc	1 338 26 is_stmt 1              @ ../../RegTests/reg_tests.c:338:26
	ldr	r0, [sp, #4]
	movs	r1, #1
	orrs	r0, r1
	str	r0, [sp, #4]
	.loc	1 339 9                         @ ../../RegTests/reg_tests.c:339:9
	b	.LBB3_5
.Ltmp18:
.LBB3_5:
	.loc	1 341 31                        @ ../../RegTests/reg_tests.c:341:31
	movw	r0, :lower16:ulRegTest1LoopCounter
	movt	r0, :upper16:ulRegTest1LoopCounter
	ldr	r0, [r0]
	.loc	1 341 29 is_stmt 0              @ ../../RegTests/reg_tests.c:341:29
	movw	r1, :lower16:xAreRegisterTasksStillRunning.ulLastRegTest1Value
	movt	r1, :upper16:xAreRegisterTasksStillRunning.ulLastRegTest1Value
	str	r0, [r1]
.Ltmp19:
	.loc	1 344 13 is_stmt 1              @ ../../RegTests/reg_tests.c:344:13
	movw	r0, :lower16:xAreRegisterTasksStillRunning.ulLastRegTest2Value
	movt	r0, :upper16:xAreRegisterTasksStillRunning.ulLastRegTest2Value
	ldr	r0, [r0]
	.loc	1 344 36 is_stmt 0              @ ../../RegTests/reg_tests.c:344:36
	movw	r1, :lower16:ulRegTest2LoopCounter
	movt	r1, :upper16:ulRegTest2LoopCounter
	ldr	r1, [r1]
.Ltmp20:
	.loc	1 344 13                        @ ../../RegTests/reg_tests.c:344:13
	cmp	r0, r1
	bne	.LBB3_7
	b	.LBB3_6
.LBB3_6:
.Ltmp21:
	.loc	1 346 26 is_stmt 1              @ ../../RegTests/reg_tests.c:346:26
	ldr	r0, [sp, #4]
	movs	r1, #2
	orrs	r0, r1
	str	r0, [sp, #4]
	.loc	1 347 9                         @ ../../RegTests/reg_tests.c:347:9
	b	.LBB3_7
.Ltmp22:
.LBB3_7:
	.loc	1 349 31                        @ ../../RegTests/reg_tests.c:349:31
	movw	r0, :lower16:ulRegTest2LoopCounter
	movt	r0, :upper16:ulRegTest2LoopCounter
	ldr	r0, [r0]
	.loc	1 349 29 is_stmt 0              @ ../../RegTests/reg_tests.c:349:29
	movw	r1, :lower16:xAreRegisterTasksStillRunning.ulLastRegTest2Value
	movt	r1, :upper16:xAreRegisterTasksStillRunning.ulLastRegTest2Value
	str	r0, [r1]
	.loc	1 372 32 is_stmt 1              @ ../../RegTests/reg_tests.c:372:32
	ldr	r0, [sp, #4]
	.loc	1 372 31 is_stmt 0              @ ../../RegTests/reg_tests.c:372:31
	rsbs	r1, r0, #0
	adcs	r0, r1
	.loc	1 372 9                         @ ../../RegTests/reg_tests.c:372:9
	add	sp, #16
	pop	{r7, pc}
.Ltmp23:
.Lfunc_end3:
	.size	xAreRegisterTasksStillRunning, .Lfunc_end3-xAreRegisterTasksStillRunning
	.cfi_endproc
	.cantunwind
	.fnend
                                        @ -- End function
	.hidden	ulRegTest1LoopCounter           @ @ulRegTest1LoopCounter
	.type	ulRegTest1LoopCounter,%object
	.section	.bss.ulRegTest1LoopCounter,"aw",%nobits
	.globl	ulRegTest1LoopCounter
	.p2align	2, 0x0
ulRegTest1LoopCounter:
	.long	0                               @ 0x0
	.size	ulRegTest1LoopCounter, 4

	.hidden	ulRegTest2LoopCounter           @ @ulRegTest2LoopCounter
	.type	ulRegTest2LoopCounter,%object
	.section	.bss.ulRegTest2LoopCounter,"aw",%nobits
	.globl	ulRegTest2LoopCounter
	.p2align	2, 0x0
ulRegTest2LoopCounter:
	.long	0                               @ 0x0
	.size	ulRegTest2LoopCounter, 4

	.hidden	ulCheckTaskLoops                @ @ulCheckTaskLoops
	.type	ulCheckTaskLoops,%object
	.section	.bss.ulCheckTaskLoops,"aw",%nobits
	.globl	ulCheckTaskLoops
	.p2align	2, 0x0
ulCheckTaskLoops:
	.long	0                               @ 0x0
	.size	ulCheckTaskLoops, 4

	.type	vStartRegisterTasks.xRegTest1TaskStack,%object @ @vStartRegisterTasks.xRegTest1TaskStack
	.section	.bss.vStartRegisterTasks.xRegTest1TaskStack,"aw",%nobits
	.p2align	5, 0x0
vStartRegisterTasks.xRegTest1TaskStack:
	.zero	512
	.size	vStartRegisterTasks.xRegTest1TaskStack, 512

	.type	vStartRegisterTasks.xRegTest2TaskStack,%object @ @vStartRegisterTasks.xRegTest2TaskStack
	.section	.bss.vStartRegisterTasks.xRegTest2TaskStack,"aw",%nobits
	.p2align	5, 0x0
vStartRegisterTasks.xRegTest2TaskStack:
	.zero	512
	.size	vStartRegisterTasks.xRegTest2TaskStack, 512

	.type	vStartRegisterTasks.xCheckTaskStack,%object @ @vStartRegisterTasks.xCheckTaskStack
	.section	.bss.vStartRegisterTasks.xCheckTaskStack,"aw",%nobits
	.p2align	5, 0x0
vStartRegisterTasks.xCheckTaskStack:
	.zero	512
	.size	vStartRegisterTasks.xCheckTaskStack, 512

	.type	.L.str,%object                  @ @.str
	.section	.rodata.str1.1,"aMS",%progbits,1
.L.str:
	.asciz	"RegTest1"
	.size	.L.str, 9

	.type	.L__const.vStartRegisterTasks.xRegTest1TaskParameters,%object @ @__const.vStartRegisterTasks.xRegTest1TaskParameters
	.section	.rodata..L__const.vStartRegisterTasks.xRegTest1TaskParameters,"a",%progbits
	.p2align	2, 0x0
.L__const.vStartRegisterTasks.xRegTest1TaskParameters:
	.long	prvRegTest1_Task
	.long	.L.str
	.short	128                             @ 0x80
	.zero	2
	.long	305419896
	.long	2147483648                      @ 0x80000000
	.long	vStartRegisterTasks.xRegTest1TaskStack
	.zero	36
	.long	0
	.size	.L__const.vStartRegisterTasks.xRegTest1TaskParameters, 64

	.type	.L.str.1,%object                @ @.str.1
	.section	.rodata.str1.1,"aMS",%progbits,1
.L.str.1:
	.asciz	"RegTest2"
	.size	.L.str.1, 9

	.type	.L__const.vStartRegisterTasks.xRegTest2TaskParameters,%object @ @__const.vStartRegisterTasks.xRegTest2TaskParameters
	.section	.rodata..L__const.vStartRegisterTasks.xRegTest2TaskParameters,"a",%progbits
	.p2align	2, 0x0
.L__const.vStartRegisterTasks.xRegTest2TaskParameters:
	.long	prvRegTest2_Task
	.long	.L.str.1
	.short	128                             @ 0x80
	.zero	2
	.long	2271560481
	.long	2147483648                      @ 0x80000000
	.long	vStartRegisterTasks.xRegTest2TaskStack
	.zero	36
	.long	0
	.size	.L__const.vStartRegisterTasks.xRegTest2TaskParameters, 64

	.type	xAreRegisterTasksStillRunning.ulLastRegTest1Value,%object @ @xAreRegisterTasksStillRunning.ulLastRegTest1Value
	.section	.bss.xAreRegisterTasksStillRunning.ulLastRegTest1Value,"aw",%nobits
	.p2align	2, 0x0
xAreRegisterTasksStillRunning.ulLastRegTest1Value:
	.long	0                               @ 0x0
	.size	xAreRegisterTasksStillRunning.ulLastRegTest1Value, 4

	.type	xAreRegisterTasksStillRunning.ulLastRegTest2Value,%object @ @xAreRegisterTasksStillRunning.ulLastRegTest2Value
	.section	.bss.xAreRegisterTasksStillRunning.ulLastRegTest2Value,"aw",%nobits
	.p2align	2, 0x0
xAreRegisterTasksStillRunning.ulLastRegTest2Value:
	.long	0                               @ 0x0
	.size	xAreRegisterTasksStillRunning.ulLastRegTest2Value, 4

	.file	5 "C:\\Users\\karahulx\\Downloads\\Kernel\\FreeRTOS\\FreeRTOS\\Demo\\CORTEX_MPU_M23_Nuvoton_NuMaker_PFM_M2351_IAR_GCC\\Projects_NTZ\\Keil" "../../../../Source/include/projdefs.h"
	.file	6 "C:\\Users\\karahulx\\Downloads\\Kernel\\FreeRTOS\\FreeRTOS\\Demo\\CORTEX_MPU_M23_Nuvoton_NuMaker_PFM_M2351_IAR_GCC\\Projects_NTZ\\Keil" "../../../../Source/include\\task.h"
	.file	7 "C:\\Users\\karahulx\\Downloads\\Kernel\\FreeRTOS\\FreeRTOS\\Demo\\CORTEX_MPU_M23_Nuvoton_NuMaker_PFM_M2351_IAR_GCC\\Projects_NTZ\\Keil" "../../../../Source/include\\FreeRTOS.h"
	.section	".note.GNU-stack","",%progbits
	.eabi_attribute	30, 6	@ Tag_ABI_optimization_goals
	.ARM_attribute	16, 1	@ Tag_AV_eba