	.text
	.syntax unified
	.eabi_attribute	67, "2.09"	@ Tag_conformance
	.eabi_attribute	6, 16	@ Tag_CPU_arch
	.eabi_attribute	7, 77	@ Tag_CPU_arch_profile
	.eabi_attribute	8, 0	@ Tag_ARM_ISA_use
	.eabi_attribute	9, 3	@ Tag_THUMB_ISA_use
	.eabi_attribute	34, 0	@ Tag_CPU_unaligned_access
	.eabi_attribute	17, 1	@ Tag_ABI_PCS_GOT_use
	.eabi_attribute	20, 2	@ Tag_ABI_FP_denormal
	.eabi_attribute	21, 0	@ Tag_ABI_FP_exceptions
	.eabi_attribute	23, 1	@ Tag_ABI_FP_number_model
	.eabi_attribute	24, 1	@ Tag_ABI_align_needed
	.eabi_attribute	25, 1	@ Tag_ABI_align_preserved
	.eabi_attribute	38, 1	@ Tag_ABI_FP_16bit_format
	.eabi_attribute	18, 4	@ Tag_ABI_PCS_wchar_t
	.eabi_attribute	26, 2	@ Tag_ABI_enum_size
	.eabi_attribute	14, 0	@ Tag_ABI_PCS_R9_use
	.file	"RegTests.c"
	.file	1 "C:\\Keil_v5\\ARM\\ARMCLANG\\Bin\\..\\include" "stdint.h"
	.file	2 "C:\\Users\\karahulx\\Downloads\\Kernel\\FreeRTOS\\FreeRTOS\\Demo\\CORTEX_MPU_M23_Nuvoton_NuMaker_PFM_M2351_IAR_GCC\\Projects_NTZ\\Keil" "../../../CORTEX_MPU_M3_NUCLEO_L152RE_GCC/Demo/RegTests.c"
	.file	3 "C:\\Users\\karahulx\\Downloads\\Kernel\\FreeRTOS\\FreeRTOS\\Demo\\CORTEX_MPU_M23_Nuvoton_NuMaker_PFM_M2351_IAR_GCC\\Projects_NTZ\\Keil" "../../../../Source/portable/GCC/ARM_CM23_NTZ/non_secure/portmacrocommon.h"
	.section	.text.vStartRegisterTasks,"ax",%progbits
	.hidden	vStartRegisterTasks             @ -- Begin function vStartRegisterTasks
	.globl	vStartRegisterTasks
	.p2align	1
	.type	vStartRegisterTasks,%function
	.code	16                              @ @vStartRegisterTasks
	.thumb_func
vStartRegisterTasks:
.Lfunc_begin0:
	.loc	2 107 0                         @ ../../../CORTEX_MPU_M3_NUCLEO_L152RE_GCC/Demo/RegTests.c:107:0
	.fnstart
	.cfi_sections .debug_frame
	.cfi_startproc
@ %bb.0:
	.save	{r4, r5, r6, r7, lr}
	push	{r4, r5, r6, r7, lr}
	.cfi_def_cfa_offset 20
	.cfi_offset lr, -4
	.cfi_offset r7, -8
	.cfi_offset r6, -12
	.cfi_offset r5, -16
	.cfi_offset r4, -20
	.pad	#300
	sub	sp, #300
	.cfi_def_cfa_offset 320
	str	r0, [sp, #296]
.Ltmp0:
	.loc	2 115 2 prologue_end            @ ../../../CORTEX_MPU_M3_NUCLEO_L152RE_GCC/Demo/RegTests.c:115:2
	movw	r0, :lower16:prvRegisterTest1Task
	movt	r0, :upper16:prvRegisterTest1Task
	str	r0, [sp, #228]
	movw	r0, :lower16:.L.str
	movt	r0, :upper16:.L.str
	str	r0, [sp, #232]
	add	r0, sp, #228
	str	r0, [sp, #28]                   @ 4-byte Spill
	movs	r4, #128
	strh	r4, [r0, #8]
	movs	r1, #0
	str	r1, [sp, #32]                   @ 4-byte Spill
	str	r1, [sp, #240]
	.loc	2 120 20                        @ ../../../CORTEX_MPU_M3_NUCLEO_L152RE_GCC/Demo/RegTests.c:120:20
	ldr	r1, [sp, #296]
	movs	r2, #1
	lsls	r2, r2, #31
	.loc	2 120 31 is_stmt 0              @ ../../../CORTEX_MPU_M3_NUCLEO_L152RE_GCC/Demo/RegTests.c:120:31
	str	r2, [sp, #16]                   @ 4-byte Spill
	orrs	r1, r2
	.loc	2 115 2 is_stmt 1               @ ../../../CORTEX_MPU_M3_NUCLEO_L152RE_GCC/Demo/RegTests.c:115:2
	str	r1, [sp, #244]
	movw	r1, :lower16:vStartRegisterTasks.xRegisterTest1TaskStack
	movt	r1, :upper16:vStartRegisterTasks.xRegisterTest1TaskStack
	str	r1, [sp, #248]
	adds	r0, #24
	str	r0, [sp, #4]                    @ 4-byte Spill
	movs	r1, #36
	str	r1, [sp, #20]                   @ 4-byte Spill
	bl	__aeabi_memclr4
	ldr	r0, [sp, #4]                    @ 4-byte Reload
	ldr	r3, [sp, #16]                   @ 4-byte Reload
	ldr	r2, [sp, #32]                   @ 4-byte Reload
	.loc	2 123 3                         @ ../../../CORTEX_MPU_M3_NUCLEO_L152RE_GCC/Demo/RegTests.c:123:3
	movw	r5, :lower16:.Lconstinit
	movt	r5, :upper16:.Lconstinit
	ldm	r5!, {r1, r6, r7}
	stm	r0!, {r1, r6, r7}
	ldm	r5!, {r1, r6, r7}
	stm	r0!, {r1, r6, r7}
	ldm	r5!, {r1, r6, r7}
	stm	r0!, {r1, r6, r7}
	.loc	2 115 2                         @ ../../../CORTEX_MPU_M3_NUCLEO_L152RE_GCC/Demo/RegTests.c:115:2
	ldr	r1, [sp, #20]                   @ 4-byte Reload
	str	r2, [sp, #288]
	.loc	2 130 2                         @ ../../../CORTEX_MPU_M3_NUCLEO_L152RE_GCC/Demo/RegTests.c:130:2
	movw	r0, :lower16:prvRegisterTest2Task
	movt	r0, :upper16:prvRegisterTest2Task
	str	r0, [sp, #164]
	movw	r0, :lower16:.L.str.1
	movt	r0, :upper16:.L.str.1
	str	r0, [sp, #168]
	add	r0, sp, #164
	strh	r4, [r0, #8]
	str	r2, [sp, #176]
	.loc	2 135 20                        @ ../../../CORTEX_MPU_M3_NUCLEO_L152RE_GCC/Demo/RegTests.c:135:20
	ldr	r2, [sp, #296]
	.loc	2 135 31 is_stmt 0              @ ../../../CORTEX_MPU_M3_NUCLEO_L152RE_GCC/Demo/RegTests.c:135:31
	orrs	r2, r3
	.loc	2 130 2 is_stmt 1               @ ../../../CORTEX_MPU_M3_NUCLEO_L152RE_GCC/Demo/RegTests.c:130:2
	str	r2, [sp, #180]
	movw	r2, :lower16:vStartRegisterTasks.xRegisterTest2TaskStack
	movt	r2, :upper16:vStartRegisterTasks.xRegisterTest2TaskStack
	str	r2, [sp, #184]
	adds	r0, #24
	str	r0, [sp, #8]                    @ 4-byte Spill
	bl	__aeabi_memclr4
	ldr	r0, [sp, #8]                    @ 4-byte Reload
	ldr	r3, [sp, #16]                   @ 4-byte Reload
	ldr	r2, [sp, #32]                   @ 4-byte Reload
	.loc	2 138 3                         @ ../../../CORTEX_MPU_M3_NUCLEO_L152RE_GCC/Demo/RegTests.c:138:3
	movw	r5, :lower16:.Lconstinit.2
	movt	r5, :upper16:.Lconstinit.2
	ldm	r5!, {r1, r6, r7}
	stm	r0!, {r1, r6, r7}
	ldm	r5!, {r1, r6, r7}
	stm	r0!, {r1, r6, r7}
	ldm	r5!, {r1, r6, r7}
	stm	r0!, {r1, r6, r7}
	.loc	2 130 2                         @ ../../../CORTEX_MPU_M3_NUCLEO_L152RE_GCC/Demo/RegTests.c:130:2
	ldr	r1, [sp, #20]                   @ 4-byte Reload
	str	r2, [sp, #224]
	.loc	2 145 2                         @ ../../../CORTEX_MPU_M3_NUCLEO_L152RE_GCC/Demo/RegTests.c:145:2
	movw	r0, :lower16:prvRegisterTest3Task
	movt	r0, :upper16:prvRegisterTest3Task
	str	r0, [sp, #100]
	movw	r0, :lower16:.L.str.3
	movt	r0, :upper16:.L.str.3
	str	r0, [sp, #104]
	add	r0, sp, #100
	strh	r4, [r0, #8]
	str	r2, [sp, #112]
	.loc	2 150 20                        @ ../../../CORTEX_MPU_M3_NUCLEO_L152RE_GCC/Demo/RegTests.c:150:20
	ldr	r2, [sp, #296]
	.loc	2 150 31 is_stmt 0              @ ../../../CORTEX_MPU_M3_NUCLEO_L152RE_GCC/Demo/RegTests.c:150:31
	orrs	r2, r3
	.loc	2 145 2 is_stmt 1               @ ../../../CORTEX_MPU_M3_NUCLEO_L152RE_GCC/Demo/RegTests.c:145:2
	str	r2, [sp, #116]
	movw	r2, :lower16:vStartRegisterTasks.xRegisterTest3TaskStack
	movt	r2, :upper16:vStartRegisterTasks.xRegisterTest3TaskStack
	str	r2, [sp, #120]
	adds	r0, #24
	str	r0, [sp, #12]                   @ 4-byte Spill
	bl	__aeabi_memclr4
	ldr	r0, [sp, #12]                   @ 4-byte Reload
	ldr	r3, [sp, #16]                   @ 4-byte Reload
	ldr	r1, [sp, #20]                   @ 4-byte Reload
	.loc	2 153 3                         @ ../../../CORTEX_MPU_M3_NUCLEO_L152RE_GCC/Demo/RegTests.c:153:3
	movw	r5, :lower16:.Lconstinit.4
	movt	r5, :upper16:.Lconstinit.4
	ldm	r5!, {r2, r6, r7}
	stm	r0!, {r2, r6, r7}
	ldm	r5!, {r2, r6, r7}
	stm	r0!, {r2, r6, r7}
	ldm	r5!, {r2, r6, r7}
	stm	r0!, {r2, r6, r7}
	.loc	2 145 2                         @ ../../../CORTEX_MPU_M3_NUCLEO_L152RE_GCC/Demo/RegTests.c:145:2
	ldr	r2, [sp, #32]                   @ 4-byte Reload
	str	r2, [sp, #160]
	.loc	2 160 2                         @ ../../../CORTEX_MPU_M3_NUCLEO_L152RE_GCC/Demo/RegTests.c:160:2
	movw	r0, :lower16:prvRegisterTest4Task
	movt	r0, :upper16:prvRegisterTest4Task
	str	r0, [sp, #36]
	movw	r0, :lower16:.L.str.5
	movt	r0, :upper16:.L.str.5
	str	r0, [sp, #40]
	add	r0, sp, #36
	strh	r4, [r0, #8]
	str	r2, [sp, #48]
	.loc	2 165 20                        @ ../../../CORTEX_MPU_M3_NUCLEO_L152RE_GCC/Demo/RegTests.c:165:20
	ldr	r2, [sp, #296]
	.loc	2 165 31 is_stmt 0              @ ../../../CORTEX_MPU_M3_NUCLEO_L152RE_GCC/Demo/RegTests.c:165:31
	orrs	r2, r3
	.loc	2 160 2 is_stmt 1               @ ../../../CORTEX_MPU_M3_NUCLEO_L152RE_GCC/Demo/RegTests.c:160:2
	str	r2, [sp, #52]
	movw	r2, :lower16:vStartRegisterTasks.xRegisterTest4TaskStack
	movt	r2, :upper16:vStartRegisterTasks.xRegisterTest4TaskStack
	str	r2, [sp, #56]
	adds	r0, #24
	str	r0, [sp, #24]                   @ 4-byte Spill
	bl	__aeabi_memclr4
	ldr	r2, [sp, #24]                   @ 4-byte Reload
	ldr	r0, [sp, #28]                   @ 4-byte Reload
	ldr	r1, [sp, #32]                   @ 4-byte Reload
	.loc	2 168 3                         @ ../../../CORTEX_MPU_M3_NUCLEO_L152RE_GCC/Demo/RegTests.c:168:3
	movw	r3, :lower16:.Lconstinit.6
	movt	r3, :upper16:.Lconstinit.6
	ldm	r3!, {r4, r5, r6}
	stm	r2!, {r4, r5, r6}
	ldm	r3!, {r4, r5, r6}
	stm	r2!, {r4, r5, r6}
	ldm	r3!, {r4, r5, r6}
	stm	r2!, {r4, r5, r6}
	.loc	2 160 2                         @ ../../../CORTEX_MPU_M3_NUCLEO_L152RE_GCC/Demo/RegTests.c:160:2
	str	r1, [sp, #96]
	.loc	2 175 8                         @ ../../../CORTEX_MPU_M3_NUCLEO_L152RE_GCC/Demo/RegTests.c:175:8
	bl	xTaskCreateRestricted
	.loc	2 175 6 is_stmt 0               @ ../../../CORTEX_MPU_M3_NUCLEO_L152RE_GCC/Demo/RegTests.c:175:6
	str	r0, [sp, #292]
.Ltmp1:
	.loc	2 176 2 is_stmt 1               @ ../../../CORTEX_MPU_M3_NUCLEO_L152RE_GCC/Demo/RegTests.c:176:2
	ldr	r0, [sp, #292]
.Ltmp2:
	.loc	2 176 2 is_stmt 0               @ ../../../CORTEX_MPU_M3_NUCLEO_L152RE_GCC/Demo/RegTests.c:176:2
	cmp	r0, #1
	beq	.LBB0_3
	b	.LBB0_1
.LBB0_1:
.Ltmp3:
	.loc	2 176 2                         @ ../../../CORTEX_MPU_M3_NUCLEO_L152RE_GCC/Demo/RegTests.c:176:2
	@APP
	cpsid i
	@NO_APP
	b	.LBB0_2
.LBB0_2:                                @ =>This Inner Loop Header: Depth=1
.Ltmp4:
	.loc	2 176 2                         @ ../../../CORTEX_MPU_M3_NUCLEO_L152RE_GCC/Demo/RegTests.c:176:2
	b	.LBB0_2
.Ltmp5:
.LBB0_3:
	.loc	2 0 2                           @ ../../../CORTEX_MPU_M3_NUCLEO_L152RE_GCC/Demo/RegTests.c:0:2
	add	r0, sp, #164
	movs	r1, #0
	.loc	2 178 8 is_stmt 1               @ ../../../CORTEX_MPU_M3_NUCLEO_L152RE_GCC/Demo/RegTests.c:178:8
	bl	xTaskCreateRestricted
	.loc	2 178 6 is_stmt 0               @ ../../../CORTEX_MPU_M3_NUCLEO_L152RE_GCC/Demo/RegTests.c:178:6
	str	r0, [sp, #292]
.Ltmp6:
	.loc	2 179 2 is_stmt 1               @ ../../../CORTEX_MPU_M3_NUCLEO_L152RE_GCC/Demo/RegTests.c:179:2
	ldr	r0, [sp, #292]
.Ltmp7:
	.loc	2 179 2 is_stmt 0               @ ../../../CORTEX_MPU_M3_NUCLEO_L152RE_GCC/Demo/RegTests.c:179:2
	cmp	r0, #1
	beq	.LBB0_6
	b	.LBB0_4
.LBB0_4:
.Ltmp8:
	.loc	2 179 2                         @ ../../../CORTEX_MPU_M3_NUCLEO_L152RE_GCC/Demo/RegTests.c:179:2
	@APP
	cpsid i
	@NO_APP
	b	.LBB0_5
.LBB0_5:                                @ =>This Inner Loop Header: Depth=1
.Ltmp9:
	.loc	2 179 2                         @ ../../../CORTEX_MPU_M3_NUCLEO_L152RE_GCC/Demo/RegTests.c:179:2
	b	.LBB0_5
.Ltmp10:
.LBB0_6:
	.loc	2 0 2                           @ ../../../CORTEX_MPU_M3_NUCLEO_L152RE_GCC/Demo/RegTests.c:0:2
	add	r0, sp, #100
	movs	r1, #0
	.loc	2 181 8 is_stmt 1               @ ../../../CORTEX_MPU_M3_NUCLEO_L152RE_GCC/Demo/RegTests.c:181:8
	bl	xTaskCreateRestricted
	.loc	2 181 6 is_stmt 0               @ ../../../CORTEX_MPU_M3_NUCLEO_L152RE_GCC/Demo/RegTests.c:181:6
	str	r0, [sp, #292]
.Ltmp11:
	.loc	2 182 2 is_stmt 1               @ ../../../CORTEX_MPU_M3_NUCLEO_L152RE_GCC/Demo/RegTests.c:182:2
	ldr	r0, [sp, #292]
.Ltmp12:
	.loc	2 182 2 is_stmt 0               @ ../../../CORTEX_MPU_M3_NUCLEO_L152RE_GCC/Demo/RegTests.c:182:2
	cmp	r0, #1
	beq	.LBB0_9
	b	.LBB0_7
.LBB0_7:
.Ltmp13:
	.loc	2 182 2                         @ ../../../CORTEX_MPU_M3_NUCLEO_L152RE_GCC/Demo/RegTests.c:182:2
	@APP
	cpsid i
	@NO_APP
	b	.LBB0_8
.LBB0_8:                                @ =>This Inner Loop Header: Depth=1
.Ltmp14:
	.loc	2 182 2                         @ ../../../CORTEX_MPU_M3_NUCLEO_L152RE_GCC/Demo/RegTests.c:182:2
	b	.LBB0_8
.Ltmp15:
.LBB0_9:
	.loc	2 0 2                           @ ../../../CORTEX_MPU_M3_NUCLEO_L152RE_GCC/Demo/RegTests.c:0:2
	add	r0, sp, #36
	movs	r1, #0
	.loc	2 184 8 is_stmt 1               @ ../../../CORTEX_MPU_M3_NUCLEO_L152RE_GCC/Demo/RegTests.c:184:8
	bl	xTaskCreateRestricted
	.loc	2 184 6 is_stmt 0               @ ../../../CORTEX_MPU_M3_NUCLEO_L152RE_GCC/Demo/RegTests.c:184:6
	str	r0, [sp, #292]
.Ltmp16:
	.loc	2 185 2 is_stmt 1               @ ../../../CORTEX_MPU_M3_NUCLEO_L152RE_GCC/Demo/RegTests.c:185:2
	ldr	r0, [sp, #292]
.Ltmp17:
	.loc	2 185 2 is_stmt 0               @ ../../../CORTEX_MPU_M3_NUCLEO_L152RE_GCC/Demo/RegTests.c:185:2
	cmp	r0, #1
	beq	.LBB0_12
	b	.LBB0_10
.LBB0_10:
.Ltmp18:
	.loc	2 185 2                         @ ../../../CORTEX_MPU_M3_NUCLEO_L152RE_GCC/Demo/RegTests.c:185:2
	@APP
	cpsid i
	@NO_APP
	b	.LBB0_11
.LBB0_11:                               @ =>This Inner Loop Header: Depth=1
.Ltmp19:
	.loc	2 185 2                         @ ../../../CORTEX_MPU_M3_NUCLEO_L152RE_GCC/Demo/RegTests.c:185:2
	b	.LBB0_11
.Ltmp20:
.LBB0_12:
	.loc	2 186 1 is_stmt 1               @ ../../../CORTEX_MPU_M3_NUCLEO_L152RE_GCC/Demo/RegTests.c:186:1
	add	sp, #300
	pop	{r4, r5, r6, r7, pc}
.Ltmp21:
.Lfunc_end0:
	.size	vStartRegisterTasks, .Lfunc_end0-vStartRegisterTasks
	.cfi_endproc
	.cantunwind
	.fnend
                                        @ -- End function
	.section	.text.prvRegisterTest1Task,"ax",%progbits
	.p2align	1                               @ -- Begin function prvRegisterTest1Task
	.type	prvRegisterTest1Task,%function
	.code	16                              @ @prvRegisterTest1Task
	.thumb_func
prvRegisterTest1Task:
.Lfunc_begin1:
	.loc	2 63 0                          @ ../../../CORTEX_MPU_M3_NUCLEO_L152RE_GCC/Demo/RegTests.c:63:0
	.fnstart
	.cfi_startproc
@ %bb.0:
	.save	{r7, lr}
	push	{r7, lr}
	.cfi_def_cfa_offset 8
	.cfi_offset lr, -4
	.cfi_offset r7, -8
	.pad	#8
	sub	sp, #8
	.cfi_def_cfa_offset 16
	str	r0, [sp, #4]
.Ltmp22:
	.loc	2 66 2 prologue_end             @ ../../../CORTEX_MPU_M3_NUCLEO_L152RE_GCC/Demo/RegTests.c:66:2
	b	.LBB1_1
.LBB1_1:                                @ =>This Inner Loop Header: Depth=1
.Ltmp23:
	.loc	2 68 3                          @ ../../../CORTEX_MPU_M3_NUCLEO_L152RE_GCC/Demo/RegTests.c:68:3
	bl	vRegTest1Asm
.Ltmp24:
	.loc	2 66 2                          @ ../../../CORTEX_MPU_M3_NUCLEO_L152RE_GCC/Demo/RegTests.c:66:2
	b	.LBB1_1
.Ltmp25:
.Lfunc_end1:
	.size	prvRegisterTest1Task, .Lfunc_end1-prvRegisterTest1Task
	.cfi_endproc
	.cantunwind
	.fnend
                                        @ -- End function
	.section	.text.prvRegisterTest2Task,"ax",%progbits
	.p2align	1                               @ -- Begin function prvRegisterTest2Task
	.type	prvRegisterTest2Task,%function
	.code	16                              @ @prvRegisterTest2Task
	.thumb_func
prvRegisterTest2Task:
.Lfunc_begin2:
	.loc	2 74 0                          @ ../../../CORTEX_MPU_M3_NUCLEO_L152RE_GCC/Demo/RegTests.c:74:0
	.fnstart
	.cfi_startproc
@ %bb.0:
	.save	{r7, lr}
	push	{r7, lr}
	.cfi_def_cfa_offset 8
	.cfi_offset lr, -4
	.cfi_offset r7, -8
	.pad	#8
	sub	sp, #8
	.cfi_def_cfa_offset 16
	str	r0, [sp, #4]
.Ltmp26:
	.loc	2 77 2 prologue_end             @ ../../../CORTEX_MPU_M3_NUCLEO_L152RE_GCC/Demo/RegTests.c:77:2
	b	.LBB2_1
.LBB2_1:                                @ =>This Inner Loop Header: Depth=1
.Ltmp27:
	.loc	2 79 3                          @ ../../../CORTEX_MPU_M3_NUCLEO_L152RE_GCC/Demo/RegTests.c:79:3
	bl	vRegTest2Asm
.Ltmp28:
	.loc	2 77 2                          @ ../../../CORTEX_MPU_M3_NUCLEO_L152RE_GCC/Demo/RegTests.c:77:2
	b	.LBB2_1
.Ltmp29:
.Lfunc_end2:
	.size	prvRegisterTest2Task, .Lfunc_end2-prvRegisterTest2Task
	.cfi_endproc
	.cantunwind
	.fnend
                                        @ -- End function
	.section	.text.prvRegisterTest3Task,"ax",%progbits
	.p2align	1                               @ -- Begin function prvRegisterTest3Task
	.type	prvRegisterTest3Task,%function
	.code	16                              @ @prvRegisterTest3Task
	.thumb_func
prvRegisterTest3Task:
.Lfunc_begin3:
	.loc	2 85 0                          @ ../../../CORTEX_MPU_M3_NUCLEO_L152RE_GCC/Demo/RegTests.c:85:0
	.fnstart
	.cfi_startproc
@ %bb.0:
	.save	{r7, lr}
	push	{r7, lr}
	.cfi_def_cfa_offset 8
	.cfi_offset lr, -4
	.cfi_offset r7, -8
	.pad	#8
	sub	sp, #8
	.cfi_def_cfa_offset 16
	str	r0, [sp, #4]
.Ltmp30:
	.loc	2 88 2 prologue_end             @ ../../../CORTEX_MPU_M3_NUCLEO_L152RE_GCC/Demo/RegTests.c:88:2
	b	.LBB3_1
.LBB3_1:                                @ =>This Inner Loop Header: Depth=1
.Ltmp31:
	.loc	2 90 3                          @ ../../../CORTEX_MPU_M3_NUCLEO_L152RE_GCC/Demo/RegTests.c:90:3
	bl	vRegTest3Asm
.Ltmp32:
	.loc	2 88 2                          @ ../../../CORTEX_MPU_M3_NUCLEO_L152RE_GCC/Demo/RegTests.c:88:2
	b	.LBB3_1
.Ltmp33:
.Lfunc_end3:
	.size	prvRegisterTest3Task, .Lfunc_end3-prvRegisterTest3Task
	.cfi_endproc
	.cantunwind
	.fnend
                                        @ -- End function
	.section	.text.prvRegisterTest4Task,"ax",%progbits
	.p2align	1                               @ -- Begin function prvRegisterTest4Task
	.type	prvRegisterTest4Task,%function
	.code	16                              @ @prvRegisterTest4Task
	.thumb_func
prvRegisterTest4Task:
.Lfunc_begin4:
	.loc	2 96 0                          @ ../../../CORTEX_MPU_M3_NUCLEO_L152RE_GCC/Demo/RegTests.c:96:0
	.fnstart
	.cfi_startproc
@ %bb.0:
	.save	{r7, lr}
	push	{r7, lr}
	.cfi_def_cfa_offset 8
	.cfi_offset lr, -4
	.cfi_offset r7, -8
	.pad	#8
	sub	sp, #8
	.cfi_def_cfa_offset 16
	str	r0, [sp, #4]
.Ltmp34:
	.loc	2 99 2 prologue_end             @ ../../../CORTEX_MPU_M3_NUCLEO_L152RE_GCC/Demo/RegTests.c:99:2
	b	.LBB4_1
.LBB4_1:                                @ =>This Inner Loop Header: Depth=1
.Ltmp35:
	.loc	2 101 3                         @ ../../../CORTEX_MPU_M3_NUCLEO_L152RE_GCC/Demo/RegTests.c:101:3
	bl	vRegTest4Asm
.Ltmp36:
	.loc	2 99 2                          @ ../../../CORTEX_MPU_M3_NUCLEO_L152RE_GCC/Demo/RegTests.c:99:2
	b	.LBB4_1
.Ltmp37:
.Lfunc_end4:
	.size	prvRegisterTest4Task, .Lfunc_end4-prvRegisterTest4Task
	.cfi_endproc
	.cantunwind
	.fnend
                                        @ -- End function
	.section	.text.xAreRegisterTasksStillRunning,"ax",%progbits
	.hidden	xAreRegisterTasksStillRunning   @ -- Begin function xAreRegisterTasksStillRunning
	.globl	xAreRegisterTasksStillRunning
	.p2align	1
	.type	xAreRegisterTasksStillRunning,%function
	.code	16                              @ @xAreRegisterTasksStillRunning
	.thumb_func
xAreRegisterTasksStillRunning:
.Lfunc_begin5:
	.loc	2 190 0                         @ ../../../CORTEX_MPU_M3_NUCLEO_L152RE_GCC/Demo/RegTests.c:190:0
	.fnstart
	.cfi_startproc
@ %bb.0:
	.loc	2 196 6 prologue_end            @ ../../../CORTEX_MPU_M3_NUCLEO_L152RE_GCC/Demo/RegTests.c:196:6
	movw	r0, :lower16:xAreRegisterTasksStillRunning.ulLastRegisterTest1Counter
	movt	r0, :upper16:xAreRegisterTasksStillRunning.ulLastRegisterTest1Counter
	ldr	r0, [r0]
	.loc	2 196 36 is_stmt 0              @ ../../../CORTEX_MPU_M3_NUCLEO_L152RE_GCC/Demo/RegTests.c:196:36
	movw	r1, :lower16:ulRegisterTest1Counter
	movt	r1, :upper16:ulRegisterTest1Counter
	ldr	r1, [r1]
.Ltmp38:
	.loc	2 196 6                         @ ../../../CORTEX_MPU_M3_NUCLEO_L152RE_GCC/Demo/RegTests.c:196:6
	cmp	r0, r1
	bne	.LBB5_2
	b	.LBB5_1
.LBB5_1:
.Ltmp39:
	.loc	2 198 18 is_stmt 1              @ ../../../CORTEX_MPU_M3_NUCLEO_L152RE_GCC/Demo/RegTests.c:198:18
	movw	r1, :lower16:xErrorDetected
	movt	r1, :upper16:xErrorDetected
	movs	r0, #1
	str	r0, [r1]
	.loc	2 199 2                         @ ../../../CORTEX_MPU_M3_NUCLEO_L152RE_GCC/Demo/RegTests.c:199:2
	b	.LBB5_2
.Ltmp40:
.LBB5_2:
	.loc	2 201 6                         @ ../../../CORTEX_MPU_M3_NUCLEO_L152RE_GCC/Demo/RegTests.c:201:6
	movw	r0, :lower16:xAreRegisterTasksStillRunning.ulLastRegisterTest2Counter
	movt	r0, :upper16:xAreRegisterTasksStillRunning.ulLastRegisterTest2Counter
	ldr	r0, [r0]
	.loc	2 201 36 is_stmt 0              @ ../../../CORTEX_MPU_M3_NUCLEO_L152RE_GCC/Demo/RegTests.c:201:36
	movw	r1, :lower16:ulRegisterTest2Counter
	movt	r1, :upper16:ulRegisterTest2Counter
	ldr	r1, [r1]
.Ltmp41:
	.loc	2 201 6                         @ ../../../CORTEX_MPU_M3_NUCLEO_L152RE_GCC/Demo/RegTests.c:201:6
	cmp	r0, r1
	bne	.LBB5_4
	b	.LBB5_3
.LBB5_3:
.Ltmp42:
	.loc	2 203 18 is_stmt 1              @ ../../../CORTEX_MPU_M3_NUCLEO_L152RE_GCC/Demo/RegTests.c:203:18
	movw	r1, :lower16:xErrorDetected
	movt	r1, :upper16:xErrorDetected
	movs	r0, #1
	str	r0, [r1]
	.loc	2 204 2                         @ ../../../CORTEX_MPU_M3_NUCLEO_L152RE_GCC/Demo/RegTests.c:204:2
	b	.LBB5_4
.Ltmp43:
.LBB5_4:
	.loc	2 206 6                         @ ../../../CORTEX_MPU_M3_NUCLEO_L152RE_GCC/Demo/RegTests.c:206:6
	movw	r0, :lower16:xAreRegisterTasksStillRunning.ulLastRegisterTest3Counter
	movt	r0, :upper16:xAreRegisterTasksStillRunning.ulLastRegisterTest3Counter
	ldr	r0, [r0]
	.loc	2 206 36 is_stmt 0              @ ../../../CORTEX_MPU_M3_NUCLEO_L152RE_GCC/Demo/RegTests.c:206:36
	movw	r1, :lower16:ulRegisterTest3Counter
	movt	r1, :upper16:ulRegisterTest3Counter
	ldr	r1, [r1]
.Ltmp44:
	.loc	2 206 6                         @ ../../../CORTEX_MPU_M3_NUCLEO_L152RE_GCC/Demo/RegTests.c:206:6
	cmp	r0, r1
	bne	.LBB5_6
	b	.LBB5_5
.LBB5_5:
.Ltmp45:
	.loc	2 208 18 is_stmt 1              @ ../../../CORTEX_MPU_M3_NUCLEO_L152RE_GCC/Demo/RegTests.c:208:18
	movw	r1, :lower16:xErrorDetected
	movt	r1, :upper16:xErrorDetected
	movs	r0, #1
	str	r0, [r1]
	.loc	2 209 2                         @ ../../../CORTEX_MPU_M3_NUCLEO_L152RE_GCC/Demo/RegTests.c:209:2
	b	.LBB5_6
.Ltmp46:
.LBB5_6:
	.loc	2 211 6                         @ ../../../CORTEX_MPU_M3_NUCLEO_L152RE_GCC/Demo/RegTests.c:211:6
	movw	r0, :lower16:xAreRegisterTasksStillRunning.ulLastRegisterTest4Counter
	movt	r0, :upper16:xAreRegisterTasksStillRunning.ulLastRegisterTest4Counter
	ldr	r0, [r0]
	.loc	2 211 36 is_stmt 0              @ ../../../CORTEX_MPU_M3_NUCLEO_L152RE_GCC/Demo/RegTests.c:211:36
	movw	r1, :lower16:ulRegisterTest4Counter
	movt	r1, :upper16:ulRegisterTest4Counter
	ldr	r1, [r1]
.Ltmp47:
	.loc	2 211 6                         @ ../../../CORTEX_MPU_M3_NUCLEO_L152RE_GCC/Demo/RegTests.c:211:6
	cmp	r0, r1
	bne	.LBB5_8
	b	.LBB5_7
.LBB5_7:
.Ltmp48:
	.loc	2 213 18 is_stmt 1              @ ../../../CORTEX_MPU_M3_NUCLEO_L152RE_GCC/Demo/RegTests.c:213:18
	movw	r1, :lower16:xErrorDetected
	movt	r1, :upper16:xErrorDetected
	movs	r0, #1
	str	r0, [r1]
	.loc	2 214 2                         @ ../../../CORTEX_MPU_M3_NUCLEO_L152RE_GCC/Demo/RegTests.c:214:2
	b	.LBB5_8
.Ltmp49:
.LBB5_8:
	.loc	2 216 31                        @ ../../../CORTEX_MPU_M3_NUCLEO_L152RE_GCC/Demo/RegTests.c:216:31
	movw	r0, :lower16:ulRegisterTest1Counter
	movt	r0, :upper16:ulRegisterTest1Counter
	ldr	r0, [r0]
	.loc	2 216 29 is_stmt 0              @ ../../../CORTEX_MPU_M3_NUCLEO_L152RE_GCC/Demo/RegTests.c:216:29
	movw	r1, :lower16:xAreRegisterTasksStillRunning.ulLastRegisterTest1Counter
	movt	r1, :upper16:xAreRegisterTasksStillRunning.ulLastRegisterTest1Counter
	str	r0, [r1]
	.loc	2 217 31 is_stmt 1              @ ../../../CORTEX_MPU_M3_NUCLEO_L152RE_GCC/Demo/RegTests.c:217:31
	movw	r0, :lower16:ulRegisterTest2Counter
	movt	r0, :upper16:ulRegisterTest2Counter
	ldr	r0, [r0]
	.loc	2 217 29 is_stmt 0              @ ../../../CORTEX_MPU_M3_NUCLEO_L152RE_GCC/Demo/RegTests.c:217:29
	movw	r1, :lower16:xAreRegisterTasksStillRunning.ulLastRegisterTest2Counter
	movt	r1, :upper16:xAreRegisterTasksStillRunning.ulLastRegisterTest2Counter
	str	r0, [r1]
	.loc	2 218 31 is_stmt 1              @ ../../../CORTEX_MPU_M3_NUCLEO_L152RE_GCC/Demo/RegTests.c:218:31
	movw	r0, :lower16:ulRegisterTest3Counter
	movt	r0, :upper16:ulRegisterTest3Counter
	ldr	r0, [r0]
	.loc	2 218 29 is_stmt 0              @ ../../../CORTEX_MPU_M3_NUCLEO_L152RE_GCC/Demo/RegTests.c:218:29
	movw	r1, :lower16:xAreRegisterTasksStillRunning.ulLastRegisterTest3Counter
	movt	r1, :upper16:xAreRegisterTasksStillRunning.ulLastRegisterTest3Counter
	str	r0, [r1]
	.loc	2 219 31 is_stmt 1              @ ../../../CORTEX_MPU_M3_NUCLEO_L152RE_GCC/Demo/RegTests.c:219:31
	movw	r0, :lower16:ulRegisterTest4Counter
	movt	r0, :upper16:ulRegisterTest4Counter
	ldr	r0, [r0]
	.loc	2 219 29 is_stmt 0              @ ../../../CORTEX_MPU_M3_NUCLEO_L152RE_GCC/Demo/RegTests.c:219:29
	movw	r1, :lower16:xAreRegisterTasksStillRunning.ulLastRegisterTest4Counter
	movt	r1, :upper16:xAreRegisterTasksStillRunning.ulLastRegisterTest4Counter
	str	r0, [r1]
	.loc	2 223 25 is_stmt 1              @ ../../../CORTEX_MPU_M3_NUCLEO_L152RE_GCC/Demo/RegTests.c:223:25
	movw	r0, :lower16:xErrorDetected
	movt	r0, :upper16:xErrorDetected
	ldr	r0, [r0]
	.loc	2 223 24 is_stmt 0              @ ../../../CORTEX_MPU_M3_NUCLEO_L152RE_GCC/Demo/RegTests.c:223:24
	rsbs	r1, r0, #0
	adcs	r0, r1
	.loc	2 223 2                         @ ../../../CORTEX_MPU_M3_NUCLEO_L152RE_GCC/Demo/RegTests.c:223:2
	bx	lr
.Ltmp50:
.Lfunc_end5:
	.size	xAreRegisterTasksStillRunning, .Lfunc_end5-xAreRegisterTasksStillRunning
	.cfi_endproc
	.cantunwind
	.fnend
                                        @ -- End function
	.hidden	ulRegisterTest1Counter          @ @ulRegisterTest1Counter
	.type	ulRegisterTest1Counter,%object
	.section	.bss.ulRegisterTest1Counter,"aw",%nobits
	.globl	ulRegisterTest1Counter
	.p2align	2, 0x0
ulRegisterTest1Counter:
	.long	0                               @ 0x0
	.size	ulRegisterTest1Counter, 4

	.hidden	ulRegisterTest2Counter          @ @ulRegisterTest2Counter
	.type	ulRegisterTest2Counter,%object
	.section	.bss.ulRegisterTest2Counter,"aw",%nobits
	.globl	ulRegisterTest2Counter
	.p2align	2, 0x0
ulRegisterTest2Counter:
	.long	0                               @ 0x0
	.size	ulRegisterTest2Counter, 4

	.hidden	ulRegisterTest3Counter          @ @ulRegisterTest3Counter
	.type	ulRegisterTest3Counter,%object
	.section	.bss.ulRegisterTest3Counter,"aw",%nobits
	.globl	ulRegisterTest3Counter
	.p2align	2, 0x0
ulRegisterTest3Counter:
	.long	0                               @ 0x0
	.size	ulRegisterTest3Counter, 4

	.hidden	ulRegisterTest4Counter          @ @ulRegisterTest4Counter
	.type	ulRegisterTest4Counter,%object
	.section	.bss.ulRegisterTest4Counter,"aw",%nobits
	.globl	ulRegisterTest4Counter
	.p2align	2, 0x0
ulRegisterTest4Counter:
	.long	0                               @ 0x0
	.size	ulRegisterTest4Counter, 4

	.type	vStartRegisterTasks.xRegisterTest1TaskStack,%object @ @vStartRegisterTasks.xRegisterTest1TaskStack
	.section	.bss.vStartRegisterTasks.xRegisterTest1TaskStack,"aw",%nobits
	.p2align	9, 0x0
vStartRegisterTasks.xRegisterTest1TaskStack:
	.zero	512
	.size	vStartRegisterTasks.xRegisterTest1TaskStack, 512

	.type	vStartRegisterTasks.xRegisterTest2TaskStack,%object @ @vStartRegisterTasks.xRegisterTest2TaskStack
	.section	.bss.vStartRegisterTasks.xRegisterTest2TaskStack,"aw",%nobits
	.p2align	9, 0x0
vStartRegisterTasks.xRegisterTest2TaskStack:
	.zero	512
	.size	vStartRegisterTasks.xRegisterTest2TaskStack, 512

	.type	vStartRegisterTasks.xRegisterTest3TaskStack,%object @ @vStartRegisterTasks.xRegisterTest3TaskStack
	.section	.bss.vStartRegisterTasks.xRegisterTest3TaskStack,"aw",%nobits
	.p2align	9, 0x0
vStartRegisterTasks.xRegisterTest3TaskStack:
	.zero	512
	.size	vStartRegisterTasks.xRegisterTest3TaskStack, 512

	.type	vStartRegisterTasks.xRegisterTest4TaskStack,%object @ @vStartRegisterTasks.xRegisterTest4TaskStack
	.section	.bss.vStartRegisterTasks.xRegisterTest4TaskStack,"aw",%nobits
	.p2align	9, 0x0
vStartRegisterTasks.xRegisterTest4TaskStack:
	.zero	512
	.size	vStartRegisterTasks.xRegisterTest4TaskStack, 512

	.type	.L.str,%object                  @ @.str
	.section	.rodata.str1.1,"aMS",%progbits,1
.L.str:
	.asciz	"Reg Tst 1"
	.size	.L.str, 10

	.type	.Lconstinit,%object             @ @constinit
	.section	.bss..Lconstinit,"aw",%nobits
	.p2align	2, 0x0
.Lconstinit:
	.zero	36
	.size	.Lconstinit, 36

	.type	.L.str.1,%object                @ @.str.1
	.section	.rodata.str1.1,"aMS",%progbits,1
.L.str.1:
	.asciz	"Reg Tst 2"
	.size	.L.str.1, 10

	.type	.Lconstinit.2,%object           @ @constinit.2
	.section	.bss..Lconstinit.2,"aw",%nobits
	.p2align	2, 0x0
.Lconstinit.2:
	.zero	36
	.size	.Lconstinit.2, 36

	.type	.L.str.3,%object                @ @.str.3
	.section	.rodata.str1.1,"aMS",%progbits,1
.L.str.3:
	.asciz	"Reg Tst 3"
	.size	.L.str.3, 10

	.type	.Lconstinit.4,%object           @ @constinit.4
	.section	.bss..Lconstinit.4,"aw",%nobits
	.p2align	2, 0x0
.Lconstinit.4:
	.zero	36
	.size	.Lconstinit.4, 36

	.type	.L.str.5,%object                @ @.str.5
	.section	.rodata.str1.1,"aMS",%progbits,1
.L.str.5:
	.asciz	"Reg Tst 4"
	.size	.L.str.5, 10

	.type	.Lconstinit.6,%object           @ @constinit.6
	.section	.bss..Lconstinit.6,"aw",%nobits
	.p2align	2, 0x0
.Lconstinit.6:
	.zero	36
	.size	.Lconstinit.6, 36

	.type	xAreRegisterTasksStillRunning.ulLastRegisterTest1Counter,%object @ @xAreRegisterTasksStillRunning.ulLastRegisterTest1Counter
	.section	.bss.xAreRegisterTasksStillRunning.ulLastRegisterTest1Counter,"aw",%nobits
	.p2align	2, 0x0
xAreRegisterTasksStillRunning.ulLastRegisterTest1Counter:
	.long	0                               @ 0x0
	.size	xAreRegisterTasksStillRunning.ulLastRegisterTest1Counter, 4

	.type	xAreRegisterTasksStillRunning.ulLastRegisterTest2Counter,%object @ @xAreRegisterTasksStillRunning.ulLastRegisterTest2Counter
	.section	.bss.xAreRegisterTasksStillRunning.ulLastRegisterTest2Counter,"aw",%nobits
	.p2align	2, 0x0
xAreRegisterTasksStillRunning.ulLastRegisterTest2Counter:
	.long	0                               @ 0x0
	.size	xAreRegisterTasksStillRunning.ulLastRegisterTest2Counter, 4

	.type	xAreRegisterTasksStillRunning.ulLastRegisterTest3Counter,%object @ @xAreRegisterTasksStillRunning.ulLastRegisterTest3Counter
	.section	.bss.xAreRegisterTasksStillRunning.ulLastRegisterTest3Counter,"aw",%nobits
	.p2align	2, 0x0
xAreRegisterTasksStillRunning.ulLastRegisterTest3Counter:
	.long	0                               @ 0x0
	.size	xAreRegisterTasksStillRunning.ulLastRegisterTest3Counter, 4

	.type	xAreRegisterTasksStillRunning.ulLastRegisterTest4Counter,%object @ @xAreRegisterTasksStillRunning.ulLastRegisterTest4Counter
	.section	.bss.xAreRegisterTasksStillRunning.ulLastRegisterTest4Counter,"aw",%nobits
	.p2align	2, 0x0
xAreRegisterTasksStillRunning.ulLastRegisterTest4Counter:
	.long	0                               @ 0x0
	.size	xAreRegisterTasksStillRunning.ulLastRegisterTest4Counter, 4

	.type	xErrorDetected,%object          @ @xErrorDetected
	.section	.bss.xErrorDetected,"aw",%nobits
	.p2align	2, 0x0
xErrorDetected:
	.long	0                               @ 0x0
	.size	xErrorDetected, 4

	.file	4 "C:\\Users\\karahulx\\Downloads\\Kernel\\FreeRTOS\\FreeRTOS\\Demo\\CORTEX_MPU_M23_Nuvoton_NuMaker_PFM_M2351_IAR_GCC\\Projects_NTZ\\Keil" "../../../../Source/include/projdefs.h"
	.file	5 "C:\\Users\\karahulx\\Downloads\\Kernel\\FreeRTOS\\FreeRTOS\\Demo\\CORTEX_MPU_M23_Nuvoton_NuMaker_PFM_M2351_IAR_GCC\\Projects_NTZ\\Keil" "../../../../Source/include\\task.h"
	.file	6 "C:\\Users\\karahulx\\Downloads\\Kernel\\FreeRTOS\\FreeRTOS\\Demo\\CORTEX_MPU_M23_Nuvoton_NuMaker_PFM_M2351_IAR_GCC\\Projects_NTZ\\Keil" "../../../../Source/include\\FreeRTOS.h"
	.section	".note.GNU-stack","",%progbits
	.eabi_attribute	30, 6	@ Tag_ABI_optimization_goals
	.ARM_attribute	16, 1	@ Tag_AV_eba