	.text
	.syntax unified
	.eabi_attribute	67, "2.09"	@ Tag_conformance
	.eabi_attribute	6, 16	@ Tag_CPU_arch
	.eabi_attribute	7, 77	@ Tag_CPU_arch_profile
	.eabi_attribute	8, 0	@ Tag_ARM_ISA_use
	.eabi_attribute	9, 3	@ Tag_THUMB_ISA_use
	.eabi_attribute	34, 0	@ Tag_CPU_unaligned_access
	.eabi_attribute	17, 1	@ Tag_ABI_PCS_GOT_use
	.eabi_attribute	20, 2	@ Tag_ABI_FP_denormal
	.eabi_attribute	21, 0	@ Tag_ABI_FP_exceptions
	.eabi_attribute	23, 1	@ Tag_ABI_FP_number_model
	.eabi_attribute	24, 1	@ Tag_ABI_align_needed
	.eabi_attribute	25, 1	@ Tag_ABI_align_preserved
	.eabi_attribute	38, 1	@ Tag_ABI_FP_16bit_format
	.eabi_attribute	18, 4	@ Tag_ABI_PCS_wchar_t
	.eabi_attribute	26, 2	@ Tag_ABI_enum_size
	.eabi_attribute	14, 0	@ Tag_ABI_PCS_R9_use
	.file	"semtest.c"
	.file	1 "C:\\Keil_v5\\ARM\\ARMCLANG\\Bin\\..\\include" "stdint.h"
	.file	2 "C:\\Users\\karahulx\\Downloads\\Kernel\\FreeRTOS\\FreeRTOS\\Demo\\CORTEX_MPU_M23_Nuvoton_NuMaker_PFM_M2351_IAR_GCC\\Projects_NTZ\\Keil" "../../../../Source/portable/GCC/ARM_CM23_NTZ/non_secure/portmacrocommon.h"
	.file	3 "C:\\Users\\karahulx\\Downloads\\Kernel\\FreeRTOS\\FreeRTOS\\Demo\\CORTEX_MPU_M23_Nuvoton_NuMaker_PFM_M2351_IAR_GCC\\Projects_NTZ\\Keil" "../../../CORTEX_MPU_M3_NUCLEO_L152RE_GCC/Demo/semtest.c"
	.file	4 "C:\\Users\\karahulx\\Downloads\\Kernel\\FreeRTOS\\FreeRTOS\\Demo\\CORTEX_MPU_M23_Nuvoton_NuMaker_PFM_M2351_IAR_GCC\\Projects_NTZ\\Keil" "../../../../Source/include/queue.h"
	.file	5 "C:\\Users\\karahulx\\Downloads\\Kernel\\FreeRTOS\\FreeRTOS\\Demo\\CORTEX_MPU_M23_Nuvoton_NuMaker_PFM_M2351_IAR_GCC\\Projects_NTZ\\Keil" "../../../../Source/include\\semphr.h"
	.section	.text.vStartSemaphoreTasks,"ax",%progbits
	.hidden	vStartSemaphoreTasks            @ -- Begin function vStartSemaphoreTasks
	.globl	vStartSemaphoreTasks
	.p2align	1
	.type	vStartSemaphoreTasks,%function
	.code	16                              @ @vStartSemaphoreTasks
	.thumb_func
vStartSemaphoreTasks:
.Lfunc_begin0:
	.loc	3 103 0                         @ ../../../CORTEX_MPU_M3_NUCLEO_L152RE_GCC/Demo/semtest.c:103:0
	.fnstart
	.cfi_sections .debug_frame
	.cfi_startproc
@ %bb.0:
	.save	{r4, r5, r6, r7, lr}
	push	{r4, r5, r6, r7, lr}
	.cfi_def_cfa_offset 20
	.cfi_offset lr, -4
	.cfi_offset r7, -8
	.cfi_offset r6, -12
	.cfi_offset r5, -16
	.cfi_offset r4, -20
	.pad	#292
	sub	sp, #292
	.cfi_def_cfa_offset 312
	str	r0, [sp, #288]
	movs	r0, #100
.Ltmp0:
	.loc	3 105 22 prologue_end           @ ../../../CORTEX_MPU_M3_NUCLEO_L152RE_GCC/Demo/semtest.c:105:22
	str	r0, [sp, #276]
	.loc	3 108 48                        @ ../../../CORTEX_MPU_M3_NUCLEO_L152RE_GCC/Demo/semtest.c:108:48
	movw	r1, :lower16:sTaskCheckVariables
	movt	r1, :upper16:sTaskCheckVariables
	movs	r0, #1
	strh	r0, [r1]
	.loc	3 111 32                        @ ../../../CORTEX_MPU_M3_NUCLEO_L152RE_GCC/Demo/semtest.c:111:32
	movw	r0, :lower16:xSemaphoreParameters1
	movt	r0, :upper16:xSemaphoreParameters1
	str	r0, [sp, #284]
.Ltmp1:
	.loc	3 118 9                         @ ../../../CORTEX_MPU_M3_NUCLEO_L152RE_GCC/Demo/semtest.c:118:9
	ldr	r0, [sp, #284]
.Ltmp2:
	.loc	3 118 9 is_stmt 0               @ ../../../CORTEX_MPU_M3_NUCLEO_L152RE_GCC/Demo/semtest.c:118:9
	cmp	r0, #0
	beq	.LBB0_4
	b	.LBB0_1
.LBB0_1:
	.loc	3 0 9                           @ ../../../CORTEX_MPU_M3_NUCLEO_L152RE_GCC/Demo/semtest.c:0:9
	movs	r0, #1
	movs	r1, #0
	movs	r2, #3
.Ltmp3:
	.loc	3 121 50 is_stmt 1              @ ../../../CORTEX_MPU_M3_NUCLEO_L152RE_GCC/Demo/semtest.c:121:50
	bl	MPU_xQueueGenericCreate
	.loc	3 121 9 is_stmt 0               @ ../../../CORTEX_MPU_M3_NUCLEO_L152RE_GCC/Demo/semtest.c:121:9
	ldr	r1, [sp, #284]
	.loc	3 121 48                        @ ../../../CORTEX_MPU_M3_NUCLEO_L152RE_GCC/Demo/semtest.c:121:48
	str	r0, [r1]
.Ltmp4:
	.loc	3 123 13 is_stmt 1              @ ../../../CORTEX_MPU_M3_NUCLEO_L152RE_GCC/Demo/semtest.c:123:13
	ldr	r0, [sp, #284]
	.loc	3 123 41 is_stmt 0              @ ../../../CORTEX_MPU_M3_NUCLEO_L152RE_GCC/Demo/semtest.c:123:41
	ldr	r0, [r0]
.Ltmp5:
	.loc	3 123 13                        @ ../../../CORTEX_MPU_M3_NUCLEO_L152RE_GCC/Demo/semtest.c:123:13
	cmp	r0, #0
	beq	.LBB0_3
	b	.LBB0_2
.LBB0_2:
.Ltmp6:
	.loc	3 125 13 is_stmt 1              @ ../../../CORTEX_MPU_M3_NUCLEO_L152RE_GCC/Demo/semtest.c:125:13
	ldr	r0, [sp, #284]
	ldr	r0, [r0]
	movs	r3, #0
	str	r3, [sp, #12]                   @ 4-byte Spill
	mov	r1, r3
	mov	r2, r3
	bl	MPU_xQueueGenericSend
	ldr	r1, [sp, #12]                   @ 4-byte Reload
	.loc	3 128 13                        @ ../../../CORTEX_MPU_M3_NUCLEO_L152RE_GCC/Demo/semtest.c:128:13
	ldr	r2, [sp, #284]
	.loc	3 128 59 is_stmt 0              @ ../../../CORTEX_MPU_M3_NUCLEO_L152RE_GCC/Demo/semtest.c:128:59
	movw	r0, :lower16:sSharedVariable
	movt	r0, :upper16:sSharedVariable
	str	r0, [r2, #4]
	.loc	3 131 16 is_stmt 1              @ ../../../CORTEX_MPU_M3_NUCLEO_L152RE_GCC/Demo/semtest.c:131:16
	ldr	r0, [sp, #284]
	.loc	3 131 44 is_stmt 0              @ ../../../CORTEX_MPU_M3_NUCLEO_L152RE_GCC/Demo/semtest.c:131:44
	ldr	r2, [r0, #4]
	movs	r0, #255
	.loc	3 131 64                        @ ../../../CORTEX_MPU_M3_NUCLEO_L152RE_GCC/Demo/semtest.c:131:64
	str	r0, [r2]
	.loc	3 134 13 is_stmt 1              @ ../../../CORTEX_MPU_M3_NUCLEO_L152RE_GCC/Demo/semtest.c:134:13
	ldr	r0, [sp, #284]
	.loc	3 134 52 is_stmt 0              @ ../../../CORTEX_MPU_M3_NUCLEO_L152RE_GCC/Demo/semtest.c:134:52
	str	r1, [r0, #8]
	.loc	3 138 13 is_stmt 1              @ ../../../CORTEX_MPU_M3_NUCLEO_L152RE_GCC/Demo/semtest.c:138:13
	movw	r2, :lower16:prvSemaphoreTest
	movt	r2, :upper16:prvSemaphoreTest
	str	r2, [sp, #212]
	movw	r0, :lower16:.L.str
	movt	r0, :upper16:.L.str
	str	r0, [sp, #216]
	add	r0, sp, #212
	movs	r3, #128
	strh	r3, [r0, #8]
	.loc	3 142 46                        @ ../../../CORTEX_MPU_M3_NUCLEO_L152RE_GCC/Demo/semtest.c:142:46
	ldr	r4, [sp, #284]
	.loc	3 138 13                        @ ../../../CORTEX_MPU_M3_NUCLEO_L152RE_GCC/Demo/semtest.c:138:13
	str	r4, [sp, #224]
	str	r1, [sp, #228]
	movw	r1, :lower16:vStartSemaphoreTasks.xSemesterTest1Stack
	movt	r1, :upper16:vStartSemaphoreTasks.xSemesterTest1Stack
	str	r1, [sp, #232]
	mov	r4, r0
	adds	r4, #24
	.loc	3 146 17                        @ ../../../CORTEX_MPU_M3_NUCLEO_L152RE_GCC/Demo/semtest.c:146:17
	movw	r5, :lower16:.Lconstinit
	movt	r5, :upper16:.Lconstinit
	ldm	r5!, {r1, r6, r7}
	stm	r4!, {r1, r6, r7}
	ldm	r5!, {r1, r6, r7}
	stm	r4!, {r1, r6, r7}
	ldm	r5!, {r1, r6, r7}
	stm	r4!, {r1, r6, r7}
	.loc	3 138 13                        @ ../../../CORTEX_MPU_M3_NUCLEO_L152RE_GCC/Demo/semtest.c:138:13
	ldr	r1, [sp, #12]                   @ 4-byte Reload
	str	r1, [sp, #272]
	.loc	3 156 13                        @ ../../../CORTEX_MPU_M3_NUCLEO_L152RE_GCC/Demo/semtest.c:156:13
	str	r2, [sp, #148]
	movw	r2, :lower16:.L.str.1
	movt	r2, :upper16:.L.str.1
	str	r2, [sp, #152]
	add	r2, sp, #148
	str	r2, [sp, #16]                   @ 4-byte Spill
	strh	r3, [r2, #8]
	.loc	3 160 46                        @ ../../../CORTEX_MPU_M3_NUCLEO_L152RE_GCC/Demo/semtest.c:160:46
	ldr	r3, [sp, #284]
	.loc	3 156 13                        @ ../../../CORTEX_MPU_M3_NUCLEO_L152RE_GCC/Demo/semtest.c:156:13
	str	r3, [sp, #160]
	str	r1, [sp, #164]
	movw	r3, :lower16:vStartSemaphoreTasks.xSemesterTest2Stack
	movt	r3, :upper16:vStartSemaphoreTasks.xSemesterTest2Stack
	str	r3, [sp, #168]
	adds	r2, #24
	.loc	3 164 17                        @ ../../../CORTEX_MPU_M3_NUCLEO_L152RE_GCC/Demo/semtest.c:164:17
	movw	r3, :lower16:.Lconstinit.2
	movt	r3, :upper16:.Lconstinit.2
	ldm	r3!, {r4, r5, r6}
	stm	r2!, {r4, r5, r6}
	ldm	r3!, {r4, r5, r6}
	stm	r2!, {r4, r5, r6}
	ldm	r3!, {r4, r5, r6}
	stm	r2!, {r4, r5, r6}
	.loc	3 156 13                        @ ../../../CORTEX_MPU_M3_NUCLEO_L152RE_GCC/Demo/semtest.c:156:13
	str	r1, [sp, #208]
	.loc	3 174 13                        @ ../../../CORTEX_MPU_M3_NUCLEO_L152RE_GCC/Demo/semtest.c:174:13
	bl	xTaskCreateRestricted
	ldr	r1, [sp, #12]                   @ 4-byte Reload
                                        @ kill: def $r2 killed $r0
	.loc	3 175 13                        @ ../../../CORTEX_MPU_M3_NUCLEO_L152RE_GCC/Demo/semtest.c:175:13
	ldr	r0, [sp, #16]                   @ 4-byte Reload
	bl	xTaskCreateRestricted
	.loc	3 184 9                         @ ../../../CORTEX_MPU_M3_NUCLEO_L152RE_GCC/Demo/semtest.c:184:9
	b	.LBB0_3
.Ltmp7:
.LBB0_3:
	.loc	3 185 5                         @ ../../../CORTEX_MPU_M3_NUCLEO_L152RE_GCC/Demo/semtest.c:185:5
	b	.LBB0_4
.Ltmp8:
.LBB0_4:
	.loc	3 189 33                        @ ../../../CORTEX_MPU_M3_NUCLEO_L152RE_GCC/Demo/semtest.c:189:33
	movw	r0, :lower16:xSemaphoreParameters2
	movt	r0, :upper16:xSemaphoreParameters2
	str	r0, [sp, #280]
.Ltmp9:
	.loc	3 191 9                         @ ../../../CORTEX_MPU_M3_NUCLEO_L152RE_GCC/Demo/semtest.c:191:9
	ldr	r0, [sp, #280]
.Ltmp10:
	.loc	3 191 9 is_stmt 0               @ ../../../CORTEX_MPU_M3_NUCLEO_L152RE_GCC/Demo/semtest.c:191:9
	cmp	r0, #0
	beq	.LBB0_8
	b	.LBB0_5
.LBB0_5:
	.loc	3 0 9                           @ ../../../CORTEX_MPU_M3_NUCLEO_L152RE_GCC/Demo/semtest.c:0:9
	movs	r0, #1
	movs	r1, #0
	movs	r2, #3
.Ltmp11:
	.loc	3 193 51 is_stmt 1              @ ../../../CORTEX_MPU_M3_NUCLEO_L152RE_GCC/Demo/semtest.c:193:51
	bl	MPU_xQueueGenericCreate
	.loc	3 193 9 is_stmt 0               @ ../../../CORTEX_MPU_M3_NUCLEO_L152RE_GCC/Demo/semtest.c:193:9
	ldr	r1, [sp, #280]
	.loc	3 193 49                        @ ../../../CORTEX_MPU_M3_NUCLEO_L152RE_GCC/Demo/semtest.c:193:49
	str	r0, [r1]
.Ltmp12:
	.loc	3 195 13 is_stmt 1              @ ../../../CORTEX_MPU_M3_NUCLEO_L152RE_GCC/Demo/semtest.c:195:13
	ldr	r0, [sp, #280]
	.loc	3 195 42 is_stmt 0              @ ../../../CORTEX_MPU_M3_NUCLEO_L152RE_GCC/Demo/semtest.c:195:42
	ldr	r0, [r0]
.Ltmp13:
	.loc	3 195 13                        @ ../../../CORTEX_MPU_M3_NUCLEO_L152RE_GCC/Demo/semtest.c:195:13
	cmp	r0, #0
	beq	.LBB0_7
	b	.LBB0_6
.LBB0_6:
.Ltmp14:
	.loc	3 197 13 is_stmt 1              @ ../../../CORTEX_MPU_M3_NUCLEO_L152RE_GCC/Demo/semtest.c:197:13
	ldr	r0, [sp, #280]
	ldr	r0, [r0]
	movs	r3, #0
	str	r3, [sp, #4]                    @ 4-byte Spill
	mov	r1, r3
	mov	r2, r3
	bl	MPU_xQueueGenericSend
	ldr	r1, [sp, #4]                    @ 4-byte Reload
	.loc	3 199 13                        @ ../../../CORTEX_MPU_M3_NUCLEO_L152RE_GCC/Demo/semtest.c:199:13
	ldr	r2, [sp, #280]
	.loc	3 199 60 is_stmt 0              @ ../../../CORTEX_MPU_M3_NUCLEO_L152RE_GCC/Demo/semtest.c:199:60
	movw	r0, :lower16:sSharedVariable
	movt	r0, :upper16:sSharedVariable
	adds	r0, r0, #4
	str	r0, [r2, #4]
	.loc	3 200 16 is_stmt 1              @ ../../../CORTEX_MPU_M3_NUCLEO_L152RE_GCC/Demo/semtest.c:200:16
	ldr	r0, [sp, #280]
	.loc	3 200 45 is_stmt 0              @ ../../../CORTEX_MPU_M3_NUCLEO_L152RE_GCC/Demo/semtest.c:200:45
	ldr	r2, [r0, #4]
	movw	r0, #4095
	.loc	3 200 65                        @ ../../../CORTEX_MPU_M3_NUCLEO_L152RE_GCC/Demo/semtest.c:200:65
	str	r0, [r2]
	.loc	3 201 13 is_stmt 1              @ ../../../CORTEX_MPU_M3_NUCLEO_L152RE_GCC/Demo/semtest.c:201:13
	ldr	r2, [sp, #280]
	movs	r0, #10
	.loc	3 201 53 is_stmt 0              @ ../../../CORTEX_MPU_M3_NUCLEO_L152RE_GCC/Demo/semtest.c:201:53
	str	r0, [r2, #8]
	.loc	3 204 13 is_stmt 1              @ ../../../CORTEX_MPU_M3_NUCLEO_L152RE_GCC/Demo/semtest.c:204:13
	movw	r2, :lower16:prvSemaphoreTest
	movt	r2, :upper16:prvSemaphoreTest
	str	r2, [sp, #84]
	movw	r0, :lower16:.L.str.3
	movt	r0, :upper16:.L.str.3
	str	r0, [sp, #88]
	add	r0, sp, #84
	movs	r3, #128
	strh	r3, [r0, #8]
	.loc	3 208 46                        @ ../../../CORTEX_MPU_M3_NUCLEO_L152RE_GCC/Demo/semtest.c:208:46
	ldr	r4, [sp, #280]
	.loc	3 204 13                        @ ../../../CORTEX_MPU_M3_NUCLEO_L152RE_GCC/Demo/semtest.c:204:13
	str	r4, [sp, #96]
	str	r1, [sp, #100]
	movw	r1, :lower16:vStartSemaphoreTasks.xSemesterTest3Stack
	movt	r1, :upper16:vStartSemaphoreTasks.xSemesterTest3Stack
	str	r1, [sp, #104]
	mov	r4, r0
	adds	r4, #24
	.loc	3 212 17                        @ ../../../CORTEX_MPU_M3_NUCLEO_L152RE_GCC/Demo/semtest.c:212:17
	movw	r5, :lower16:.Lconstinit.4
	movt	r5, :upper16:.Lconstinit.4
	ldm	r5!, {r1, r6, r7}
	stm	r4!, {r1, r6, r7}
	ldm	r5!, {r1, r6, r7}
	stm	r4!, {r1, r6, r7}
	ldm	r5!, {r1, r6, r7}
	stm	r4!, {r1, r6, r7}
	.loc	3 204 13                        @ ../../../CORTEX_MPU_M3_NUCLEO_L152RE_GCC/Demo/semtest.c:204:13
	ldr	r1, [sp, #4]                    @ 4-byte Reload
	str	r1, [sp, #144]
	.loc	3 222 13                        @ ../../../CORTEX_MPU_M3_NUCLEO_L152RE_GCC/Demo/semtest.c:222:13
	str	r2, [sp, #20]
	movw	r2, :lower16:.L.str.5
	movt	r2, :upper16:.L.str.5
	str	r2, [sp, #24]
	add	r2, sp, #20
	str	r2, [sp, #8]                    @ 4-byte Spill
	strh	r3, [r2, #8]
	.loc	3 226 46                        @ ../../../CORTEX_MPU_M3_NUCLEO_L152RE_GCC/Demo/semtest.c:226:46
	ldr	r3, [sp, #280]
	.loc	3 222 13                        @ ../../../CORTEX_MPU_M3_NUCLEO_L152RE_GCC/Demo/semtest.c:222:13
	str	r3, [sp, #32]
	str	r1, [sp, #36]
	movw	r3, :lower16:vStartSemaphoreTasks.xSemesterTest4Stack
	movt	r3, :upper16:vStartSemaphoreTasks.xSemesterTest4Stack
	str	r3, [sp, #40]
	adds	r2, #24
	.loc	3 230 17                        @ ../../../CORTEX_MPU_M3_NUCLEO_L152RE_GCC/Demo/semtest.c:230:17
	movw	r3, :lower16:.Lconstinit.6
	movt	r3, :upper16:.Lconstinit.6
	ldm	r3!, {r4, r5, r6}
	stm	r2!, {r4, r5, r6}
	ldm	r3!, {r4, r5, r6}
	stm	r2!, {r4, r5, r6}
	ldm	r3!, {r4, r5, r6}
	stm	r2!, {r4, r5, r6}
	.loc	3 222 13                        @ ../../../CORTEX_MPU_M3_NUCLEO_L152RE_GCC/Demo/semtest.c:222:13
	str	r1, [sp, #80]
	.loc	3 240 13                        @ ../../../CORTEX_MPU_M3_NUCLEO_L152RE_GCC/Demo/semtest.c:240:13
	bl	xTaskCreateRestricted
	ldr	r1, [sp, #4]                    @ 4-byte Reload
                                        @ kill: def $r2 killed $r0
	.loc	3 241 13                        @ ../../../CORTEX_MPU_M3_NUCLEO_L152RE_GCC/Demo/semtest.c:241:13
	ldr	r0, [sp, #8]                    @ 4-byte Reload
	bl	xTaskCreateRestricted
	.loc	3 250 9                         @ ../../../CORTEX_MPU_M3_NUCLEO_L152RE_GCC/Demo/semtest.c:250:9
	b	.LBB0_7
.Ltmp15:
.LBB0_7:
	.loc	3 251 5                         @ ../../../CORTEX_MPU_M3_NUCLEO_L152RE_GCC/Demo/semtest.c:251:5
	b	.LBB0_8
.Ltmp16:
.LBB0_8:
	.loc	3 252 1                         @ ../../../CORTEX_MPU_M3_NUCLEO_L152RE_GCC/Demo/semtest.c:252:1
	add	sp, #292
	pop	{r4, r5, r6, r7, pc}
.Ltmp17:
.Lfunc_end0:
	.size	vStartSemaphoreTasks, .Lfunc_end0-vStartSemaphoreTasks
	.cfi_endproc
	.cantunwind
	.fnend
                                        @ -- End function
	.section	.text.prvSemaphoreTest,"ax",%progbits
	.p2align	1                               @ -- Begin function prvSemaphoreTest
	.type	prvSemaphoreTest,%function
	.code	16                              @ @prvSemaphoreTest
	.thumb_func
prvSemaphoreTest:
.Lfunc_begin1:
	.loc	3 256 0                         @ ../../../CORTEX_MPU_M3_NUCLEO_L152RE_GCC/Demo/semtest.c:256:0
	.fnstart
	.cfi_startproc
@ %bb.0:
	.save	{r7, lr}
	push	{r7, lr}
	.cfi_def_cfa_offset 8
	.cfi_offset lr, -4
	.cfi_offset r7, -8
	.pad	#32
	sub	sp, #32
	.cfi_def_cfa_offset 40
	str	r0, [sp, #28]
	add	r1, sp, #8
	movs	r0, #0
.Ltmp18:
	.loc	3 260 11 prologue_end           @ ../../../CORTEX_MPU_M3_NUCLEO_L152RE_GCC/Demo/semtest.c:260:11
	strh	r0, [r1]
	.loc	3 264 5                         @ ../../../CORTEX_MPU_M3_NUCLEO_L152RE_GCC/Demo/semtest.c:264:5
	bl	vPortEnterCritical
	.loc	3 265 27                        @ ../../../CORTEX_MPU_M3_NUCLEO_L152RE_GCC/Demo/semtest.c:265:27
	movw	r1, :lower16:sTaskCheckVariables
	movt	r1, :upper16:sTaskCheckVariables
	ldrh	r0, [r1]
	add	r2, sp, #4
	.loc	3 265 25 is_stmt 0              @ ../../../CORTEX_MPU_M3_NUCLEO_L152RE_GCC/Demo/semtest.c:265:25
	strh	r0, [r2]
	.loc	3 266 47 is_stmt 1              @ ../../../CORTEX_MPU_M3_NUCLEO_L152RE_GCC/Demo/semtest.c:266:47
	ldrh	r0, [r1]
	adds	r0, r0, #1
	strh	r0, [r1]
	.loc	3 267 5                         @ ../../../CORTEX_MPU_M3_NUCLEO_L152RE_GCC/Demo/semtest.c:267:5
	bl	vPortExitCritical
	.loc	3 271 47                        @ ../../../CORTEX_MPU_M3_NUCLEO_L152RE_GCC/Demo/semtest.c:271:47
	ldr	r0, [sp, #28]
	.loc	3 271 18 is_stmt 0              @ ../../../CORTEX_MPU_M3_NUCLEO_L152RE_GCC/Demo/semtest.c:271:18
	str	r0, [sp, #24]
	.loc	3 272 25 is_stmt 1              @ ../../../CORTEX_MPU_M3_NUCLEO_L152RE_GCC/Demo/semtest.c:272:25
	ldr	r0, [sp, #24]
	.loc	3 272 39 is_stmt 0              @ ../../../CORTEX_MPU_M3_NUCLEO_L152RE_GCC/Demo/semtest.c:272:39
	ldr	r0, [r0, #4]
	.loc	3 272 23                        @ ../../../CORTEX_MPU_M3_NUCLEO_L152RE_GCC/Demo/semtest.c:272:23
	str	r0, [sp, #20]
.Ltmp19:
	.loc	3 276 9 is_stmt 1               @ ../../../CORTEX_MPU_M3_NUCLEO_L152RE_GCC/Demo/semtest.c:276:9
	ldr	r0, [sp, #24]
	.loc	3 276 23 is_stmt 0              @ ../../../CORTEX_MPU_M3_NUCLEO_L152RE_GCC/Demo/semtest.c:276:23
	ldr	r0, [r0, #8]
.Ltmp20:
	.loc	3 276 9                         @ ../../../CORTEX_MPU_M3_NUCLEO_L152RE_GCC/Demo/semtest.c:276:9
	cbz	r0, .LBB1_2
	b	.LBB1_1
.LBB1_1:
	.loc	3 0 9                           @ ../../../CORTEX_MPU_M3_NUCLEO_L152RE_GCC/Demo/semtest.c:0:9
	movw	r0, #4095
.Ltmp21:
	.loc	3 278 25 is_stmt 1              @ ../../../CORTEX_MPU_M3_NUCLEO_L152RE_GCC/Demo/semtest.c:278:25
	str	r0, [sp, #16]
	.loc	3 279 5                         @ ../../../CORTEX_MPU_M3_NUCLEO_L152RE_GCC/Demo/semtest.c:279:5
	b	.LBB1_3
.Ltmp22:
.LBB1_2:
	.loc	3 0 5 is_stmt 0                 @ ../../../CORTEX_MPU_M3_NUCLEO_L152RE_GCC/Demo/semtest.c:0:5
	movs	r0, #255
.Ltmp23:
	.loc	3 282 25 is_stmt 1              @ ../../../CORTEX_MPU_M3_NUCLEO_L152RE_GCC/Demo/semtest.c:282:25
	str	r0, [sp, #16]
	b	.LBB1_3
.Ltmp24:
.LBB1_3:
	.loc	3 285 5                         @ ../../../CORTEX_MPU_M3_NUCLEO_L152RE_GCC/Demo/semtest.c:285:5
	b	.LBB1_4
.LBB1_4:                                @ =>This Loop Header: Depth=1
                                        @     Child Loop BB1_8 Depth 2
.Ltmp25:
	.loc	3 288 13                        @ ../../../CORTEX_MPU_M3_NUCLEO_L152RE_GCC/Demo/semtest.c:288:13
	ldr	r1, [sp, #24]
	ldr	r0, [r1]
	ldr	r1, [r1, #8]
	bl	MPU_xQueueSemaphoreTake
.Ltmp26:
	.loc	3 288 13 is_stmt 0              @ ../../../CORTEX_MPU_M3_NUCLEO_L152RE_GCC/Demo/semtest.c:288:13
	cmp	r0, #1
	bne	.LBB1_22
	b	.LBB1_5
.LBB1_5:                                @   in Loop: Header=BB1_4 Depth=1
.Ltmp27:
	.loc	3 293 18 is_stmt 1              @ ../../../CORTEX_MPU_M3_NUCLEO_L152RE_GCC/Demo/semtest.c:293:18
	ldr	r0, [sp, #20]
	.loc	3 293 17 is_stmt 0              @ ../../../CORTEX_MPU_M3_NUCLEO_L152RE_GCC/Demo/semtest.c:293:17
	ldr	r0, [r0]
	.loc	3 293 39                        @ ../../../CORTEX_MPU_M3_NUCLEO_L152RE_GCC/Demo/semtest.c:293:39
	ldr	r1, [sp, #16]
.Ltmp28:
	.loc	3 293 17                        @ ../../../CORTEX_MPU_M3_NUCLEO_L152RE_GCC/Demo/semtest.c:293:17
	cmp	r0, r1
	beq	.LBB1_7
	b	.LBB1_6
.LBB1_6:                                @   in Loop: Header=BB1_4 Depth=1
	.loc	3 0 17                          @ ../../../CORTEX_MPU_M3_NUCLEO_L152RE_GCC/Demo/semtest.c:0:17
	add	r1, sp, #8
	movs	r0, #1
.Ltmp29:
	.loc	3 295 24 is_stmt 1              @ ../../../CORTEX_MPU_M3_NUCLEO_L152RE_GCC/Demo/semtest.c:295:24
	strh	r0, [r1]
	.loc	3 296 13                        @ ../../../CORTEX_MPU_M3_NUCLEO_L152RE_GCC/Demo/semtest.c:296:13
	b	.LBB1_7
.Ltmp30:
.LBB1_7:                                @   in Loop: Header=BB1_4 Depth=1
	.loc	3 0 13 is_stmt 0                @ ../../../CORTEX_MPU_M3_NUCLEO_L152RE_GCC/Demo/semtest.c:0:13
	movs	r0, #0
.Ltmp31:
	.loc	3 301 28 is_stmt 1              @ ../../../CORTEX_MPU_M3_NUCLEO_L152RE_GCC/Demo/semtest.c:301:28
	str	r0, [sp, #12]
	.loc	3 301 18 is_stmt 0              @ ../../../CORTEX_MPU_M3_NUCLEO_L152RE_GCC/Demo/semtest.c:301:18
	b	.LBB1_8
.LBB1_8:                                @   Parent Loop BB1_4 Depth=1
                                        @ =>  This Inner Loop Header: Depth=2
.Ltmp32:
	.loc	3 301 46                        @ ../../../CORTEX_MPU_M3_NUCLEO_L152RE_GCC/Demo/semtest.c:301:46
	ldr	r0, [sp, #12]
	.loc	3 301 59                        @ ../../../CORTEX_MPU_M3_NUCLEO_L152RE_GCC/Demo/semtest.c:301:59
	ldr	r1, [sp, #16]
.Ltmp33:
	.loc	3 301 13                        @ ../../../CORTEX_MPU_M3_NUCLEO_L152RE_GCC/Demo/semtest.c:301:13
	cmp	r0, r1
	bhi	.LBB1_13
	b	.LBB1_9
.LBB1_9:                                @   in Loop: Header=BB1_8 Depth=2
.Ltmp34:
	.loc	3 303 38 is_stmt 1              @ ../../../CORTEX_MPU_M3_NUCLEO_L152RE_GCC/Demo/semtest.c:303:38
	ldr	r0, [sp, #12]
	.loc	3 303 18 is_stmt 0              @ ../../../CORTEX_MPU_M3_NUCLEO_L152RE_GCC/Demo/semtest.c:303:18
	ldr	r1, [sp, #20]
	.loc	3 303 36                        @ ../../../CORTEX_MPU_M3_NUCLEO_L152RE_GCC/Demo/semtest.c:303:36
	str	r0, [r1]
.Ltmp35:
	.loc	3 305 22 is_stmt 1              @ ../../../CORTEX_MPU_M3_NUCLEO_L152RE_GCC/Demo/semtest.c:305:22
	ldr	r0, [sp, #20]
	.loc	3 305 21 is_stmt 0              @ ../../../CORTEX_MPU_M3_NUCLEO_L152RE_GCC/Demo/semtest.c:305:21
	ldr	r0, [r0]
	.loc	3 305 43                        @ ../../../CORTEX_MPU_M3_NUCLEO_L152RE_GCC/Demo/semtest.c:305:43
	ldr	r1, [sp, #12]
.Ltmp36:
	.loc	3 305 21                        @ ../../../CORTEX_MPU_M3_NUCLEO_L152RE_GCC/Demo/semtest.c:305:21
	cmp	r0, r1
	beq	.LBB1_11
	b	.LBB1_10
.LBB1_10:                               @   in Loop: Header=BB1_8 Depth=2
	.loc	3 0 21                          @ ../../../CORTEX_MPU_M3_NUCLEO_L152RE_GCC/Demo/semtest.c:0:21
	add	r1, sp, #8
	movs	r0, #1
.Ltmp37:
	.loc	3 307 28 is_stmt 1              @ ../../../CORTEX_MPU_M3_NUCLEO_L152RE_GCC/Demo/semtest.c:307:28
	strh	r0, [r1]
	.loc	3 308 17                        @ ../../../CORTEX_MPU_M3_NUCLEO_L152RE_GCC/Demo/semtest.c:308:17
	b	.LBB1_11
.Ltmp38:
.LBB1_11:                               @   in Loop: Header=BB1_8 Depth=2
	.loc	3 309 13                        @ ../../../CORTEX_MPU_M3_NUCLEO_L152RE_GCC/Demo/semtest.c:309:13
	b	.LBB1_12
.Ltmp39:
.LBB1_12:                               @   in Loop: Header=BB1_8 Depth=2
	.loc	3 301 85                        @ ../../../CORTEX_MPU_M3_NUCLEO_L152RE_GCC/Demo/semtest.c:301:85
	ldr	r0, [sp, #12]
	adds	r0, r0, #1
	str	r0, [sp, #12]
	.loc	3 301 13 is_stmt 0              @ ../../../CORTEX_MPU_M3_NUCLEO_L152RE_GCC/Demo/semtest.c:301:13
	b	.LBB1_8
.Ltmp40:
.LBB1_13:                               @   in Loop: Header=BB1_4 Depth=1
	.loc	3 313 17 is_stmt 1              @ ../../../CORTEX_MPU_M3_NUCLEO_L152RE_GCC/Demo/semtest.c:313:17
	ldr	r0, [sp, #24]
	ldr	r0, [r0]
	movs	r3, #0
	mov	r1, r3
	mov	r2, r3
	bl	MPU_xQueueGenericSend
.Ltmp41:
	.loc	3 313 17 is_stmt 0              @ ../../../CORTEX_MPU_M3_NUCLEO_L152RE_GCC/Demo/semtest.c:313:17
	cbnz	r0, .LBB1_15
	b	.LBB1_14
.LBB1_14:                               @   in Loop: Header=BB1_4 Depth=1
	.loc	3 0 17                          @ ../../../CORTEX_MPU_M3_NUCLEO_L152RE_GCC/Demo/semtest.c:0:17
	add	r1, sp, #8
	movs	r0, #1
.Ltmp42:
	.loc	3 315 24 is_stmt 1              @ ../../../CORTEX_MPU_M3_NUCLEO_L152RE_GCC/Demo/semtest.c:315:24
	strh	r0, [r1]
	.loc	3 316 13                        @ ../../../CORTEX_MPU_M3_NUCLEO_L152RE_GCC/Demo/semtest.c:316:13
	b	.LBB1_15
.Ltmp43:
.LBB1_15:                               @   in Loop: Header=BB1_4 Depth=1
	.loc	3 318 17                        @ ../../../CORTEX_MPU_M3_NUCLEO_L152RE_GCC/Demo/semtest.c:318:17
	movs	r1, #0
	add	r0, sp, #8
	ldrsh	r0, [r0, r1]
.Ltmp44:
	.loc	3 318 17 is_stmt 0              @ ../../../CORTEX_MPU_M3_NUCLEO_L152RE_GCC/Demo/semtest.c:318:17
	cbnz	r0, .LBB1_19
	b	.LBB1_16
.LBB1_16:                               @   in Loop: Header=BB1_4 Depth=1
.Ltmp45:
	.loc	3 320 21 is_stmt 1              @ ../../../CORTEX_MPU_M3_NUCLEO_L152RE_GCC/Demo/semtest.c:320:21
	movs	r1, #0
	add	r0, sp, #4
	ldrsh	r0, [r0, r1]
.Ltmp46:
	.loc	3 320 21 is_stmt 0              @ ../../../CORTEX_MPU_M3_NUCLEO_L152RE_GCC/Demo/semtest.c:320:21
	cmp	r0, #4
	bgt	.LBB1_18
	b	.LBB1_17
.LBB1_17:                               @   in Loop: Header=BB1_4 Depth=1
.Ltmp47:
	.loc	3 322 44 is_stmt 1              @ ../../../CORTEX_MPU_M3_NUCLEO_L152RE_GCC/Demo/semtest.c:322:44
	movs	r1, #0
	add	r0, sp, #4
	ldrsh	r0, [r0, r1]
	.loc	3 322 23 is_stmt 0              @ ../../../CORTEX_MPU_M3_NUCLEO_L152RE_GCC/Demo/semtest.c:322:23
	lsls	r2, r0, #1
	movw	r1, :lower16:sTaskCheckVariables
	movt	r1, :upper16:sTaskCheckVariables
	.loc	3 322 67                        @ ../../../CORTEX_MPU_M3_NUCLEO_L152RE_GCC/Demo/semtest.c:322:67
	ldrh	r0, [r1, r2]
	adds	r0, r0, #1
	strh	r0, [r1, r2]
	.loc	3 323 17 is_stmt 1              @ ../../../CORTEX_MPU_M3_NUCLEO_L152RE_GCC/Demo/semtest.c:323:17
	b	.LBB1_18
.Ltmp48:
.LBB1_18:                               @   in Loop: Header=BB1_4 Depth=1
	.loc	3 324 13                        @ ../../../CORTEX_MPU_M3_NUCLEO_L152RE_GCC/Demo/semtest.c:324:13
	b	.LBB1_19
.Ltmp49:
.LBB1_19:                               @   in Loop: Header=BB1_4 Depth=1
	.loc	3 331 17                        @ ../../../CORTEX_MPU_M3_NUCLEO_L152RE_GCC/Demo/semtest.c:331:17
	ldr	r0, [sp, #24]
	.loc	3 331 31 is_stmt 0              @ ../../../CORTEX_MPU_M3_NUCLEO_L152RE_GCC/Demo/semtest.c:331:31
	ldr	r0, [r0, #8]
.Ltmp50:
	.loc	3 331 17                        @ ../../../CORTEX_MPU_M3_NUCLEO_L152RE_GCC/Demo/semtest.c:331:17
	cbz	r0, .LBB1_21
	b	.LBB1_20
.LBB1_20:                               @   in Loop: Header=BB1_4 Depth=1
.Ltmp51:
	.loc	3 333 29 is_stmt 1              @ ../../../CORTEX_MPU_M3_NUCLEO_L152RE_GCC/Demo/semtest.c:333:29
	ldr	r0, [sp, #24]
	.loc	3 333 43 is_stmt 0              @ ../../../CORTEX_MPU_M3_NUCLEO_L152RE_GCC/Demo/semtest.c:333:43
	ldr	r1, [r0, #8]
	movs	r0, #10
	.loc	3 333 54                        @ ../../../CORTEX_MPU_M3_NUCLEO_L152RE_GCC/Demo/semtest.c:333:54
	muls	r0, r1, r0
	.loc	3 333 17                        @ ../../../CORTEX_MPU_M3_NUCLEO_L152RE_GCC/Demo/semtest.c:333:17
	bl	MPU_vTaskDelay
	.loc	3 334 13 is_stmt 1              @ ../../../CORTEX_MPU_M3_NUCLEO_L152RE_GCC/Demo/semtest.c:334:13
	b	.LBB1_21
.Ltmp52:
.LBB1_21:                               @   in Loop: Header=BB1_4 Depth=1
	.loc	3 335 9                         @ ../../../CORTEX_MPU_M3_NUCLEO_L152RE_GCC/Demo/semtest.c:335:9
	b	.LBB1_25
.Ltmp53:
.LBB1_22:                               @   in Loop: Header=BB1_4 Depth=1
	.loc	3 338 17                        @ ../../../CORTEX_MPU_M3_NUCLEO_L152RE_GCC/Demo/semtest.c:338:17
	ldr	r0, [sp, #24]
	.loc	3 338 31 is_stmt 0              @ ../../../CORTEX_MPU_M3_NUCLEO_L152RE_GCC/Demo/semtest.c:338:31
	ldr	r0, [r0, #8]
.Ltmp54:
	.loc	3 338 17                        @ ../../../CORTEX_MPU_M3_NUCLEO_L152RE_GCC/Demo/semtest.c:338:17
	cbnz	r0, .LBB1_24
	b	.LBB1_23
.LBB1_23:                               @   in Loop: Header=BB1_4 Depth=1
.Ltmp55:
	.loc	3 343 17 is_stmt 1              @ ../../../CORTEX_MPU_M3_NUCLEO_L152RE_GCC/Demo/semtest.c:343:17
	bl	vPortYield
	.loc	3 344 13                        @ ../../../CORTEX_MPU_M3_NUCLEO_L152RE_GCC/Demo/semtest.c:344:13
	b	.LBB1_24
.Ltmp56:
.LBB1_24:                               @   in Loop: Header=BB1_4 Depth=1
	.loc	3 0 13 is_stmt 0                @ ../../../CORTEX_MPU_M3_NUCLEO_L152RE_GCC/Demo/semtest.c:0:13
	b	.LBB1_25
.LBB1_25:                               @   in Loop: Header=BB1_4 Depth=1
	.loc	3 285 5 is_stmt 1               @ ../../../CORTEX_MPU_M3_NUCLEO_L152RE_GCC/Demo/semtest.c:285:5
	b	.LBB1_4
.Ltmp57:
.Lfunc_end1:
	.size	prvSemaphoreTest, .Lfunc_end1-prvSemaphoreTest
	.cfi_endproc
	.cantunwind
	.fnend
                                        @ -- End function
	.section	.text.xAreSemaphoreTasksStillRunning,"ax",%progbits
	.hidden	xAreSemaphoreTasksStillRunning  @ -- Begin function xAreSemaphoreTasksStillRunning
	.globl	xAreSemaphoreTasksStillRunning
	.p2align	1
	.type	xAreSemaphoreTasksStillRunning,%function
	.code	16                              @ @xAreSemaphoreTasksStillRunning
	.thumb_func
xAreSemaphoreTasksStillRunning:
.Lfunc_begin2:
	.loc	3 352 0                         @ ../../../CORTEX_MPU_M3_NUCLEO_L152RE_GCC/Demo/semtest.c:352:0
	.fnstart
	.cfi_startproc
@ %bb.0:
	.pad	#8
	sub	sp, #8
	.cfi_def_cfa_offset 8
	movs	r0, #1
.Ltmp58:
	.loc	3 354 23 prologue_end           @ ../../../CORTEX_MPU_M3_NUCLEO_L152RE_GCC/Demo/semtest.c:354:23
	str	r0, [sp]
	movs	r0, #0
.Ltmp59:
	.loc	3 356 16                        @ ../../../CORTEX_MPU_M3_NUCLEO_L152RE_GCC/Demo/semtest.c:356:16
	str	r0, [sp, #4]
	.loc	3 356 10 is_stmt 0              @ ../../../CORTEX_MPU_M3_NUCLEO_L152RE_GCC/Demo/semtest.c:356:10
	b	.LBB2_1
.LBB2_1:                                @ =>This Inner Loop Header: Depth=1
.Ltmp60:
	.loc	3 356 21                        @ ../../../CORTEX_MPU_M3_NUCLEO_L152RE_GCC/Demo/semtest.c:356:21
	ldr	r0, [sp, #4]
.Ltmp61:
	.loc	3 356 5                         @ ../../../CORTEX_MPU_M3_NUCLEO_L152RE_GCC/Demo/semtest.c:356:5
	cmp	r0, #3
	bgt	.LBB2_6
	b	.LBB2_2
.LBB2_2:                                @   in Loop: Header=BB2_1 Depth=1
.Ltmp62:
	.loc	3 358 34 is_stmt 1              @ ../../../CORTEX_MPU_M3_NUCLEO_L152RE_GCC/Demo/semtest.c:358:34
	ldr	r0, [sp, #4]
	.loc	3 358 13 is_stmt 0              @ ../../../CORTEX_MPU_M3_NUCLEO_L152RE_GCC/Demo/semtest.c:358:13
	lsls	r1, r0, #1
	movw	r0, :lower16:xAreSemaphoreTasksStillRunning.sLastCheckVariables
	movt	r0, :upper16:xAreSemaphoreTasksStillRunning.sLastCheckVariables
	ldrsh	r0, [r0, r1]
	.loc	3 358 45                        @ ../../../CORTEX_MPU_M3_NUCLEO_L152RE_GCC/Demo/semtest.c:358:45
	movw	r2, :lower16:sTaskCheckVariables
	movt	r2, :upper16:sTaskCheckVariables
	adds	r1, r1, r2
	movs	r2, #2
	ldrsh	r1, [r1, r2]
.Ltmp63:
	.loc	3 358 13                        @ ../../../CORTEX_MPU_M3_NUCLEO_L152RE_GCC/Demo/semtest.c:358:13
	cmp	r0, r1
	bne	.LBB2_4
	b	.LBB2_3
.LBB2_3:                                @   in Loop: Header=BB2_1 Depth=1
	.loc	3 0 13                          @ ../../../CORTEX_MPU_M3_NUCLEO_L152RE_GCC/Demo/semtest.c:0:13
	movs	r0, #0
.Ltmp64:
	.loc	3 360 21 is_stmt 1              @ ../../../CORTEX_MPU_M3_NUCLEO_L152RE_GCC/Demo/semtest.c:360:21
	str	r0, [sp]
	.loc	3 361 9                         @ ../../../CORTEX_MPU_M3_NUCLEO_L152RE_GCC/Demo/semtest.c:361:9
	b	.LBB2_4
.Ltmp65:
.LBB2_4:                                @   in Loop: Header=BB2_1 Depth=1
	.loc	3 363 61                        @ ../../../CORTEX_MPU_M3_NUCLEO_L152RE_GCC/Demo/semtest.c:363:61
	ldr	r0, [sp, #4]
	.loc	3 363 67 is_stmt 0              @ ../../../CORTEX_MPU_M3_NUCLEO_L152RE_GCC/Demo/semtest.c:363:67
	lsls	r0, r0, #1
	.loc	3 363 40                        @ ../../../CORTEX_MPU_M3_NUCLEO_L152RE_GCC/Demo/semtest.c:363:40
	movw	r1, :lower16:sTaskCheckVariables
	movt	r1, :upper16:sTaskCheckVariables
	adds	r0, r0, r1
	ldrh	r0, [r0, #2]
	.loc	3 363 30                        @ ../../../CORTEX_MPU_M3_NUCLEO_L152RE_GCC/Demo/semtest.c:363:30
	ldr	r1, [sp, #4]
	.loc	3 363 9                         @ ../../../CORTEX_MPU_M3_NUCLEO_L152RE_GCC/Demo/semtest.c:363:9
	lsls	r2, r1, #1
	movw	r1, :lower16:xAreSemaphoreTasksStillRunning.sLastCheckVariables
	movt	r1, :upper16:xAreSemaphoreTasksStillRunning.sLastCheckVariables
	.loc	3 363 38                        @ ../../../CORTEX_MPU_M3_NUCLEO_L152RE_GCC/Demo/semtest.c:363:38
	strh	r0, [r1, r2]
	.loc	3 364 5 is_stmt 1               @ ../../../CORTEX_MPU_M3_NUCLEO_L152RE_GCC/Demo/semtest.c:364:5
	b	.LBB2_5
.Ltmp66:
.LBB2_5:                                @   in Loop: Header=BB2_1 Depth=1
	.loc	3 356 51                        @ ../../../CORTEX_MPU_M3_NUCLEO_L152RE_GCC/Demo/semtest.c:356:51
	ldr	r0, [sp, #4]
	adds	r0, r0, #1
	str	r0, [sp, #4]
	.loc	3 356 5 is_stmt 0               @ ../../../CORTEX_MPU_M3_NUCLEO_L152RE_GCC/Demo/semtest.c:356:5
	b	.LBB2_1
.Ltmp67:
.LBB2_6:
	.loc	3 366 12 is_stmt 1              @ ../../../CORTEX_MPU_M3_NUCLEO_L152RE_GCC/Demo/semtest.c:366:12
	ldr	r0, [sp]
	.loc	3 366 5 is_stmt 0               @ ../../../CORTEX_MPU_M3_NUCLEO_L152RE_GCC/Demo/semtest.c:366:5
	add	sp, #8
	bx	lr
.Ltmp68:
.Lfunc_end2:
	.size	xAreSemaphoreTasksStillRunning, .Lfunc_end2-xAreSemaphoreTasksStillRunning
	.cfi_endproc
	.cantunwind
	.fnend
                                        @ -- End function
	.type	sTaskCheckVariables,%object     @ @sTaskCheckVariables
	.section	.bss.sTaskCheckVariables,"aw",%nobits
	.p2align	5, 0x0
sTaskCheckVariables:
	.zero	32
	.size	sTaskCheckVariables, 32

	.type	xSemaphoreParameters1,%object   @ @xSemaphoreParameters1
	.section	.bss.xSemaphoreParameters1,"aw",%nobits
	.p2align	5, 0x0
xSemaphoreParameters1:
	.zero	32
	.size	xSemaphoreParameters1, 32

	.type	vStartSemaphoreTasks.xSemesterTest1Stack,%object @ @vStartSemaphoreTasks.xSemesterTest1Stack
	.section	.bss.vStartSemaphoreTasks.xSemesterTest1Stack,"aw",%nobits
	.p2align	9, 0x0
vStartSemaphoreTasks.xSemesterTest1Stack:
	.zero	512
	.size	vStartSemaphoreTasks.xSemesterTest1Stack, 512

	.type	vStartSemaphoreTasks.xSemesterTest2Stack,%object @ @vStartSemaphoreTasks.xSemesterTest2Stack
	.section	.bss.vStartSemaphoreTasks.xSemesterTest2Stack,"aw",%nobits
	.p2align	9, 0x0
vStartSemaphoreTasks.xSemesterTest2Stack:
	.zero	512
	.size	vStartSemaphoreTasks.xSemesterTest2Stack, 512

	.type	vStartSemaphoreTasks.xSemesterTest3Stack,%object @ @vStartSemaphoreTasks.xSemesterTest3Stack
	.section	.bss.vStartSemaphoreTasks.xSemesterTest3Stack,"aw",%nobits
	.p2align	9, 0x0
vStartSemaphoreTasks.xSemesterTest3Stack:
	.zero	512
	.size	vStartSemaphoreTasks.xSemesterTest3Stack, 512

	.type	vStartSemaphoreTasks.xSemesterTest4Stack,%object @ @vStartSemaphoreTasks.xSemesterTest4Stack
	.section	.bss.vStartSemaphoreTasks.xSemesterTest4Stack,"aw",%nobits
	.p2align	9, 0x0
vStartSemaphoreTasks.xSemesterTest4Stack:
	.zero	512
	.size	vStartSemaphoreTasks.xSemesterTest4Stack, 512

	.type	sSharedVariable,%object         @ @sSharedVariable
	.section	.bss.sSharedVariable,"aw",%nobits
	.p2align	5, 0x0
sSharedVariable:
	.zero	32
	.size	sSharedVariable, 32

	.type	.L.str,%object                  @ @.str
	.section	.rodata.str1.1,"aMS",%progbits,1
.L.str:
	.asciz	"PolSEM1"
	.size	.L.str, 8

	.type	.Lconstinit,%object             @ @constinit
	.section	.data..Lconstinit,"aw",%progbits
	.p2align	2, 0x0
.Lconstinit:
	.long	sTaskCheckVariables
	.long	32                              @ 0x20
	.long	3                               @ 0x3
	.long	xSemaphoreParameters1
	.long	32                              @ 0x20
	.long	3                               @ 0x3
	.long	sSharedVariable
	.long	32                              @ 0x20
	.long	3                               @ 0x3
	.size	.Lconstinit, 36

	.type	.L.str.1,%object                @ @.str.1
	.section	.rodata.str1.1,"aMS",%progbits,1
.L.str.1:
	.asciz	"PolSEM2"
	.size	.L.str.1, 8

	.type	.Lconstinit.2,%object           @ @constinit.2
	.section	.data..Lconstinit.2,"aw",%progbits
	.p2align	2, 0x0
.Lconstinit.2:
	.long	sTaskCheckVariables
	.long	32                              @ 0x20
	.long	3                               @ 0x3
	.long	xSemaphoreParameters1
	.long	32                              @ 0x20
	.long	3                               @ 0x3
	.long	sSharedVariable
	.long	32                              @ 0x20
	.long	3                               @ 0x3
	.size	.Lconstinit.2, 36

	.type	xSemaphoreParameters2,%object   @ @xSemaphoreParameters2
	.section	.bss.xSemaphoreParameters2,"aw",%nobits
	.p2align	5, 0x0
xSemaphoreParameters2:
	.zero	32
	.size	xSemaphoreParameters2, 32

	.type	.L.str.3,%object                @ @.str.3
	.section	.rodata.str1.1,"aMS",%progbits,1
.L.str.3:
	.asciz	"BlkSEM1"
	.size	.L.str.3, 8

	.type	.Lconstinit.4,%object           @ @constinit.4
	.section	.data..Lconstinit.4,"aw",%progbits
	.p2align	2, 0x0
.Lconstinit.4:
	.long	sTaskCheckVariables
	.long	32                              @ 0x20
	.long	3                               @ 0x3
	.long	xSemaphoreParameters2
	.long	32                              @ 0x20
	.long	3                               @ 0x3
	.long	sSharedVariable
	.long	32                              @ 0x20
	.long	3                               @ 0x3
	.size	.Lconstinit.4, 36

	.type	.L.str.5,%object                @ @.str.5
	.section	.rodata.str1.1,"aMS",%progbits,1
.L.str.5:
	.asciz	"BlkSEM2"
	.size	.L.str.5, 8

	.type	.Lconstinit.6,%object           @ @constinit.6
	.section	.data..Lconstinit.6,"aw",%progbits
	.p2align	2, 0x0
.Lconstinit.6:
	.long	sTaskCheckVariables
	.long	32                              @ 0x20
	.long	3                               @ 0x3
	.long	xSemaphoreParameters2
	.long	32                              @ 0x20
	.long	3                               @ 0x3
	.long	sSharedVariable
	.long	32                              @ 0x20
	.long	3                               @ 0x3
	.size	.Lconstinit.6, 36

	.type	xAreSemaphoreTasksStillRunning.sLastCheckVariables,%object @ @xAreSemaphoreTasksStillRunning.sLastCheckVariables
	.section	.bss.xAreSemaphoreTasksStillRunning.sLastCheckVariables,"aw",%nobits
	.p2align	1, 0x0
xAreSemaphoreTasksStillRunning.sLastCheckVariables:
	.zero	8
	.size	xAreSemaphoreTasksStillRunning.sLastCheckVariables, 8

	.file	6 "C:\\Users\\karahulx\\Downloads\\Kernel\\FreeRTOS\\FreeRTOS\\Demo\\CORTEX_MPU_M23_Nuvoton_NuMaker_PFM_M2351_IAR_GCC\\Projects_NTZ\\Keil" "../../../../Source/include/projdefs.h"
	.file	7 "C:\\Users\\karahulx\\Downloads\\Kernel\\FreeRTOS\\FreeRTOS\\Demo\\CORTEX_MPU_M23_Nuvoton_NuMaker_PFM_M2351_IAR_GCC\\Projects_NTZ\\Keil" "../../../../Source/include/task.h"
	.file	8 "C:\\Users\\karahulx\\Downloads\\Kernel\\FreeRTOS\\FreeRTOS\\Demo\\CORTEX_MPU_M23_Nuvoton_NuMaker_PFM_M2351_IAR_GCC\\Projects_NTZ\\Keil" "../../../../Source/include\\FreeRTOS.h"
	.section	".note.GNU-stack","",%progbits
	.eabi_attribute	30, 6	@ Tag_ABI_optimization_goals
	.ARM_attribute	16, 1	@ Tag_AV_eba