	.text
	.syntax unified
	.eabi_attribute	67, "2.09"	@ Tag_conformance
	.eabi_attribute	6, 16	@ Tag_CPU_arch
	.eabi_attribute	7, 77	@ Tag_CPU_arch_profile
	.eabi_attribute	8, 0	@ Tag_ARM_ISA_use
	.eabi_attribute	9, 3	@ Tag_THUMB_ISA_use
	.eabi_attribute	34, 0	@ Tag_CPU_unaligned_access
	.eabi_attribute	17, 1	@ Tag_ABI_PCS_GOT_use
	.eabi_attribute	20, 2	@ Tag_ABI_FP_denormal
	.eabi_attribute	21, 0	@ Tag_ABI_FP_exceptions
	.eabi_attribute	23, 1	@ Tag_ABI_FP_number_model
	.eabi_attribute	24, 1	@ Tag_ABI_align_needed
	.eabi_attribute	25, 1	@ Tag_ABI_align_preserved
	.eabi_attribute	38, 1	@ Tag_ABI_FP_16bit_format
	.eabi_attribute	18, 4	@ Tag_ABI_PCS_wchar_t
	.eabi_attribute	26, 2	@ Tag_ABI_enum_size
	.eabi_attribute	14, 0	@ Tag_ABI_PCS_R9_use
	.file	"stream_buffer.c"
	.file	1 "C:\\Users\\karahulx\\Downloads\\Kernel\\FreeRTOS\\FreeRTOS\\Demo\\CORTEX_MPU_M23_Nuvoton_NuMaker_PFM_M2351_IAR_GCC\\Projects_NTZ\\Keil" "../../../../Source/include\\task.h"
	.file	2 "C:\\Users\\karahulx\\Downloads\\Kernel\\FreeRTOS\\FreeRTOS\\Demo\\CORTEX_MPU_M23_Nuvoton_NuMaker_PFM_M2351_IAR_GCC\\Projects_NTZ\\Keil" "../../../../Source/portable/GCC/ARM_CM23_NTZ/non_secure/portmacrocommon.h"
	.file	3 "C:\\Keil_v5\\ARM\\ARMCLANG\\Bin\\..\\include" "stdint.h"
	.file	4 "C:\\Keil_v5\\ARM\\ARMCLANG\\Bin\\..\\include" "string.h"
	.file	5 "C:\\Users\\karahulx\\Downloads\\Kernel\\FreeRTOS\\FreeRTOS\\Demo\\CORTEX_MPU_M23_Nuvoton_NuMaker_PFM_M2351_IAR_GCC\\Projects_NTZ\\Keil" "../../../../Source/stream_buffer.c"
	.file	6 "C:\\Users\\karahulx\\Downloads\\Kernel\\FreeRTOS\\FreeRTOS\\Demo\\CORTEX_MPU_M23_Nuvoton_NuMaker_PFM_M2351_IAR_GCC\\Projects_NTZ\\Keil" "../../../../Source/include\\stream_buffer.h"
	.file	7 "C:\\Users\\karahulx\\Downloads\\Kernel\\FreeRTOS\\FreeRTOS\\Demo\\CORTEX_MPU_M23_Nuvoton_NuMaker_PFM_M2351_IAR_GCC\\Projects_NTZ\\Keil" "../../../../Source/include\\FreeRTOS.h"
	.section	privileged_functions,"ax",%progbits
	.hidden	xStreamBufferGenericCreate      @ -- Begin function xStreamBufferGenericCreate
	.globl	xStreamBufferGenericCreate
	.p2align	1
	.type	xStreamBufferGenericCreate,%function
	.code	16                              @ @xStreamBufferGenericCreate
	.thumb_func
xStreamBufferGenericCreate:
.Lfunc_begin0:
	.loc	5 326 0                         @ ../../../../Source/stream_buffer.c:326:0
	.fnstart
	.cfi_sections .debug_frame
	.cfi_startproc
@ %bb.0:
	.save	{r4, r5, r6, lr}
	push	{r4, r5, r6, lr}
	.cfi_def_cfa_offset 16
	.cfi_offset lr, -4
	.cfi_offset r6, -8
	.cfi_offset r5, -12
	.cfi_offset r4, -16
	.pad	#40
	sub	sp, #40
	.cfi_def_cfa_offset 56
	ldr	r4, [sp, #56]
	str	r0, [sp, #36]
	str	r1, [sp, #32]
	str	r2, [sp, #28]
	str	r3, [sp, #24]
.Ltmp0:
	.loc	5 334 13 prologue_end           @ ../../../../Source/stream_buffer.c:334:13
	ldr	r0, [sp, #28]
.Ltmp1:
	.loc	5 334 13 is_stmt 0              @ ../../../../Source/stream_buffer.c:334:13
	cmp	r0, #1
	bne	.LBB0_5
	b	.LBB0_1
.LBB0_1:
	.loc	5 0 13                          @ ../../../../Source/stream_buffer.c:0:13
	add	r1, sp, #16
	movs	r0, #1
.Ltmp2:
	.loc	5 337 21 is_stmt 1              @ ../../../../Source/stream_buffer.c:337:21
	strb	r0, [r1]
.Ltmp3:
	.loc	5 338 13                        @ ../../../../Source/stream_buffer.c:338:13
	ldr	r0, [sp, #36]
.Ltmp4:
	.loc	5 338 13 is_stmt 0              @ ../../../../Source/stream_buffer.c:338:13
	cmp	r0, #4
	bhi	.LBB0_4
	b	.LBB0_2
.LBB0_2:
.Ltmp5:
	.loc	5 338 13                        @ ../../../../Source/stream_buffer.c:338:13
	@APP
	cpsid i
	@NO_APP
	b	.LBB0_3
.LBB0_3:                                @ =>This Inner Loop Header: Depth=1
.Ltmp6:
	.loc	5 338 13                        @ ../../../../Source/stream_buffer.c:338:13
	b	.LBB0_3
.Ltmp7:
.LBB0_4:
	.loc	5 339 9 is_stmt 1               @ ../../../../Source/stream_buffer.c:339:9
	b	.LBB0_9
.Ltmp8:
.LBB0_5:
	.loc	5 0 9 is_stmt 0                 @ ../../../../Source/stream_buffer.c:0:9
	add	r1, sp, #16
	movs	r0, #0
.Ltmp9:
	.loc	5 343 21 is_stmt 1              @ ../../../../Source/stream_buffer.c:343:21
	strb	r0, [r1]
.Ltmp10:
	.loc	5 344 13                        @ ../../../../Source/stream_buffer.c:344:13
	ldr	r0, [sp, #36]
.Ltmp11:
	.loc	5 344 13 is_stmt 0              @ ../../../../Source/stream_buffer.c:344:13
	cbnz	r0, .LBB0_8
	b	.LBB0_6
.LBB0_6:
.Ltmp12:
	.loc	5 344 13                        @ ../../../../Source/stream_buffer.c:344:13
	@APP
	cpsid i
	@NO_APP
	b	.LBB0_7
.LBB0_7:                                @ =>This Inner Loop Header: Depth=1
.Ltmp13:
	.loc	5 344 13                        @ ../../../../Source/stream_buffer.c:344:13
	b	.LBB0_7
.Ltmp14:
.LBB0_8:
	.loc	5 0 13                          @ ../../../../Source/stream_buffer.c:0:13
	b	.LBB0_9
.LBB0_9:
.Ltmp15:
	.loc	5 347 9 is_stmt 1               @ ../../../../Source/stream_buffer.c:347:9
	ldr	r0, [sp, #32]
	ldr	r1, [sp, #36]
.Ltmp16:
	.loc	5 347 9 is_stmt 0               @ ../../../../Source/stream_buffer.c:347:9
	cmp	r0, r1
	bls	.LBB0_12
	b	.LBB0_10
.LBB0_10:
.Ltmp17:
	.loc	5 347 9                         @ ../../../../Source/stream_buffer.c:347:9
	@APP
	cpsid i
	@NO_APP
	b	.LBB0_11
.LBB0_11:                               @ =>This Inner Loop Header: Depth=1
.Ltmp18:
	.loc	5 347 9                         @ ../../../../Source/stream_buffer.c:347:9
	b	.LBB0_11
.Ltmp19:
.LBB0_12:
	.loc	5 351 13 is_stmt 1              @ ../../../../Source/stream_buffer.c:351:13
	ldr	r0, [sp, #32]
.Ltmp20:
	.loc	5 351 13 is_stmt 0              @ ../../../../Source/stream_buffer.c:351:13
	cbnz	r0, .LBB0_14
	b	.LBB0_13
.LBB0_13:
	.loc	5 0 13                          @ ../../../../Source/stream_buffer.c:0:13
	movs	r0, #1
.Ltmp21:
	.loc	5 353 32 is_stmt 1              @ ../../../../Source/stream_buffer.c:353:32
	str	r0, [sp, #32]
	.loc	5 354 9                         @ ../../../../Source/stream_buffer.c:354:9
	b	.LBB0_14
.Ltmp22:
.LBB0_14:
	.loc	5 364 13                        @ ../../../../Source/stream_buffer.c:364:13
	ldr	r0, [sp, #36]
	.loc	5 364 55 is_stmt 0              @ ../../../../Source/stream_buffer.c:364:55
	mov	r1, r0
	adds	r1, #37
.Ltmp23:
	.loc	5 364 13                        @ ../../../../Source/stream_buffer.c:364:13
	cmp	r0, r1
	bhs	.LBB0_16
	b	.LBB0_15
.LBB0_15:
.Ltmp24:
	.loc	5 366 29 is_stmt 1              @ ../../../../Source/stream_buffer.c:366:29
	ldr	r0, [sp, #36]
	adds	r0, r0, #1
	str	r0, [sp, #36]
	.loc	5 367 47                        @ ../../../../Source/stream_buffer.c:367:47
	ldr	r0, [sp, #36]
	.loc	5 367 64 is_stmt 0              @ ../../../../Source/stream_buffer.c:367:64
	adds	r0, #36
	.loc	5 367 33                        @ ../../../../Source/stream_buffer.c:367:33
	bl	pvPortMalloc
	.loc	5 367 31                        @ ../../../../Source/stream_buffer.c:367:31
	str	r0, [sp, #20]
	.loc	5 368 9 is_stmt 1               @ ../../../../Source/stream_buffer.c:368:9
	b	.LBB0_17
.Ltmp25:
.LBB0_16:
	.loc	5 0 9 is_stmt 0                 @ ../../../../Source/stream_buffer.c:0:9
	movs	r0, #0
.Ltmp26:
	.loc	5 371 31 is_stmt 1              @ ../../../../Source/stream_buffer.c:371:31
	str	r0, [sp, #20]
	b	.LBB0_17
.Ltmp27:
.LBB0_17:
	.loc	5 374 13                        @ ../../../../Source/stream_buffer.c:374:13
	ldr	r0, [sp, #20]
.Ltmp28:
	.loc	5 374 13 is_stmt 0              @ ../../../../Source/stream_buffer.c:374:13
	cbz	r0, .LBB0_19
	b	.LBB0_18
.LBB0_18:
.Ltmp29:
	.loc	5 376 64 is_stmt 1              @ ../../../../Source/stream_buffer.c:376:64
	ldr	r0, [sp, #20]
	.loc	5 377 79                        @ ../../../../Source/stream_buffer.c:377:79
	mov	r1, r0
	adds	r1, #36
	.loc	5 378 43                        @ ../../../../Source/stream_buffer.c:378:43
	ldr	r2, [sp, #36]
	.loc	5 379 43                        @ ../../../../Source/stream_buffer.c:379:43
	ldr	r3, [sp, #32]
	add	r4, sp, #16
	.loc	5 380 43                        @ ../../../../Source/stream_buffer.c:380:43
	ldrb	r4, [r4]
	.loc	5 381 43                        @ ../../../../Source/stream_buffer.c:381:43
	ldr	r5, [sp, #24]
	.loc	5 382 43                        @ ../../../../Source/stream_buffer.c:382:43
	ldr	r6, [sp, #56]
	.loc	5 376 13                        @ ../../../../Source/stream_buffer.c:376:13
	str	r6, [sp, #8]
	str	r5, [sp, #4]
	str	r4, [sp]
	bl	prvInitialiseNewStreamBuffer
	.loc	5 385 9                         @ ../../../../Source/stream_buffer.c:385:9
	b	.LBB0_20
.Ltmp30:
.LBB0_19:
	.loc	5 0 9 is_stmt 0                 @ ../../../../Source/stream_buffer.c:0:9
	b	.LBB0_20
.LBB0_20:
	.loc	5 391 41 is_stmt 1              @ ../../../../Source/stream_buffer.c:391:41
	ldr	r0, [sp, #20]
	.loc	5 391 9 is_stmt 0               @ ../../../../Source/stream_buffer.c:391:9
	add	sp, #40
	pop	{r4, r5, r6, pc}
.Ltmp31:
.Lfunc_end0:
	.size	xStreamBufferGenericCreate, .Lfunc_end0-xStreamBufferGenericCreate
	.cfi_endproc
	.cantunwind
	.fnend
                                        @ -- End function
	.p2align	1                               @ -- Begin function prvInitialiseNewStreamBuffer
	.type	prvInitialiseNewStreamBuffer,%function
	.code	16                              @ @prvInitialiseNewStreamBuffer
	.thumb_func
prvInitialiseNewStreamBuffer:
.Lfunc_begin1:
	.loc	5 1392 0 is_stmt 1              @ ../../../../Source/stream_buffer.c:1392:0
	.fnstart
	.cfi_startproc
@ %bb.0:
	.save	{r4, lr}
	push	{r4, lr}
	.cfi_def_cfa_offset 8
	.cfi_offset lr, -4
	.cfi_offset r4, -8
	.pad	#24
	sub	sp, #24
	.cfi_def_cfa_offset 32
	mov	r4, r0
	ldr	r0, [sp, #40]
	ldr	r0, [sp, #36]
	ldr	r0, [sp, #32]
	str	r4, [sp, #20]
	str	r1, [sp, #16]
	str	r2, [sp, #12]
	str	r3, [sp, #8]
	add	r1, sp, #4
	strb	r0, [r1]
.Ltmp32:
	.loc	5 1402 9 prologue_end           @ ../../../../Source/stream_buffer.c:1402:9
	ldr	r0, [sp, #16]
	str	r0, [sp]                        @ 4-byte Spill
	ldr	r1, [sp, #12]
	movs	r2, #85
	bl	__aeabi_memset
	ldr	r0, [sp]                        @ 4-byte Reload
	ldr	r1, [sp, #16]
.Ltmp33:
	.loc	5 1402 9 is_stmt 0              @ ../../../../Source/stream_buffer.c:1402:9
	cmp	r0, r1
	beq	.LBB1_3
	b	.LBB1_1
.LBB1_1:
.Ltmp34:
	.loc	5 1402 9                        @ ../../../../Source/stream_buffer.c:1402:9
	@APP
	cpsid i
	@NO_APP
	b	.LBB1_2
.LBB1_2:                                @ =>This Inner Loop Header: Depth=1
.Ltmp35:
	.loc	5 1402 9                        @ ../../../../Source/stream_buffer.c:1402:9
	b	.LBB1_2
.Ltmp36:
.LBB1_3:
	.loc	5 1406 33 is_stmt 1             @ ../../../../Source/stream_buffer.c:1406:33
	ldr	r0, [sp, #20]
	movs	r1, #36
	.loc	5 1406 14 is_stmt 0             @ ../../../../Source/stream_buffer.c:1406:14
	bl	__aeabi_memclr
	.loc	5 1407 33 is_stmt 1             @ ../../../../Source/stream_buffer.c:1407:33
	ldr	r0, [sp, #16]
	.loc	5 1407 5 is_stmt 0              @ ../../../../Source/stream_buffer.c:1407:5
	ldr	r1, [sp, #20]
	.loc	5 1407 31                       @ ../../../../Source/stream_buffer.c:1407:31
	str	r0, [r1, #24]
	.loc	5 1408 31 is_stmt 1             @ ../../../../Source/stream_buffer.c:1408:31
	ldr	r0, [sp, #12]
	.loc	5 1408 5 is_stmt 0              @ ../../../../Source/stream_buffer.c:1408:5
	ldr	r1, [sp, #20]
	.loc	5 1408 29                       @ ../../../../Source/stream_buffer.c:1408:29
	str	r0, [r1, #8]
	.loc	5 1409 42 is_stmt 1             @ ../../../../Source/stream_buffer.c:1409:42
	ldr	r0, [sp, #8]
	.loc	5 1409 5 is_stmt 0              @ ../../../../Source/stream_buffer.c:1409:5
	ldr	r1, [sp, #20]
	.loc	5 1409 40                       @ ../../../../Source/stream_buffer.c:1409:40
	str	r0, [r1, #12]
	.loc	5 1410 31 is_stmt 1             @ ../../../../Source/stream_buffer.c:1410:31
	ldr	r0, [sp, #4]
	.loc	5 1410 5 is_stmt 0              @ ../../../../Source/stream_buffer.c:1410:5
	ldr	r1, [sp, #20]
	.loc	5 1410 29                       @ ../../../../Source/stream_buffer.c:1410:29
	strb	r0, [r1, #28]
	.loc	5 1422 1 is_stmt 1              @ ../../../../Source/stream_buffer.c:1422:1
	add	sp, #24
	pop	{r4, pc}
.Ltmp37:
.Lfunc_end1:
	.size	prvInitialiseNewStreamBuffer, .Lfunc_end1-prvInitialiseNewStreamBuffer
	.cfi_endproc
	.cantunwind
	.fnend
                                        @ -- End function
	.hidden	xStreamBufferGenericCreateStatic @ -- Begin function xStreamBufferGenericCreateStatic
	.globl	xStreamBufferGenericCreateStatic
	.p2align	1
	.type	xStreamBufferGenericCreateStatic,%function
	.code	16                              @ @xStreamBufferGenericCreateStatic
	.thumb_func
xStreamBufferGenericCreateStatic:
.Lfunc_begin2:
	.loc	5 405 0                         @ ../../../../Source/stream_buffer.c:405:0
	.fnstart
	.cfi_startproc
@ %bb.0:
	.save	{r4, r5, r6, lr}
	push	{r4, r5, r6, lr}
	.cfi_def_cfa_offset 16
	.cfi_offset lr, -4
	.cfi_offset r6, -8
	.cfi_offset r5, -12
	.cfi_offset r4, -16
	.pad	#40
	sub	sp, #40
	.cfi_def_cfa_offset 56
	ldr	r4, [sp, #64]
	ldr	r4, [sp, #60]
	ldr	r4, [sp, #56]
	str	r0, [sp, #36]
	str	r1, [sp, #32]
	str	r2, [sp, #28]
	str	r3, [sp, #24]
.Ltmp38:
	.loc	5 406 70 prologue_end           @ ../../../../Source/stream_buffer.c:406:70
	ldr	r0, [sp, #56]
	.loc	5 406 32 is_stmt 0              @ ../../../../Source/stream_buffer.c:406:32
	str	r0, [sp, #20]
.Ltmp39:
	.loc	5 410 9 is_stmt 1               @ ../../../../Source/stream_buffer.c:410:9
	ldr	r0, [sp, #24]
.Ltmp40:
	.loc	5 410 9 is_stmt 0               @ ../../../../Source/stream_buffer.c:410:9
	cbnz	r0, .LBB2_3
	b	.LBB2_1
.LBB2_1:
.Ltmp41:
	.loc	5 410 9                         @ ../../../../Source/stream_buffer.c:410:9
	@APP
	cpsid i
	@NO_APP
	b	.LBB2_2
.LBB2_2:                                @ =>This Inner Loop Header: Depth=1
.Ltmp42:
	.loc	5 410 9                         @ ../../../../Source/stream_buffer.c:410:9
	b	.LBB2_2
.Ltmp43:
.LBB2_3:
	.loc	5 411 9 is_stmt 1               @ ../../../../Source/stream_buffer.c:411:9
	ldr	r0, [sp, #56]
.Ltmp44:
	.loc	5 411 9 is_stmt 0               @ ../../../../Source/stream_buffer.c:411:9
	cbnz	r0, .LBB2_6
	b	.LBB2_4
.LBB2_4:
.Ltmp45:
	.loc	5 411 9                         @ ../../../../Source/stream_buffer.c:411:9
	@APP
	cpsid i
	@NO_APP
	b	.LBB2_5
.LBB2_5:                                @ =>This Inner Loop Header: Depth=1
.Ltmp46:
	.loc	5 411 9                         @ ../../../../Source/stream_buffer.c:411:9
	b	.LBB2_5
.Ltmp47:
.LBB2_6:
	.loc	5 412 9 is_stmt 1               @ ../../../../Source/stream_buffer.c:412:9
	ldr	r0, [sp, #32]
	ldr	r1, [sp, #36]
.Ltmp48:
	.loc	5 412 9 is_stmt 0               @ ../../../../Source/stream_buffer.c:412:9
	cmp	r0, r1
	bls	.LBB2_9
	b	.LBB2_7
.LBB2_7:
.Ltmp49:
	.loc	5 412 9                         @ ../../../../Source/stream_buffer.c:412:9
	@APP
	cpsid i
	@NO_APP
	b	.LBB2_8
.LBB2_8:                                @ =>This Inner Loop Header: Depth=1
.Ltmp50:
	.loc	5 412 9                         @ ../../../../Source/stream_buffer.c:412:9
	b	.LBB2_8
.Ltmp51:
.LBB2_9:
	.loc	5 416 13 is_stmt 1              @ ../../../../Source/stream_buffer.c:416:13
	ldr	r0, [sp, #32]
.Ltmp52:
	.loc	5 416 13 is_stmt 0              @ ../../../../Source/stream_buffer.c:416:13
	cbnz	r0, .LBB2_11
	b	.LBB2_10
.LBB2_10:
	.loc	5 0 13                          @ ../../../../Source/stream_buffer.c:0:13
	movs	r0, #1
.Ltmp53:
	.loc	5 418 32 is_stmt 1              @ ../../../../Source/stream_buffer.c:418:32
	str	r0, [sp, #32]
	.loc	5 419 9                         @ ../../../../Source/stream_buffer.c:419:9
	b	.LBB2_11
.Ltmp54:
.LBB2_11:
	.loc	5 421 13                        @ ../../../../Source/stream_buffer.c:421:13
	ldr	r0, [sp, #28]
.Ltmp55:
	.loc	5 421 13 is_stmt 0              @ ../../../../Source/stream_buffer.c:421:13
	cbz	r0, .LBB2_13
	b	.LBB2_12
.LBB2_12:
	.loc	5 0 13                          @ ../../../../Source/stream_buffer.c:0:13
	add	r1, sp, #12
	movs	r0, #3
.Ltmp56:
	.loc	5 424 21 is_stmt 1              @ ../../../../Source/stream_buffer.c:424:21
	strb	r0, [r1]
	.loc	5 425 9                         @ ../../../../Source/stream_buffer.c:425:9
	b	.LBB2_14
.Ltmp57:
.LBB2_13:
	.loc	5 0 9 is_stmt 0                 @ ../../../../Source/stream_buffer.c:0:9
	add	r1, sp, #12
	movs	r0, #2
.Ltmp58:
	.loc	5 429 21 is_stmt 1              @ ../../../../Source/stream_buffer.c:429:21
	strb	r0, [r1]
	b	.LBB2_14
.Ltmp59:
.LBB2_14:
	.loc	5 436 9                         @ ../../../../Source/stream_buffer.c:436:9
	ldr	r0, [sp, #36]
.Ltmp60:
	.loc	5 436 9 is_stmt 0               @ ../../../../Source/stream_buffer.c:436:9
	cmp	r0, #4
	bhi	.LBB2_17
	b	.LBB2_15
.LBB2_15:
.Ltmp61:
	.loc	5 436 9                         @ ../../../../Source/stream_buffer.c:436:9
	@APP
	cpsid i
	@NO_APP
	b	.LBB2_16
.LBB2_16:                               @ =>This Inner Loop Header: Depth=1
.Ltmp62:
	.loc	5 436 9                         @ ../../../../Source/stream_buffer.c:436:9
	b	.LBB2_16
.Ltmp63:
.LBB2_17:
	.loc	5 446 15 is_stmt 1              @ ../../../../Source/stream_buffer.c:446:15
	ldr	r0, [sp, #24]
	.loc	5 446 52 is_stmt 0              @ ../../../../Source/stream_buffer.c:446:52
	cbz	r0, .LBB2_20
	b	.LBB2_18
.LBB2_18:
	.loc	5 446 57                        @ ../../../../Source/stream_buffer.c:446:57
	ldr	r0, [sp, #56]
.Ltmp64:
	.loc	5 446 13                        @ ../../../../Source/stream_buffer.c:446:13
	cbz	r0, .LBB2_20
	b	.LBB2_19
.LBB2_19:
.Ltmp65:
	.loc	5 448 43 is_stmt 1              @ ../../../../Source/stream_buffer.c:448:43
	ldr	r0, [sp, #20]
	.loc	5 449 43                        @ ../../../../Source/stream_buffer.c:449:43
	ldr	r1, [sp, #24]
	.loc	5 450 43                        @ ../../../../Source/stream_buffer.c:450:43
	ldr	r2, [sp, #36]
	.loc	5 451 43                        @ ../../../../Source/stream_buffer.c:451:43
	ldr	r3, [sp, #32]
	add	r4, sp, #12
	.loc	5 452 43                        @ ../../../../Source/stream_buffer.c:452:43
	ldrb	r4, [r4]
	.loc	5 453 43                        @ ../../../../Source/stream_buffer.c:453:43
	ldr	r5, [sp, #60]
	.loc	5 454 43                        @ ../../../../Source/stream_buffer.c:454:43
	ldr	r6, [sp, #64]
	.loc	5 448 13                        @ ../../../../Source/stream_buffer.c:448:13
	str	r6, [sp, #8]
	str	r5, [sp, #4]
	str	r4, [sp]
	bl	prvInitialiseNewStreamBuffer
	.loc	5 458 13                        @ ../../../../Source/stream_buffer.c:458:13
	ldr	r1, [sp, #20]
	.loc	5 458 37 is_stmt 0              @ ../../../../Source/stream_buffer.c:458:37
	ldrb	r0, [r1, #28]
	movs	r2, #2
	orrs	r0, r2
	strb	r0, [r1, #28]
	.loc	5 462 48 is_stmt 1              @ ../../../../Source/stream_buffer.c:462:48
	ldr	r0, [sp, #56]
	.loc	5 462 21 is_stmt 0              @ ../../../../Source/stream_buffer.c:462:21
	str	r0, [sp, #16]
	.loc	5 463 9 is_stmt 1               @ ../../../../Source/stream_buffer.c:463:9
	b	.LBB2_21
.Ltmp66:
.LBB2_20:
	.loc	5 0 9 is_stmt 0                 @ ../../../../Source/stream_buffer.c:0:9
	movs	r0, #0
.Ltmp67:
	.loc	5 466 21 is_stmt 1              @ ../../../../Source/stream_buffer.c:466:21
	str	r0, [sp, #16]
	b	.LBB2_21
.Ltmp68:
.LBB2_21:
	.loc	5 470 16                        @ ../../../../Source/stream_buffer.c:470:16
	ldr	r0, [sp, #16]
	.loc	5 470 9 is_stmt 0               @ ../../../../Source/stream_buffer.c:470:9
	add	sp, #40
	pop	{r4, r5, r6, pc}
.Ltmp69:
.Lfunc_end2:
	.size	xStreamBufferGenericCreateStatic, .Lfunc_end2-xStreamBufferGenericCreateStatic
	.cfi_endproc
	.cantunwind
	.fnend
                                        @ -- End function
	.hidden	xStreamBufferGetStaticBuffers   @ -- Begin function xStreamBufferGetStaticBuffers
	.globl	xStreamBufferGetStaticBuffers
	.p2align	1
	.type	xStreamBufferGetStaticBuffers,%function
	.code	16                              @ @xStreamBufferGetStaticBuffers
	.thumb_func
xStreamBufferGetStaticBuffers:
.Lfunc_begin3:
	.loc	5 479 0 is_stmt 1               @ ../../../../Source/stream_buffer.c:479:0
	.fnstart
	.cfi_startproc
@ %bb.0:
	.pad	#20
	sub	sp, #20
	.cfi_def_cfa_offset 20
	str	r0, [sp, #16]
	str	r1, [sp, #12]
	str	r2, [sp, #8]
.Ltmp70:
	.loc	5 481 55 prologue_end           @ ../../../../Source/stream_buffer.c:481:55
	ldr	r0, [sp, #16]
	.loc	5 481 38 is_stmt 0              @ ../../../../Source/stream_buffer.c:481:38
	str	r0, [sp]
.Ltmp71:
	.loc	5 483 9 is_stmt 1               @ ../../../../Source/stream_buffer.c:483:9
	ldr	r0, [sp]
.Ltmp72:
	.loc	5 483 9 is_stmt 0               @ ../../../../Source/stream_buffer.c:483:9
	cbnz	r0, .LBB3_3
	b	.LBB3_1
.LBB3_1:
.Ltmp73:
	.loc	5 483 9                         @ ../../../../Source/stream_buffer.c:483:9
	@APP
	cpsid i
	@NO_APP
	b	.LBB3_2
.LBB3_2:                                @ =>This Inner Loop Header: Depth=1
.Ltmp74:
	.loc	5 483 9                         @ ../../../../Source/stream_buffer.c:483:9
	b	.LBB3_2
.Ltmp75:
.LBB3_3:
	.loc	5 484 9 is_stmt 1               @ ../../../../Source/stream_buffer.c:484:9
	ldr	r0, [sp, #12]
.Ltmp76:
	.loc	5 484 9 is_stmt 0               @ ../../../../Source/stream_buffer.c:484:9
	cbnz	r0, .LBB3_6
	b	.LBB3_4
.LBB3_4:
.Ltmp77:
	.loc	5 484 9                         @ ../../../../Source/stream_buffer.c:484:9
	@APP
	cpsid i
	@NO_APP
	b	.LBB3_5
.LBB3_5:                                @ =>This Inner Loop Header: Depth=1
.Ltmp78:
	.loc	5 484 9                         @ ../../../../Source/stream_buffer.c:484:9
	b	.LBB3_5
.Ltmp79:
.LBB3_6:
	.loc	5 485 9 is_stmt 1               @ ../../../../Source/stream_buffer.c:485:9
	ldr	r0, [sp, #8]
.Ltmp80:
	.loc	5 485 9 is_stmt 0               @ ../../../../Source/stream_buffer.c:485:9
	cbnz	r0, .LBB3_9
	b	.LBB3_7
.LBB3_7:
.Ltmp81:
	.loc	5 485 9                         @ ../../../../Source/stream_buffer.c:485:9
	@APP
	cpsid i
	@NO_APP
	b	.LBB3_8
.LBB3_8:                                @ =>This Inner Loop Header: Depth=1
.Ltmp82:
	.loc	5 485 9                         @ ../../../../Source/stream_buffer.c:485:9
	b	.LBB3_8
.Ltmp83:
.LBB3_9:
	.loc	5 487 15 is_stmt 1              @ ../../../../Source/stream_buffer.c:487:15
	ldr	r0, [sp]
	ldrb	r0, [r0, #28]
.Ltmp84:
	.loc	5 487 13 is_stmt 0              @ ../../../../Source/stream_buffer.c:487:13
	lsls	r0, r0, #30
	cmp	r0, #0
	bpl	.LBB3_11
	b	.LBB3_10
.LBB3_10:
.Ltmp85:
	.loc	5 489 44 is_stmt 1              @ ../../../../Source/stream_buffer.c:489:44
	ldr	r0, [sp]
	.loc	5 489 60 is_stmt 0              @ ../../../../Source/stream_buffer.c:489:60
	ldr	r0, [r0, #24]
	.loc	5 489 14                        @ ../../../../Source/stream_buffer.c:489:14
	ldr	r1, [sp, #12]
	.loc	5 489 42                        @ ../../../../Source/stream_buffer.c:489:42
	str	r0, [r1]
	.loc	5 490 65 is_stmt 1              @ ../../../../Source/stream_buffer.c:490:65
	ldr	r0, [sp]
	.loc	5 490 14 is_stmt 0              @ ../../../../Source/stream_buffer.c:490:14
	ldr	r1, [sp, #8]
	.loc	5 490 36                        @ ../../../../Source/stream_buffer.c:490:36
	str	r0, [r1]
	movs	r0, #1
	.loc	5 491 21 is_stmt 1              @ ../../../../Source/stream_buffer.c:491:21
	str	r0, [sp, #4]
	.loc	5 492 9                         @ ../../../../Source/stream_buffer.c:492:9
	b	.LBB3_12
.Ltmp86:
.LBB3_11:
	.loc	5 0 9 is_stmt 0                 @ ../../../../Source/stream_buffer.c:0:9
	movs	r0, #0
.Ltmp87:
	.loc	5 495 21 is_stmt 1              @ ../../../../Source/stream_buffer.c:495:21
	str	r0, [sp, #4]
	b	.LBB3_12
.Ltmp88:
.LBB3_12:
	.loc	5 498 16                        @ ../../../../Source/stream_buffer.c:498:16
	ldr	r0, [sp, #4]
	.loc	5 498 9 is_stmt 0               @ ../../../../Source/stream_buffer.c:498:9
	add	sp, #20
	bx	lr
.Ltmp89:
.Lfunc_end3:
	.size	xStreamBufferGetStaticBuffers, .Lfunc_end3-xStreamBufferGetStaticBuffers
	.cfi_endproc
	.cantunwind
	.fnend
                                        @ -- End function
	.hidden	vStreamBufferDelete             @ -- Begin function vStreamBufferDelete
	.globl	vStreamBufferDelete
	.p2align	1
	.type	vStreamBufferDelete,%function
	.code	16                              @ @vStreamBufferDelete
	.thumb_func
vStreamBufferDelete:
.Lfunc_begin4:
	.loc	5 504 0 is_stmt 1               @ ../../../../Source/stream_buffer.c:504:0
	.fnstart
	.cfi_startproc
@ %bb.0:
	.save	{r7, lr}
	push	{r7, lr}
	.cfi_def_cfa_offset 8
	.cfi_offset lr, -4
	.cfi_offset r7, -8
	.pad	#8
	sub	sp, #8
	.cfi_def_cfa_offset 16
	str	r0, [sp, #4]
.Ltmp90:
	.loc	5 505 39 prologue_end           @ ../../../../Source/stream_buffer.c:505:39
	ldr	r0, [sp, #4]
	.loc	5 505 22 is_stmt 0              @ ../../../../Source/stream_buffer.c:505:22
	str	r0, [sp]
.Ltmp91:
	.loc	5 507 5 is_stmt 1               @ ../../../../Source/stream_buffer.c:507:5
	ldr	r0, [sp]
.Ltmp92:
	.loc	5 507 5 is_stmt 0               @ ../../../../Source/stream_buffer.c:507:5
	cbnz	r0, .LBB4_3
	b	.LBB4_1
.LBB4_1:
.Ltmp93:
	.loc	5 507 5                         @ ../../../../Source/stream_buffer.c:507:5
	@APP
	cpsid i
	@NO_APP
	b	.LBB4_2
.LBB4_2:                                @ =>This Inner Loop Header: Depth=1
.Ltmp94:
	.loc	5 507 5                         @ ../../../../Source/stream_buffer.c:507:5
	b	.LBB4_2
.Ltmp95:
.LBB4_3:
	.loc	5 511 11 is_stmt 1              @ ../../../../Source/stream_buffer.c:511:11
	ldr	r0, [sp]
	ldrb	r0, [r0, #28]
.Ltmp96:
	.loc	5 511 9 is_stmt 0               @ ../../../../Source/stream_buffer.c:511:9
	lsls	r0, r0, #30
	cmp	r0, #0
	bmi	.LBB4_5
	b	.LBB4_4
.LBB4_4:
.Ltmp97:
	.loc	5 517 35 is_stmt 1              @ ../../../../Source/stream_buffer.c:517:35
	ldr	r0, [sp]
	.loc	5 517 13 is_stmt 0              @ ../../../../Source/stream_buffer.c:517:13
	bl	vPortFree
.Ltmp98:
	.loc	5 526 5 is_stmt 1               @ ../../../../Source/stream_buffer.c:526:5
	b	.LBB4_6
.Ltmp99:
.LBB4_5:
	.loc	5 531 26                        @ ../../../../Source/stream_buffer.c:531:26
	ldr	r0, [sp]
	movs	r1, #36
	.loc	5 531 18 is_stmt 0              @ ../../../../Source/stream_buffer.c:531:18
	bl	__aeabi_memclr4
	b	.LBB4_6
.Ltmp100:
.LBB4_6:
	.loc	5 533 1 is_stmt 1               @ ../../../../Source/stream_buffer.c:533:1
	add	sp, #8
	pop	{r7, pc}
.Ltmp101:
.Lfunc_end4:
	.size	vStreamBufferDelete, .Lfunc_end4-vStreamBufferDelete
	.cfi_endproc
	.cantunwind
	.fnend
                                        @ -- End function
	.hidden	xStreamBufferReset              @ -- Begin function xStreamBufferReset
	.globl	xStreamBufferReset
	.p2align	1
	.type	xStreamBufferReset,%function
	.code	16                              @ @xStreamBufferReset
	.thumb_func
xStreamBufferReset:
.Lfunc_begin5:
	.loc	5 537 0                         @ ../../../../Source/stream_buffer.c:537:0
	.fnstart
	.cfi_startproc
@ %bb.0:
	.save	{r4, r5, r6, lr}
	push	{r4, r5, r6, lr}
	.cfi_def_cfa_offset 16
	.cfi_offset lr, -4
	.cfi_offset r6, -8
	.cfi_offset r5, -12
	.cfi_offset r4, -16
	.pad	#40
	sub	sp, #40
	.cfi_def_cfa_offset 56
	str	r0, [sp, #36]
.Ltmp102:
	.loc	5 538 45 prologue_end           @ ../../../../Source/stream_buffer.c:538:45
	ldr	r0, [sp, #36]
	.loc	5 538 28 is_stmt 0              @ ../../../../Source/stream_buffer.c:538:28
	str	r0, [sp, #32]
	movs	r0, #0
	.loc	5 539 16 is_stmt 1              @ ../../../../Source/stream_buffer.c:539:16
	str	r0, [sp, #28]
	.loc	5 540 36                        @ ../../../../Source/stream_buffer.c:540:36
	str	r0, [sp, #24]
	.loc	5 540 59 is_stmt 0              @ ../../../../Source/stream_buffer.c:540:59
	str	r0, [sp, #20]
.Ltmp103:
	.loc	5 546 5 is_stmt 1               @ ../../../../Source/stream_buffer.c:546:5
	ldr	r0, [sp, #32]
.Ltmp104:
	.loc	5 546 5 is_stmt 0               @ ../../../../Source/stream_buffer.c:546:5
	cbnz	r0, .LBB5_3
	b	.LBB5_1
.LBB5_1:
.Ltmp105:
	.loc	5 546 5                         @ ../../../../Source/stream_buffer.c:546:5
	@APP
	cpsid i
	@NO_APP
	b	.LBB5_2
.LBB5_2:                                @ =>This Inner Loop Header: Depth=1
.Ltmp106:
	.loc	5 546 5                         @ ../../../../Source/stream_buffer.c:546:5
	b	.LBB5_2
.Ltmp107:
.LBB5_3:
	.loc	5 552 32 is_stmt 1              @ ../../../../Source/stream_buffer.c:552:32
	ldr	r0, [sp, #32]
	.loc	5 552 48 is_stmt 0              @ ../../../../Source/stream_buffer.c:552:48
	ldr	r0, [r0, #32]
	.loc	5 552 30                        @ ../../../../Source/stream_buffer.c:552:30
	str	r0, [sp, #16]
.Ltmp108:
	.loc	5 557 5 is_stmt 1               @ ../../../../Source/stream_buffer.c:557:5
	bl	vPortEnterCritical
.Ltmp109:
	.loc	5 559 15                        @ ../../../../Source/stream_buffer.c:559:15
	ldr	r0, [sp, #32]
	.loc	5 559 31 is_stmt 0              @ ../../../../Source/stream_buffer.c:559:31
	ldr	r0, [r0, #16]
	.loc	5 559 63                        @ ../../../../Source/stream_buffer.c:559:63
	cbnz	r0, .LBB5_6
	b	.LBB5_4
.LBB5_4:
	.loc	5 559 68                        @ ../../../../Source/stream_buffer.c:559:68
	ldr	r0, [sp, #32]
	.loc	5 559 84                        @ ../../../../Source/stream_buffer.c:559:84
	ldr	r0, [r0, #20]
.Ltmp110:
	.loc	5 559 13                        @ ../../../../Source/stream_buffer.c:559:13
	cbnz	r0, .LBB5_6
	b	.LBB5_5
.LBB5_5:
.Ltmp111:
	.loc	5 568 43 is_stmt 1              @ ../../../../Source/stream_buffer.c:568:43
	ldr	r0, [sp, #32]
	.loc	5 569 59                        @ ../../../../Source/stream_buffer.c:569:59
	ldr	r1, [r0, #24]
	.loc	5 570 59                        @ ../../../../Source/stream_buffer.c:570:59
	ldr	r2, [r0, #8]
	.loc	5 571 59                        @ ../../../../Source/stream_buffer.c:571:59
	ldr	r3, [r0, #12]
	.loc	5 572 59                        @ ../../../../Source/stream_buffer.c:572:59
	ldrb	r4, [r0, #28]
	.loc	5 573 43                        @ ../../../../Source/stream_buffer.c:573:43
	ldr	r5, [sp, #24]
	.loc	5 574 43                        @ ../../../../Source/stream_buffer.c:574:43
	ldr	r6, [sp, #20]
	.loc	5 568 13                        @ ../../../../Source/stream_buffer.c:568:13
	str	r6, [sp, #8]
	str	r5, [sp, #4]
	str	r4, [sp]
	bl	prvInitialiseNewStreamBuffer
.Ltmp112:
	.loc	5 578 56                        @ ../../../../Source/stream_buffer.c:578:56
	ldr	r0, [sp, #16]
	.loc	5 578 17 is_stmt 0              @ ../../../../Source/stream_buffer.c:578:17
	ldr	r1, [sp, #32]
	.loc	5 578 54                        @ ../../../../Source/stream_buffer.c:578:54
	str	r0, [r1, #32]
	movs	r0, #1
.Ltmp113:
	.loc	5 584 21 is_stmt 1              @ ../../../../Source/stream_buffer.c:584:21
	str	r0, [sp, #28]
	.loc	5 585 9                         @ ../../../../Source/stream_buffer.c:585:9
	b	.LBB5_6
.Ltmp114:
.LBB5_6:
	.loc	5 587 5                         @ ../../../../Source/stream_buffer.c:587:5
	bl	vPortExitCritical
	.loc	5 589 12                        @ ../../../../Source/stream_buffer.c:589:12
	ldr	r0, [sp, #28]
	.loc	5 589 5 is_stmt 0               @ ../../../../Source/stream_buffer.c:589:5
	add	sp, #40
	pop	{r4, r5, r6, pc}
.Ltmp115:
.Lfunc_end5:
	.size	xStreamBufferReset, .Lfunc_end5-xStreamBufferReset
	.cfi_endproc
	.cantunwind
	.fnend
                                        @ -- End function
	.hidden	xStreamBufferSetTriggerLevel    @ -- Begin function xStreamBufferSetTriggerLevel
	.globl	xStreamBufferSetTriggerLevel
	.p2align	1
	.type	xStreamBufferSetTriggerLevel,%function
	.code	16                              @ @xStreamBufferSetTriggerLevel
	.thumb_func
xStreamBufferSetTriggerLevel:
.Lfunc_begin6:
	.loc	5 595 0 is_stmt 1               @ ../../../../Source/stream_buffer.c:595:0
	.fnstart
	.cfi_startproc
@ %bb.0:
	.pad	#16
	sub	sp, #16
	.cfi_def_cfa_offset 16
	str	r0, [sp, #12]
	str	r1, [sp, #8]
.Ltmp116:
	.loc	5 596 45 prologue_end           @ ../../../../Source/stream_buffer.c:596:45
	ldr	r0, [sp, #12]
	.loc	5 596 28 is_stmt 0              @ ../../../../Source/stream_buffer.c:596:28
	str	r0, [sp, #4]
.Ltmp117:
	.loc	5 599 5 is_stmt 1               @ ../../../../Source/stream_buffer.c:599:5
	ldr	r0, [sp, #4]
.Ltmp118:
	.loc	5 599 5 is_stmt 0               @ ../../../../Source/stream_buffer.c:599:5
	cbnz	r0, .LBB6_3
	b	.LBB6_1
.LBB6_1:
.Ltmp119:
	.loc	5 599 5                         @ ../../../../Source/stream_buffer.c:599:5
	@APP
	cpsid i
	@NO_APP
	b	.LBB6_2
.LBB6_2:                                @ =>This Inner Loop Header: Depth=1
.Ltmp120:
	.loc	5 599 5                         @ ../../../../Source/stream_buffer.c:599:5
	b	.LBB6_2
.Ltmp121:
.LBB6_3:
	.loc	5 602 9 is_stmt 1               @ ../../../../Source/stream_buffer.c:602:9
	ldr	r0, [sp, #8]
.Ltmp122:
	.loc	5 602 9 is_stmt 0               @ ../../../../Source/stream_buffer.c:602:9
	cbnz	r0, .LBB6_5
	b	.LBB6_4
.LBB6_4:
	.loc	5 0 9                           @ ../../../../Source/stream_buffer.c:0:9
	movs	r0, #1
.Ltmp123:
	.loc	5 604 23 is_stmt 1              @ ../../../../Source/stream_buffer.c:604:23
	str	r0, [sp, #8]
	.loc	5 605 5                         @ ../../../../Source/stream_buffer.c:605:5
	b	.LBB6_5
.Ltmp124:
.LBB6_5:
	.loc	5 609 9                         @ ../../../../Source/stream_buffer.c:609:9
	ldr	r0, [sp, #8]
	.loc	5 609 25 is_stmt 0              @ ../../../../Source/stream_buffer.c:609:25
	ldr	r1, [sp, #4]
	.loc	5 609 41                        @ ../../../../Source/stream_buffer.c:609:41
	ldr	r1, [r1, #8]
.Ltmp125:
	.loc	5 609 9                         @ ../../../../Source/stream_buffer.c:609:9
	cmp	r0, r1
	bhs	.LBB6_7
	b	.LBB6_6
.LBB6_6:
.Ltmp126:
	.loc	5 611 46 is_stmt 1              @ ../../../../Source/stream_buffer.c:611:46
	ldr	r0, [sp, #8]
	.loc	5 611 9 is_stmt 0               @ ../../../../Source/stream_buffer.c:611:9
	ldr	r1, [sp, #4]
	.loc	5 611 44                        @ ../../../../Source/stream_buffer.c:611:44
	str	r0, [r1, #12]
	movs	r0, #1
	.loc	5 612 17 is_stmt 1              @ ../../../../Source/stream_buffer.c:612:17
	str	r0, [sp]
	.loc	5 613 5                         @ ../../../../Source/stream_buffer.c:613:5
	b	.LBB6_8
.Ltmp127:
.LBB6_7:
	.loc	5 0 5 is_stmt 0                 @ ../../../../Source/stream_buffer.c:0:5
	movs	r0, #0
.Ltmp128:
	.loc	5 616 17 is_stmt 1              @ ../../../../Source/stream_buffer.c:616:17
	str	r0, [sp]
	b	.LBB6_8
.Ltmp129:
.LBB6_8:
	.loc	5 619 12                        @ ../../../../Source/stream_buffer.c:619:12
	ldr	r0, [sp]
	.loc	5 619 5 is_stmt 0               @ ../../../../Source/stream_buffer.c:619:5
	add	sp, #16
	bx	lr
.Ltmp130:
.Lfunc_end6:
	.size	xStreamBufferSetTriggerLevel, .Lfunc_end6-xStreamBufferSetTriggerLevel
	.cfi_endproc
	.cantunwind
	.fnend
                                        @ -- End function
	.hidden	xStreamBufferSpacesAvailable    @ -- Begin function xStreamBufferSpacesAvailable
	.globl	xStreamBufferSpacesAvailable
	.p2align	1
	.type	xStreamBufferSpacesAvailable,%function
	.code	16                              @ @xStreamBufferSpacesAvailable
	.thumb_func
xStreamBufferSpacesAvailable:
.Lfunc_begin7:
	.loc	5 624 0 is_stmt 1               @ ../../../../Source/stream_buffer.c:624:0
	.fnstart
	.cfi_startproc
@ %bb.0:
	.pad	#16
	sub	sp, #16
	.cfi_def_cfa_offset 16
	str	r0, [sp, #12]
.Ltmp131:
	.loc	5 625 51 prologue_end           @ ../../../../Source/stream_buffer.c:625:51
	ldr	r0, [sp, #12]
	.loc	5 625 34 is_stmt 0              @ ../../../../Source/stream_buffer.c:625:34
	str	r0, [sp, #8]
.Ltmp132:
	.loc	5 629 5 is_stmt 1               @ ../../../../Source/stream_buffer.c:629:5
	ldr	r0, [sp, #8]
.Ltmp133:
	.loc	5 629 5 is_stmt 0               @ ../../../../Source/stream_buffer.c:629:5
	cbnz	r0, .LBB7_3
	b	.LBB7_1
.LBB7_1:
.Ltmp134:
	.loc	5 629 5                         @ ../../../../Source/stream_buffer.c:629:5
	@APP
	cpsid i
	@NO_APP
	b	.LBB7_2
.LBB7_2:                                @ =>This Inner Loop Header: Depth=1
.Ltmp135:
	.loc	5 629 5                         @ ../../../../Source/stream_buffer.c:629:5
	b	.LBB7_2
.Ltmp136:
.LBB7_3:
	.loc	5 634 5 is_stmt 1               @ ../../../../Source/stream_buffer.c:634:5
	b	.LBB7_4
.LBB7_4:                                @ =>This Inner Loop Header: Depth=1
.Ltmp137:
	.loc	5 636 25                        @ ../../../../Source/stream_buffer.c:636:25
	ldr	r0, [sp, #8]
	.loc	5 636 41 is_stmt 0              @ ../../../../Source/stream_buffer.c:636:41
	ldr	r0, [r0]
	.loc	5 636 23                        @ ../../../../Source/stream_buffer.c:636:23
	str	r0, [sp]
	.loc	5 637 18 is_stmt 1              @ ../../../../Source/stream_buffer.c:637:18
	ldr	r1, [sp, #8]
	.loc	5 637 34 is_stmt 0              @ ../../../../Source/stream_buffer.c:637:34
	ldr	r0, [r1, #8]
	.loc	5 637 60                        @ ../../../../Source/stream_buffer.c:637:60
	ldr	r1, [r1]
	.loc	5 637 42                        @ ../../../../Source/stream_buffer.c:637:42
	adds	r0, r0, r1
	.loc	5 637 16                        @ ../../../../Source/stream_buffer.c:637:16
	str	r0, [sp, #4]
	.loc	5 638 19 is_stmt 1              @ ../../../../Source/stream_buffer.c:638:19
	ldr	r0, [sp, #8]
	.loc	5 638 35 is_stmt 0              @ ../../../../Source/stream_buffer.c:638:35
	ldr	r1, [r0, #4]
	.loc	5 638 16                        @ ../../../../Source/stream_buffer.c:638:16
	ldr	r0, [sp, #4]
	subs	r0, r0, r1
	str	r0, [sp, #4]
	.loc	5 639 5 is_stmt 1               @ ../../../../Source/stream_buffer.c:639:5
	b	.LBB7_5
.Ltmp138:
.LBB7_5:                                @   in Loop: Header=BB7_4 Depth=1
	.loc	5 639 14 is_stmt 0              @ ../../../../Source/stream_buffer.c:639:14
	ldr	r0, [sp]
	.loc	5 639 31                        @ ../../../../Source/stream_buffer.c:639:31
	ldr	r1, [sp, #8]
	.loc	5 639 47                        @ ../../../../Source/stream_buffer.c:639:47
	ldr	r1, [r1]
.Ltmp139:
	.loc	5 639 5                         @ ../../../../Source/stream_buffer.c:639:5
	cmp	r0, r1
	bne	.LBB7_4
	b	.LBB7_6
.Ltmp140:
.LBB7_6:
	.loc	5 641 12 is_stmt 1              @ ../../../../Source/stream_buffer.c:641:12
	ldr	r0, [sp, #4]
	subs	r0, r0, #1
	str	r0, [sp, #4]
.Ltmp141:
	.loc	5 643 9                         @ ../../../../Source/stream_buffer.c:643:9
	ldr	r0, [sp, #4]
	.loc	5 643 19 is_stmt 0              @ ../../../../Source/stream_buffer.c:643:19
	ldr	r1, [sp, #8]
	.loc	5 643 35                        @ ../../../../Source/stream_buffer.c:643:35
	ldr	r1, [r1, #8]
.Ltmp142:
	.loc	5 643 9                         @ ../../../../Source/stream_buffer.c:643:9
	cmp	r0, r1
	blo	.LBB7_8
	b	.LBB7_7
.LBB7_7:
.Ltmp143:
	.loc	5 645 19 is_stmt 1              @ ../../../../Source/stream_buffer.c:645:19
	ldr	r0, [sp, #8]
	.loc	5 645 35 is_stmt 0              @ ../../../../Source/stream_buffer.c:645:35
	ldr	r1, [r0, #8]
	.loc	5 645 16                        @ ../../../../Source/stream_buffer.c:645:16
	ldr	r0, [sp, #4]
	subs	r0, r0, r1
	str	r0, [sp, #4]
	.loc	5 646 5 is_stmt 1               @ ../../../../Source/stream_buffer.c:646:5
	b	.LBB7_9
.Ltmp144:
.LBB7_8:
	.loc	5 0 5 is_stmt 0                 @ ../../../../Source/stream_buffer.c:0:5
	b	.LBB7_9
.LBB7_9:
	.loc	5 652 12 is_stmt 1              @ ../../../../Source/stream_buffer.c:652:12
	ldr	r0, [sp, #4]
	.loc	5 652 5 is_stmt 0               @ ../../../../Source/stream_buffer.c:652:5
	add	sp, #16
	bx	lr
.Ltmp145:
.Lfunc_end7:
	.size	xStreamBufferSpacesAvailable, .Lfunc_end7-xStreamBufferSpacesAvailable
	.cfi_endproc
	.cantunwind
	.fnend
                                        @ -- End function
	.hidden	xStreamBufferBytesAvailable     @ -- Begin function xStreamBufferBytesAvailable
	.globl	xStreamBufferBytesAvailable
	.p2align	1
	.type	xStreamBufferBytesAvailable,%function
	.code	16                              @ @xStreamBufferBytesAvailable
	.thumb_func
xStreamBufferBytesAvailable:
.Lfunc_begin8:
	.loc	5 657 0 is_stmt 1               @ ../../../../Source/stream_buffer.c:657:0
	.fnstart
	.cfi_startproc
@ %bb.0:
	.save	{r7, lr}
	push	{r7, lr}
	.cfi_def_cfa_offset 8
	.cfi_offset lr, -4
	.cfi_offset r7, -8
	.pad	#16
	sub	sp, #16
	.cfi_def_cfa_offset 24
	str	r0, [sp, #12]
.Ltmp146:
	.loc	5 658 51 prologue_end           @ ../../../../Source/stream_buffer.c:658:51
	ldr	r0, [sp, #12]
	.loc	5 658 34 is_stmt 0              @ ../../../../Source/stream_buffer.c:658:34
	str	r0, [sp, #8]
.Ltmp147:
	.loc	5 661 5 is_stmt 1               @ ../../../../Source/stream_buffer.c:661:5
	ldr	r0, [sp, #8]
.Ltmp148:
	.loc	5 661 5 is_stmt 0               @ ../../../../Source/stream_buffer.c:661:5
	cbnz	r0, .LBB8_3
	b	.LBB8_1
.LBB8_1:
.Ltmp149:
	.loc	5 661 5                         @ ../../../../Source/stream_buffer.c:661:5
	@APP
	cpsid i
	@NO_APP
	b	.LBB8_2
.LBB8_2:                                @ =>This Inner Loop Header: Depth=1
.Ltmp150:
	.loc	5 661 5                         @ ../../../../Source/stream_buffer.c:661:5
	b	.LBB8_2
.Ltmp151:
.LBB8_3:
	.loc	5 663 33 is_stmt 1              @ ../../../../Source/stream_buffer.c:663:33
	ldr	r0, [sp, #8]
	.loc	5 663 15 is_stmt 0              @ ../../../../Source/stream_buffer.c:663:15
	bl	prvBytesInBuffer
	.loc	5 663 13                        @ ../../../../Source/stream_buffer.c:663:13
	str	r0, [sp, #4]
	.loc	5 664 12 is_stmt 1              @ ../../../../Source/stream_buffer.c:664:12
	ldr	r0, [sp, #4]
	.loc	5 664 5 is_stmt 0               @ ../../../../Source/stream_buffer.c:664:5
	add	sp, #16
	pop	{r7, pc}
.Ltmp152:
.Lfunc_end8:
	.size	xStreamBufferBytesAvailable, .Lfunc_end8-xStreamBufferBytesAvailable
	.cfi_endproc
	.cantunwind
	.fnend
                                        @ -- End function
	.p2align	1                               @ -- Begin function prvBytesInBuffer
	.type	prvBytesInBuffer,%function
	.code	16                              @ @prvBytesInBuffer
	.thumb_func
prvBytesInBuffer:
.Lfunc_begin9:
	.loc	5 1365 0 is_stmt 1              @ ../../../../Source/stream_buffer.c:1365:0
	.fnstart
	.cfi_startproc
@ %bb.0:
	.pad	#8
	sub	sp, #8
	.cfi_def_cfa_offset 8
	str	r0, [sp, #4]
.Ltmp153:
	.loc	5 1369 14 prologue_end          @ ../../../../Source/stream_buffer.c:1369:14
	ldr	r1, [sp, #4]
	.loc	5 1369 30 is_stmt 0             @ ../../../../Source/stream_buffer.c:1369:30
	ldr	r0, [r1, #8]
	.loc	5 1369 56                       @ ../../../../Source/stream_buffer.c:1369:56
	ldr	r1, [r1, #4]
	.loc	5 1369 38                       @ ../../../../Source/stream_buffer.c:1369:38
	adds	r0, r0, r1
	.loc	5 1369 12                       @ ../../../../Source/stream_buffer.c:1369:12
	str	r0, [sp]
	.loc	5 1370 15 is_stmt 1             @ ../../../../Source/stream_buffer.c:1370:15
	ldr	r0, [sp, #4]
	.loc	5 1370 31 is_stmt 0             @ ../../../../Source/stream_buffer.c:1370:31
	ldr	r1, [r0]
	.loc	5 1370 12                       @ ../../../../Source/stream_buffer.c:1370:12
	ldr	r0, [sp]
	subs	r0, r0, r1
	str	r0, [sp]
.Ltmp154:
	.loc	5 1372 9 is_stmt 1              @ ../../../../Source/stream_buffer.c:1372:9
	ldr	r0, [sp]
	.loc	5 1372 19 is_stmt 0             @ ../../../../Source/stream_buffer.c:1372:19
	ldr	r1, [sp, #4]
	.loc	5 1372 35                       @ ../../../../Source/stream_buffer.c:1372:35
	ldr	r1, [r1, #8]
.Ltmp155:
	.loc	5 1372 9                        @ ../../../../Source/stream_buffer.c:1372:9
	cmp	r0, r1
	blo	.LBB9_2
	b	.LBB9_1
.LBB9_1:
.Ltmp156:
	.loc	5 1374 19 is_stmt 1             @ ../../../../Source/stream_buffer.c:1374:19
	ldr	r0, [sp, #4]
	.loc	5 1374 35 is_stmt 0             @ ../../../../Source/stream_buffer.c:1374:35
	ldr	r1, [r0, #8]
	.loc	5 1374 16                       @ ../../../../Source/stream_buffer.c:1374:16
	ldr	r0, [sp]
	subs	r0, r0, r1
	str	r0, [sp]
	.loc	5 1375 5 is_stmt 1              @ ../../../../Source/stream_buffer.c:1375:5
	b	.LBB9_3
.Ltmp157:
.LBB9_2:
	.loc	5 0 5 is_stmt 0                 @ ../../../../Source/stream_buffer.c:0:5
	b	.LBB9_3
.LBB9_3:
	.loc	5 1381 12 is_stmt 1             @ ../../../../Source/stream_buffer.c:1381:12
	ldr	r0, [sp]
	.loc	5 1381 5 is_stmt 0              @ ../../../../Source/stream_buffer.c:1381:5
	add	sp, #8
	bx	lr
.Ltmp158:
.Lfunc_end9:
	.size	prvBytesInBuffer, .Lfunc_end9-prvBytesInBuffer
	.cfi_endproc
	.cantunwind
	.fnend
                                        @ -- End function
	.hidden	xStreamBufferSend               @ -- Begin function xStreamBufferSend
	.globl	xStreamBufferSend
	.p2align	1
	.type	xStreamBufferSend,%function
	.code	16                              @ @xStreamBufferSend
	.thumb_func
xStreamBufferSend:
.Lfunc_begin10:
	.loc	5 672 0 is_stmt 1               @ ../../../../Source/stream_buffer.c:672:0
	.fnstart
	.cfi_startproc
@ %bb.0:
	.save	{r4, lr}
	push	{r4, lr}
	.cfi_def_cfa_offset 8
	.cfi_offset lr, -4
	.cfi_offset r4, -8
	.pad	#56
	sub	sp, #56
	.cfi_def_cfa_offset 64
	str	r0, [sp, #52]
	str	r1, [sp, #48]
	str	r2, [sp, #44]
	str	r3, [sp, #40]
.Ltmp159:
	.loc	5 673 45 prologue_end           @ ../../../../Source/stream_buffer.c:673:45
	ldr	r0, [sp, #52]
	.loc	5 673 28 is_stmt 0              @ ../../../../Source/stream_buffer.c:673:28
	str	r0, [sp, #36]
	movs	r0, #0
	.loc	5 674 21 is_stmt 1              @ ../../../../Source/stream_buffer.c:674:21
	str	r0, [sp, #28]
	.loc	5 675 29                        @ ../../../../Source/stream_buffer.c:675:29
	ldr	r1, [sp, #44]
	.loc	5 675 12 is_stmt 0              @ ../../../../Source/stream_buffer.c:675:12
	str	r1, [sp, #24]
	.loc	5 677 12 is_stmt 1              @ ../../../../Source/stream_buffer.c:677:12
	str	r0, [sp, #12]
.Ltmp160:
	.loc	5 679 5                         @ ../../../../Source/stream_buffer.c:679:5
	ldr	r0, [sp, #48]
.Ltmp161:
	.loc	5 679 5 is_stmt 0               @ ../../../../Source/stream_buffer.c:679:5
	cbnz	r0, .LBB10_3
	b	.LBB10_1
.LBB10_1:
.Ltmp162:
	.loc	5 679 5                         @ ../../../../Source/stream_buffer.c:679:5
	@APP
	cpsid i
	@NO_APP
	b	.LBB10_2
.LBB10_2:                               @ =>This Inner Loop Header: Depth=1
.Ltmp163:
	.loc	5 679 5                         @ ../../../../Source/stream_buffer.c:679:5
	b	.LBB10_2
.Ltmp164:
.LBB10_3:
	.loc	5 680 5 is_stmt 1               @ ../../../../Source/stream_buffer.c:680:5
	ldr	r0, [sp, #36]
.Ltmp165:
	.loc	5 680 5 is_stmt 0               @ ../../../../Source/stream_buffer.c:680:5
	cbnz	r0, .LBB10_6
	b	.LBB10_4
.LBB10_4:
.Ltmp166:
	.loc	5 680 5                         @ ../../../../Source/stream_buffer.c:680:5
	@APP
	cpsid i
	@NO_APP
	b	.LBB10_5
.LBB10_5:                               @ =>This Inner Loop Header: Depth=1
.Ltmp167:
	.loc	5 680 5                         @ ../../../../Source/stream_buffer.c:680:5
	b	.LBB10_5
.Ltmp168:
.LBB10_6:
	.loc	5 684 25 is_stmt 1              @ ../../../../Source/stream_buffer.c:684:25
	ldr	r0, [sp, #36]
	.loc	5 684 41 is_stmt 0              @ ../../../../Source/stream_buffer.c:684:41
	ldr	r0, [r0, #8]
	.loc	5 684 49                        @ ../../../../Source/stream_buffer.c:684:49
	subs	r0, r0, #1
	.loc	5 684 23                        @ ../../../../Source/stream_buffer.c:684:23
	str	r0, [sp, #12]
.Ltmp169:
	.loc	5 690 11 is_stmt 1              @ ../../../../Source/stream_buffer.c:690:11
	ldr	r0, [sp, #36]
	ldrb	r0, [r0, #28]
.Ltmp170:
	.loc	5 690 9 is_stmt 0               @ ../../../../Source/stream_buffer.c:690:9
	lsls	r0, r0, #31
	cbz	r0, .LBB10_14
	b	.LBB10_7
.LBB10_7:
.Ltmp171:
	.loc	5 692 24 is_stmt 1              @ ../../../../Source/stream_buffer.c:692:24
	ldr	r0, [sp, #24]
	adds	r0, r0, #4
	str	r0, [sp, #24]
.Ltmp172:
	.loc	5 695 9                         @ ../../../../Source/stream_buffer.c:695:9
	ldr	r0, [sp, #24]
	ldr	r1, [sp, #44]
.Ltmp173:
	.loc	5 695 9 is_stmt 0               @ ../../../../Source/stream_buffer.c:695:9
	cmp	r0, r1
	bhi	.LBB10_10
	b	.LBB10_8
.LBB10_8:
.Ltmp174:
	.loc	5 695 9                         @ ../../../../Source/stream_buffer.c:695:9
	@APP
	cpsid i
	@NO_APP
	b	.LBB10_9
.LBB10_9:                               @ =>This Inner Loop Header: Depth=1
.Ltmp175:
	.loc	5 695 9                         @ ../../../../Source/stream_buffer.c:695:9
	b	.LBB10_9
.Ltmp176:
.LBB10_10:
	.loc	5 699 13 is_stmt 1              @ ../../../../Source/stream_buffer.c:699:13
	ldr	r0, [sp, #24]
	.loc	5 699 30 is_stmt 0              @ ../../../../Source/stream_buffer.c:699:30
	ldr	r1, [sp, #12]
.Ltmp177:
	.loc	5 699 13                        @ ../../../../Source/stream_buffer.c:699:13
	cmp	r0, r1
	bls	.LBB10_12
	b	.LBB10_11
.LBB10_11:
	.loc	5 0 13                          @ ../../../../Source/stream_buffer.c:0:13
	movs	r0, #0
.Ltmp178:
	.loc	5 703 26 is_stmt 1              @ ../../../../Source/stream_buffer.c:703:26
	str	r0, [sp, #40]
	.loc	5 704 9                         @ ../../../../Source/stream_buffer.c:704:9
	b	.LBB10_13
.Ltmp179:
.LBB10_12:
	.loc	5 0 9 is_stmt 0                 @ ../../../../Source/stream_buffer.c:0:9
	b	.LBB10_13
.LBB10_13:
	.loc	5 709 5 is_stmt 1               @ ../../../../Source/stream_buffer.c:709:5
	b	.LBB10_18
.Ltmp180:
.LBB10_14:
	.loc	5 715 13                        @ ../../../../Source/stream_buffer.c:715:13
	ldr	r0, [sp, #24]
	.loc	5 715 30 is_stmt 0              @ ../../../../Source/stream_buffer.c:715:30
	ldr	r1, [sp, #12]
.Ltmp181:
	.loc	5 715 13                        @ ../../../../Source/stream_buffer.c:715:13
	cmp	r0, r1
	bls	.LBB10_16
	b	.LBB10_15
.LBB10_15:
.Ltmp182:
	.loc	5 717 30 is_stmt 1              @ ../../../../Source/stream_buffer.c:717:30
	ldr	r0, [sp, #12]
	.loc	5 717 28 is_stmt 0              @ ../../../../Source/stream_buffer.c:717:28
	str	r0, [sp, #24]
	.loc	5 718 9 is_stmt 1               @ ../../../../Source/stream_buffer.c:718:9
	b	.LBB10_17
.Ltmp183:
.LBB10_16:
	.loc	5 0 9 is_stmt 0                 @ ../../../../Source/stream_buffer.c:0:9
	b	.LBB10_17
.LBB10_17:
	b	.LBB10_18
.LBB10_18:
.Ltmp184:
	.loc	5 725 9 is_stmt 1               @ ../../../../Source/stream_buffer.c:725:9
	ldr	r0, [sp, #40]
.Ltmp185:
	.loc	5 725 9 is_stmt 0               @ ../../../../Source/stream_buffer.c:725:9
	cbz	r0, .LBB10_29
	b	.LBB10_19
.LBB10_19:
	.loc	5 0 9                           @ ../../../../Source/stream_buffer.c:0:9
	add	r0, sp, #16
.Ltmp186:
	.loc	5 727 9 is_stmt 1               @ ../../../../Source/stream_buffer.c:727:9
	bl	vTaskSetTimeOutState
	.loc	5 729 9                         @ ../../../../Source/stream_buffer.c:729:9
	b	.LBB10_20
.LBB10_20:                              @ =>This Inner Loop Header: Depth=1
.Ltmp187:
	.loc	5 733 13                        @ ../../../../Source/stream_buffer.c:733:13
	bl	vPortEnterCritical
.Ltmp188:
	.loc	5 735 56                        @ ../../../../Source/stream_buffer.c:735:56
	ldr	r0, [sp, #36]
	.loc	5 735 26 is_stmt 0              @ ../../../../Source/stream_buffer.c:735:26
	bl	xStreamBufferSpacesAvailable
	.loc	5 735 24                        @ ../../../../Source/stream_buffer.c:735:24
	str	r0, [sp, #28]
.Ltmp189:
	.loc	5 737 21 is_stmt 1              @ ../../../../Source/stream_buffer.c:737:21
	ldr	r0, [sp, #28]
	.loc	5 737 30 is_stmt 0              @ ../../../../Source/stream_buffer.c:737:30
	ldr	r1, [sp, #24]
.Ltmp190:
	.loc	5 737 21                        @ ../../../../Source/stream_buffer.c:737:21
	cmp	r0, r1
	bhs	.LBB10_25
	b	.LBB10_21
.LBB10_21:                              @   in Loop: Header=BB10_20 Depth=1
	.loc	5 0 21                          @ ../../../../Source/stream_buffer.c:0:21
	movs	r1, #0
.Ltmp191:
	.loc	5 740 30 is_stmt 1              @ ../../../../Source/stream_buffer.c:740:30
	mov	r0, r1
	bl	xTaskGenericNotifyStateClear
.Ltmp192:
	.loc	5 743 21                        @ ../../../../Source/stream_buffer.c:743:21
	ldr	r0, [sp, #36]
	ldr	r0, [r0, #20]
.Ltmp193:
	.loc	5 743 21 is_stmt 0              @ ../../../../Source/stream_buffer.c:743:21
	cbz	r0, .LBB10_24
	b	.LBB10_22
.LBB10_22:
.Ltmp194:
	.loc	5 743 21                        @ ../../../../Source/stream_buffer.c:743:21
	@APP
	cpsid i
	@NO_APP
	b	.LBB10_23
.LBB10_23:                              @ =>This Inner Loop Header: Depth=1
.Ltmp195:
	.loc	5 743 21                        @ ../../../../Source/stream_buffer.c:743:21
	b	.LBB10_23
.Ltmp196:
.LBB10_24:                              @   in Loop: Header=BB10_20 Depth=1
	.loc	5 744 58 is_stmt 1              @ ../../../../Source/stream_buffer.c:744:58
	bl	xTaskGetCurrentTaskHandle
	.loc	5 744 21 is_stmt 0              @ ../../../../Source/stream_buffer.c:744:21
	ldr	r1, [sp, #36]
	.loc	5 744 56                        @ ../../../../Source/stream_buffer.c:744:56
	str	r0, [r1, #20]
	.loc	5 745 17 is_stmt 1              @ ../../../../Source/stream_buffer.c:745:17
	b	.LBB10_26
.Ltmp197:
.LBB10_25:
	.loc	5 748 21                        @ ../../../../Source/stream_buffer.c:748:21
	bl	vPortExitCritical
	.loc	5 749 21                        @ ../../../../Source/stream_buffer.c:749:21
	b	.LBB10_28
.Ltmp198:
.LBB10_26:                              @   in Loop: Header=BB10_20 Depth=1
	.loc	5 752 13                        @ ../../../../Source/stream_buffer.c:752:13
	bl	vPortExitCritical
	.loc	5 755 22                        @ ../../../../Source/stream_buffer.c:755:22
	ldr	r0, [sp, #40]
	str	r0, [sp]
	movs	r3, #0
	str	r3, [sp, #8]                    @ 4-byte Spill
	mov	r0, r3
	mov	r1, r3
	mov	r2, r3
	bl	xTaskGenericNotifyWait
                                        @ kill: def $r1 killed $r0
	.loc	5 756 13                        @ ../../../../Source/stream_buffer.c:756:13
	ldr	r0, [sp, #8]                    @ 4-byte Reload
	ldr	r1, [sp, #36]
	.loc	5 756 48 is_stmt 0              @ ../../../../Source/stream_buffer.c:756:48
	str	r0, [r1, #20]
	.loc	5 757 9 is_stmt 1               @ ../../../../Source/stream_buffer.c:757:9
	b	.LBB10_27
.Ltmp199:
.LBB10_27:                              @   in Loop: Header=BB10_20 Depth=1
	.loc	5 0 9 is_stmt 0                 @ ../../../../Source/stream_buffer.c:0:9
	add	r0, sp, #16
	add	r1, sp, #40
	.loc	5 757 18                        @ ../../../../Source/stream_buffer.c:757:18
	bl	xTaskCheckForTimeOut
.Ltmp200:
	.loc	5 757 9                         @ ../../../../Source/stream_buffer.c:757:9
	cmp	r0, #0
	beq	.LBB10_20
	b	.LBB10_28
.Ltmp201:
.LBB10_28:
	.loc	5 758 5 is_stmt 1               @ ../../../../Source/stream_buffer.c:758:5
	b	.LBB10_30
.Ltmp202:
.LBB10_29:
	.loc	5 0 5 is_stmt 0                 @ ../../../../Source/stream_buffer.c:0:5
	b	.LBB10_30
.LBB10_30:
.Ltmp203:
	.loc	5 764 9 is_stmt 1               @ ../../../../Source/stream_buffer.c:764:9
	ldr	r0, [sp, #28]
.Ltmp204:
	.loc	5 764 9 is_stmt 0               @ ../../../../Source/stream_buffer.c:764:9
	cbnz	r0, .LBB10_32
	b	.LBB10_31
.LBB10_31:
.Ltmp205:
	.loc	5 766 48 is_stmt 1              @ ../../../../Source/stream_buffer.c:766:48
	ldr	r0, [sp, #36]
	.loc	5 766 18 is_stmt 0              @ ../../../../Source/stream_buffer.c:766:18
	bl	xStreamBufferSpacesAvailable
	.loc	5 766 16                        @ ../../../../Source/stream_buffer.c:766:16
	str	r0, [sp, #28]
	.loc	5 767 5 is_stmt 1               @ ../../../../Source/stream_buffer.c:767:5
	b	.LBB10_33
.Ltmp206:
.LBB10_32:
	.loc	5 0 5 is_stmt 0                 @ ../../../../Source/stream_buffer.c:0:5
	b	.LBB10_33
.LBB10_33:
	.loc	5 773 40 is_stmt 1              @ ../../../../Source/stream_buffer.c:773:40
	ldr	r0, [sp, #36]
	.loc	5 773 56 is_stmt 0              @ ../../../../Source/stream_buffer.c:773:56
	ldr	r1, [sp, #48]
	.loc	5 773 66                        @ ../../../../Source/stream_buffer.c:773:66
	ldr	r2, [sp, #44]
	.loc	5 773 84                        @ ../../../../Source/stream_buffer.c:773:84
	ldr	r3, [sp, #28]
	.loc	5 773 92                        @ ../../../../Source/stream_buffer.c:773:92
	ldr	r4, [sp, #24]
	.loc	5 773 15                        @ ../../../../Source/stream_buffer.c:773:15
	str	r4, [sp]
	bl	prvWriteMessageToBuffer
	.loc	5 773 13                        @ ../../../../Source/stream_buffer.c:773:13
	str	r0, [sp, #32]
.Ltmp207:
	.loc	5 775 9 is_stmt 1               @ ../../../../Source/stream_buffer.c:775:9
	ldr	r0, [sp, #32]
.Ltmp208:
	.loc	5 775 9 is_stmt 0               @ ../../../../Source/stream_buffer.c:775:9
	cbz	r0, .LBB10_40
	b	.LBB10_34
.LBB10_34:
.Ltmp209:
	.loc	5 780 31 is_stmt 1              @ ../../../../Source/stream_buffer.c:780:31
	ldr	r0, [sp, #36]
	.loc	5 780 13 is_stmt 0              @ ../../../../Source/stream_buffer.c:780:13
	bl	prvBytesInBuffer
	.loc	5 780 51                        @ ../../../../Source/stream_buffer.c:780:51
	ldr	r1, [sp, #36]
	.loc	5 780 67                        @ ../../../../Source/stream_buffer.c:780:67
	ldr	r1, [r1, #12]
.Ltmp210:
	.loc	5 780 13                        @ ../../../../Source/stream_buffer.c:780:13
	cmp	r0, r1
	blo	.LBB10_38
	b	.LBB10_35
.LBB10_35:
.Ltmp211:
	.loc	5 782 13 is_stmt 1              @ ../../../../Source/stream_buffer.c:782:13
	bl	vTaskSuspendAll
.Ltmp212:
	.loc	5 782 13 is_stmt 0              @ ../../../../Source/stream_buffer.c:782:13
	ldr	r0, [sp, #36]
	ldr	r0, [r0, #16]
.Ltmp213:
	.loc	5 782 13                        @ ../../../../Source/stream_buffer.c:782:13
	cbz	r0, .LBB10_37
	b	.LBB10_36
.LBB10_36:
.Ltmp214:
	.loc	5 782 13                        @ ../../../../Source/stream_buffer.c:782:13
	ldr	r0, [sp, #36]
	ldr	r0, [r0, #16]
	movs	r3, #0
	str	r3, [sp, #4]                    @ 4-byte Spill
	str	r3, [sp]
	mov	r1, r3
	mov	r2, r3
	bl	xTaskGenericNotify
                                        @ kill: def $r1 killed $r0
	ldr	r0, [sp, #4]                    @ 4-byte Reload
	ldr	r1, [sp, #36]
	str	r0, [r1, #16]
	b	.LBB10_37
.Ltmp215:
.LBB10_37:
	.loc	5 782 13                        @ ../../../../Source/stream_buffer.c:782:13
	bl	xTaskResumeAll
	.loc	5 783 9 is_stmt 1               @ ../../../../Source/stream_buffer.c:783:9
	b	.LBB10_39
.Ltmp216:
.LBB10_38:
	.loc	5 0 9 is_stmt 0                 @ ../../../../Source/stream_buffer.c:0:9
	b	.LBB10_39
.LBB10_39:
	.loc	5 788 5 is_stmt 1               @ ../../../../Source/stream_buffer.c:788:5
	b	.LBB10_41
.Ltmp217:
.LBB10_40:
	.loc	5 0 5 is_stmt 0                 @ ../../../../Source/stream_buffer.c:0:5
	b	.LBB10_41
.LBB10_41:
	.loc	5 795 12 is_stmt 1              @ ../../../../Source/stream_buffer.c:795:12
	ldr	r0, [sp, #32]
	.loc	5 795 5 is_stmt 0               @ ../../../../Source/stream_buffer.c:795:5
	add	sp, #56
	pop	{r4, pc}
.Ltmp218:
.Lfunc_end10:
	.size	xStreamBufferSend, .Lfunc_end10-xStreamBufferSend
	.cfi_endproc
	.cantunwind
	.fnend
                                        @ -- End function
	.p2align	1                               @ -- Begin function prvWriteMessageToBuffer
	.type	prvWriteMessageToBuffer,%function
	.code	16                              @ @prvWriteMessageToBuffer
	.thumb_func
prvWriteMessageToBuffer:
.Lfunc_begin11:
	.loc	5 855 0 is_stmt 1               @ ../../../../Source/stream_buffer.c:855:0
	.fnstart
	.cfi_startproc
@ %bb.0:
	.save	{r4, lr}
	push	{r4, lr}
	.cfi_def_cfa_offset 8
	.cfi_offset lr, -4
	.cfi_offset r4, -8
	.pad	#32
	sub	sp, #32
	.cfi_def_cfa_offset 40
	ldr	r4, [sp, #40]
	str	r0, [sp, #28]
	str	r1, [sp, #24]
	str	r2, [sp, #20]
	str	r3, [sp, #16]
.Ltmp219:
	.loc	5 856 24 prologue_end           @ ../../../../Source/stream_buffer.c:856:24
	ldr	r0, [sp, #28]
	.loc	5 856 40 is_stmt 0              @ ../../../../Source/stream_buffer.c:856:40
	ldr	r0, [r0, #4]
	.loc	5 856 12                        @ ../../../../Source/stream_buffer.c:856:12
	str	r0, [sp, #12]
.Ltmp220:
	.loc	5 859 11 is_stmt 1              @ ../../../../Source/stream_buffer.c:859:11
	ldr	r0, [sp, #28]
	ldrb	r0, [r0, #28]
.Ltmp221:
	.loc	5 859 9 is_stmt 0               @ ../../../../Source/stream_buffer.c:859:9
	lsls	r0, r0, #31
	cbz	r0, .LBB11_8
	b	.LBB11_1
.LBB11_1:
.Ltmp222:
	.loc	5 864 63 is_stmt 1              @ ../../../../Source/stream_buffer.c:864:63
	ldr	r0, [sp, #20]
	.loc	5 864 24 is_stmt 0              @ ../../../../Source/stream_buffer.c:864:24
	str	r0, [sp, #8]
.Ltmp223:
	.loc	5 867 9 is_stmt 1               @ ../../../../Source/stream_buffer.c:867:9
	ldr	r0, [sp, #8]
	ldr	r1, [sp, #20]
.Ltmp224:
	.loc	5 867 9 is_stmt 0               @ ../../../../Source/stream_buffer.c:867:9
	cmp	r0, r1
	beq	.LBB11_4
	b	.LBB11_2
.LBB11_2:
.Ltmp225:
	.loc	5 867 9                         @ ../../../../Source/stream_buffer.c:867:9
	@APP
	cpsid i
	@NO_APP
	b	.LBB11_3
.LBB11_3:                               @ =>This Inner Loop Header: Depth=1
.Ltmp226:
	.loc	5 867 9                         @ ../../../../Source/stream_buffer.c:867:9
	b	.LBB11_3
.Ltmp227:
.LBB11_4:
	.loc	5 869 13 is_stmt 1              @ ../../../../Source/stream_buffer.c:869:13
	ldr	r0, [sp, #16]
	.loc	5 869 23 is_stmt 0              @ ../../../../Source/stream_buffer.c:869:23
	ldr	r1, [sp, #40]
.Ltmp228:
	.loc	5 869 13                        @ ../../../../Source/stream_buffer.c:869:13
	cmp	r0, r1
	blo	.LBB11_6
	b	.LBB11_5
.LBB11_5:
.Ltmp229:
	.loc	5 874 48 is_stmt 1              @ ../../../../Source/stream_buffer.c:874:48
	ldr	r0, [sp, #28]
	.loc	5 874 138 is_stmt 0             @ ../../../../Source/stream_buffer.c:874:138
	ldr	r3, [sp, #12]
	add	r1, sp, #8
	movs	r2, #4
	.loc	5 874 25                        @ ../../../../Source/stream_buffer.c:874:25
	bl	prvWriteBytesToBuffer
	.loc	5 874 23                        @ ../../../../Source/stream_buffer.c:874:23
	str	r0, [sp, #12]
	.loc	5 875 9 is_stmt 1               @ ../../../../Source/stream_buffer.c:875:9
	b	.LBB11_7
.Ltmp230:
.LBB11_6:
	.loc	5 0 9 is_stmt 0                 @ ../../../../Source/stream_buffer.c:0:9
	movs	r0, #0
.Ltmp231:
	.loc	5 879 30 is_stmt 1              @ ../../../../Source/stream_buffer.c:879:30
	str	r0, [sp, #20]
	b	.LBB11_7
.Ltmp232:
.LBB11_7:
	.loc	5 881 5                         @ ../../../../Source/stream_buffer.c:881:5
	b	.LBB11_12
.Ltmp233:
.LBB11_8:
	.loc	5 887 28                        @ ../../../../Source/stream_buffer.c:887:28
	ldr	r0, [sp, #20]
	ldr	r1, [sp, #16]
	cmp	r0, r1
	bhs	.LBB11_10
	b	.LBB11_9
.LBB11_9:
	ldr	r0, [sp, #20]
	str	r0, [sp, #4]                    @ 4-byte Spill
	b	.LBB11_11
.LBB11_10:
	ldr	r0, [sp, #16]
	str	r0, [sp, #4]                    @ 4-byte Spill
	b	.LBB11_11
.LBB11_11:
	ldr	r0, [sp, #4]                    @ 4-byte Reload
	.loc	5 887 26 is_stmt 0              @ ../../../../Source/stream_buffer.c:887:26
	str	r0, [sp, #20]
	b	.LBB11_12
.Ltmp234:
.LBB11_12:
	.loc	5 890 9 is_stmt 1               @ ../../../../Source/stream_buffer.c:890:9
	ldr	r0, [sp, #20]
.Ltmp235:
	.loc	5 890 9 is_stmt 0               @ ../../../../Source/stream_buffer.c:890:9
	cbz	r0, .LBB11_14
	b	.LBB11_13
.LBB11_13:
.Ltmp236:
	.loc	5 893 56 is_stmt 1              @ ../../../../Source/stream_buffer.c:893:56
	ldr	r0, [sp, #28]
	.loc	5 893 92 is_stmt 0              @ ../../../../Source/stream_buffer.c:893:92
	ldr	r1, [sp, #24]
	.loc	5 893 102                       @ ../../../../Source/stream_buffer.c:893:102
	ldr	r2, [sp, #20]
	.loc	5 893 120                       @ ../../../../Source/stream_buffer.c:893:120
	ldr	r3, [sp, #12]
	.loc	5 893 33                        @ ../../../../Source/stream_buffer.c:893:33
	bl	prvWriteBytesToBuffer
	.loc	5 893 9                         @ ../../../../Source/stream_buffer.c:893:9
	ldr	r1, [sp, #28]
	.loc	5 893 31                        @ ../../../../Source/stream_buffer.c:893:31
	str	r0, [r1, #4]
	.loc	5 894 5 is_stmt 1               @ ../../../../Source/stream_buffer.c:894:5
	b	.LBB11_14
.Ltmp237:
.LBB11_14:
	.loc	5 896 12                        @ ../../../../Source/stream_buffer.c:896:12
	ldr	r0, [sp, #20]
	.loc	5 896 5 is_stmt 0               @ ../../../../Source/stream_buffer.c:896:5
	add	sp, #32
	pop	{r4, pc}
.Ltmp238:
.Lfunc_end11:
	.size	prvWriteMessageToBuffer, .Lfunc_end11-prvWriteMessageToBuffer
	.cfi_endproc
	.cantunwind
	.fnend
                                        @ -- End function
	.hidden	xStreamBufferSendFromISR        @ -- Begin function xStreamBufferSendFromISR
	.globl	xStreamBufferSendFromISR
	.p2align	1
	.type	xStreamBufferSendFromISR,%function
	.code	16                              @ @xStreamBufferSendFromISR
	.thumb_func
xStreamBufferSendFromISR:
.Lfunc_begin12:
	.loc	5 803 0 is_stmt 1               @ ../../../../Source/stream_buffer.c:803:0
	.fnstart
	.cfi_startproc
@ %bb.0:
	.save	{r4, lr}
	push	{r4, lr}
	.cfi_def_cfa_offset 8
	.cfi_offset lr, -4
	.cfi_offset r4, -8
	.pad	#48
	sub	sp, #48
	.cfi_def_cfa_offset 56
	str	r0, [sp, #44]
	str	r1, [sp, #40]
	str	r2, [sp, #36]
	str	r3, [sp, #32]
.Ltmp239:
	.loc	5 804 45 prologue_end           @ ../../../../Source/stream_buffer.c:804:45
	ldr	r0, [sp, #44]
	.loc	5 804 28 is_stmt 0              @ ../../../../Source/stream_buffer.c:804:28
	str	r0, [sp, #28]
	.loc	5 806 29 is_stmt 1              @ ../../../../Source/stream_buffer.c:806:29
	ldr	r0, [sp, #36]
	.loc	5 806 12 is_stmt 0              @ ../../../../Source/stream_buffer.c:806:12
	str	r0, [sp, #16]
.Ltmp240:
	.loc	5 808 5 is_stmt 1               @ ../../../../Source/stream_buffer.c:808:5
	ldr	r0, [sp, #40]
.Ltmp241:
	.loc	5 808 5 is_stmt 0               @ ../../../../Source/stream_buffer.c:808:5
	cbnz	r0, .LBB12_3
	b	.LBB12_1
.LBB12_1:
.Ltmp242:
	.loc	5 808 5                         @ ../../../../Source/stream_buffer.c:808:5
	@APP
	cpsid i
	@NO_APP
	b	.LBB12_2
.LBB12_2:                               @ =>This Inner Loop Header: Depth=1
.Ltmp243:
	.loc	5 808 5                         @ ../../../../Source/stream_buffer.c:808:5
	b	.LBB12_2
.Ltmp244:
.LBB12_3:
	.loc	5 809 5 is_stmt 1               @ ../../../../Source/stream_buffer.c:809:5
	ldr	r0, [sp, #28]
.Ltmp245:
	.loc	5 809 5 is_stmt 0               @ ../../../../Source/stream_buffer.c:809:5
	cbnz	r0, .LBB12_6
	b	.LBB12_4
.LBB12_4:
.Ltmp246:
	.loc	5 809 5                         @ ../../../../Source/stream_buffer.c:809:5
	@APP
	cpsid i
	@NO_APP
	b	.LBB12_5
.LBB12_5:                               @ =>This Inner Loop Header: Depth=1
.Ltmp247:
	.loc	5 809 5                         @ ../../../../Source/stream_buffer.c:809:5
	b	.LBB12_5
.Ltmp248:
.LBB12_6:
	.loc	5 815 11 is_stmt 1              @ ../../../../Source/stream_buffer.c:815:11
	ldr	r0, [sp, #28]
	ldrb	r0, [r0, #28]
.Ltmp249:
	.loc	5 815 9 is_stmt 0               @ ../../../../Source/stream_buffer.c:815:9
	lsls	r0, r0, #31
	cbz	r0, .LBB12_8
	b	.LBB12_7
.LBB12_7:
.Ltmp250:
	.loc	5 817 24 is_stmt 1              @ ../../../../Source/stream_buffer.c:817:24
	ldr	r0, [sp, #16]
	adds	r0, r0, #4
	str	r0, [sp, #16]
	.loc	5 818 5                         @ ../../../../Source/stream_buffer.c:818:5
	b	.LBB12_9
.Ltmp251:
.LBB12_8:
	.loc	5 0 5 is_stmt 0                 @ ../../../../Source/stream_buffer.c:0:5
	b	.LBB12_9
.LBB12_9:
	.loc	5 824 44 is_stmt 1              @ ../../../../Source/stream_buffer.c:824:44
	ldr	r0, [sp, #28]
	.loc	5 824 14 is_stmt 0              @ ../../../../Source/stream_buffer.c:824:14
	bl	xStreamBufferSpacesAvailable
	.loc	5 824 12                        @ ../../../../Source/stream_buffer.c:824:12
	str	r0, [sp, #20]
	.loc	5 825 40 is_stmt 1              @ ../../../../Source/stream_buffer.c:825:40
	ldr	r0, [sp, #28]
	.loc	5 825 56 is_stmt 0              @ ../../../../Source/stream_buffer.c:825:56
	ldr	r1, [sp, #40]
	.loc	5 825 66                        @ ../../../../Source/stream_buffer.c:825:66
	ldr	r2, [sp, #36]
	.loc	5 825 84                        @ ../../../../Source/stream_buffer.c:825:84
	ldr	r3, [sp, #20]
	.loc	5 825 92                        @ ../../../../Source/stream_buffer.c:825:92
	ldr	r4, [sp, #16]
	.loc	5 825 15                        @ ../../../../Source/stream_buffer.c:825:15
	str	r4, [sp]
	bl	prvWriteMessageToBuffer
	.loc	5 825 13                        @ ../../../../Source/stream_buffer.c:825:13
	str	r0, [sp, #24]
.Ltmp252:
	.loc	5 827 9 is_stmt 1               @ ../../../../Source/stream_buffer.c:827:9
	ldr	r0, [sp, #24]
.Ltmp253:
	.loc	5 827 9 is_stmt 0               @ ../../../../Source/stream_buffer.c:827:9
	cbz	r0, .LBB12_18
	b	.LBB12_10
.LBB12_10:
.Ltmp254:
	.loc	5 830 31 is_stmt 1              @ ../../../../Source/stream_buffer.c:830:31
	ldr	r0, [sp, #28]
	.loc	5 830 13 is_stmt 0              @ ../../../../Source/stream_buffer.c:830:13
	bl	prvBytesInBuffer
	.loc	5 830 51                        @ ../../../../Source/stream_buffer.c:830:51
	ldr	r1, [sp, #28]
	.loc	5 830 67                        @ ../../../../Source/stream_buffer.c:830:67
	ldr	r1, [r1, #12]
.Ltmp255:
	.loc	5 830 13                        @ ../../../../Source/stream_buffer.c:830:13
	cmp	r0, r1
	blo	.LBB12_16
	b	.LBB12_11
.LBB12_11:
.Ltmp256:
	.loc	5 832 13 is_stmt 1              @ ../../../../Source/stream_buffer.c:832:13
	b	.LBB12_12
.LBB12_12:
.Ltmp257:
	.loc	5 832 13 is_stmt 0              @ ../../../../Source/stream_buffer.c:832:13
	bl	ulSetInterruptMask
	str	r0, [sp, #12]
.Ltmp258:
	.loc	5 832 13                        @ ../../../../Source/stream_buffer.c:832:13
	ldr	r0, [sp, #28]
	ldr	r0, [r0, #16]
.Ltmp259:
	.loc	5 832 13                        @ ../../../../Source/stream_buffer.c:832:13
	cbz	r0, .LBB12_14
	b	.LBB12_13
.LBB12_13:
.Ltmp260:
	.loc	5 832 13                        @ ../../../../Source/stream_buffer.c:832:13
	ldr	r0, [sp, #28]
	ldr	r0, [r0, #16]
	ldr	r1, [sp, #32]
	str	r1, [sp, #4]
	movs	r3, #0
	str	r3, [sp, #8]                    @ 4-byte Spill
	str	r3, [sp]
	mov	r1, r3
	mov	r2, r3
	bl	xTaskGenericNotifyFromISR
                                        @ kill: def $r1 killed $r0
	ldr	r0, [sp, #8]                    @ 4-byte Reload
	ldr	r1, [sp, #28]
	str	r0, [r1, #16]
	b	.LBB12_14
.Ltmp261:
.LBB12_14:
	.loc	5 832 13                        @ ../../../../Source/stream_buffer.c:832:13
	ldr	r0, [sp, #12]
	bl	vClearInterruptMask
	b	.LBB12_15
.Ltmp262:
.LBB12_15:
	.loc	5 833 9 is_stmt 1               @ ../../../../Source/stream_buffer.c:833:9
	b	.LBB12_17
.Ltmp263:
.LBB12_16:
	.loc	5 0 9 is_stmt 0                 @ ../../../../Source/stream_buffer.c:0:9
	b	.LBB12_17
.LBB12_17:
	.loc	5 838 5 is_stmt 1               @ ../../../../Source/stream_buffer.c:838:5
	b	.LBB12_19
.Ltmp264:
.LBB12_18:
	.loc	5 0 5 is_stmt 0                 @ ../../../../Source/stream_buffer.c:0:5
	b	.LBB12_19
.LBB12_19:
	.loc	5 846 12 is_stmt 1              @ ../../../../Source/stream_buffer.c:846:12
	ldr	r0, [sp, #24]
	.loc	5 846 5 is_stmt 0               @ ../../../../Source/stream_buffer.c:846:5
	add	sp, #48
	pop	{r4, pc}
.Ltmp265:
.Lfunc_end12:
	.size	xStreamBufferSendFromISR, .Lfunc_end12-xStreamBufferSendFromISR
	.cfi_endproc
	.cantunwind
	.fnend
                                        @ -- End function
	.hidden	xStreamBufferReceive            @ -- Begin function xStreamBufferReceive
	.globl	xStreamBufferReceive
	.p2align	1
	.type	xStreamBufferReceive,%function
	.code	16                              @ @xStreamBufferReceive
	.thumb_func
xStreamBufferReceive:
.Lfunc_begin13:
	.loc	5 904 0 is_stmt 1               @ ../../../../Source/stream_buffer.c:904:0
	.fnstart
	.cfi_startproc
@ %bb.0:
	.save	{r7, lr}
	push	{r7, lr}
	.cfi_def_cfa_offset 8
	.cfi_offset lr, -4
	.cfi_offset r7, -8
	.pad	#48
	sub	sp, #48
	.cfi_def_cfa_offset 56
	str	r0, [sp, #44]
	str	r1, [sp, #40]
	str	r2, [sp, #36]
	str	r3, [sp, #32]
.Ltmp266:
	.loc	5 905 45 prologue_end           @ ../../../../Source/stream_buffer.c:905:45
	ldr	r0, [sp, #44]
	.loc	5 905 28 is_stmt 0              @ ../../../../Source/stream_buffer.c:905:28
	str	r0, [sp, #28]
	movs	r0, #0
	.loc	5 906 12 is_stmt 1              @ ../../../../Source/stream_buffer.c:906:12
	str	r0, [sp, #24]
.Ltmp267:
	.loc	5 908 5                         @ ../../../../Source/stream_buffer.c:908:5
	ldr	r0, [sp, #40]
.Ltmp268:
	.loc	5 908 5 is_stmt 0               @ ../../../../Source/stream_buffer.c:908:5
	cbnz	r0, .LBB13_3
	b	.LBB13_1
.LBB13_1:
.Ltmp269:
	.loc	5 908 5                         @ ../../../../Source/stream_buffer.c:908:5
	@APP
	cpsid i
	@NO_APP
	b	.LBB13_2
.LBB13_2:                               @ =>This Inner Loop Header: Depth=1
.Ltmp270:
	.loc	5 908 5                         @ ../../../../Source/stream_buffer.c:908:5
	b	.LBB13_2
.Ltmp271:
.LBB13_3:
	.loc	5 909 5 is_stmt 1               @ ../../../../Source/stream_buffer.c:909:5
	ldr	r0, [sp, #28]
.Ltmp272:
	.loc	5 909 5 is_stmt 0               @ ../../../../Source/stream_buffer.c:909:5
	cbnz	r0, .LBB13_6
	b	.LBB13_4
.LBB13_4:
.Ltmp273:
	.loc	5 909 5                         @ ../../../../Source/stream_buffer.c:909:5
	@APP
	cpsid i
	@NO_APP
	b	.LBB13_5
.LBB13_5:                               @ =>This Inner Loop Header: Depth=1
.Ltmp274:
	.loc	5 909 5                         @ ../../../../Source/stream_buffer.c:909:5
	b	.LBB13_5
.Ltmp275:
.LBB13_6:
	.loc	5 916 11 is_stmt 1              @ ../../../../Source/stream_buffer.c:916:11
	ldr	r0, [sp, #28]
	ldrb	r0, [r0, #28]
.Ltmp276:
	.loc	5 916 9 is_stmt 0               @ ../../../../Source/stream_buffer.c:916:9
	lsls	r0, r0, #31
	cbz	r0, .LBB13_8
	b	.LBB13_7
.LBB13_7:
	.loc	5 0 9                           @ ../../../../Source/stream_buffer.c:0:9
	movs	r0, #4
.Ltmp277:
	.loc	5 918 36 is_stmt 1              @ ../../../../Source/stream_buffer.c:918:36
	str	r0, [sp, #16]
	.loc	5 919 5                         @ ../../../../Source/stream_buffer.c:919:5
	b	.LBB13_9
.Ltmp278:
.LBB13_8:
	.loc	5 0 5 is_stmt 0                 @ ../../../../Source/stream_buffer.c:0:5
	movs	r0, #0
.Ltmp279:
	.loc	5 922 36 is_stmt 1              @ ../../../../Source/stream_buffer.c:922:36
	str	r0, [sp, #16]
	b	.LBB13_9
.Ltmp280:
.LBB13_9:
	.loc	5 925 9                         @ ../../../../Source/stream_buffer.c:925:9
	ldr	r0, [sp, #32]
.Ltmp281:
	.loc	5 925 9 is_stmt 0               @ ../../../../Source/stream_buffer.c:925:9
	cbz	r0, .LBB13_20
	b	.LBB13_10
.LBB13_10:
.Ltmp282:
	.loc	5 929 9 is_stmt 1               @ ../../../../Source/stream_buffer.c:929:9
	bl	vPortEnterCritical
.Ltmp283:
	.loc	5 931 49                        @ ../../../../Source/stream_buffer.c:931:49
	ldr	r0, [sp, #28]
	.loc	5 931 31 is_stmt 0              @ ../../../../Source/stream_buffer.c:931:31
	bl	prvBytesInBuffer
	.loc	5 931 29                        @ ../../../../Source/stream_buffer.c:931:29
	str	r0, [sp, #20]
.Ltmp284:
	.loc	5 938 17 is_stmt 1              @ ../../../../Source/stream_buffer.c:938:17
	ldr	r0, [sp, #20]
	.loc	5 938 36 is_stmt 0              @ ../../../../Source/stream_buffer.c:938:36
	ldr	r1, [sp, #16]
.Ltmp285:
	.loc	5 938 17                        @ ../../../../Source/stream_buffer.c:938:17
	cmp	r0, r1
	bhi	.LBB13_15
	b	.LBB13_11
.LBB13_11:
	.loc	5 0 17                          @ ../../../../Source/stream_buffer.c:0:17
	movs	r1, #0
.Ltmp286:
	.loc	5 941 26 is_stmt 1              @ ../../../../Source/stream_buffer.c:941:26
	mov	r0, r1
	bl	xTaskGenericNotifyStateClear
.Ltmp287:
	.loc	5 944 17                        @ ../../../../Source/stream_buffer.c:944:17
	ldr	r0, [sp, #28]
	ldr	r0, [r0, #16]
.Ltmp288:
	.loc	5 944 17 is_stmt 0              @ ../../../../Source/stream_buffer.c:944:17
	cbz	r0, .LBB13_14
	b	.LBB13_12
.LBB13_12:
.Ltmp289:
	.loc	5 944 17                        @ ../../../../Source/stream_buffer.c:944:17
	@APP
	cpsid i
	@NO_APP
	b	.LBB13_13
.LBB13_13:                              @ =>This Inner Loop Header: Depth=1
.Ltmp290:
	.loc	5 944 17                        @ ../../../../Source/stream_buffer.c:944:17
	b	.LBB13_13
.Ltmp291:
.LBB13_14:
	.loc	5 945 57 is_stmt 1              @ ../../../../Source/stream_buffer.c:945:57
	bl	xTaskGetCurrentTaskHandle
	.loc	5 945 17 is_stmt 0              @ ../../../../Source/stream_buffer.c:945:17
	ldr	r1, [sp, #28]
	.loc	5 945 55                        @ ../../../../Source/stream_buffer.c:945:55
	str	r0, [r1, #16]
	.loc	5 946 13 is_stmt 1              @ ../../../../Source/stream_buffer.c:946:13
	b	.LBB13_16
.Ltmp292:
.LBB13_15:
	.loc	5 0 13 is_stmt 0                @ ../../../../Source/stream_buffer.c:0:13
	b	.LBB13_16
.LBB13_16:
	.loc	5 952 9 is_stmt 1               @ ../../../../Source/stream_buffer.c:952:9
	bl	vPortExitCritical
.Ltmp293:
	.loc	5 954 13                        @ ../../../../Source/stream_buffer.c:954:13
	ldr	r0, [sp, #20]
	.loc	5 954 32 is_stmt 0              @ ../../../../Source/stream_buffer.c:954:32
	ldr	r1, [sp, #16]
.Ltmp294:
	.loc	5 954 13                        @ ../../../../Source/stream_buffer.c:954:13
	cmp	r0, r1
	bhi	.LBB13_18
	b	.LBB13_17
.LBB13_17:
.Ltmp295:
	.loc	5 958 22 is_stmt 1              @ ../../../../Source/stream_buffer.c:958:22
	ldr	r0, [sp, #32]
	str	r0, [sp]
	movs	r3, #0
	str	r3, [sp, #12]                   @ 4-byte Spill
	mov	r0, r3
	mov	r1, r3
	mov	r2, r3
	bl	xTaskGenericNotifyWait
                                        @ kill: def $r1 killed $r0
	.loc	5 959 13                        @ ../../../../Source/stream_buffer.c:959:13
	ldr	r0, [sp, #12]                   @ 4-byte Reload
	ldr	r1, [sp, #28]
	.loc	5 959 51 is_stmt 0              @ ../../../../Source/stream_buffer.c:959:51
	str	r0, [r1, #16]
	.loc	5 962 49 is_stmt 1              @ ../../../../Source/stream_buffer.c:962:49
	ldr	r0, [sp, #28]
	.loc	5 962 31 is_stmt 0              @ ../../../../Source/stream_buffer.c:962:31
	bl	prvBytesInBuffer
	.loc	5 962 29                        @ ../../../../Source/stream_buffer.c:962:29
	str	r0, [sp, #20]
	.loc	5 963 9 is_stmt 1               @ ../../../../Source/stream_buffer.c:963:9
	b	.LBB13_19
.Ltmp296:
.LBB13_18:
	.loc	5 0 9 is_stmt 0                 @ ../../../../Source/stream_buffer.c:0:9
	b	.LBB13_19
.LBB13_19:
	.loc	5 968 5 is_stmt 1               @ ../../../../Source/stream_buffer.c:968:5
	b	.LBB13_21
.Ltmp297:
.LBB13_20:
	.loc	5 971 45                        @ ../../../../Source/stream_buffer.c:971:45
	ldr	r0, [sp, #28]
	.loc	5 971 27 is_stmt 0              @ ../../../../Source/stream_buffer.c:971:27
	bl	prvBytesInBuffer
	.loc	5 971 25                        @ ../../../../Source/stream_buffer.c:971:25
	str	r0, [sp, #20]
	b	.LBB13_21
.Ltmp298:
.LBB13_21:
	.loc	5 979 9 is_stmt 1               @ ../../../../Source/stream_buffer.c:979:9
	ldr	r0, [sp, #20]
	.loc	5 979 27 is_stmt 0              @ ../../../../Source/stream_buffer.c:979:27
	ldr	r1, [sp, #16]
.Ltmp299:
	.loc	5 979 9                         @ ../../../../Source/stream_buffer.c:979:9
	cmp	r0, r1
	bls	.LBB13_28
	b	.LBB13_22
.LBB13_22:
.Ltmp300:
	.loc	5 981 53 is_stmt 1              @ ../../../../Source/stream_buffer.c:981:53
	ldr	r0, [sp, #28]
	.loc	5 981 69 is_stmt 0              @ ../../../../Source/stream_buffer.c:981:69
	ldr	r1, [sp, #40]
	.loc	5 981 79                        @ ../../../../Source/stream_buffer.c:981:79
	ldr	r2, [sp, #36]
	.loc	5 981 99                        @ ../../../../Source/stream_buffer.c:981:99
	ldr	r3, [sp, #20]
	.loc	5 981 27                        @ ../../../../Source/stream_buffer.c:981:27
	bl	prvReadMessageFromBuffer
	.loc	5 981 25                        @ ../../../../Source/stream_buffer.c:981:25
	str	r0, [sp, #24]
.Ltmp301:
	.loc	5 984 13 is_stmt 1              @ ../../../../Source/stream_buffer.c:984:13
	ldr	r0, [sp, #24]
.Ltmp302:
	.loc	5 984 13 is_stmt 0              @ ../../../../Source/stream_buffer.c:984:13
	cbz	r0, .LBB13_26
	b	.LBB13_23
.LBB13_23:
.Ltmp303:
	.loc	5 987 13 is_stmt 1              @ ../../../../Source/stream_buffer.c:987:13
	bl	vTaskSuspendAll
.Ltmp304:
	.loc	5 987 13 is_stmt 0              @ ../../../../Source/stream_buffer.c:987:13
	ldr	r0, [sp, #44]
	ldr	r0, [r0, #20]
.Ltmp305:
	.loc	5 987 13                        @ ../../../../Source/stream_buffer.c:987:13
	cbz	r0, .LBB13_25
	b	.LBB13_24
.LBB13_24:
.Ltmp306:
	.loc	5 987 13                        @ ../../../../Source/stream_buffer.c:987:13
	ldr	r0, [sp, #44]
	ldr	r0, [r0, #20]
	movs	r3, #0
	str	r3, [sp, #8]                    @ 4-byte Spill
	str	r3, [sp]
	mov	r1, r3
	mov	r2, r3
	bl	xTaskGenericNotify
                                        @ kill: def $r1 killed $r0
	ldr	r0, [sp, #8]                    @ 4-byte Reload
	ldr	r1, [sp, #44]
	str	r0, [r1, #20]
	b	.LBB13_25
.Ltmp307:
.LBB13_25:
	.loc	5 987 13                        @ ../../../../Source/stream_buffer.c:987:13
	bl	xTaskResumeAll
	.loc	5 988 9 is_stmt 1               @ ../../../../Source/stream_buffer.c:988:9
	b	.LBB13_27
.Ltmp308:
.LBB13_26:
	.loc	5 0 9 is_stmt 0                 @ ../../../../Source/stream_buffer.c:0:9
	b	.LBB13_27
.LBB13_27:
	.loc	5 993 5 is_stmt 1               @ ../../../../Source/stream_buffer.c:993:5
	b	.LBB13_29
.Ltmp309:
.LBB13_28:
	.loc	5 0 5 is_stmt 0                 @ ../../../../Source/stream_buffer.c:0:5
	b	.LBB13_29
.LBB13_29:
	.loc	5 1000 12 is_stmt 1             @ ../../../../Source/stream_buffer.c:1000:12
	ldr	r0, [sp, #24]
	.loc	5 1000 5 is_stmt 0              @ ../../../../Source/stream_buffer.c:1000:5
	add	sp, #48
	pop	{r7, pc}
.Ltmp310:
.Lfunc_end13:
	.size	xStreamBufferReceive, .Lfunc_end13-xStreamBufferReceive
	.cfi_endproc
	.cantunwind
	.fnend
                                        @ -- End function
	.p2align	1                               @ -- Begin function prvReadMessageFromBuffer
	.type	prvReadMessageFromBuffer,%function
	.code	16                              @ @prvReadMessageFromBuffer
	.thumb_func
prvReadMessageFromBuffer:
.Lfunc_begin14:
	.loc	5 1105 0 is_stmt 1              @ ../../../../Source/stream_buffer.c:1105:0
	.fnstart
	.cfi_startproc
@ %bb.0:
	.save	{r7, lr}
	push	{r7, lr}
	.cfi_def_cfa_offset 8
	.cfi_offset lr, -4
	.cfi_offset r7, -8
	.pad	#40
	sub	sp, #40
	.cfi_def_cfa_offset 48
	str	r0, [sp, #36]
	str	r1, [sp, #32]
	str	r2, [sp, #28]
	str	r3, [sp, #24]
.Ltmp311:
	.loc	5 1108 24 prologue_end          @ ../../../../Source/stream_buffer.c:1108:24
	ldr	r0, [sp, #36]
	.loc	5 1108 40 is_stmt 0             @ ../../../../Source/stream_buffer.c:1108:40
	ldr	r0, [r0]
	.loc	5 1108 12                       @ ../../../../Source/stream_buffer.c:1108:12
	str	r0, [sp, #8]
.Ltmp312:
	.loc	5 1110 11 is_stmt 1             @ ../../../../Source/stream_buffer.c:1110:11
	ldr	r0, [sp, #36]
	ldrb	r0, [r0, #28]
.Ltmp313:
	.loc	5 1110 9 is_stmt 0              @ ../../../../Source/stream_buffer.c:1110:9
	lsls	r0, r0, #31
	cbz	r0, .LBB14_5
	b	.LBB14_1
.LBB14_1:
.Ltmp314:
	.loc	5 1114 45 is_stmt 1             @ ../../../../Source/stream_buffer.c:1114:45
	ldr	r0, [sp, #36]
	.loc	5 1114 133 is_stmt 0            @ ../../../../Source/stream_buffer.c:1114:133
	ldr	r3, [sp, #8]
	add	r1, sp, #12
	movs	r2, #4
	.loc	5 1114 21                       @ ../../../../Source/stream_buffer.c:1114:21
	bl	prvReadBytesFromBuffer
	.loc	5 1114 19                       @ ../../../../Source/stream_buffer.c:1114:19
	str	r0, [sp, #8]
	.loc	5 1115 41 is_stmt 1             @ ../../../../Source/stream_buffer.c:1115:41
	ldr	r0, [sp, #12]
	.loc	5 1115 28 is_stmt 0             @ ../../../../Source/stream_buffer.c:1115:28
	str	r0, [sp, #16]
	.loc	5 1119 25 is_stmt 1             @ ../../../../Source/stream_buffer.c:1119:25
	ldr	r0, [sp, #24]
	subs	r0, r0, #4
	str	r0, [sp, #24]
.Ltmp315:
	.loc	5 1123 13                       @ ../../../../Source/stream_buffer.c:1123:13
	ldr	r0, [sp, #16]
	.loc	5 1123 34 is_stmt 0             @ ../../../../Source/stream_buffer.c:1123:34
	ldr	r1, [sp, #28]
.Ltmp316:
	.loc	5 1123 13                       @ ../../../../Source/stream_buffer.c:1123:13
	cmp	r0, r1
	bls	.LBB14_3
	b	.LBB14_2
.LBB14_2:
	.loc	5 0 13                          @ ../../../../Source/stream_buffer.c:0:13
	movs	r0, #0
.Ltmp317:
	.loc	5 1126 32 is_stmt 1             @ ../../../../Source/stream_buffer.c:1126:32
	str	r0, [sp, #16]
	.loc	5 1127 9                        @ ../../../../Source/stream_buffer.c:1127:9
	b	.LBB14_4
.Ltmp318:
.LBB14_3:
	.loc	5 0 9 is_stmt 0                 @ ../../../../Source/stream_buffer.c:0:9
	b	.LBB14_4
.LBB14_4:
	.loc	5 1132 5 is_stmt 1              @ ../../../../Source/stream_buffer.c:1132:5
	b	.LBB14_6
.Ltmp319:
.LBB14_5:
	.loc	5 1137 30                       @ ../../../../Source/stream_buffer.c:1137:30
	ldr	r0, [sp, #28]
	.loc	5 1137 28 is_stmt 0             @ ../../../../Source/stream_buffer.c:1137:28
	str	r0, [sp, #16]
	b	.LBB14_6
.Ltmp320:
.LBB14_6:
	.loc	5 1141 14 is_stmt 1             @ ../../../../Source/stream_buffer.c:1141:14
	ldr	r0, [sp, #16]
	ldr	r1, [sp, #24]
	cmp	r0, r1
	bhs	.LBB14_8
	b	.LBB14_7
.LBB14_7:
	ldr	r0, [sp, #16]
	str	r0, [sp, #4]                    @ 4-byte Spill
	b	.LBB14_9
.LBB14_8:
	ldr	r0, [sp, #24]
	str	r0, [sp, #4]                    @ 4-byte Spill
	b	.LBB14_9
.LBB14_9:
	ldr	r0, [sp, #4]                    @ 4-byte Reload
	.loc	5 1141 12 is_stmt 0             @ ../../../../Source/stream_buffer.c:1141:12
	str	r0, [sp, #20]
.Ltmp321:
	.loc	5 1143 9 is_stmt 1              @ ../../../../Source/stream_buffer.c:1143:9
	ldr	r0, [sp, #20]
.Ltmp322:
	.loc	5 1143 9 is_stmt 0              @ ../../../../Source/stream_buffer.c:1143:9
	cbz	r0, .LBB14_11
	b	.LBB14_10
.LBB14_10:
.Ltmp323:
	.loc	5 1146 57 is_stmt 1             @ ../../../../Source/stream_buffer.c:1146:57
	ldr	r0, [sp, #36]
	.loc	5 1146 87 is_stmt 0             @ ../../../../Source/stream_buffer.c:1146:87
	ldr	r1, [sp, #32]
	.loc	5 1146 97                       @ ../../../../Source/stream_buffer.c:1146:97
	ldr	r2, [sp, #20]
	.loc	5 1146 105                      @ ../../../../Source/stream_buffer.c:1146:105
	ldr	r3, [sp, #8]
	.loc	5 1146 33                       @ ../../../../Source/stream_buffer.c:1146:33
	bl	prvReadBytesFromBuffer
	.loc	5 1146 9                        @ ../../../../Source/stream_buffer.c:1146:9
	ldr	r1, [sp, #36]
	.loc	5 1146 31                       @ ../../../../Source/stream_buffer.c:1146:31
	str	r0, [r1]
	.loc	5 1147 5 is_stmt 1              @ ../../../../Source/stream_buffer.c:1147:5
	b	.LBB14_11
.Ltmp324:
.LBB14_11:
	.loc	5 1149 12                       @ ../../../../Source/stream_buffer.c:1149:12
	ldr	r0, [sp, #20]
	.loc	5 1149 5 is_stmt 0              @ ../../../../Source/stream_buffer.c:1149:5
	add	sp, #40
	pop	{r7, pc}
.Ltmp325:
.Lfunc_end14:
	.size	prvReadMessageFromBuffer, .Lfunc_end14-prvReadMessageFromBuffer
	.cfi_endproc
	.cantunwind
	.fnend
                                        @ -- End function
	.hidden	xStreamBufferNextMessageLengthBytes @ -- Begin function xStreamBufferNextMessageLengthBytes
	.globl	xStreamBufferNextMessageLengthBytes
	.p2align	1
	.type	xStreamBufferNextMessageLengthBytes,%function
	.code	16                              @ @xStreamBufferNextMessageLengthBytes
	.thumb_func
xStreamBufferNextMessageLengthBytes:
.Lfunc_begin15:
	.loc	5 1005 0 is_stmt 1              @ ../../../../Source/stream_buffer.c:1005:0
	.fnstart
	.cfi_startproc
@ %bb.0:
	.save	{r7, lr}
	push	{r7, lr}
	.cfi_def_cfa_offset 8
	.cfi_offset lr, -4
	.cfi_offset r7, -8
	.pad	#24
	sub	sp, #24
	.cfi_def_cfa_offset 32
	str	r0, [sp, #20]
.Ltmp326:
	.loc	5 1006 45 prologue_end          @ ../../../../Source/stream_buffer.c:1006:45
	ldr	r0, [sp, #20]
	.loc	5 1006 28 is_stmt 0             @ ../../../../Source/stream_buffer.c:1006:28
	str	r0, [sp, #16]
.Ltmp327:
	.loc	5 1010 5 is_stmt 1              @ ../../../../Source/stream_buffer.c:1010:5
	ldr	r0, [sp, #16]
.Ltmp328:
	.loc	5 1010 5 is_stmt 0              @ ../../../../Source/stream_buffer.c:1010:5
	cbnz	r0, .LBB15_3
	b	.LBB15_1
.LBB15_1:
.Ltmp329:
	.loc	5 1010 5                        @ ../../../../Source/stream_buffer.c:1010:5
	@APP
	cpsid i
	@NO_APP
	b	.LBB15_2
.LBB15_2:                               @ =>This Inner Loop Header: Depth=1
.Ltmp330:
	.loc	5 1010 5                        @ ../../../../Source/stream_buffer.c:1010:5
	b	.LBB15_2
.Ltmp331:
.LBB15_3:
	.loc	5 1013 11 is_stmt 1             @ ../../../../Source/stream_buffer.c:1013:11
	ldr	r0, [sp, #16]
	ldrb	r0, [r0, #28]
.Ltmp332:
	.loc	5 1013 9 is_stmt 0              @ ../../../../Source/stream_buffer.c:1013:9
	lsls	r0, r0, #31
	cbz	r0, .LBB15_11
	b	.LBB15_4
.LBB15_4:
.Ltmp333:
	.loc	5 1015 45 is_stmt 1             @ ../../../../Source/stream_buffer.c:1015:45
	ldr	r0, [sp, #16]
	.loc	5 1015 27 is_stmt 0             @ ../../../../Source/stream_buffer.c:1015:27
	bl	prvBytesInBuffer
	.loc	5 1015 25                       @ ../../../../Source/stream_buffer.c:1015:25
	str	r0, [sp, #8]
.Ltmp334:
	.loc	5 1017 13 is_stmt 1             @ ../../../../Source/stream_buffer.c:1017:13
	ldr	r0, [sp, #8]
.Ltmp335:
	.loc	5 1017 13 is_stmt 0             @ ../../../../Source/stream_buffer.c:1017:13
	cmp	r0, #5
	blo	.LBB15_6
	b	.LBB15_5
.LBB15_5:
.Ltmp336:
	.loc	5 1022 46 is_stmt 1             @ ../../../../Source/stream_buffer.c:1022:46
	ldr	r0, [sp, #16]
	.loc	5 1022 139 is_stmt 0            @ ../../../../Source/stream_buffer.c:1022:139
	ldr	r3, [r0]
	add	r1, sp, #4
	movs	r2, #4
	.loc	5 1022 22                       @ ../../../../Source/stream_buffer.c:1022:22
	bl	prvReadBytesFromBuffer
	.loc	5 1023 34 is_stmt 1             @ ../../../../Source/stream_buffer.c:1023:34
	ldr	r0, [sp, #4]
	.loc	5 1023 21 is_stmt 0             @ ../../../../Source/stream_buffer.c:1023:21
	str	r0, [sp, #12]
	.loc	5 1024 9 is_stmt 1              @ ../../../../Source/stream_buffer.c:1024:9
	b	.LBB15_10
.Ltmp337:
.LBB15_6:
	.loc	5 1031 13                       @ ../../../../Source/stream_buffer.c:1031:13
	ldr	r0, [sp, #8]
.Ltmp338:
	.loc	5 1031 13 is_stmt 0             @ ../../../../Source/stream_buffer.c:1031:13
	cbz	r0, .LBB15_9
	b	.LBB15_7
.LBB15_7:
.Ltmp339:
	.loc	5 1031 13                       @ ../../../../Source/stream_buffer.c:1031:13
	@APP
	cpsid i
	@NO_APP
	b	.LBB15_8
.LBB15_8:                               @ =>This Inner Loop Header: Depth=1
.Ltmp340:
	.loc	5 1031 13                       @ ../../../../Source/stream_buffer.c:1031:13
	b	.LBB15_8
.Ltmp341:
.LBB15_9:
	.loc	5 0 13                          @ ../../../../Source/stream_buffer.c:0:13
	movs	r0, #0
	.loc	5 1032 21 is_stmt 1             @ ../../../../Source/stream_buffer.c:1032:21
	str	r0, [sp, #12]
	b	.LBB15_10
.Ltmp342:
.LBB15_10:
	.loc	5 1034 5                        @ ../../../../Source/stream_buffer.c:1034:5
	b	.LBB15_12
.Ltmp343:
.LBB15_11:
	.loc	5 0 5 is_stmt 0                 @ ../../../../Source/stream_buffer.c:0:5
	movs	r0, #0
.Ltmp344:
	.loc	5 1037 17 is_stmt 1             @ ../../../../Source/stream_buffer.c:1037:17
	str	r0, [sp, #12]
	b	.LBB15_12
.Ltmp345:
.LBB15_12:
	.loc	5 1040 12                       @ ../../../../Source/stream_buffer.c:1040:12
	ldr	r0, [sp, #12]
	.loc	5 1040 5 is_stmt 0              @ ../../../../Source/stream_buffer.c:1040:5
	add	sp, #24
	pop	{r7, pc}
.Ltmp346:
.Lfunc_end15:
	.size	xStreamBufferNextMessageLengthBytes, .Lfunc_end15-xStreamBufferNextMessageLengthBytes
	.cfi_endproc
	.cantunwind
	.fnend
                                        @ -- End function
	.p2align	1                               @ -- Begin function prvReadBytesFromBuffer
	.type	prvReadBytesFromBuffer,%function
	.code	16                              @ @prvReadBytesFromBuffer
	.thumb_func
prvReadBytesFromBuffer:
.Lfunc_begin16:
	.loc	5 1324 0 is_stmt 1              @ ../../../../Source/stream_buffer.c:1324:0
	.fnstart
	.cfi_startproc
@ %bb.0:
	.save	{r7, lr}
	push	{r7, lr}
	.cfi_def_cfa_offset 8
	.cfi_offset lr, -4
	.cfi_offset r7, -8
	.pad	#24
	sub	sp, #24
	.cfi_def_cfa_offset 32
	str	r0, [sp, #20]
	str	r1, [sp, #16]
	str	r2, [sp, #12]
	str	r3, [sp, #8]
.Ltmp347:
	.loc	5 1327 5 prologue_end           @ ../../../../Source/stream_buffer.c:1327:5
	ldr	r0, [sp, #12]
.Ltmp348:
	.loc	5 1327 5 is_stmt 0              @ ../../../../Source/stream_buffer.c:1327:5
	cbnz	r0, .LBB16_3
	b	.LBB16_1
.LBB16_1:
.Ltmp349:
	.loc	5 1327 5                        @ ../../../../Source/stream_buffer.c:1327:5
	@APP
	cpsid i
	@NO_APP
	b	.LBB16_2
.LBB16_2:                               @ =>This Inner Loop Header: Depth=1
.Ltmp350:
	.loc	5 1327 5                        @ ../../../../Source/stream_buffer.c:1327:5
	b	.LBB16_2
.Ltmp351:
.LBB16_3:
	.loc	5 1332 20 is_stmt 1             @ ../../../../Source/stream_buffer.c:1332:20
	ldr	r0, [sp, #20]
	ldr	r0, [r0, #8]
	ldr	r1, [sp, #8]
	subs	r0, r0, r1
	ldr	r1, [sp, #12]
	cmp	r0, r1
	bhs	.LBB16_5
	b	.LBB16_4
.LBB16_4:
	ldr	r0, [sp, #20]
	ldr	r0, [r0, #8]
	ldr	r1, [sp, #8]
	subs	r0, r0, r1
	str	r0, [sp]                        @ 4-byte Spill
	b	.LBB16_6
.LBB16_5:
	ldr	r0, [sp, #12]
	str	r0, [sp]                        @ 4-byte Spill
	b	.LBB16_6
.LBB16_6:
	ldr	r0, [sp]                        @ 4-byte Reload
	.loc	5 1332 18 is_stmt 0             @ ../../../../Source/stream_buffer.c:1332:18
	str	r0, [sp, #4]
.Ltmp352:
	.loc	5 1336 5 is_stmt 1              @ ../../../../Source/stream_buffer.c:1336:5
	ldr	r0, [sp, #4]
	ldr	r1, [sp, #12]
.Ltmp353:
	.loc	5 1336 5 is_stmt 0              @ ../../../../Source/stream_buffer.c:1336:5
	cmp	r0, r1
	bls	.LBB16_9
	b	.LBB16_7
.LBB16_7:
.Ltmp354:
	.loc	5 1336 5                        @ ../../../../Source/stream_buffer.c:1336:5
	@APP
	cpsid i
	@NO_APP
	b	.LBB16_8
.LBB16_8:                               @ =>This Inner Loop Header: Depth=1
.Ltmp355:
	.loc	5 1336 5                        @ ../../../../Source/stream_buffer.c:1336:5
	b	.LBB16_8
.Ltmp356:
.LBB16_9:
	.loc	5 1337 5 is_stmt 1              @ ../../../../Source/stream_buffer.c:1337:5
	ldr	r0, [sp, #8]
	ldr	r1, [sp, #4]
	adds	r0, r0, r1
	ldr	r1, [sp, #20]
	ldr	r1, [r1, #8]
.Ltmp357:
	.loc	5 1337 5 is_stmt 0              @ ../../../../Source/stream_buffer.c:1337:5
	cmp	r0, r1
	bls	.LBB16_12
	b	.LBB16_10
.LBB16_10:
.Ltmp358:
	.loc	5 1337 5                        @ ../../../../Source/stream_buffer.c:1337:5
	@APP
	cpsid i
	@NO_APP
	b	.LBB16_11
.LBB16_11:                              @ =>This Inner Loop Header: Depth=1
.Ltmp359:
	.loc	5 1337 5                        @ ../../../../Source/stream_buffer.c:1337:5
	b	.LBB16_11
.Ltmp360:
.LBB16_12:
	.loc	5 1338 33 is_stmt 1             @ ../../../../Source/stream_buffer.c:1338:33
	ldr	r0, [sp, #16]
	.loc	5 1338 62 is_stmt 0             @ ../../../../Source/stream_buffer.c:1338:62
	ldr	r1, [sp, #20]
	.loc	5 1338 78                       @ ../../../../Source/stream_buffer.c:1338:78
	ldr	r1, [r1, #24]
	.loc	5 1338 89                       @ ../../../../Source/stream_buffer.c:1338:89
	ldr	r2, [sp, #8]
	.loc	5 1338 62                       @ ../../../../Source/stream_buffer.c:1338:62
	adds	r1, r1, r2
	.loc	5 1338 100                      @ ../../../../Source/stream_buffer.c:1338:100
	ldr	r2, [sp, #4]
	.loc	5 1338 14                       @ ../../../../Source/stream_buffer.c:1338:14
	bl	__aeabi_memcpy
.Ltmp361:
	.loc	5 1342 9 is_stmt 1              @ ../../../../Source/stream_buffer.c:1342:9
	ldr	r0, [sp, #12]
	.loc	5 1342 18 is_stmt 0             @ ../../../../Source/stream_buffer.c:1342:18
	ldr	r1, [sp, #4]
.Ltmp362:
	.loc	5 1342 9                        @ ../../../../Source/stream_buffer.c:1342:9
	cmp	r0, r1
	bls	.LBB16_14
	b	.LBB16_13
.LBB16_13:
.Ltmp363:
	.loc	5 1345 40 is_stmt 1             @ ../../../../Source/stream_buffer.c:1345:40
	ldr	r0, [sp, #16]
	.loc	5 1345 49 is_stmt 0             @ ../../../../Source/stream_buffer.c:1345:49
	ldr	r3, [sp, #4]
	.loc	5 1345 40                       @ ../../../../Source/stream_buffer.c:1345:40
	adds	r0, r0, r3
	.loc	5 1345 80                       @ ../../../../Source/stream_buffer.c:1345:80
	ldr	r1, [sp, #20]
	.loc	5 1345 96                       @ ../../../../Source/stream_buffer.c:1345:96
	ldr	r1, [r1, #24]
	.loc	5 1345 109                      @ ../../../../Source/stream_buffer.c:1345:109
	ldr	r2, [sp, #12]
	.loc	5 1345 116                      @ ../../../../Source/stream_buffer.c:1345:116
	subs	r2, r2, r3
	.loc	5 1345 18                       @ ../../../../Source/stream_buffer.c:1345:18
	bl	__aeabi_memcpy
	.loc	5 1346 5 is_stmt 1              @ ../../../../Source/stream_buffer.c:1346:5
	b	.LBB16_15
.Ltmp364:
.LBB16_14:
	.loc	5 0 5 is_stmt 0                 @ ../../../../Source/stream_buffer.c:0:5
	b	.LBB16_15
.LBB16_15:
	.loc	5 1353 14 is_stmt 1             @ ../../../../Source/stream_buffer.c:1353:14
	ldr	r1, [sp, #12]
	.loc	5 1353 11 is_stmt 0             @ ../../../../Source/stream_buffer.c:1353:11
	ldr	r0, [sp, #8]
	adds	r0, r0, r1
	str	r0, [sp, #8]
.Ltmp365:
	.loc	5 1355 9 is_stmt 1              @ ../../../../Source/stream_buffer.c:1355:9
	ldr	r0, [sp, #8]
	.loc	5 1355 18 is_stmt 0             @ ../../../../Source/stream_buffer.c:1355:18
	ldr	r1, [sp, #20]
	.loc	5 1355 34                       @ ../../../../Source/stream_buffer.c:1355:34
	ldr	r1, [r1, #8]
.Ltmp366:
	.loc	5 1355 9                        @ ../../../../Source/stream_buffer.c:1355:9
	cmp	r0, r1
	blo	.LBB16_17
	b	.LBB16_16
.LBB16_16:
.Ltmp367:
	.loc	5 1357 18 is_stmt 1             @ ../../../../Source/stream_buffer.c:1357:18
	ldr	r0, [sp, #20]
	.loc	5 1357 34 is_stmt 0             @ ../../../../Source/stream_buffer.c:1357:34
	ldr	r1, [r0, #8]
	.loc	5 1357 15                       @ ../../../../Source/stream_buffer.c:1357:15
	ldr	r0, [sp, #8]
	subs	r0, r0, r1
	str	r0, [sp, #8]
	.loc	5 1358 5 is_stmt 1              @ ../../../../Source/stream_buffer.c:1358:5
	b	.LBB16_17
.Ltmp368:
.LBB16_17:
	.loc	5 1360 12                       @ ../../../../Source/stream_buffer.c:1360:12
	ldr	r0, [sp, #8]
	.loc	5 1360 5 is_stmt 0              @ ../../../../Source/stream_buffer.c:1360:5
	add	sp, #24
	pop	{r7, pc}
.Ltmp369:
.Lfunc_end16:
	.size	prvReadBytesFromBuffer, .Lfunc_end16-prvReadBytesFromBuffer
	.cfi_endproc
	.cantunwind
	.fnend
                                        @ -- End function
	.hidden	xStreamBufferReceiveFromISR     @ -- Begin function xStreamBufferReceiveFromISR
	.globl	xStreamBufferReceiveFromISR
	.p2align	1
	.type	xStreamBufferReceiveFromISR,%function
	.code	16                              @ @xStreamBufferReceiveFromISR
	.thumb_func
xStreamBufferReceiveFromISR:
.Lfunc_begin17:
	.loc	5 1048 0 is_stmt 1              @ ../../../../Source/stream_buffer.c:1048:0
	.fnstart
	.cfi_startproc
@ %bb.0:
	.save	{r7, lr}
	push	{r7, lr}
	.cfi_def_cfa_offset 8
	.cfi_offset lr, -4
	.cfi_offset r7, -8
	.pad	#48
	sub	sp, #48
	.cfi_def_cfa_offset 56
	str	r0, [sp, #44]
	str	r1, [sp, #40]
	str	r2, [sp, #36]
	str	r3, [sp, #32]
.Ltmp370:
	.loc	5 1049 45 prologue_end          @ ../../../../Source/stream_buffer.c:1049:45
	ldr	r0, [sp, #44]
	.loc	5 1049 28 is_stmt 0             @ ../../../../Source/stream_buffer.c:1049:28
	str	r0, [sp, #28]
	movs	r0, #0
	.loc	5 1050 12 is_stmt 1             @ ../../../../Source/stream_buffer.c:1050:12
	str	r0, [sp, #24]
.Ltmp371:
	.loc	5 1052 5                        @ ../../../../Source/stream_buffer.c:1052:5
	ldr	r0, [sp, #40]
.Ltmp372:
	.loc	5 1052 5 is_stmt 0              @ ../../../../Source/stream_buffer.c:1052:5
	cbnz	r0, .LBB17_3
	b	.LBB17_1
.LBB17_1:
.Ltmp373:
	.loc	5 1052 5                        @ ../../../../Source/stream_buffer.c:1052:5
	@APP
	cpsid i
	@NO_APP
	b	.LBB17_2
.LBB17_2:                               @ =>This Inner Loop Header: Depth=1
.Ltmp374:
	.loc	5 1052 5                        @ ../../../../Source/stream_buffer.c:1052:5
	b	.LBB17_2
.Ltmp375:
.LBB17_3:
	.loc	5 1053 5 is_stmt 1              @ ../../../../Source/stream_buffer.c:1053:5
	ldr	r0, [sp, #28]
.Ltmp376:
	.loc	5 1053 5 is_stmt 0              @ ../../../../Source/stream_buffer.c:1053:5
	cbnz	r0, .LBB17_6
	b	.LBB17_4
.LBB17_4:
.Ltmp377:
	.loc	5 1053 5                        @ ../../../../Source/stream_buffer.c:1053:5
	@APP
	cpsid i
	@NO_APP
	b	.LBB17_5
.LBB17_5:                               @ =>This Inner Loop Header: Depth=1
.Ltmp378:
	.loc	5 1053 5                        @ ../../../../Source/stream_buffer.c:1053:5
	b	.LBB17_5
.Ltmp379:
.LBB17_6:
	.loc	5 1060 11 is_stmt 1             @ ../../../../Source/stream_buffer.c:1060:11
	ldr	r0, [sp, #28]
	ldrb	r0, [r0, #28]
.Ltmp380:
	.loc	5 1060 9 is_stmt 0              @ ../../../../Source/stream_buffer.c:1060:9
	lsls	r0, r0, #31
	cbz	r0, .LBB17_8
	b	.LBB17_7
.LBB17_7:
	.loc	5 0 9                           @ ../../../../Source/stream_buffer.c:0:9
	movs	r0, #4
.Ltmp381:
	.loc	5 1062 36 is_stmt 1             @ ../../../../Source/stream_buffer.c:1062:36
	str	r0, [sp, #16]
	.loc	5 1063 5                        @ ../../../../Source/stream_buffer.c:1063:5
	b	.LBB17_9
.Ltmp382:
.LBB17_8:
	.loc	5 0 5 is_stmt 0                 @ ../../../../Source/stream_buffer.c:0:5
	movs	r0, #0
.Ltmp383:
	.loc	5 1066 36 is_stmt 1             @ ../../../../Source/stream_buffer.c:1066:36
	str	r0, [sp, #16]
	b	.LBB17_9
.Ltmp384:
.LBB17_9:
	.loc	5 1069 41                       @ ../../../../Source/stream_buffer.c:1069:41
	ldr	r0, [sp, #28]
	.loc	5 1069 23 is_stmt 0             @ ../../../../Source/stream_buffer.c:1069:23
	bl	prvBytesInBuffer
	.loc	5 1069 21                       @ ../../../../Source/stream_buffer.c:1069:21
	str	r0, [sp, #20]
.Ltmp385:
	.loc	5 1076 9 is_stmt 1              @ ../../../../Source/stream_buffer.c:1076:9
	ldr	r0, [sp, #20]
	.loc	5 1076 27 is_stmt 0             @ ../../../../Source/stream_buffer.c:1076:27
	ldr	r1, [sp, #16]
.Ltmp386:
	.loc	5 1076 9                        @ ../../../../Source/stream_buffer.c:1076:9
	cmp	r0, r1
	bls	.LBB17_18
	b	.LBB17_10
.LBB17_10:
.Ltmp387:
	.loc	5 1078 53 is_stmt 1             @ ../../../../Source/stream_buffer.c:1078:53
	ldr	r0, [sp, #28]
	.loc	5 1078 69 is_stmt 0             @ ../../../../Source/stream_buffer.c:1078:69
	ldr	r1, [sp, #40]
	.loc	5 1078 79                       @ ../../../../Source/stream_buffer.c:1078:79
	ldr	r2, [sp, #36]
	.loc	5 1078 99                       @ ../../../../Source/stream_buffer.c:1078:99
	ldr	r3, [sp, #20]
	.loc	5 1078 27                       @ ../../../../Source/stream_buffer.c:1078:27
	bl	prvReadMessageFromBuffer
	.loc	5 1078 25                       @ ../../../../Source/stream_buffer.c:1078:25
	str	r0, [sp, #24]
.Ltmp388:
	.loc	5 1081 13 is_stmt 1             @ ../../../../Source/stream_buffer.c:1081:13
	ldr	r0, [sp, #24]
.Ltmp389:
	.loc	5 1081 13 is_stmt 0             @ ../../../../Source/stream_buffer.c:1081:13
	cbz	r0, .LBB17_16
	b	.LBB17_11
.LBB17_11:
.Ltmp390:
	.loc	5 1083 13 is_stmt 1             @ ../../../../Source/stream_buffer.c:1083:13
	b	.LBB17_12
.LBB17_12:
.Ltmp391:
	.loc	5 1083 13 is_stmt 0             @ ../../../../Source/stream_buffer.c:1083:13
	bl	ulSetInterruptMask
	str	r0, [sp, #12]
.Ltmp392:
	.loc	5 1083 13                       @ ../../../../Source/stream_buffer.c:1083:13
	ldr	r0, [sp, #28]
	ldr	r0, [r0, #20]
.Ltmp393:
	.loc	5 1083 13                       @ ../../../../Source/stream_buffer.c:1083:13
	cbz	r0, .LBB17_14
	b	.LBB17_13
.LBB17_13:
.Ltmp394:
	.loc	5 1083 13                       @ ../../../../Source/stream_buffer.c:1083:13
	ldr	r0, [sp, #28]
	ldr	r0, [r0, #20]
	ldr	r1, [sp, #32]
	str	r1, [sp, #4]
	movs	r3, #0
	str	r3, [sp, #8]                    @ 4-byte Spill
	str	r3, [sp]
	mov	r1, r3
	mov	r2, r3
	bl	xTaskGenericNotifyFromISR
                                        @ kill: def $r1 killed $r0
	ldr	r0, [sp, #8]                    @ 4-byte Reload
	ldr	r1, [sp, #28]
	str	r0, [r1, #20]
	b	.LBB17_14
.Ltmp395:
.LBB17_14:
	.loc	5 1083 13                       @ ../../../../Source/stream_buffer.c:1083:13
	ldr	r0, [sp, #12]
	bl	vClearInterruptMask
	b	.LBB17_15
.Ltmp396:
.LBB17_15:
	.loc	5 1084 9 is_stmt 1              @ ../../../../Source/stream_buffer.c:1084:9
	b	.LBB17_17
.Ltmp397:
.LBB17_16:
	.loc	5 0 9 is_stmt 0                 @ ../../../../Source/stream_buffer.c:0:9
	b	.LBB17_17
.LBB17_17:
	.loc	5 1089 5 is_stmt 1              @ ../../../../Source/stream_buffer.c:1089:5
	b	.LBB17_19
.Ltmp398:
.LBB17_18:
	.loc	5 0 5 is_stmt 0                 @ ../../../../Source/stream_buffer.c:0:5
	b	.LBB17_19
.LBB17_19:
	.loc	5 1097 12 is_stmt 1             @ ../../../../Source/stream_buffer.c:1097:12
	ldr	r0, [sp, #24]
	.loc	5 1097 5 is_stmt 0              @ ../../../../Source/stream_buffer.c:1097:5
	add	sp, #48
	pop	{r7, pc}
.Ltmp399:
.Lfunc_end17:
	.size	xStreamBufferReceiveFromISR, .Lfunc_end17-xStreamBufferReceiveFromISR
	.cfi_endproc
	.cantunwind
	.fnend
                                        @ -- End function
	.hidden	xStreamBufferIsEmpty            @ -- Begin function xStreamBufferIsEmpty
	.globl	xStreamBufferIsEmpty
	.p2align	1
	.type	xStreamBufferIsEmpty,%function
	.code	16                              @ @xStreamBufferIsEmpty
	.thumb_func
xStreamBufferIsEmpty:
.Lfunc_begin18:
	.loc	5 1154 0 is_stmt 1              @ ../../../../Source/stream_buffer.c:1154:0
	.fnstart
	.cfi_startproc
@ %bb.0:
	.pad	#16
	sub	sp, #16
	.cfi_def_cfa_offset 16
	str	r0, [sp, #12]
.Ltmp400:
	.loc	5 1155 51 prologue_end          @ ../../../../Source/stream_buffer.c:1155:51
	ldr	r0, [sp, #12]
	.loc	5 1155 34 is_stmt 0             @ ../../../../Source/stream_buffer.c:1155:34
	str	r0, [sp, #8]
.Ltmp401:
	.loc	5 1159 5 is_stmt 1              @ ../../../../Source/stream_buffer.c:1159:5
	ldr	r0, [sp, #8]
.Ltmp402:
	.loc	5 1159 5 is_stmt 0              @ ../../../../Source/stream_buffer.c:1159:5
	cbnz	r0, .LBB18_3
	b	.LBB18_1
.LBB18_1:
.Ltmp403:
	.loc	5 1159 5                        @ ../../../../Source/stream_buffer.c:1159:5
	@APP
	cpsid i
	@NO_APP
	b	.LBB18_2
.LBB18_2:                               @ =>This Inner Loop Header: Depth=1
.Ltmp404:
	.loc	5 1159 5                        @ ../../../../Source/stream_buffer.c:1159:5
	b	.LBB18_2
.Ltmp405:
.LBB18_3:
	.loc	5 1162 13 is_stmt 1             @ ../../../../Source/stream_buffer.c:1162:13
	ldr	r0, [sp, #8]
	.loc	5 1162 29 is_stmt 0             @ ../../../../Source/stream_buffer.c:1162:29
	ldr	r0, [r0]
	.loc	5 1162 11                       @ ../../../../Source/stream_buffer.c:1162:11
	str	r0, [sp]
.Ltmp406:
	.loc	5 1164 9 is_stmt 1              @ ../../../../Source/stream_buffer.c:1164:9
	ldr	r0, [sp, #8]
	.loc	5 1164 25 is_stmt 0             @ ../../../../Source/stream_buffer.c:1164:25
	ldr	r0, [r0, #4]
	.loc	5 1164 34                       @ ../../../../Source/stream_buffer.c:1164:34
	ldr	r1, [sp]
.Ltmp407:
	.loc	5 1164 9                        @ ../../../../Source/stream_buffer.c:1164:9
	cmp	r0, r1
	bne	.LBB18_5
	b	.LBB18_4
.LBB18_4:
	.loc	5 0 9                           @ ../../../../Source/stream_buffer.c:0:9
	movs	r0, #1
.Ltmp408:
	.loc	5 1166 17 is_stmt 1             @ ../../../../Source/stream_buffer.c:1166:17
	str	r0, [sp, #4]
	.loc	5 1167 5                        @ ../../../../Source/stream_buffer.c:1167:5
	b	.LBB18_6
.Ltmp409:
.LBB18_5:
	.loc	5 0 5 is_stmt 0                 @ ../../../../Source/stream_buffer.c:0:5
	movs	r0, #0
.Ltmp410:
	.loc	5 1170 17 is_stmt 1             @ ../../../../Source/stream_buffer.c:1170:17
	str	r0, [sp, #4]
	b	.LBB18_6
.Ltmp411:
.LBB18_6:
	.loc	5 1173 12                       @ ../../../../Source/stream_buffer.c:1173:12
	ldr	r0, [sp, #4]
	.loc	5 1173 5 is_stmt 0              @ ../../../../Source/stream_buffer.c:1173:5
	add	sp, #16
	bx	lr
.Ltmp412:
.Lfunc_end18:
	.size	xStreamBufferIsEmpty, .Lfunc_end18-xStreamBufferIsEmpty
	.cfi_endproc
	.cantunwind
	.fnend
                                        @ -- End function
	.hidden	xStreamBufferIsFull             @ -- Begin function xStreamBufferIsFull
	.globl	xStreamBufferIsFull
	.p2align	1
	.type	xStreamBufferIsFull,%function
	.code	16                              @ @xStreamBufferIsFull
	.thumb_func
xStreamBufferIsFull:
.Lfunc_begin19:
	.loc	5 1178 0 is_stmt 1              @ ../../../../Source/stream_buffer.c:1178:0
	.fnstart
	.cfi_startproc
@ %bb.0:
	.save	{r7, lr}
	push	{r7, lr}
	.cfi_def_cfa_offset 8
	.cfi_offset lr, -4
	.cfi_offset r7, -8
	.pad	#16
	sub	sp, #16
	.cfi_def_cfa_offset 24
	str	r0, [sp, #12]
.Ltmp413:
	.loc	5 1181 51 prologue_end          @ ../../../../Source/stream_buffer.c:1181:51
	ldr	r0, [sp, #12]
	.loc	5 1181 34 is_stmt 0             @ ../../../../Source/stream_buffer.c:1181:34
	str	r0, [sp]
.Ltmp414:
	.loc	5 1183 5 is_stmt 1              @ ../../../../Source/stream_buffer.c:1183:5
	ldr	r0, [sp]
.Ltmp415:
	.loc	5 1183 5 is_stmt 0              @ ../../../../Source/stream_buffer.c:1183:5
	cbnz	r0, .LBB19_3
	b	.LBB19_1
.LBB19_1:
.Ltmp416:
	.loc	5 1183 5                        @ ../../../../Source/stream_buffer.c:1183:5
	@APP
	cpsid i
	@NO_APP
	b	.LBB19_2
.LBB19_2:                               @ =>This Inner Loop Header: Depth=1
.Ltmp417:
	.loc	5 1183 5                        @ ../../../../Source/stream_buffer.c:1183:5
	b	.LBB19_2
.Ltmp418:
.LBB19_3:
	.loc	5 1189 11 is_stmt 1             @ ../../../../Source/stream_buffer.c:1189:11
	ldr	r0, [sp]
	ldrb	r0, [r0, #28]
.Ltmp419:
	.loc	5 1189 9 is_stmt 0              @ ../../../../Source/stream_buffer.c:1189:9
	lsls	r0, r0, #31
	cbz	r0, .LBB19_5
	b	.LBB19_4
.LBB19_4:
	.loc	5 0 9                           @ ../../../../Source/stream_buffer.c:0:9
	movs	r0, #4
.Ltmp420:
	.loc	5 1191 36 is_stmt 1             @ ../../../../Source/stream_buffer.c:1191:36
	str	r0, [sp, #4]
	.loc	5 1192 5                        @ ../../../../Source/stream_buffer.c:1192:5
	b	.LBB19_6
.Ltmp421:
.LBB19_5:
	.loc	5 0 5 is_stmt 0                 @ ../../../../Source/stream_buffer.c:0:5
	movs	r0, #0
.Ltmp422:
	.loc	5 1195 36 is_stmt 1             @ ../../../../Source/stream_buffer.c:1195:36
	str	r0, [sp, #4]
	b	.LBB19_6
.Ltmp423:
.LBB19_6:
	.loc	5 1199 39                       @ ../../../../Source/stream_buffer.c:1199:39
	ldr	r0, [sp, #12]
	.loc	5 1199 9 is_stmt 0              @ ../../../../Source/stream_buffer.c:1199:9
	bl	xStreamBufferSpacesAvailable
	.loc	5 1199 58                       @ ../../../../Source/stream_buffer.c:1199:58
	ldr	r1, [sp, #4]
.Ltmp424:
	.loc	5 1199 9                        @ ../../../../Source/stream_buffer.c:1199:9
	cmp	r0, r1
	bhi	.LBB19_8
	b	.LBB19_7
.LBB19_7:
	.loc	5 0 9                           @ ../../../../Source/stream_buffer.c:0:9
	movs	r0, #1
.Ltmp425:
	.loc	5 1201 17 is_stmt 1             @ ../../../../Source/stream_buffer.c:1201:17
	str	r0, [sp, #8]
	.loc	5 1202 5                        @ ../../../../Source/stream_buffer.c:1202:5
	b	.LBB19_9
.Ltmp426:
.LBB19_8:
	.loc	5 0 5 is_stmt 0                 @ ../../../../Source/stream_buffer.c:0:5
	movs	r0, #0
.Ltmp427:
	.loc	5 1205 17 is_stmt 1             @ ../../../../Source/stream_buffer.c:1205:17
	str	r0, [sp, #8]
	b	.LBB19_9
.Ltmp428:
.LBB19_9:
	.loc	5 1208 12                       @ ../../../../Source/stream_buffer.c:1208:12
	ldr	r0, [sp, #8]
	.loc	5 1208 5 is_stmt 0              @ ../../../../Source/stream_buffer.c:1208:5
	add	sp, #16
	pop	{r7, pc}
.Ltmp429:
.Lfunc_end19:
	.size	xStreamBufferIsFull, .Lfunc_end19-xStreamBufferIsFull
	.cfi_endproc
	.cantunwind
	.fnend
                                        @ -- End function
	.hidden	xStreamBufferSendCompletedFromISR @ -- Begin function xStreamBufferSendCompletedFromISR
	.globl	xStreamBufferSendCompletedFromISR
	.p2align	1
	.type	xStreamBufferSendCompletedFromISR,%function
	.code	16                              @ @xStreamBufferSendCompletedFromISR
	.thumb_func
xStreamBufferSendCompletedFromISR:
.Lfunc_begin20:
	.loc	5 1214 0 is_stmt 1              @ ../../../../Source/stream_buffer.c:1214:0
	.fnstart
	.cfi_startproc
@ %bb.0:
	.save	{r7, lr}
	push	{r7, lr}
	.cfi_def_cfa_offset 8
	.cfi_offset lr, -4
	.cfi_offset r7, -8
	.pad	#32
	sub	sp, #32
	.cfi_def_cfa_offset 40
	str	r0, [sp, #28]
	str	r1, [sp, #24]
.Ltmp430:
	.loc	5 1215 45 prologue_end          @ ../../../../Source/stream_buffer.c:1215:45
	ldr	r0, [sp, #28]
	.loc	5 1215 28 is_stmt 0             @ ../../../../Source/stream_buffer.c:1215:28
	str	r0, [sp, #20]
.Ltmp431:
	.loc	5 1219 5 is_stmt 1              @ ../../../../Source/stream_buffer.c:1219:5
	ldr	r0, [sp, #20]
.Ltmp432:
	.loc	5 1219 5 is_stmt 0              @ ../../../../Source/stream_buffer.c:1219:5
	cbnz	r0, .LBB20_3
	b	.LBB20_1
.LBB20_1:
.Ltmp433:
	.loc	5 1219 5                        @ ../../../../Source/stream_buffer.c:1219:5
	@APP
	cpsid i
	@NO_APP
	b	.LBB20_2
.LBB20_2:                               @ =>This Inner Loop Header: Depth=1
.Ltmp434:
	.loc	5 1219 5                        @ ../../../../Source/stream_buffer.c:1219:5
	b	.LBB20_2
.Ltmp435:
.LBB20_3:
	.loc	5 1221 29 is_stmt 1             @ ../../../../Source/stream_buffer.c:1221:29
	bl	ulSetInterruptMask
	.loc	5 1221 27 is_stmt 0             @ ../../../../Source/stream_buffer.c:1221:27
	str	r0, [sp, #12]
.Ltmp436:
	.loc	5 1223 15 is_stmt 1             @ ../../../../Source/stream_buffer.c:1223:15
	ldr	r0, [sp, #20]
	.loc	5 1223 33 is_stmt 0             @ ../../../../Source/stream_buffer.c:1223:33
	ldr	r0, [r0, #16]
.Ltmp437:
	.loc	5 1223 13                       @ ../../../../Source/stream_buffer.c:1223:13
	cbz	r0, .LBB20_5
	b	.LBB20_4
.LBB20_4:
.Ltmp438:
	.loc	5 1225 22 is_stmt 1             @ ../../../../Source/stream_buffer.c:1225:22
	ldr	r0, [sp, #20]
	ldr	r0, [r0, #16]
	ldr	r1, [sp, #24]
	str	r1, [sp, #4]
	movs	r3, #0
	str	r3, [sp, #8]                    @ 4-byte Spill
	str	r3, [sp]
	mov	r1, r3
	mov	r2, r3
	bl	xTaskGenericNotifyFromISR
                                        @ kill: def $r1 killed $r0
	.loc	5 1229 15                       @ ../../../../Source/stream_buffer.c:1229:15
	ldr	r0, [sp, #8]                    @ 4-byte Reload
	ldr	r1, [sp, #20]
	.loc	5 1229 55 is_stmt 0             @ ../../../../Source/stream_buffer.c:1229:55
	str	r0, [r1, #16]
	movs	r0, #1
	.loc	5 1230 21 is_stmt 1             @ ../../../../Source/stream_buffer.c:1230:21
	str	r0, [sp, #16]
	.loc	5 1231 9                        @ ../../../../Source/stream_buffer.c:1231:9
	b	.LBB20_6
.Ltmp439:
.LBB20_5:
	.loc	5 0 9 is_stmt 0                 @ ../../../../Source/stream_buffer.c:0:9
	movs	r0, #0
.Ltmp440:
	.loc	5 1234 21 is_stmt 1             @ ../../../../Source/stream_buffer.c:1234:21
	str	r0, [sp, #16]
	b	.LBB20_6
.Ltmp441:
.LBB20_6:
	.loc	5 1237 5                        @ ../../../../Source/stream_buffer.c:1237:5
	ldr	r0, [sp, #12]
	bl	vClearInterruptMask
	.loc	5 1239 12                       @ ../../../../Source/stream_buffer.c:1239:12
	ldr	r0, [sp, #16]
	.loc	5 1239 5 is_stmt 0              @ ../../../../Source/stream_buffer.c:1239:5
	add	sp, #32
	pop	{r7, pc}
.Ltmp442:
.Lfunc_end20:
	.size	xStreamBufferSendCompletedFromISR, .Lfunc_end20-xStreamBufferSendCompletedFromISR
	.cfi_endproc
	.cantunwind
	.fnend
                                        @ -- End function
	.hidden	xStreamBufferReceiveCompletedFromISR @ -- Begin function xStreamBufferReceiveCompletedFromISR
	.globl	xStreamBufferReceiveCompletedFromISR
	.p2align	1
	.type	xStreamBufferReceiveCompletedFromISR,%function
	.code	16                              @ @xStreamBufferReceiveCompletedFromISR
	.thumb_func
xStreamBufferReceiveCompletedFromISR:
.Lfunc_begin21:
	.loc	5 1245 0 is_stmt 1              @ ../../../../Source/stream_buffer.c:1245:0
	.fnstart
	.cfi_startproc
@ %bb.0:
	.save	{r7, lr}
	push	{r7, lr}
	.cfi_def_cfa_offset 8
	.cfi_offset lr, -4
	.cfi_offset r7, -8
	.pad	#32
	sub	sp, #32
	.cfi_def_cfa_offset 40
	str	r0, [sp, #28]
	str	r1, [sp, #24]
.Ltmp443:
	.loc	5 1246 45 prologue_end          @ ../../../../Source/stream_buffer.c:1246:45
	ldr	r0, [sp, #28]
	.loc	5 1246 28 is_stmt 0             @ ../../../../Source/stream_buffer.c:1246:28
	str	r0, [sp, #20]
.Ltmp444:
	.loc	5 1250 5 is_stmt 1              @ ../../../../Source/stream_buffer.c:1250:5
	ldr	r0, [sp, #20]
.Ltmp445:
	.loc	5 1250 5 is_stmt 0              @ ../../../../Source/stream_buffer.c:1250:5
	cbnz	r0, .LBB21_3
	b	.LBB21_1
.LBB21_1:
.Ltmp446:
	.loc	5 1250 5                        @ ../../../../Source/stream_buffer.c:1250:5
	@APP
	cpsid i
	@NO_APP
	b	.LBB21_2
.LBB21_2:                               @ =>This Inner Loop Header: Depth=1
.Ltmp447:
	.loc	5 1250 5                        @ ../../../../Source/stream_buffer.c:1250:5
	b	.LBB21_2
.Ltmp448:
.LBB21_3:
	.loc	5 1252 29 is_stmt 1             @ ../../../../Source/stream_buffer.c:1252:29
	bl	ulSetInterruptMask
	.loc	5 1252 27 is_stmt 0             @ ../../../../Source/stream_buffer.c:1252:27
	str	r0, [sp, #12]
.Ltmp449:
	.loc	5 1254 15 is_stmt 1             @ ../../../../Source/stream_buffer.c:1254:15
	ldr	r0, [sp, #20]
	.loc	5 1254 33 is_stmt 0             @ ../../../../Source/stream_buffer.c:1254:33
	ldr	r0, [r0, #20]
.Ltmp450:
	.loc	5 1254 13                       @ ../../../../Source/stream_buffer.c:1254:13
	cbz	r0, .LBB21_5
	b	.LBB21_4
.LBB21_4:
.Ltmp451:
	.loc	5 1256 22 is_stmt 1             @ ../../../../Source/stream_buffer.c:1256:22
	ldr	r0, [sp, #20]
	ldr	r0, [r0, #20]
	ldr	r1, [sp, #24]
	str	r1, [sp, #4]
	movs	r3, #0
	str	r3, [sp, #8]                    @ 4-byte Spill
	str	r3, [sp]
	mov	r1, r3
	mov	r2, r3
	bl	xTaskGenericNotifyFromISR
                                        @ kill: def $r1 killed $r0
	.loc	5 1260 15                       @ ../../../../Source/stream_buffer.c:1260:15
	ldr	r0, [sp, #8]                    @ 4-byte Reload
	ldr	r1, [sp, #20]
	.loc	5 1260 52 is_stmt 0             @ ../../../../Source/stream_buffer.c:1260:52
	str	r0, [r1, #20]
	movs	r0, #1
	.loc	5 1261 21 is_stmt 1             @ ../../../../Source/stream_buffer.c:1261:21
	str	r0, [sp, #16]
	.loc	5 1262 9                        @ ../../../../Source/stream_buffer.c:1262:9
	b	.LBB21_6
.Ltmp452:
.LBB21_5:
	.loc	5 0 9 is_stmt 0                 @ ../../../../Source/stream_buffer.c:0:9
	movs	r0, #0
.Ltmp453:
	.loc	5 1265 21 is_stmt 1             @ ../../../../Source/stream_buffer.c:1265:21
	str	r0, [sp, #16]
	b	.LBB21_6
.Ltmp454:
.LBB21_6:
	.loc	5 1268 5                        @ ../../../../Source/stream_buffer.c:1268:5
	ldr	r0, [sp, #12]
	bl	vClearInterruptMask
	.loc	5 1270 12                       @ ../../../../Source/stream_buffer.c:1270:12
	ldr	r0, [sp, #16]
	.loc	5 1270 5 is_stmt 0              @ ../../../../Source/stream_buffer.c:1270:5
	add	sp, #32
	pop	{r7, pc}
.Ltmp455:
.Lfunc_end21:
	.size	xStreamBufferReceiveCompletedFromISR, .Lfunc_end21-xStreamBufferReceiveCompletedFromISR
	.cfi_endproc
	.cantunwind
	.fnend
                                        @ -- End function
	.hidden	uxStreamBufferGetStreamBufferNumber @ -- Begin function uxStreamBufferGetStreamBufferNumber
	.globl	uxStreamBufferGetStreamBufferNumber
	.p2align	1
	.type	uxStreamBufferGetStreamBufferNumber,%function
	.code	16                              @ @uxStreamBufferGetStreamBufferNumber
	.thumb_func
uxStreamBufferGetStreamBufferNumber:
.Lfunc_begin22:
	.loc	5 1427 0 is_stmt 1              @ ../../../../Source/stream_buffer.c:1427:0
	.fnstart
	.cfi_startproc
@ %bb.0:
	.pad	#4
	sub	sp, #4
	.cfi_def_cfa_offset 4
	str	r0, [sp]
.Ltmp456:
	.loc	5 1428 16 prologue_end          @ ../../../../Source/stream_buffer.c:1428:16
	ldr	r0, [sp]
	.loc	5 1428 31 is_stmt 0             @ ../../../../Source/stream_buffer.c:1428:31
	ldr	r0, [r0, #32]
	.loc	5 1428 9                        @ ../../../../Source/stream_buffer.c:1428:9
	add	sp, #4
	bx	lr
.Ltmp457:
.Lfunc_end22:
	.size	uxStreamBufferGetStreamBufferNumber, .Lfunc_end22-uxStreamBufferGetStreamBufferNumber
	.cfi_endproc
	.cantunwind
	.fnend
                                        @ -- End function
	.hidden	vStreamBufferSetStreamBufferNumber @ -- Begin function vStreamBufferSetStreamBufferNumber
	.globl	vStreamBufferSetStreamBufferNumber
	.p2align	1
	.type	vStreamBufferSetStreamBufferNumber,%function
	.code	16                              @ @vStreamBufferSetStreamBufferNumber
	.thumb_func
vStreamBufferSetStreamBufferNumber:
.Lfunc_begin23:
	.loc	5 1438 0 is_stmt 1              @ ../../../../Source/stream_buffer.c:1438:0
	.fnstart
	.cfi_startproc
@ %bb.0:
	.pad	#8
	sub	sp, #8
	.cfi_def_cfa_offset 8
	str	r0, [sp, #4]
	str	r1, [sp]
.Ltmp458:
	.loc	5 1439 47 prologue_end          @ ../../../../Source/stream_buffer.c:1439:47
	ldr	r0, [sp]
	.loc	5 1439 9 is_stmt 0              @ ../../../../Source/stream_buffer.c:1439:9
	ldr	r1, [sp, #4]
	.loc	5 1439 45                       @ ../../../../Source/stream_buffer.c:1439:45
	str	r0, [r1, #32]
	.loc	5 1440 5 is_stmt 1              @ ../../../../Source/stream_buffer.c:1440:5
	add	sp, #8
	bx	lr
.Ltmp459:
.Lfunc_end23:
	.size	vStreamBufferSetStreamBufferNumber, .Lfunc_end23-vStreamBufferSetStreamBufferNumber
	.cfi_endproc
	.cantunwind
	.fnend
                                        @ -- End function
	.hidden	ucStreamBufferGetStreamBufferType @ -- Begin function ucStreamBufferGetStreamBufferType
	.globl	ucStreamBufferGetStreamBufferType
	.p2align	1
	.type	ucStreamBufferGetStreamBufferType,%function
	.code	16                              @ @ucStreamBufferGetStreamBufferType
	.thumb_func
ucStreamBufferGetStreamBufferType:
.Lfunc_begin24:
	.loc	5 1448 0                        @ ../../../../Source/stream_buffer.c:1448:0
	.fnstart
	.cfi_startproc
@ %bb.0:
	.pad	#4
	sub	sp, #4
	.cfi_def_cfa_offset 4
	str	r0, [sp]
.Ltmp460:
	.loc	5 1449 17 prologue_end          @ ../../../../Source/stream_buffer.c:1449:17
	ldr	r0, [sp]
	ldrb	r0, [r0, #28]
	movs	r1, #1
	.loc	5 1449 40 is_stmt 0             @ ../../../../Source/stream_buffer.c:1449:40
	ands	r0, r1
	.loc	5 1449 9                        @ ../../../../Source/stream_buffer.c:1449:9
	add	sp, #4
	bx	lr
.Ltmp461:
.Lfunc_end24:
	.size	ucStreamBufferGetStreamBufferType, .Lfunc_end24-ucStreamBufferGetStreamBufferType
	.cfi_endproc
	.cantunwind
	.fnend
                                        @ -- End function
	.p2align	1                               @ -- Begin function prvWriteBytesToBuffer
	.type	prvWriteBytesToBuffer,%function
	.code	16                              @ @prvWriteBytesToBuffer
	.thumb_func
prvWriteBytesToBuffer:
.Lfunc_begin25:
	.loc	5 1278 0 is_stmt 1              @ ../../../../Source/stream_buffer.c:1278:0
	.fnstart
	.cfi_startproc
@ %bb.0:
	.save	{r7, lr}
	push	{r7, lr}
	.cfi_def_cfa_offset 8
	.cfi_offset lr, -4
	.cfi_offset r7, -8
	.pad	#24
	sub	sp, #24
	.cfi_def_cfa_offset 32
	str	r0, [sp, #20]
	str	r1, [sp, #16]
	str	r2, [sp, #12]
	str	r3, [sp, #8]
.Ltmp462:
	.loc	5 1281 5 prologue_end           @ ../../../../Source/stream_buffer.c:1281:5
	ldr	r0, [sp, #12]
.Ltmp463:
	.loc	5 1281 5 is_stmt 0              @ ../../../../Source/stream_buffer.c:1281:5
	cbnz	r0, .LBB25_3
	b	.LBB25_1
.LBB25_1:
.Ltmp464:
	.loc	5 1281 5                        @ ../../../../Source/stream_buffer.c:1281:5
	@APP
	cpsid i
	@NO_APP
	b	.LBB25_2
.LBB25_2:                               @ =>This Inner Loop Header: Depth=1
.Ltmp465:
	.loc	5 1281 5                        @ ../../../../Source/stream_buffer.c:1281:5
	b	.LBB25_2
.Ltmp466:
.LBB25_3:
	.loc	5 1286 20 is_stmt 1             @ ../../../../Source/stream_buffer.c:1286:20
	ldr	r0, [sp, #20]
	ldr	r0, [r0, #8]
	ldr	r1, [sp, #8]
	subs	r0, r0, r1
	ldr	r1, [sp, #12]
	cmp	r0, r1
	bhs	.LBB25_5
	b	.LBB25_4
.LBB25_4:
	ldr	r0, [sp, #20]
	ldr	r0, [r0, #8]
	ldr	r1, [sp, #8]
	subs	r0, r0, r1
	str	r0, [sp]                        @ 4-byte Spill
	b	.LBB25_6
.LBB25_5:
	ldr	r0, [sp, #12]
	str	r0, [sp]                        @ 4-byte Spill
	b	.LBB25_6
.LBB25_6:
	ldr	r0, [sp]                        @ 4-byte Reload
	.loc	5 1286 18 is_stmt 0             @ ../../../../Source/stream_buffer.c:1286:18
	str	r0, [sp, #4]
.Ltmp467:
	.loc	5 1289 5 is_stmt 1              @ ../../../../Source/stream_buffer.c:1289:5
	ldr	r0, [sp, #8]
	ldr	r1, [sp, #4]
	adds	r0, r0, r1
	ldr	r1, [sp, #20]
	ldr	r1, [r1, #8]
.Ltmp468:
	.loc	5 1289 5 is_stmt 0              @ ../../../../Source/stream_buffer.c:1289:5
	cmp	r0, r1
	bls	.LBB25_9
	b	.LBB25_7
.LBB25_7:
.Ltmp469:
	.loc	5 1289 5                        @ ../../../../Source/stream_buffer.c:1289:5
	@APP
	cpsid i
	@NO_APP
	b	.LBB25_8
.LBB25_8:                               @ =>This Inner Loop Header: Depth=1
.Ltmp470:
	.loc	5 1289 5                        @ ../../../../Source/stream_buffer.c:1289:5
	b	.LBB25_8
.Ltmp471:
.LBB25_9:
	.loc	5 1290 38 is_stmt 1             @ ../../../../Source/stream_buffer.c:1290:38
	ldr	r0, [sp, #20]
	.loc	5 1290 54 is_stmt 0             @ ../../../../Source/stream_buffer.c:1290:54
	ldr	r0, [r0, #24]
	.loc	5 1290 65                       @ ../../../../Source/stream_buffer.c:1290:65
	ldr	r1, [sp, #8]
	.loc	5 1290 38                       @ ../../../../Source/stream_buffer.c:1290:38
	adds	r0, r0, r1
	.loc	5 1290 95                       @ ../../../../Source/stream_buffer.c:1290:95
	ldr	r1, [sp, #16]
	.loc	5 1290 104                      @ ../../../../Source/stream_buffer.c:1290:104
	ldr	r2, [sp, #4]
	.loc	5 1290 14                       @ ../../../../Source/stream_buffer.c:1290:14
	bl	__aeabi_memcpy
.Ltmp472:
	.loc	5 1294 9 is_stmt 1              @ ../../../../Source/stream_buffer.c:1294:9
	ldr	r0, [sp, #12]
	.loc	5 1294 18 is_stmt 0             @ ../../../../Source/stream_buffer.c:1294:18
	ldr	r1, [sp, #4]
.Ltmp473:
	.loc	5 1294 9                        @ ../../../../Source/stream_buffer.c:1294:9
	cmp	r0, r1
	bls	.LBB25_14
	b	.LBB25_10
.LBB25_10:
.Ltmp474:
	.loc	5 1297 9 is_stmt 1              @ ../../../../Source/stream_buffer.c:1297:9
	ldr	r0, [sp, #12]
	ldr	r1, [sp, #4]
	subs	r0, r0, r1
	ldr	r1, [sp, #20]
	ldr	r1, [r1, #8]
.Ltmp475:
	.loc	5 1297 9 is_stmt 0              @ ../../../../Source/stream_buffer.c:1297:9
	cmp	r0, r1
	bls	.LBB25_13
	b	.LBB25_11
.LBB25_11:
.Ltmp476:
	.loc	5 1297 9                        @ ../../../../Source/stream_buffer.c:1297:9
	@APP
	cpsid i
	@NO_APP
	b	.LBB25_12
.LBB25_12:                              @ =>This Inner Loop Header: Depth=1
.Ltmp477:
	.loc	5 1297 9                        @ ../../../../Source/stream_buffer.c:1297:9
	b	.LBB25_12
.Ltmp478:
.LBB25_13:
	.loc	5 1298 37 is_stmt 1             @ ../../../../Source/stream_buffer.c:1298:37
	ldr	r0, [sp, #20]
	.loc	5 1298 53 is_stmt 0             @ ../../../../Source/stream_buffer.c:1298:53
	ldr	r0, [r0, #24]
	.loc	5 1298 84                       @ ../../../../Source/stream_buffer.c:1298:84
	ldr	r1, [sp, #16]
	.loc	5 1298 93                       @ ../../../../Source/stream_buffer.c:1298:93
	ldr	r3, [sp, #4]
	.loc	5 1298 84                       @ ../../../../Source/stream_buffer.c:1298:84
	adds	r1, r1, r3
	.loc	5 1298 111                      @ ../../../../Source/stream_buffer.c:1298:111
	ldr	r2, [sp, #12]
	.loc	5 1298 118                      @ ../../../../Source/stream_buffer.c:1298:118
	subs	r2, r2, r3
	.loc	5 1298 18                       @ ../../../../Source/stream_buffer.c:1298:18
	bl	__aeabi_memcpy
	.loc	5 1299 5 is_stmt 1              @ ../../../../Source/stream_buffer.c:1299:5
	b	.LBB25_15
.Ltmp479:
.LBB25_14:
	.loc	5 0 5 is_stmt 0                 @ ../../../../Source/stream_buffer.c:0:5
	b	.LBB25_15
.LBB25_15:
	.loc	5 1305 14 is_stmt 1             @ ../../../../Source/stream_buffer.c:1305:14
	ldr	r1, [sp, #12]
	.loc	5 1305 11 is_stmt 0             @ ../../../../Source/stream_buffer.c:1305:11
	ldr	r0, [sp, #8]
	adds	r0, r0, r1
	str	r0, [sp, #8]
.Ltmp480:
	.loc	5 1307 9 is_stmt 1              @ ../../../../Source/stream_buffer.c:1307:9
	ldr	r0, [sp, #8]
	.loc	5 1307 18 is_stmt 0             @ ../../../../Source/stream_buffer.c:1307:18
	ldr	r1, [sp, #20]
	.loc	5 1307 34                       @ ../../../../Source/stream_buffer.c:1307:34
	ldr	r1, [r1, #8]
.Ltmp481:
	.loc	5 1307 9                        @ ../../../../Source/stream_buffer.c:1307:9
	cmp	r0, r1
	blo	.LBB25_17
	b	.LBB25_16
.LBB25_16:
.Ltmp482:
	.loc	5 1309 18 is_stmt 1             @ ../../../../Source/stream_buffer.c:1309:18
	ldr	r0, [sp, #20]
	.loc	5 1309 34 is_stmt 0             @ ../../../../Source/stream_buffer.c:1309:34
	ldr	r1, [r0, #8]
	.loc	5 1309 15                       @ ../../../../Source/stream_buffer.c:1309:15
	ldr	r0, [sp, #8]
	subs	r0, r0, r1
	str	r0, [sp, #8]
	.loc	5 1310 5 is_stmt 1              @ ../../../../Source/stream_buffer.c:1310:5
	b	.LBB25_18
.Ltmp483:
.LBB25_17:
	.loc	5 0 5 is_stmt 0                 @ ../../../../Source/stream_buffer.c:0:5
	b	.LBB25_18
.LBB25_18:
	.loc	5 1316 12 is_stmt 1             @ ../../../../Source/stream_buffer.c:1316:12
	ldr	r0, [sp, #8]
	.loc	5 1316 5 is_stmt 0              @ ../../../../Source/stream_buffer.c:1316:5
	add	sp, #24
	pop	{r7, pc}
.Ltmp484:
.Lfunc_end25:
	.size	prvWriteBytesToBuffer, .Lfunc_end25-prvWriteBytesToBuffer
	.cfi_endproc
	.cantunwind
	.fnend
                                        @ -- End function
	.section	".note.GNU-stack","",%progbits
	.eabi_attribute	30, 6	@ Tag_ABI_optimization_goals
	.ARM_attribute	16, 1	@ Tag_AV_eba