	.text
	.syntax unified
	.eabi_attribute	67, "2.09"	@ Tag_conformance
	.eabi_attribute	6, 16	@ Tag_CPU_arch
	.eabi_attribute	7, 77	@ Tag_CPU_arch_profile
	.eabi_attribute	8, 0	@ Tag_ARM_ISA_use
	.eabi_attribute	9, 3	@ Tag_THUMB_ISA_use
	.eabi_attribute	34, 0	@ Tag_CPU_unaligned_access
	.eabi_attribute	17, 1	@ Tag_ABI_PCS_GOT_use
	.eabi_attribute	20, 2	@ Tag_ABI_FP_denormal
	.eabi_attribute	21, 0	@ Tag_ABI_FP_exceptions
	.eabi_attribute	23, 1	@ Tag_ABI_FP_number_model
	.eabi_attribute	24, 1	@ Tag_ABI_align_needed
	.eabi_attribute	25, 1	@ Tag_ABI_align_preserved
	.eabi_attribute	38, 1	@ Tag_ABI_FP_16bit_format
	.eabi_attribute	18, 4	@ Tag_ABI_PCS_wchar_t
	.eabi_attribute	26, 2	@ Tag_ABI_enum_size
	.eabi_attribute	14, 0	@ Tag_ABI_PCS_R9_use
	.file	"StreamBufferInterrupt.c"
	.file	1 "C:\\Keil_v5\\ARM\\ARMCLANG\\Bin\\..\\include" "stdint.h"
	.file	2 "C:\\Users\\karahulx\\Downloads\\Kernel\\FreeRTOS\\FreeRTOS\\Demo\\CORTEX_MPU_M23_Nuvoton_NuMaker_PFM_M2351_IAR_GCC\\Projects_NTZ\\Keil" "../../../../Source/portable/GCC/ARM_CM23_NTZ/non_secure/portmacrocommon.h"
	.file	3 "C:\\Users\\karahulx\\Downloads\\Kernel\\FreeRTOS\\FreeRTOS\\Demo\\CORTEX_MPU_M23_Nuvoton_NuMaker_PFM_M2351_IAR_GCC\\Projects_NTZ\\Keil" "../../../CORTEX_MPU_M3_NUCLEO_L152RE_GCC/Demo/StreamBufferInterrupt.c"
	.file	4 "C:\\Keil_v5\\ARM\\ARMCLANG\\Bin\\..\\include" "stdio.h"
	.file	5 "C:\\Users\\karahulx\\Downloads\\Kernel\\FreeRTOS\\FreeRTOS\\Demo\\CORTEX_MPU_M23_Nuvoton_NuMaker_PFM_M2351_IAR_GCC\\Projects_NTZ\\Keil" "../../../../Source/include\\stream_buffer.h"
	.section	.text.vStartStreamBufferInterruptDemo,"ax",%progbits
	.hidden	vStartStreamBufferInterruptDemo @ -- Begin function vStartStreamBufferInterruptDemo
	.globl	vStartStreamBufferInterruptDemo
	.p2align	1
	.type	vStartStreamBufferInterruptDemo,%function
	.code	16                              @ @vStartStreamBufferInterruptDemo
	.thumb_func
vStartStreamBufferInterruptDemo:
.Lfunc_begin0:
	.loc	3 85 0                          @ ../../../CORTEX_MPU_M3_NUCLEO_L152RE_GCC/Demo/StreamBufferInterrupt.c:85:0
	.fnstart
	.cfi_sections .debug_frame
	.cfi_startproc
@ %bb.0:
	.save	{r4, r5, r6, r7, lr}
	push	{r4, r5, r6, r7, lr}
	.cfi_def_cfa_offset 20
	.cfi_offset lr, -4
	.cfi_offset r7, -8
	.cfi_offset r6, -12
	.cfi_offset r5, -16
	.cfi_offset r4, -20
	.pad	#76
	sub	sp, #76
	.cfi_def_cfa_offset 96
	movs	r3, #0
.Ltmp0:
	.loc	3 90 26 prologue_end            @ ../../../CORTEX_MPU_M3_NUCLEO_L152RE_GCC/Demo/StreamBufferInterrupt.c:90:26
	str	r3, [sp, #8]                    @ 4-byte Spill
	str	r3, [sp]
	movs	r0, #100
	movs	r1, #10
	mov	r2, r3
	bl	MPU_xStreamBufferGenericCreate
	ldr	r1, [sp, #8]                    @ 4-byte Reload
	.loc	3 90 24 is_stmt 0               @ ../../../CORTEX_MPU_M3_NUCLEO_L152RE_GCC/Demo/StreamBufferInterrupt.c:90:24
	movw	r2, :lower16:xStreamBuffer
	movt	r2, :upper16:xStreamBuffer
	str	r0, [r2]
	.loc	3 94 22 is_stmt 1               @ ../../../CORTEX_MPU_M3_NUCLEO_L152RE_GCC/Demo/StreamBufferInterrupt.c:94:22
	movw	r3, :lower16:.L__const.vStartStreamBufferInterruptDemo.xReceivingTaskParameters
	movt	r3, :upper16:.L__const.vStartStreamBufferInterruptDemo.xReceivingTaskParameters
	add	r0, sp, #12
	mov	r2, r0
	ldm	r3!, {r4, r5, r6, r7}
	stm	r2!, {r4, r5, r6, r7}
	ldm	r3!, {r4, r5, r6, r7}
	stm	r2!, {r4, r5, r6, r7}
	ldm	r3!, {r4, r5, r6, r7}
	stm	r2!, {r4, r5, r6, r7}
	ldm	r3!, {r4, r5, r6, r7}
	stm	r2!, {r4, r5, r6, r7}
	.loc	3 113 5                         @ ../../../CORTEX_MPU_M3_NUCLEO_L152RE_GCC/Demo/StreamBufferInterrupt.c:113:5
	bl	xTaskCreateRestricted
	.loc	3 114 1                         @ ../../../CORTEX_MPU_M3_NUCLEO_L152RE_GCC/Demo/StreamBufferInterrupt.c:114:1
	add	sp, #76
	pop	{r4, r5, r6, r7, pc}
.Ltmp1:
.Lfunc_end0:
	.size	vStartStreamBufferInterruptDemo, .Lfunc_end0-vStartStreamBufferInterruptDemo
	.cfi_endproc
	.cantunwind
	.fnend
                                        @ -- End function
	.section	.text.prvReceivingTask,"ax",%progbits
	.p2align	1                               @ -- Begin function prvReceivingTask
	.type	prvReceivingTask,%function
	.code	16                              @ @prvReceivingTask
	.thumb_func
prvReceivingTask:
.Lfunc_begin1:
	.loc	3 118 0                         @ ../../../CORTEX_MPU_M3_NUCLEO_L152RE_GCC/Demo/StreamBufferInterrupt.c:118:0
	.fnstart
	.cfi_startproc
@ %bb.0:
	.save	{r7, lr}
	push	{r7, lr}
	.cfi_def_cfa_offset 8
	.cfi_offset lr, -4
	.cfi_offset r7, -8
	.pad	#32
	sub	sp, #32
	.cfi_def_cfa_offset 40
	str	r0, [sp, #28]
	movs	r0, #0
.Ltmp2:
	.loc	3 120 16 prologue_end           @ ../../../CORTEX_MPU_M3_NUCLEO_L152RE_GCC/Demo/StreamBufferInterrupt.c:120:16
	str	r0, [sp, #4]
	.loc	3 124 18                        @ ../../../CORTEX_MPU_M3_NUCLEO_L152RE_GCC/Demo/StreamBufferInterrupt.c:124:18
	movw	r0, :lower16:.L.str.1
	movt	r0, :upper16:.L.str.1
	str	r0, [sp]
.Ltmp3:
	.loc	3 128 5                         @ ../../../CORTEX_MPU_M3_NUCLEO_L152RE_GCC/Demo/StreamBufferInterrupt.c:128:5
	ldr	r0, [sp]
	bl	strlen
.Ltmp4:
	.loc	3 128 5 is_stmt 0               @ ../../../CORTEX_MPU_M3_NUCLEO_L152RE_GCC/Demo/StreamBufferInterrupt.c:128:5
	cmp	r0, #20
	blo	.LBB1_3
	b	.LBB1_1
.LBB1_1:
.Ltmp5:
	.loc	3 128 5                         @ ../../../CORTEX_MPU_M3_NUCLEO_L152RE_GCC/Demo/StreamBufferInterrupt.c:128:5
	@APP
	cpsid i
	@NO_APP
	b	.LBB1_2
.LBB1_2:                                @ =>This Inner Loop Header: Depth=1
.Ltmp6:
	.loc	3 128 5                         @ ../../../CORTEX_MPU_M3_NUCLEO_L152RE_GCC/Demo/StreamBufferInterrupt.c:128:5
	b	.LBB1_2
.Ltmp7:
.LBB1_3:
	.loc	3 131 5 is_stmt 1               @ ../../../CORTEX_MPU_M3_NUCLEO_L152RE_GCC/Demo/StreamBufferInterrupt.c:131:5
	movw	r0, :lower16:xStreamBuffer
	movt	r0, :upper16:xStreamBuffer
	ldr	r0, [r0]
.Ltmp8:
	.loc	3 131 5 is_stmt 0               @ ../../../CORTEX_MPU_M3_NUCLEO_L152RE_GCC/Demo/StreamBufferInterrupt.c:131:5
	cbnz	r0, .LBB1_6
	b	.LBB1_4
.LBB1_4:
.Ltmp9:
	.loc	3 131 5                         @ ../../../CORTEX_MPU_M3_NUCLEO_L152RE_GCC/Demo/StreamBufferInterrupt.c:131:5
	@APP
	cpsid i
	@NO_APP
	b	.LBB1_5
.LBB1_5:                                @ =>This Inner Loop Header: Depth=1
.Ltmp10:
	.loc	3 131 5                         @ ../../../CORTEX_MPU_M3_NUCLEO_L152RE_GCC/Demo/StreamBufferInterrupt.c:131:5
	b	.LBB1_5
.Ltmp11:
.LBB1_6:
	.loc	3 0 5                           @ ../../../CORTEX_MPU_M3_NUCLEO_L152RE_GCC/Demo/StreamBufferInterrupt.c:0:5
	movs	r0, #0
	.loc	3 134 5 is_stmt 1               @ ../../../CORTEX_MPU_M3_NUCLEO_L152RE_GCC/Demo/StreamBufferInterrupt.c:134:5
	str	r0, [sp, #24]
	str	r0, [sp, #20]
	str	r0, [sp, #16]
	str	r0, [sp, #12]
	str	r0, [sp, #8]
	.loc	3 136 5                         @ ../../../CORTEX_MPU_M3_NUCLEO_L152RE_GCC/Demo/StreamBufferInterrupt.c:136:5
	b	.LBB1_7
.LBB1_7:                                @ =>This Inner Loop Header: Depth=1
.Ltmp12:
	.loc	3 142 31                        @ ../../../CORTEX_MPU_M3_NUCLEO_L152RE_GCC/Demo/StreamBufferInterrupt.c:142:31
	movw	r0, :lower16:xStreamBuffer
	movt	r0, :upper16:xStreamBuffer
	ldr	r0, [r0]
	.loc	3 143 56                        @ ../../../CORTEX_MPU_M3_NUCLEO_L152RE_GCC/Demo/StreamBufferInterrupt.c:143:56
	ldr	r2, [sp, #4]
	add	r1, sp, #8
	.loc	3 143 45 is_stmt 0              @ ../../../CORTEX_MPU_M3_NUCLEO_L152RE_GCC/Demo/StreamBufferInterrupt.c:143:45
	adds	r1, r1, r2
	movs	r2, #0
	mvns	r3, r2
	movs	r2, #1
	.loc	3 142 9 is_stmt 1               @ ../../../CORTEX_MPU_M3_NUCLEO_L152RE_GCC/Demo/StreamBufferInterrupt.c:142:9
	bl	MPU_xStreamBufferReceive
.Ltmp13:
	.loc	3 150 13                        @ ../../../CORTEX_MPU_M3_NUCLEO_L152RE_GCC/Demo/StreamBufferInterrupt.c:150:13
	ldr	r0, [sp, #4]
.Ltmp14:
	.loc	3 150 13 is_stmt 0              @ ../../../CORTEX_MPU_M3_NUCLEO_L152RE_GCC/Demo/StreamBufferInterrupt.c:150:13
	cbnz	r0, .LBB1_11
	b	.LBB1_8
.LBB1_8:                                @   in Loop: Header=BB1_7 Depth=1
.Ltmp15:
	.loc	3 152 28 is_stmt 1              @ ../../../CORTEX_MPU_M3_NUCLEO_L152RE_GCC/Demo/StreamBufferInterrupt.c:152:28
	ldr	r1, [sp, #4]
	add	r0, sp, #8
	.loc	3 152 17 is_stmt 0              @ ../../../CORTEX_MPU_M3_NUCLEO_L152RE_GCC/Demo/StreamBufferInterrupt.c:152:17
	ldrb	r0, [r0, r1]
.Ltmp16:
	.loc	3 152 17                        @ ../../../CORTEX_MPU_M3_NUCLEO_L152RE_GCC/Demo/StreamBufferInterrupt.c:152:17
	cmp	r0, #72
	bne	.LBB1_10
	b	.LBB1_9
.LBB1_9:                                @   in Loop: Header=BB1_7 Depth=1
.Ltmp17:
	.loc	3 156 26 is_stmt 1              @ ../../../CORTEX_MPU_M3_NUCLEO_L152RE_GCC/Demo/StreamBufferInterrupt.c:156:26
	ldr	r0, [sp, #4]
	adds	r0, r0, #1
	str	r0, [sp, #4]
	.loc	3 157 13                        @ ../../../CORTEX_MPU_M3_NUCLEO_L152RE_GCC/Demo/StreamBufferInterrupt.c:157:13
	b	.LBB1_10
.Ltmp18:
.LBB1_10:                               @   in Loop: Header=BB1_7 Depth=1
	.loc	3 158 9                         @ ../../../CORTEX_MPU_M3_NUCLEO_L152RE_GCC/Demo/StreamBufferInterrupt.c:158:9
	b	.LBB1_22
.Ltmp19:
.LBB1_11:                               @   in Loop: Header=BB1_7 Depth=1
	.loc	3 163 28                        @ ../../../CORTEX_MPU_M3_NUCLEO_L152RE_GCC/Demo/StreamBufferInterrupt.c:163:28
	ldr	r1, [sp, #4]
	add	r0, sp, #8
	.loc	3 163 17 is_stmt 0              @ ../../../CORTEX_MPU_M3_NUCLEO_L152RE_GCC/Demo/StreamBufferInterrupt.c:163:17
	ldrb	r0, [r0, r1]
.Ltmp20:
	.loc	3 163 17                        @ ../../../CORTEX_MPU_M3_NUCLEO_L152RE_GCC/Demo/StreamBufferInterrupt.c:163:17
	cmp	r0, #83
	bne	.LBB1_17
	b	.LBB1_12
.LBB1_12:                               @   in Loop: Header=BB1_7 Depth=1
.Ltmp21:
	.loc	3 166 40 is_stmt 1              @ ../../../CORTEX_MPU_M3_NUCLEO_L152RE_GCC/Demo/StreamBufferInterrupt.c:166:40
	ldr	r1, [sp]
	add	r0, sp, #8
	.loc	3 166 21 is_stmt 0              @ ../../../CORTEX_MPU_M3_NUCLEO_L152RE_GCC/Demo/StreamBufferInterrupt.c:166:21
	bl	strcmp
.Ltmp22:
	.loc	3 166 21                        @ ../../../CORTEX_MPU_M3_NUCLEO_L152RE_GCC/Demo/StreamBufferInterrupt.c:166:21
	cbz	r0, .LBB1_14
	b	.LBB1_13
.LBB1_13:                               @   in Loop: Header=BB1_7 Depth=1
.Ltmp23:
	.loc	3 168 38 is_stmt 1              @ ../../../CORTEX_MPU_M3_NUCLEO_L152RE_GCC/Demo/StreamBufferInterrupt.c:168:38
	movw	r1, :lower16:xDemoStatus
	movt	r1, :upper16:xDemoStatus
	movs	r0, #0
	str	r0, [r1]
	.loc	3 169 17                        @ ../../../CORTEX_MPU_M3_NUCLEO_L152RE_GCC/Demo/StreamBufferInterrupt.c:169:17
	b	.LBB1_14
.Ltmp24:
.LBB1_14:                               @   in Loop: Header=BB1_7 Depth=1
	.loc	3 0 17 is_stmt 0                @ ../../../CORTEX_MPU_M3_NUCLEO_L152RE_GCC/Demo/StreamBufferInterrupt.c:0:17
	movs	r0, #0
	.loc	3 173 17 is_stmt 1              @ ../../../CORTEX_MPU_M3_NUCLEO_L152RE_GCC/Demo/StreamBufferInterrupt.c:173:17
	str	r0, [sp, #24]
	str	r0, [sp, #20]
	str	r0, [sp, #16]
	str	r0, [sp, #12]
	str	r0, [sp, #8]
	.loc	3 174 27                        @ ../../../CORTEX_MPU_M3_NUCLEO_L152RE_GCC/Demo/StreamBufferInterrupt.c:174:27
	str	r0, [sp, #4]
.Ltmp25:
	.loc	3 178 21                        @ ../../../CORTEX_MPU_M3_NUCLEO_L152RE_GCC/Demo/StreamBufferInterrupt.c:178:21
	movw	r0, :lower16:xDemoStatus
	movt	r0, :upper16:xDemoStatus
	ldr	r0, [r0]
.Ltmp26:
	.loc	3 178 21 is_stmt 0              @ ../../../CORTEX_MPU_M3_NUCLEO_L152RE_GCC/Demo/StreamBufferInterrupt.c:178:21
	cmp	r0, #1
	bne	.LBB1_16
	b	.LBB1_15
.LBB1_15:                               @   in Loop: Header=BB1_7 Depth=1
.Ltmp27:
	.loc	3 180 38 is_stmt 1              @ ../../../CORTEX_MPU_M3_NUCLEO_L152RE_GCC/Demo/StreamBufferInterrupt.c:180:38
	movw	r1, :lower16:ulCycleCount
	movt	r1, :upper16:ulCycleCount
	ldr	r0, [r1]
	adds	r0, r0, #1
	str	r0, [r1]
	.loc	3 181 17                        @ ../../../CORTEX_MPU_M3_NUCLEO_L152RE_GCC/Demo/StreamBufferInterrupt.c:181:17
	b	.LBB1_16
.Ltmp28:
.LBB1_16:                               @   in Loop: Header=BB1_7 Depth=1
	.loc	3 182 13                        @ ../../../CORTEX_MPU_M3_NUCLEO_L152RE_GCC/Demo/StreamBufferInterrupt.c:182:13
	b	.LBB1_21
.Ltmp29:
.LBB1_17:                               @   in Loop: Header=BB1_7 Depth=1
	.loc	3 187 26                        @ ../../../CORTEX_MPU_M3_NUCLEO_L152RE_GCC/Demo/StreamBufferInterrupt.c:187:26
	ldr	r0, [sp, #4]
	adds	r0, r0, #1
	str	r0, [sp, #4]
.Ltmp30:
	.loc	3 189 17                        @ ../../../CORTEX_MPU_M3_NUCLEO_L152RE_GCC/Demo/StreamBufferInterrupt.c:189:17
	ldr	r0, [sp, #4]
.Ltmp31:
	.loc	3 189 17 is_stmt 0              @ ../../../CORTEX_MPU_M3_NUCLEO_L152RE_GCC/Demo/StreamBufferInterrupt.c:189:17
	cmp	r0, #20
	blo	.LBB1_20
	b	.LBB1_18
.LBB1_18:
.Ltmp32:
	.loc	3 189 17                        @ ../../../CORTEX_MPU_M3_NUCLEO_L152RE_GCC/Demo/StreamBufferInterrupt.c:189:17
	@APP
	cpsid i
	@NO_APP
	b	.LBB1_19
.LBB1_19:                               @ =>This Inner Loop Header: Depth=1
.Ltmp33:
	.loc	3 189 17                        @ ../../../CORTEX_MPU_M3_NUCLEO_L152RE_GCC/Demo/StreamBufferInterrupt.c:189:17
	b	.LBB1_19
.Ltmp34:
.LBB1_20:                               @   in Loop: Header=BB1_7 Depth=1
	.loc	3 0 17                          @ ../../../CORTEX_MPU_M3_NUCLEO_L152RE_GCC/Demo/StreamBufferInterrupt.c:0:17
	b	.LBB1_21
.LBB1_21:                               @   in Loop: Header=BB1_7 Depth=1
	b	.LBB1_22
.LBB1_22:                               @   in Loop: Header=BB1_7 Depth=1
	.loc	3 136 5 is_stmt 1               @ ../../../CORTEX_MPU_M3_NUCLEO_L152RE_GCC/Demo/StreamBufferInterrupt.c:136:5
	b	.LBB1_7
.Ltmp35:
.Lfunc_end1:
	.size	prvReceivingTask, .Lfunc_end1-prvReceivingTask
	.cfi_endproc
	.cantunwind
	.fnend
                                        @ -- End function
	.section	.text.vBasicStreamBufferSendFromISR,"ax",%progbits
	.hidden	vBasicStreamBufferSendFromISR   @ -- Begin function vBasicStreamBufferSendFromISR
	.globl	vBasicStreamBufferSendFromISR
	.p2align	1
	.type	vBasicStreamBufferSendFromISR,%function
	.code	16                              @ @vBasicStreamBufferSendFromISR
	.thumb_func
vBasicStreamBufferSendFromISR:
.Lfunc_begin2:
	.loc	3 197 0                         @ ../../../CORTEX_MPU_M3_NUCLEO_L152RE_GCC/Demo/StreamBufferInterrupt.c:197:0
	.fnstart
	.cfi_startproc
@ %bb.0:
	.save	{r7, lr}
	push	{r7, lr}
	.cfi_def_cfa_offset 8
	.cfi_offset lr, -4
	.cfi_offset r7, -8
	.pad	#24
	sub	sp, #24
	.cfi_def_cfa_offset 32
	movs	r0, #100
.Ltmp36:
	.loc	3 199 22 prologue_end           @ ../../../CORTEX_MPU_M3_NUCLEO_L152RE_GCC/Demo/StreamBufferInterrupt.c:199:22
	str	r0, [sp, #20]
	movs	r0, #4
	.loc	3 199 48 is_stmt 0              @ ../../../CORTEX_MPU_M3_NUCLEO_L152RE_GCC/Demo/StreamBufferInterrupt.c:199:48
	str	r0, [sp, #16]
	.loc	3 203 15 is_stmt 1              @ ../../../CORTEX_MPU_M3_NUCLEO_L152RE_GCC/Demo/StreamBufferInterrupt.c:203:15
	movw	r0, :lower16:vBasicStreamBufferSendFromISR.xCallCount
	movt	r0, :upper16:vBasicStreamBufferSendFromISR.xCallCount
	ldr	r1, [r0]
	adds	r1, r1, #1
	str	r1, [r0]
.Ltmp37:
	.loc	3 205 9                         @ ../../../CORTEX_MPU_M3_NUCLEO_L152RE_GCC/Demo/StreamBufferInterrupt.c:205:9
	ldr	r0, [r0]
.Ltmp38:
	.loc	3 205 9 is_stmt 0               @ ../../../CORTEX_MPU_M3_NUCLEO_L152RE_GCC/Demo/StreamBufferInterrupt.c:205:9
	cmp	r0, #101
	blt	.LBB2_4
	b	.LBB2_1
.LBB2_1:
.Ltmp39:
	.loc	3 207 20 is_stmt 1              @ ../../../CORTEX_MPU_M3_NUCLEO_L152RE_GCC/Demo/StreamBufferInterrupt.c:207:20
	movw	r0, :lower16:vBasicStreamBufferSendFromISR.xCallCount
	movt	r0, :upper16:vBasicStreamBufferSendFromISR.xCallCount
	movs	r3, #0
	str	r3, [r0]
	.loc	3 210 35                        @ ../../../CORTEX_MPU_M3_NUCLEO_L152RE_GCC/Demo/StreamBufferInterrupt.c:210:35
	movw	r0, :lower16:xStreamBuffer
	movt	r0, :upper16:xStreamBuffer
	ldr	r0, [r0]
	.loc	3 211 54                        @ ../../../CORTEX_MPU_M3_NUCLEO_L152RE_GCC/Demo/StreamBufferInterrupt.c:211:54
	movw	r1, :lower16:pcStringToSend
	movt	r1, :upper16:pcStringToSend
	str	r1, [sp, #8]                    @ 4-byte Spill
	ldr	r1, [r1]
	.loc	3 211 71 is_stmt 0              @ ../../../CORTEX_MPU_M3_NUCLEO_L152RE_GCC/Demo/StreamBufferInterrupt.c:211:71
	movw	r2, :lower16:vBasicStreamBufferSendFromISR.xNextByteToSend
	movt	r2, :upper16:vBasicStreamBufferSendFromISR.xNextByteToSend
	str	r2, [sp, #4]                    @ 4-byte Spill
	ldr	r2, [r2]
	.loc	3 211 69                        @ ../../../CORTEX_MPU_M3_NUCLEO_L152RE_GCC/Demo/StreamBufferInterrupt.c:211:69
	adds	r1, r1, r2
	movs	r2, #4
	.loc	3 210 9 is_stmt 1               @ ../../../CORTEX_MPU_M3_NUCLEO_L152RE_GCC/Demo/StreamBufferInterrupt.c:210:9
	bl	xStreamBufferSendFromISR
	ldr	r1, [sp, #4]                    @ 4-byte Reload
                                        @ kill: def $r2 killed $r0
	.loc	3 217 25                        @ ../../../CORTEX_MPU_M3_NUCLEO_L152RE_GCC/Demo/StreamBufferInterrupt.c:217:25
	ldr	r0, [sp, #8]                    @ 4-byte Reload
	ldr	r2, [r1]
	adds	r2, r2, #4
	str	r2, [r1]
.Ltmp40:
	.loc	3 219 13                        @ ../../../CORTEX_MPU_M3_NUCLEO_L152RE_GCC/Demo/StreamBufferInterrupt.c:219:13
	ldr	r1, [r1]
	.loc	3 219 40 is_stmt 0              @ ../../../CORTEX_MPU_M3_NUCLEO_L152RE_GCC/Demo/StreamBufferInterrupt.c:219:40
	str	r1, [sp, #12]                   @ 4-byte Spill
	ldr	r0, [r0]
	.loc	3 219 32                        @ ../../../CORTEX_MPU_M3_NUCLEO_L152RE_GCC/Demo/StreamBufferInterrupt.c:219:32
	bl	strlen
	mov	r1, r0
.Ltmp41:
	.loc	3 219 13                        @ ../../../CORTEX_MPU_M3_NUCLEO_L152RE_GCC/Demo/StreamBufferInterrupt.c:219:13
	ldr	r0, [sp, #12]                   @ 4-byte Reload
	cmp	r0, r1
	blo	.LBB2_3
	b	.LBB2_2
.LBB2_2:
.Ltmp42:
	.loc	3 221 29 is_stmt 1              @ ../../../CORTEX_MPU_M3_NUCLEO_L152RE_GCC/Demo/StreamBufferInterrupt.c:221:29
	movw	r1, :lower16:vBasicStreamBufferSendFromISR.xNextByteToSend
	movt	r1, :upper16:vBasicStreamBufferSendFromISR.xNextByteToSend
	movs	r0, #0
	str	r0, [r1]
	.loc	3 222 9                         @ ../../../CORTEX_MPU_M3_NUCLEO_L152RE_GCC/Demo/StreamBufferInterrupt.c:222:9
	b	.LBB2_3
.Ltmp43:
.LBB2_3:
	.loc	3 223 5                         @ ../../../CORTEX_MPU_M3_NUCLEO_L152RE_GCC/Demo/StreamBufferInterrupt.c:223:5
	b	.LBB2_4
.Ltmp44:
.LBB2_4:
	.loc	3 224 1                         @ ../../../CORTEX_MPU_M3_NUCLEO_L152RE_GCC/Demo/StreamBufferInterrupt.c:224:1
	add	sp, #24
	pop	{r7, pc}
.Ltmp45:
.Lfunc_end2:
	.size	vBasicStreamBufferSendFromISR, .Lfunc_end2-vBasicStreamBufferSendFromISR
	.cfi_endproc
	.cantunwind
	.fnend
                                        @ -- End function
	.section	.text.xIsInterruptStreamBufferDemoStillRunning,"ax",%progbits
	.hidden	xIsInterruptStreamBufferDemoStillRunning @ -- Begin function xIsInterruptStreamBufferDemoStillRunning
	.globl	xIsInterruptStreamBufferDemoStillRunning
	.p2align	1
	.type	xIsInterruptStreamBufferDemoStillRunning,%function
	.code	16                              @ @xIsInterruptStreamBufferDemoStillRunning
	.thumb_func
xIsInterruptStreamBufferDemoStillRunning:
.Lfunc_begin3:
	.loc	3 228 0                         @ ../../../CORTEX_MPU_M3_NUCLEO_L152RE_GCC/Demo/StreamBufferInterrupt.c:228:0
	.fnstart
	.cfi_startproc
@ %bb.0:
	.pad	#4
	sub	sp, #4
	.cfi_def_cfa_offset 4
	movs	r0, #0
.Ltmp46:
	.loc	3 229 14 prologue_end           @ ../../../CORTEX_MPU_M3_NUCLEO_L152RE_GCC/Demo/StreamBufferInterrupt.c:229:14
	str	r0, [sp]
.Ltmp47:
	.loc	3 232 9                         @ ../../../CORTEX_MPU_M3_NUCLEO_L152RE_GCC/Demo/StreamBufferInterrupt.c:232:9
	ldr	r0, [sp]
	.loc	3 232 29 is_stmt 0              @ ../../../CORTEX_MPU_M3_NUCLEO_L152RE_GCC/Demo/StreamBufferInterrupt.c:232:29
	movw	r1, :lower16:ulCycleCount
	movt	r1, :upper16:ulCycleCount
	ldr	r1, [r1]
.Ltmp48:
	.loc	3 232 9                         @ ../../../CORTEX_MPU_M3_NUCLEO_L152RE_GCC/Demo/StreamBufferInterrupt.c:232:9
	cmp	r0, r1
	bne	.LBB3_2
	b	.LBB3_1
.LBB3_1:
.Ltmp49:
	.loc	3 234 26 is_stmt 1              @ ../../../CORTEX_MPU_M3_NUCLEO_L152RE_GCC/Demo/StreamBufferInterrupt.c:234:26
	movw	r1, :lower16:xDemoStatus
	movt	r1, :upper16:xDemoStatus
	movs	r0, #0
	str	r0, [r1]
	.loc	3 235 5                         @ ../../../CORTEX_MPU_M3_NUCLEO_L152RE_GCC/Demo/StreamBufferInterrupt.c:235:5
	b	.LBB3_3
.Ltmp50:
.LBB3_2:
	.loc	3 238 28                        @ ../../../CORTEX_MPU_M3_NUCLEO_L152RE_GCC/Demo/StreamBufferInterrupt.c:238:28
	movw	r0, :lower16:ulCycleCount
	movt	r0, :upper16:ulCycleCount
	ldr	r0, [r0]
	.loc	3 238 26 is_stmt 0              @ ../../../CORTEX_MPU_M3_NUCLEO_L152RE_GCC/Demo/StreamBufferInterrupt.c:238:26
	str	r0, [sp]
	b	.LBB3_3
.Ltmp51:
.LBB3_3:
	.loc	3 241 12 is_stmt 1              @ ../../../CORTEX_MPU_M3_NUCLEO_L152RE_GCC/Demo/StreamBufferInterrupt.c:241:12
	movw	r0, :lower16:xDemoStatus
	movt	r0, :upper16:xDemoStatus
	ldr	r0, [r0]
	.loc	3 241 5 is_stmt 0               @ ../../../CORTEX_MPU_M3_NUCLEO_L152RE_GCC/Demo/StreamBufferInterrupt.c:241:5
	add	sp, #4
	bx	lr
.Ltmp52:
.Lfunc_end3:
	.size	xIsInterruptStreamBufferDemoStillRunning, .Lfunc_end3-xIsInterruptStreamBufferDemoStillRunning
	.cfi_endproc
	.cantunwind
	.fnend
                                        @ -- End function
	.type	vStartStreamBufferInterruptDemo.xReceivingTaskStack,%object @ @vStartStreamBufferInterruptDemo.xReceivingTaskStack
	.section	.bss.vStartStreamBufferInterruptDemo.xReceivingTaskStack,"aw",%nobits
	.p2align	9, 0x0
vStartStreamBufferInterruptDemo.xReceivingTaskStack:
	.zero	512
	.size	vStartStreamBufferInterruptDemo.xReceivingTaskStack, 512

	.type	xStreamBuffer,%object           @ @xStreamBuffer
	.section	.bss.xStreamBuffer,"aw",%nobits
	.p2align	5, 0x0
xStreamBuffer:
	.zero	32
	.size	xStreamBuffer, 32

	.type	.L.str,%object                  @ @.str
	.section	.rodata.str1.1,"aMS",%progbits,1
.L.str:
	.asciz	"StrIntRx"
	.size	.L.str, 9

	.type	xDemoStatus,%object             @ @xDemoStatus
	.section	.data.xDemoStatus,"aw",%progbits
	.p2align	5, 0x0
xDemoStatus:
	.long	1                               @ 0x1
	.long	0                               @ 0x0
	.long	0                               @ 0x0
	.long	0                               @ 0x0
	.long	0                               @ 0x0
	.long	0                               @ 0x0
	.long	0                               @ 0x0
	.long	0                               @ 0x0
	.size	xDemoStatus, 32

	.type	ulCycleCount,%object            @ @ulCycleCount
	.section	.bss.ulCycleCount,"aw",%nobits
	.p2align	5, 0x0
ulCycleCount:
	.zero	32
	.size	ulCycleCount, 32

	.type	.L__const.vStartStreamBufferInterruptDemo.xReceivingTaskParameters,%object @ @__const.vStartStreamBufferInterruptDemo.xReceivingTaskParameters
	.section	.rodata..L__const.vStartStreamBufferInterruptDemo.xReceivingTaskParameters,"a",%progbits
	.p2align	2, 0x0
.L__const.vStartStreamBufferInterruptDemo.xReceivingTaskParameters:
	.long	prvReceivingTask
	.long	.L.str
	.short	128                             @ 0x80
	.zero	2
	.long	0
	.long	2                               @ 0x2
	.long	vStartStreamBufferInterruptDemo.xReceivingTaskStack
	.long	xDemoStatus
	.long	32                              @ 0x20
	.long	3                               @ 0x3
	.long	ulCycleCount
	.long	32                              @ 0x20
	.long	3                               @ 0x3
	.long	xStreamBuffer
	.long	32                              @ 0x20
	.long	3                               @ 0x3
	.long	0
	.size	.L__const.vStartStreamBufferInterruptDemo.xReceivingTaskParameters, 64

	.type	vBasicStreamBufferSendFromISR.xNextByteToSend,%object @ @vBasicStreamBufferSendFromISR.xNextByteToSend
	.section	.bss.vBasicStreamBufferSendFromISR.xNextByteToSend,"aw",%nobits
	.p2align	2, 0x0
vBasicStreamBufferSendFromISR.xNextByteToSend:
	.long	0                               @ 0x0
	.size	vBasicStreamBufferSendFromISR.xNextByteToSend, 4

	.type	vBasicStreamBufferSendFromISR.xCallCount,%object @ @vBasicStreamBufferSendFromISR.xCallCount
	.section	.bss.vBasicStreamBufferSendFromISR.xCallCount,"aw",%nobits
	.p2align	2, 0x0
vBasicStreamBufferSendFromISR.xCallCount:
	.long	0                               @ 0x0
	.size	vBasicStreamBufferSendFromISR.xCallCount, 4

	.type	pcStringToSend,%object          @ @pcStringToSend
	.section	.data.pcStringToSend,"aw",%progbits
	.p2align	2, 0x0
pcStringToSend:
	.long	.L.str.2
	.size	pcStringToSend, 4

	.type	.L.str.1,%object                @ @.str.1
	.section	.rodata.str1.1,"aMS",%progbits,1
.L.str.1:
	.asciz	"Hello FreeRTOS"
	.size	.L.str.1, 15

	.type	.L.str.2,%object                @ @.str.2
.L.str.2:
	.asciz	"_____Hello FreeRTOS_____"
	.size	.L.str.2, 25

	.file	6 "C:\\Users\\karahulx\\Downloads\\Kernel\\FreeRTOS\\FreeRTOS\\Demo\\CORTEX_MPU_M23_Nuvoton_NuMaker_PFM_M2351_IAR_GCC\\Projects_NTZ\\Keil" "../../../../Source/include/projdefs.h"
	.file	7 "C:\\Users\\karahulx\\Downloads\\Kernel\\FreeRTOS\\FreeRTOS\\Demo\\CORTEX_MPU_M23_Nuvoton_NuMaker_PFM_M2351_IAR_GCC\\Projects_NTZ\\Keil" "../../../../Source/include\\task.h"
	.file	8 "C:\\Users\\karahulx\\Downloads\\Kernel\\FreeRTOS\\FreeRTOS\\Demo\\CORTEX_MPU_M23_Nuvoton_NuMaker_PFM_M2351_IAR_GCC\\Projects_NTZ\\Keil" "../../../../Source/include\\FreeRTOS.h"
	.section	".note.GNU-stack","",%progbits
	.eabi_attribute	30, 6	@ Tag_ABI_optimization_goals
	.ARM_attribute	16, 1	@ Tag_AV_eba