	.text
	.syntax unified
	.eabi_attribute	67, "2.09"	@ Tag_conformance
	.eabi_attribute	6, 16	@ Tag_CPU_arch
	.eabi_attribute	7, 77	@ Tag_CPU_arch_profile
	.eabi_attribute	8, 0	@ Tag_ARM_ISA_use
	.eabi_attribute	9, 3	@ Tag_THUMB_ISA_use
	.eabi_attribute	34, 0	@ Tag_CPU_unaligned_access
	.eabi_attribute	17, 1	@ Tag_ABI_PCS_GOT_use
	.eabi_attribute	20, 2	@ Tag_ABI_FP_denormal
	.eabi_attribute	21, 0	@ Tag_ABI_FP_exceptions
	.eabi_attribute	23, 1	@ Tag_ABI_FP_number_model
	.eabi_attribute	24, 1	@ Tag_ABI_align_needed
	.eabi_attribute	25, 1	@ Tag_ABI_align_preserved
	.eabi_attribute	38, 1	@ Tag_ABI_FP_16bit_format
	.eabi_attribute	18, 4	@ Tag_ABI_PCS_wchar_t
	.eabi_attribute	26, 2	@ Tag_ABI_enum_size
	.eabi_attribute	14, 0	@ Tag_ABI_PCS_R9_use
	.file	"StreamBufferDemo.c"
	.file	1 "C:\\Keil_v5\\ARM\\ARMCLANG\\Bin\\..\\include" "stdint.h"
	.file	2 "C:\\Users\\karahulx\\Downloads\\Kernel\\FreeRTOS\\FreeRTOS\\Demo\\CORTEX_MPU_M23_Nuvoton_NuMaker_PFM_M2351_IAR_GCC\\Projects_NTZ\\Keil" "../../../../Source/portable/GCC/ARM_CM23_NTZ/non_secure/portmacrocommon.h"
	.file	3 "C:\\Users\\karahulx\\Downloads\\Kernel\\FreeRTOS\\FreeRTOS\\Demo\\CORTEX_MPU_M23_Nuvoton_NuMaker_PFM_M2351_IAR_GCC\\Projects_NTZ\\Keil" "../../../CORTEX_MPU_M3_NUCLEO_L152RE_GCC/Demo/StreamBufferDemo.c"
	.file	4 "C:\\Keil_v5\\ARM\\ARMCLANG\\Bin\\..\\include" "stdio.h"
	.file	5 "C:\\Users\\karahulx\\Downloads\\Kernel\\FreeRTOS\\FreeRTOS\\Demo\\CORTEX_MPU_M23_Nuvoton_NuMaker_PFM_M2351_IAR_GCC\\Projects_NTZ\\Keil" "../../../../Source/include\\FreeRTOS.h"
	.file	6 "C:\\Users\\karahulx\\Downloads\\Kernel\\FreeRTOS\\FreeRTOS\\Demo\\CORTEX_MPU_M23_Nuvoton_NuMaker_PFM_M2351_IAR_GCC\\Projects_NTZ\\Keil" "../../../../Source/include\\stream_buffer.h"
	.file	7 "C:\\Users\\karahulx\\Downloads\\Kernel\\FreeRTOS\\FreeRTOS\\Demo\\CORTEX_MPU_M23_Nuvoton_NuMaker_PFM_M2351_IAR_GCC\\Projects_NTZ\\Keil" "../../../../Source/include\\task.h"
	.section	.text.vStartStreamBufferTasks,"ax",%progbits
	.hidden	vStartStreamBufferTasks         @ -- Begin function vStartStreamBufferTasks
	.globl	vStartStreamBufferTasks
	.p2align	1
	.type	vStartStreamBufferTasks,%function
	.code	16                              @ @vStartStreamBufferTasks
	.thumb_func
vStartStreamBufferTasks:
.Lfunc_begin0:
	.loc	3 198 0                         @ ../../../CORTEX_MPU_M3_NUCLEO_L152RE_GCC/Demo/StreamBufferDemo.c:198:0
	.fnstart
	.cfi_sections .debug_frame
	.cfi_startproc
@ %bb.0:
	.save	{r4, r5, r6, r7, lr}
	push	{r4, r5, r6, r7, lr}
	.cfi_def_cfa_offset 20
	.cfi_offset lr, -4
	.cfi_offset r7, -8
	.cfi_offset r6, -12
	.cfi_offset r5, -16
	.cfi_offset r4, -20
	.pad	#508
	sub	sp, #508
	.pad	#304
	sub	sp, #304
	.cfi_def_cfa_offset 832
.Ltmp0:
	.loc	3 208 22 prologue_end           @ ../../../CORTEX_MPU_M3_NUCLEO_L152RE_GCC/Demo/StreamBufferDemo.c:208:22
	movw	r1, :lower16:.L__const.vStartStreamBufferTasks.xEchoServerTask1Parameters
	movt	r1, :upper16:.L__const.vStartStreamBufferTasks.xEchoServerTask1Parameters
	add	r0, sp, #744
	ldm	r1!, {r2, r3, r4, r5}
	stm	r0!, {r2, r3, r4, r5}
	ldm	r1!, {r2, r3, r4, r5}
	stm	r0!, {r2, r3, r4, r5}
	ldm	r1!, {r2, r3, r4, r5}
	stm	r0!, {r2, r3, r4, r5}
	ldm	r1!, {r2, r3, r4, r5}
	stm	r0!, {r2, r3, r4, r5}
	.loc	3 225 22                        @ ../../../CORTEX_MPU_M3_NUCLEO_L152RE_GCC/Demo/StreamBufferDemo.c:225:22
	movw	r1, :lower16:.L__const.vStartStreamBufferTasks.xEchoServerTask2Parameters
	movt	r1, :upper16:.L__const.vStartStreamBufferTasks.xEchoServerTask2Parameters
	add	r0, sp, #680
	ldm	r1!, {r2, r3, r4, r5}
	stm	r0!, {r2, r3, r4, r5}
	ldm	r1!, {r2, r3, r4, r5}
	stm	r0!, {r2, r3, r4, r5}
	ldm	r1!, {r2, r3, r4, r5}
	stm	r0!, {r2, r3, r4, r5}
	ldm	r1!, {r2, r3, r4, r5}
	stm	r0!, {r2, r3, r4, r5}
	.loc	3 242 22                        @ ../../../CORTEX_MPU_M3_NUCLEO_L152RE_GCC/Demo/StreamBufferDemo.c:242:22
	movw	r1, :lower16:.L__const.vStartStreamBufferTasks.xNonBlockingReceiverTaskParameters
	movt	r1, :upper16:.L__const.vStartStreamBufferTasks.xNonBlockingReceiverTaskParameters
	add	r0, sp, #616
	ldm	r1!, {r2, r3, r4, r5}
	stm	r0!, {r2, r3, r4, r5}
	ldm	r1!, {r2, r3, r4, r5}
	stm	r0!, {r2, r3, r4, r5}
	ldm	r1!, {r2, r3, r4, r5}
	stm	r0!, {r2, r3, r4, r5}
	ldm	r1!, {r2, r3, r4, r5}
	stm	r0!, {r2, r3, r4, r5}
	.loc	3 260 22                        @ ../../../CORTEX_MPU_M3_NUCLEO_L152RE_GCC/Demo/StreamBufferDemo.c:260:22
	movw	r1, :lower16:.L__const.vStartStreamBufferTasks.xNonBlockingSenderTaskParameters
	movt	r1, :upper16:.L__const.vStartStreamBufferTasks.xNonBlockingSenderTaskParameters
	add	r0, sp, #552
	ldm	r1!, {r2, r3, r4, r5}
	stm	r0!, {r2, r3, r4, r5}
	ldm	r1!, {r2, r3, r4, r5}
	stm	r0!, {r2, r3, r4, r5}
	ldm	r1!, {r2, r3, r4, r5}
	stm	r0!, {r2, r3, r4, r5}
	ldm	r1!, {r2, r3, r4, r5}
	stm	r0!, {r2, r3, r4, r5}
	.loc	3 278 22                        @ ../../../CORTEX_MPU_M3_NUCLEO_L152RE_GCC/Demo/StreamBufferDemo.c:278:22
	movw	r1, :lower16:.L__const.vStartStreamBufferTasks.xInterruptTriggerLevelTestTaskParameters
	movt	r1, :upper16:.L__const.vStartStreamBufferTasks.xInterruptTriggerLevelTestTaskParameters
	add	r0, sp, #488
	ldm	r1!, {r2, r3, r4, r5}
	stm	r0!, {r2, r3, r4, r5}
	ldm	r1!, {r2, r3, r4, r5}
	stm	r0!, {r2, r3, r4, r5}
	ldm	r1!, {r2, r3, r4, r5}
	stm	r0!, {r2, r3, r4, r5}
	ldm	r1!, {r2, r3, r4, r5}
	stm	r0!, {r2, r3, r4, r5}
	.loc	3 295 22                        @ ../../../CORTEX_MPU_M3_NUCLEO_L152RE_GCC/Demo/StreamBufferDemo.c:295:22
	movw	r1, :lower16:.L__const.vStartStreamBufferTasks.xEchoClientTask1Parameters
	movt	r1, :upper16:.L__const.vStartStreamBufferTasks.xEchoClientTask1Parameters
	add	r0, sp, #424
	ldm	r1!, {r2, r3, r4, r5}
	stm	r0!, {r2, r3, r4, r5}
	ldm	r1!, {r2, r3, r4, r5}
	stm	r0!, {r2, r3, r4, r5}
	ldm	r1!, {r2, r3, r4, r5}
	stm	r0!, {r2, r3, r4, r5}
	ldm	r1!, {r2, r3, r4, r5}
	stm	r0!, {r2, r3, r4, r5}
	.loc	3 312 22                        @ ../../../CORTEX_MPU_M3_NUCLEO_L152RE_GCC/Demo/StreamBufferDemo.c:312:22
	movw	r1, :lower16:.L__const.vStartStreamBufferTasks.xEchoClientTask2Parameters
	movt	r1, :upper16:.L__const.vStartStreamBufferTasks.xEchoClientTask2Parameters
	add	r0, sp, #360
	ldm	r1!, {r2, r3, r4, r5}
	stm	r0!, {r2, r3, r4, r5}
	ldm	r1!, {r2, r3, r4, r5}
	stm	r0!, {r2, r3, r4, r5}
	ldm	r1!, {r2, r3, r4, r5}
	stm	r0!, {r2, r3, r4, r5}
	ldm	r1!, {r2, r3, r4, r5}
	stm	r0!, {r2, r3, r4, r5}
	.loc	3 330 5                         @ ../../../CORTEX_MPU_M3_NUCLEO_L152RE_GCC/Demo/StreamBufferDemo.c:330:5
	movw	r0, :lower16:pcDataSentFromInterrupt
	movt	r0, :upper16:pcDataSentFromInterrupt
	movw	r1, :lower16:.L.str.6
	movt	r1, :upper16:.L.str.6
	bl	sprintf
	.loc	3 331 5                         @ ../../../CORTEX_MPU_M3_NUCLEO_L152RE_GCC/Demo/StreamBufferDemo.c:331:5
	movw	r0, :lower16:pc55ByteString
	movt	r0, :upper16:pc55ByteString
	movw	r1, :lower16:.L.str.7
	movt	r1, :upper16:.L.str.7
	bl	sprintf
	.loc	3 332 5                         @ ../../../CORTEX_MPU_M3_NUCLEO_L152RE_GCC/Demo/StreamBufferDemo.c:332:5
	movw	r0, :lower16:pc54ByteString
	movt	r0, :upper16:pc54ByteString
	movw	r1, :lower16:.L.str.8
	movt	r1, :upper16:.L.str.8
	bl	sprintf
	movs	r3, #0
	.loc	3 337 78                        @ ../../../CORTEX_MPU_M3_NUCLEO_L152RE_GCC/Demo/StreamBufferDemo.c:337:78
	str	r3, [sp, #84]                   @ 4-byte Spill
	str	r3, [sp]
	movs	r0, #30
	str	r0, [sp, #88]                   @ 4-byte Spill
	movs	r1, #1
	str	r1, [sp, #80]                   @ 4-byte Spill
	mov	r2, r3
	bl	MPU_xStreamBufferGenericCreate
	ldr	r1, [sp, #80]                   @ 4-byte Reload
	ldr	r3, [sp, #84]                   @ 4-byte Reload
	mov	r2, r0
	.loc	3 337 76 is_stmt 0              @ ../../../CORTEX_MPU_M3_NUCLEO_L152RE_GCC/Demo/StreamBufferDemo.c:337:76
	ldr	r0, [sp, #88]                   @ 4-byte Reload
	movw	r4, :lower16:xEchoStreamBuffersArray
	movt	r4, :upper16:xEchoStreamBuffersArray
	str	r4, [sp, #92]                   @ 4-byte Spill
	str	r2, [r4]
	.loc	3 338 78 is_stmt 1              @ ../../../CORTEX_MPU_M3_NUCLEO_L152RE_GCC/Demo/StreamBufferDemo.c:338:78
	str	r3, [sp]
	mov	r2, r3
	bl	MPU_xStreamBufferGenericCreate
	mov	r1, r0
	.loc	3 338 76 is_stmt 0              @ ../../../CORTEX_MPU_M3_NUCLEO_L152RE_GCC/Demo/StreamBufferDemo.c:338:76
	ldr	r0, [sp, #92]                   @ 4-byte Reload
	str	r1, [r0, #4]
.Ltmp1:
	.loc	3 339 5 is_stmt 1               @ ../../../CORTEX_MPU_M3_NUCLEO_L152RE_GCC/Demo/StreamBufferDemo.c:339:5
	ldr	r0, [r0]
.Ltmp2:
	.loc	3 339 5 is_stmt 0               @ ../../../CORTEX_MPU_M3_NUCLEO_L152RE_GCC/Demo/StreamBufferDemo.c:339:5
	cbnz	r0, .LBB0_3
	b	.LBB0_1
.LBB0_1:
.Ltmp3:
	.loc	3 339 5                         @ ../../../CORTEX_MPU_M3_NUCLEO_L152RE_GCC/Demo/StreamBufferDemo.c:339:5
	@APP
	cpsid i
	@NO_APP
	b	.LBB0_2
.LBB0_2:                                @ =>This Inner Loop Header: Depth=1
.Ltmp4:
	.loc	3 339 5                         @ ../../../CORTEX_MPU_M3_NUCLEO_L152RE_GCC/Demo/StreamBufferDemo.c:339:5
	b	.LBB0_2
.Ltmp5:
.LBB0_3:
	.loc	3 340 5 is_stmt 1               @ ../../../CORTEX_MPU_M3_NUCLEO_L152RE_GCC/Demo/StreamBufferDemo.c:340:5
	movw	r0, :lower16:xEchoStreamBuffersArray
	movt	r0, :upper16:xEchoStreamBuffersArray
	ldr	r0, [r0, #4]
.Ltmp6:
	.loc	3 340 5 is_stmt 0               @ ../../../CORTEX_MPU_M3_NUCLEO_L152RE_GCC/Demo/StreamBufferDemo.c:340:5
	cbnz	r0, .LBB0_6
	b	.LBB0_4
.LBB0_4:
.Ltmp7:
	.loc	3 340 5                         @ ../../../CORTEX_MPU_M3_NUCLEO_L152RE_GCC/Demo/StreamBufferDemo.c:340:5
	@APP
	cpsid i
	@NO_APP
	b	.LBB0_5
.LBB0_5:                                @ =>This Inner Loop Header: Depth=1
.Ltmp8:
	.loc	3 340 5                         @ ../../../CORTEX_MPU_M3_NUCLEO_L152RE_GCC/Demo/StreamBufferDemo.c:340:5
	b	.LBB0_5
.Ltmp9:
.LBB0_6:
	.loc	3 0 5                           @ ../../../CORTEX_MPU_M3_NUCLEO_L152RE_GCC/Demo/StreamBufferDemo.c:0:5
	movs	r3, #0
	.loc	3 342 78 is_stmt 1              @ ../../../CORTEX_MPU_M3_NUCLEO_L152RE_GCC/Demo/StreamBufferDemo.c:342:78
	str	r3, [sp, #68]                   @ 4-byte Spill
	str	r3, [sp]
	movs	r0, #30
	str	r0, [sp, #72]                   @ 4-byte Spill
	movs	r1, #1
	str	r1, [sp, #64]                   @ 4-byte Spill
	mov	r2, r3
	bl	MPU_xStreamBufferGenericCreate
	ldr	r1, [sp, #64]                   @ 4-byte Reload
	ldr	r3, [sp, #68]                   @ 4-byte Reload
	mov	r2, r0
	.loc	3 342 76 is_stmt 0              @ ../../../CORTEX_MPU_M3_NUCLEO_L152RE_GCC/Demo/StreamBufferDemo.c:342:76
	ldr	r0, [sp, #72]                   @ 4-byte Reload
	movw	r4, :lower16:xEchoStreamBuffersArray
	movt	r4, :upper16:xEchoStreamBuffersArray
	str	r4, [sp, #76]                   @ 4-byte Spill
	str	r2, [r4, #8]
	.loc	3 343 78 is_stmt 1              @ ../../../CORTEX_MPU_M3_NUCLEO_L152RE_GCC/Demo/StreamBufferDemo.c:343:78
	str	r3, [sp]
	mov	r2, r3
	bl	MPU_xStreamBufferGenericCreate
	mov	r1, r0
	.loc	3 343 76 is_stmt 0              @ ../../../CORTEX_MPU_M3_NUCLEO_L152RE_GCC/Demo/StreamBufferDemo.c:343:76
	ldr	r0, [sp, #76]                   @ 4-byte Reload
	str	r1, [r0, #12]
.Ltmp10:
	.loc	3 344 5 is_stmt 1               @ ../../../CORTEX_MPU_M3_NUCLEO_L152RE_GCC/Demo/StreamBufferDemo.c:344:5
	ldr	r0, [r0, #8]
.Ltmp11:
	.loc	3 344 5 is_stmt 0               @ ../../../CORTEX_MPU_M3_NUCLEO_L152RE_GCC/Demo/StreamBufferDemo.c:344:5
	cbnz	r0, .LBB0_9
	b	.LBB0_7
.LBB0_7:
.Ltmp12:
	.loc	3 344 5                         @ ../../../CORTEX_MPU_M3_NUCLEO_L152RE_GCC/Demo/StreamBufferDemo.c:344:5
	@APP
	cpsid i
	@NO_APP
	b	.LBB0_8
.LBB0_8:                                @ =>This Inner Loop Header: Depth=1
.Ltmp13:
	.loc	3 344 5                         @ ../../../CORTEX_MPU_M3_NUCLEO_L152RE_GCC/Demo/StreamBufferDemo.c:344:5
	b	.LBB0_8
.Ltmp14:
.LBB0_9:
	.loc	3 345 5 is_stmt 1               @ ../../../CORTEX_MPU_M3_NUCLEO_L152RE_GCC/Demo/StreamBufferDemo.c:345:5
	movw	r0, :lower16:xEchoStreamBuffersArray
	movt	r0, :upper16:xEchoStreamBuffersArray
	ldr	r0, [r0, #12]
.Ltmp15:
	.loc	3 345 5 is_stmt 0               @ ../../../CORTEX_MPU_M3_NUCLEO_L152RE_GCC/Demo/StreamBufferDemo.c:345:5
	cbnz	r0, .LBB0_12
	b	.LBB0_10
.LBB0_10:
.Ltmp16:
	.loc	3 345 5                         @ ../../../CORTEX_MPU_M3_NUCLEO_L152RE_GCC/Demo/StreamBufferDemo.c:345:5
	@APP
	cpsid i
	@NO_APP
	b	.LBB0_11
.LBB0_11:                               @ =>This Inner Loop Header: Depth=1
.Ltmp17:
	.loc	3 345 5                         @ ../../../CORTEX_MPU_M3_NUCLEO_L152RE_GCC/Demo/StreamBufferDemo.c:345:5
	b	.LBB0_11
.Ltmp18:
.LBB0_12:
	.loc	3 350 45 is_stmt 1              @ ../../../CORTEX_MPU_M3_NUCLEO_L152RE_GCC/Demo/StreamBufferDemo.c:350:45
	movw	r0, :lower16:xEchoStreamBuffersArray
	movt	r0, :upper16:xEchoStreamBuffersArray
	str	r0, [sp, #16]                   @ 4-byte Spill
	str	r0, [sp, #756]
	.loc	3 351 45                        @ ../../../CORTEX_MPU_M3_NUCLEO_L152RE_GCC/Demo/StreamBufferDemo.c:351:45
	adds	r0, #8
	str	r0, [sp, #20]                   @ 4-byte Spill
	str	r0, [sp, #692]
	add	r0, sp, #744
	movs	r1, #0
	.loc	3 352 5                         @ ../../../CORTEX_MPU_M3_NUCLEO_L152RE_GCC/Demo/StreamBufferDemo.c:352:5
	str	r1, [sp, #44]                   @ 4-byte Spill
	bl	xTaskCreateRestricted
	ldr	r1, [sp, #44]                   @ 4-byte Reload
	add	r0, sp, #680
	.loc	3 353 5                         @ ../../../CORTEX_MPU_M3_NUCLEO_L152RE_GCC/Demo/StreamBufferDemo.c:353:5
	bl	xTaskCreateRestricted
	ldr	r3, [sp, #44]                   @ 4-byte Reload
	.loc	3 358 21                        @ ../../../CORTEX_MPU_M3_NUCLEO_L152RE_GCC/Demo/StreamBufferDemo.c:358:21
	str	r3, [sp]
	movs	r0, #30
	movs	r1, #1
	str	r1, [sp, #28]                   @ 4-byte Spill
	mov	r2, r3
	bl	MPU_xStreamBufferGenericCreate
	ldr	r1, [sp, #44]                   @ 4-byte Reload
	.loc	3 358 19 is_stmt 0              @ ../../../CORTEX_MPU_M3_NUCLEO_L152RE_GCC/Demo/StreamBufferDemo.c:358:19
	str	r0, [sp, #808]
	.loc	3 359 66 is_stmt 1              @ ../../../CORTEX_MPU_M3_NUCLEO_L152RE_GCC/Demo/StreamBufferDemo.c:359:66
	ldr	r0, [sp, #808]
	.loc	3 359 53 is_stmt 0              @ ../../../CORTEX_MPU_M3_NUCLEO_L152RE_GCC/Demo/StreamBufferDemo.c:359:53
	str	r0, [sp, #628]
	.loc	3 360 64 is_stmt 1              @ ../../../CORTEX_MPU_M3_NUCLEO_L152RE_GCC/Demo/StreamBufferDemo.c:360:64
	ldr	r0, [sp, #808]
	.loc	3 360 51 is_stmt 0              @ ../../../CORTEX_MPU_M3_NUCLEO_L152RE_GCC/Demo/StreamBufferDemo.c:360:51
	str	r0, [sp, #564]
	add	r0, sp, #616
	.loc	3 361 5 is_stmt 1               @ ../../../CORTEX_MPU_M3_NUCLEO_L152RE_GCC/Demo/StreamBufferDemo.c:361:5
	bl	xTaskCreateRestricted
	ldr	r1, [sp, #44]                   @ 4-byte Reload
	add	r0, sp, #552
	.loc	3 362 5                         @ ../../../CORTEX_MPU_M3_NUCLEO_L152RE_GCC/Demo/StreamBufferDemo.c:362:5
	bl	xTaskCreateRestricted
	ldr	r1, [sp, #44]                   @ 4-byte Reload
	add	r0, sp, #488
	.loc	3 368 5                         @ ../../../CORTEX_MPU_M3_NUCLEO_L152RE_GCC/Demo/StreamBufferDemo.c:368:5
	bl	xTaskCreateRestricted
	ldr	r1, [sp, #16]                   @ 4-byte Reload
                                        @ kill: def $r2 killed $r0
	.loc	3 371 45                        @ ../../../CORTEX_MPU_M3_NUCLEO_L152RE_GCC/Demo/StreamBufferDemo.c:371:45
	ldr	r0, [sp, #20]                   @ 4-byte Reload
	str	r1, [sp, #436]
	.loc	3 372 45                        @ ../../../CORTEX_MPU_M3_NUCLEO_L152RE_GCC/Demo/StreamBufferDemo.c:372:45
	str	r0, [sp, #372]
	.loc	3 373 5                         @ ../../../CORTEX_MPU_M3_NUCLEO_L152RE_GCC/Demo/StreamBufferDemo.c:373:5
	movw	r1, :lower16:xEchoClientTaskHandles
	movt	r1, :upper16:xEchoClientTaskHandles
	str	r1, [sp, #24]                   @ 4-byte Spill
	add	r0, sp, #424
	bl	xTaskCreateRestricted
                                        @ kill: def $r1 killed $r0
	.loc	3 374 5                         @ ../../../CORTEX_MPU_M3_NUCLEO_L152RE_GCC/Demo/StreamBufferDemo.c:374:5
	ldr	r0, [sp, #24]                   @ 4-byte Reload
	adds	r1, r0, #4
	add	r0, sp, #360
	bl	xTaskCreateRestricted
                                        @ kill: def $r1 killed $r0
	.loc	3 375 19                        @ ../../../CORTEX_MPU_M3_NUCLEO_L152RE_GCC/Demo/StreamBufferDemo.c:375:19
	ldr	r0, [sp, #24]                   @ 4-byte Reload
	ldr	r0, [r0]
	.loc	3 375 5 is_stmt 0               @ ../../../CORTEX_MPU_M3_NUCLEO_L152RE_GCC/Demo/StreamBufferDemo.c:375:5
	bl	MPU_vTaskSuspend
	ldr	r0, [sp, #24]                   @ 4-byte Reload
	.loc	3 376 19 is_stmt 1              @ ../../../CORTEX_MPU_M3_NUCLEO_L152RE_GCC/Demo/StreamBufferDemo.c:376:19
	ldr	r0, [r0, #4]
	.loc	3 376 5 is_stmt 0               @ ../../../CORTEX_MPU_M3_NUCLEO_L152RE_GCC/Demo/StreamBufferDemo.c:376:5
	bl	MPU_vTaskSuspend
	ldr	r1, [sp, #28]                   @ 4-byte Reload
	ldr	r2, [sp, #44]                   @ 4-byte Reload
.Ltmp19:
	.loc	3 386 30 is_stmt 1              @ ../../../CORTEX_MPU_M3_NUCLEO_L152RE_GCC/Demo/StreamBufferDemo.c:386:30
	movw	r3, :lower16:.L__const.vStartStreamBufferTasks.xSenderTask1Parameters
	movt	r3, :upper16:.L__const.vStartStreamBufferTasks.xSenderTask1Parameters
	add	r0, sp, #288
	str	r0, [sp, #40]                   @ 4-byte Spill
	ldm	r3!, {r4, r5, r6, r7}
	stm	r0!, {r4, r5, r6, r7}
	ldm	r3!, {r4, r5, r6, r7}
	stm	r0!, {r4, r5, r6, r7}
	ldm	r3!, {r4, r5, r6, r7}
	stm	r0!, {r4, r5, r6, r7}
	ldm	r3!, {r4, r5, r6, r7}
	stm	r0!, {r4, r5, r6, r7}
	.loc	3 403 30                        @ ../../../CORTEX_MPU_M3_NUCLEO_L152RE_GCC/Demo/StreamBufferDemo.c:403:30
	movw	r3, :lower16:.L__const.vStartStreamBufferTasks.xSenderTask2Parameters
	movt	r3, :upper16:.L__const.vStartStreamBufferTasks.xSenderTask2Parameters
	add	r0, sp, #224
	str	r0, [sp, #48]                   @ 4-byte Spill
	ldm	r3!, {r4, r5, r6, r7}
	stm	r0!, {r4, r5, r6, r7}
	ldm	r3!, {r4, r5, r6, r7}
	stm	r0!, {r4, r5, r6, r7}
	ldm	r3!, {r4, r5, r6, r7}
	stm	r0!, {r4, r5, r6, r7}
	ldm	r3!, {r4, r5, r6, r7}
	stm	r0!, {r4, r5, r6, r7}
	.loc	3 420 30                        @ ../../../CORTEX_MPU_M3_NUCLEO_L152RE_GCC/Demo/StreamBufferDemo.c:420:30
	movw	r3, :lower16:.L__const.vStartStreamBufferTasks.xReceivingTask1Parameters
	movt	r3, :upper16:.L__const.vStartStreamBufferTasks.xReceivingTask1Parameters
	add	r0, sp, #160
	str	r0, [sp, #52]                   @ 4-byte Spill
	ldm	r3!, {r4, r5, r6, r7}
	stm	r0!, {r4, r5, r6, r7}
	ldm	r3!, {r4, r5, r6, r7}
	stm	r0!, {r4, r5, r6, r7}
	ldm	r3!, {r4, r5, r6, r7}
	stm	r0!, {r4, r5, r6, r7}
	ldm	r3!, {r4, r5, r6, r7}
	stm	r0!, {r4, r5, r6, r7}
	.loc	3 438 30                        @ ../../../CORTEX_MPU_M3_NUCLEO_L152RE_GCC/Demo/StreamBufferDemo.c:438:30
	movw	r3, :lower16:.L__const.vStartStreamBufferTasks.xReceivingTask2Parameters
	movt	r3, :upper16:.L__const.vStartStreamBufferTasks.xReceivingTask2Parameters
	add	r0, sp, #96
	str	r0, [sp, #56]                   @ 4-byte Spill
	ldm	r3!, {r4, r5, r6, r7}
	stm	r0!, {r4, r5, r6, r7}
	ldm	r3!, {r4, r5, r6, r7}
	stm	r0!, {r4, r5, r6, r7}
	ldm	r3!, {r4, r5, r6, r7}
	stm	r0!, {r4, r5, r6, r7}
	ldm	r3!, {r4, r5, r6, r7}
	stm	r0!, {r4, r5, r6, r7}
	.loc	3 456 44                        @ ../../../CORTEX_MPU_M3_NUCLEO_L152RE_GCC/Demo/StreamBufferDemo.c:456:44
	str	r2, [sp, #8]
	str	r2, [sp, #4]
	movw	r4, :lower16:xStaticStreamBuffers
	movt	r4, :upper16:xStaticStreamBuffers
	mov	r0, r4
	adds	r0, #36
	str	r0, [sp]
	movw	r3, :lower16:ucBufferStorage
	movt	r3, :upper16:ucBufferStorage
	str	r3, [sp, #32]                   @ 4-byte Spill
	adds	r3, #31
	movs	r0, #31
	str	r0, [sp, #36]                   @ 4-byte Spill
	bl	MPU_xStreamBufferGenericCreateStatic
	ldr	r1, [sp, #28]                   @ 4-byte Reload
	ldr	r3, [sp, #32]                   @ 4-byte Reload
	ldr	r2, [sp, #44]                   @ 4-byte Reload
	mov	r5, r0
	.loc	3 456 42 is_stmt 0              @ ../../../CORTEX_MPU_M3_NUCLEO_L152RE_GCC/Demo/StreamBufferDemo.c:456:42
	ldr	r0, [sp, #36]                   @ 4-byte Reload
	str	r5, [sp, #356]
	.loc	3 461 44 is_stmt 1              @ ../../../CORTEX_MPU_M3_NUCLEO_L152RE_GCC/Demo/StreamBufferDemo.c:461:44
	str	r2, [sp, #8]
	str	r2, [sp, #4]
	str	r4, [sp]
	bl	MPU_xStreamBufferGenericCreateStatic
	ldr	r1, [sp, #44]                   @ 4-byte Reload
	mov	r2, r0
	.loc	3 461 42 is_stmt 0              @ ../../../CORTEX_MPU_M3_NUCLEO_L152RE_GCC/Demo/StreamBufferDemo.c:461:42
	ldr	r0, [sp, #40]                   @ 4-byte Reload
	str	r2, [sp, #352]
	.loc	3 469 62 is_stmt 1              @ ../../../CORTEX_MPU_M3_NUCLEO_L152RE_GCC/Demo/StreamBufferDemo.c:469:62
	ldr	r2, [sp, #356]
	.loc	3 469 49 is_stmt 0              @ ../../../CORTEX_MPU_M3_NUCLEO_L152RE_GCC/Demo/StreamBufferDemo.c:469:49
	str	r2, [sp, #300]
	.loc	3 470 62 is_stmt 1              @ ../../../CORTEX_MPU_M3_NUCLEO_L152RE_GCC/Demo/StreamBufferDemo.c:470:62
	ldr	r2, [sp, #352]
	.loc	3 470 49 is_stmt 0              @ ../../../CORTEX_MPU_M3_NUCLEO_L152RE_GCC/Demo/StreamBufferDemo.c:470:49
	str	r2, [sp, #236]
	.loc	3 471 13 is_stmt 1              @ ../../../CORTEX_MPU_M3_NUCLEO_L152RE_GCC/Demo/StreamBufferDemo.c:471:13
	bl	xTaskCreateRestricted
	ldr	r1, [sp, #44]                   @ 4-byte Reload
                                        @ kill: def $r2 killed $r0
	.loc	3 472 13                        @ ../../../CORTEX_MPU_M3_NUCLEO_L152RE_GCC/Demo/StreamBufferDemo.c:472:13
	ldr	r0, [sp, #48]                   @ 4-byte Reload
	bl	xTaskCreateRestricted
                                        @ kill: def $r1 killed $r0
	.loc	3 474 65                        @ ../../../CORTEX_MPU_M3_NUCLEO_L152RE_GCC/Demo/StreamBufferDemo.c:474:65
	ldr	r0, [sp, #52]                   @ 4-byte Reload
	ldr	r1, [sp, #356]
	.loc	3 474 52 is_stmt 0              @ ../../../CORTEX_MPU_M3_NUCLEO_L152RE_GCC/Demo/StreamBufferDemo.c:474:52
	str	r1, [sp, #172]
	.loc	3 475 65 is_stmt 1              @ ../../../CORTEX_MPU_M3_NUCLEO_L152RE_GCC/Demo/StreamBufferDemo.c:475:65
	ldr	r1, [sp, #352]
	.loc	3 475 52 is_stmt 0              @ ../../../CORTEX_MPU_M3_NUCLEO_L152RE_GCC/Demo/StreamBufferDemo.c:475:52
	str	r1, [sp, #108]
	.loc	3 476 13 is_stmt 1              @ ../../../CORTEX_MPU_M3_NUCLEO_L152RE_GCC/Demo/StreamBufferDemo.c:476:13
	movw	r1, :lower16:xReceiverTaskHandles
	movt	r1, :upper16:xReceiverTaskHandles
	str	r1, [sp, #60]                   @ 4-byte Spill
	bl	xTaskCreateRestricted
	ldr	r1, [sp, #60]                   @ 4-byte Reload
                                        @ kill: def $r2 killed $r0
	.loc	3 477 13                        @ ../../../CORTEX_MPU_M3_NUCLEO_L152RE_GCC/Demo/StreamBufferDemo.c:477:13
	ldr	r0, [sp, #56]                   @ 4-byte Reload
	adds	r1, r1, #4
	bl	xTaskCreateRestricted
                                        @ kill: def $r1 killed $r0
	.loc	3 479 27                        @ ../../../CORTEX_MPU_M3_NUCLEO_L152RE_GCC/Demo/StreamBufferDemo.c:479:27
	ldr	r0, [sp, #60]                   @ 4-byte Reload
	ldr	r0, [r0]
	.loc	3 479 13 is_stmt 0              @ ../../../CORTEX_MPU_M3_NUCLEO_L152RE_GCC/Demo/StreamBufferDemo.c:479:13
	bl	MPU_vTaskSuspend
	ldr	r0, [sp, #60]                   @ 4-byte Reload
	.loc	3 480 27 is_stmt 1              @ ../../../CORTEX_MPU_M3_NUCLEO_L152RE_GCC/Demo/StreamBufferDemo.c:480:27
	ldr	r0, [r0, #4]
	.loc	3 480 13 is_stmt 0              @ ../../../CORTEX_MPU_M3_NUCLEO_L152RE_GCC/Demo/StreamBufferDemo.c:480:13
	bl	MPU_vTaskSuspend
.Ltmp20:
	.loc	3 483 1 is_stmt 1               @ ../../../CORTEX_MPU_M3_NUCLEO_L152RE_GCC/Demo/StreamBufferDemo.c:483:1
	add	sp, #508
	add	sp, #304
	pop	{r4, r5, r6, r7, pc}
.Ltmp21:
.Lfunc_end0:
	.size	vStartStreamBufferTasks, .Lfunc_end0-vStartStreamBufferTasks
	.cfi_endproc
	.cantunwind
	.fnend
                                        @ -- End function
	.section	.text.prvEchoServer,"ax",%progbits
	.p2align	1                               @ -- Begin function prvEchoServer
	.type	prvEchoServer,%function
	.code	16                              @ @prvEchoServer
	.thumb_func
prvEchoServer:
.Lfunc_begin1:
	.loc	3 1191 0                        @ ../../../CORTEX_MPU_M3_NUCLEO_L152RE_GCC/Demo/StreamBufferDemo.c:1191:0
	.fnstart
	.cfi_startproc
@ %bb.0:
	.save	{r7, lr}
	push	{r7, lr}
	.cfi_def_cfa_offset 8
	.cfi_offset lr, -4
	.cfi_offset r7, -8
	.pad	#80
	sub	sp, #80
	.cfi_def_cfa_offset 88
	str	r0, [sp, #76]
	movs	r0, #35
.Ltmp22:
	.loc	3 1195 22 prologue_end          @ ../../../CORTEX_MPU_M3_NUCLEO_L152RE_GCC/Demo/StreamBufferDemo.c:1195:22
	str	r0, [sp, #16]                   @ 4-byte Spill
	str	r0, [sp, #32]
	.loc	3 1196 75                       @ ../../../CORTEX_MPU_M3_NUCLEO_L152RE_GCC/Demo/StreamBufferDemo.c:1196:75
	ldr	r0, [sp, #76]
	.loc	3 1196 27 is_stmt 0             @ ../../../CORTEX_MPU_M3_NUCLEO_L152RE_GCC/Demo/StreamBufferDemo.c:1196:27
	str	r0, [sp, #28]
	.loc	3 1199 23 is_stmt 1             @ ../../../CORTEX_MPU_M3_NUCLEO_L152RE_GCC/Demo/StreamBufferDemo.c:1199:23
	bl	MPU_xTaskGetTickCount
	ldr	r3, [sp, #16]                   @ 4-byte Reload
	.loc	3 1199 21 is_stmt 0             @ ../../../CORTEX_MPU_M3_NUCLEO_L152RE_GCC/Demo/StreamBufferDemo.c:1199:21
	str	r0, [sp, #36]
	.loc	3 1200 45 is_stmt 1             @ ../../../CORTEX_MPU_M3_NUCLEO_L152RE_GCC/Demo/StreamBufferDemo.c:1200:45
	ldr	r0, [sp, #28]
	.loc	3 1200 66 is_stmt 0             @ ../../../CORTEX_MPU_M3_NUCLEO_L152RE_GCC/Demo/StreamBufferDemo.c:1200:66
	ldr	r0, [r0]
	add	r1, sp, #40
	movs	r2, #30
	.loc	3 1200 23                       @ ../../../CORTEX_MPU_M3_NUCLEO_L152RE_GCC/Demo/StreamBufferDemo.c:1200:23
	bl	MPU_xStreamBufferReceive
	.loc	3 1200 21                       @ ../../../CORTEX_MPU_M3_NUCLEO_L152RE_GCC/Demo/StreamBufferDemo.c:1200:21
	str	r0, [sp, #72]
	.loc	3 1201 47 is_stmt 1             @ ../../../CORTEX_MPU_M3_NUCLEO_L152RE_GCC/Demo/StreamBufferDemo.c:1201:47
	bl	MPU_xTaskGetTickCount
	.loc	3 1201 69 is_stmt 0             @ ../../../CORTEX_MPU_M3_NUCLEO_L152RE_GCC/Demo/StreamBufferDemo.c:1201:69
	ldr	r1, [sp, #36]
	.loc	3 1201 67                       @ ../../../CORTEX_MPU_M3_NUCLEO_L152RE_GCC/Demo/StreamBufferDemo.c:1201:67
	subs	r1, r0, r1
	movs	r0, #1
	movs	r2, #0
	.loc	3 1201 89                       @ ../../../CORTEX_MPU_M3_NUCLEO_L152RE_GCC/Demo/StreamBufferDemo.c:1201:89
	str	r2, [sp, #20]                   @ 4-byte Spill
	cmp	r1, #34
	str	r0, [sp, #24]                   @ 4-byte Spill
	bhi	.LBB1_2
@ %bb.1:
	.loc	3 0 89                          @ ../../../CORTEX_MPU_M3_NUCLEO_L152RE_GCC/Demo/StreamBufferDemo.c:0:89
	ldr	r0, [sp, #20]                   @ 4-byte Reload
	str	r0, [sp, #24]                   @ 4-byte Spill
.LBB1_2:
	.loc	3 1201 89                       @ ../../../CORTEX_MPU_M3_NUCLEO_L152RE_GCC/Demo/StreamBufferDemo.c:1201:89
	ldr	r0, [sp, #24]                   @ 4-byte Reload
	.loc	3 1201 5                        @ ../../../CORTEX_MPU_M3_NUCLEO_L152RE_GCC/Demo/StreamBufferDemo.c:1201:5
	bl	prvCheckExpectedState
	.loc	3 1202 28 is_stmt 1             @ ../../../CORTEX_MPU_M3_NUCLEO_L152RE_GCC/Demo/StreamBufferDemo.c:1202:28
	ldr	r0, [sp, #72]
	.loc	3 1202 44 is_stmt 0             @ ../../../CORTEX_MPU_M3_NUCLEO_L152RE_GCC/Demo/StreamBufferDemo.c:1202:44
	rsbs	r1, r0, #0
	adcs	r0, r1
	.loc	3 1202 5                        @ ../../../CORTEX_MPU_M3_NUCLEO_L152RE_GCC/Demo/StreamBufferDemo.c:1202:5
	bl	prvCheckExpectedState
	ldr	r0, [sp, #20]                   @ 4-byte Reload
.Ltmp23:
	.loc	3 1208 9 is_stmt 1              @ ../../../CORTEX_MPU_M3_NUCLEO_L152RE_GCC/Demo/StreamBufferDemo.c:1208:9
	bl	MPU_uxTaskPriorityGet
.Ltmp24:
	.loc	3 1208 9 is_stmt 0              @ ../../../CORTEX_MPU_M3_NUCLEO_L152RE_GCC/Demo/StreamBufferDemo.c:1208:9
	cbnz	r0, .LBB1_4
	b	.LBB1_3
.LBB1_3:
.Ltmp25:
	.loc	3 1210 22 is_stmt 1             @ ../../../CORTEX_MPU_M3_NUCLEO_L152RE_GCC/Demo/StreamBufferDemo.c:1210:22
	movw	r0, :lower16:xEchoClientTaskHandles
	movt	r0, :upper16:xEchoClientTaskHandles
	ldr	r0, [r0, #4]
	.loc	3 1210 9 is_stmt 0              @ ../../../CORTEX_MPU_M3_NUCLEO_L152RE_GCC/Demo/StreamBufferDemo.c:1210:9
	bl	MPU_vTaskResume
	.loc	3 1211 5 is_stmt 1              @ ../../../CORTEX_MPU_M3_NUCLEO_L152RE_GCC/Demo/StreamBufferDemo.c:1211:5
	b	.LBB1_5
.Ltmp26:
.LBB1_4:
	.loc	3 1216 29                       @ ../../../CORTEX_MPU_M3_NUCLEO_L152RE_GCC/Demo/StreamBufferDemo.c:1216:29
	ldr	r0, [sp, #28]
	.loc	3 1216 50 is_stmt 0             @ ../../../CORTEX_MPU_M3_NUCLEO_L152RE_GCC/Demo/StreamBufferDemo.c:1216:50
	ldr	r0, [r0]
	.loc	3 1216 9                        @ ../../../CORTEX_MPU_M3_NUCLEO_L152RE_GCC/Demo/StreamBufferDemo.c:1216:9
	bl	prvSingleTaskTests
	.loc	3 1217 22 is_stmt 1             @ ../../../CORTEX_MPU_M3_NUCLEO_L152RE_GCC/Demo/StreamBufferDemo.c:1217:22
	movw	r0, :lower16:xEchoClientTaskHandles
	movt	r0, :upper16:xEchoClientTaskHandles
	ldr	r0, [r0]
	.loc	3 1217 9 is_stmt 0              @ ../../../CORTEX_MPU_M3_NUCLEO_L152RE_GCC/Demo/StreamBufferDemo.c:1217:9
	bl	MPU_vTaskResume
	b	.LBB1_5
.Ltmp27:
.LBB1_5:
	.loc	3 1220 5 is_stmt 1              @ ../../../CORTEX_MPU_M3_NUCLEO_L152RE_GCC/Demo/StreamBufferDemo.c:1220:5
	b	.LBB1_6
.LBB1_6:                                @ =>This Inner Loop Header: Depth=1
	.loc	3 0 5 is_stmt 0                 @ ../../../CORTEX_MPU_M3_NUCLEO_L152RE_GCC/Demo/StreamBufferDemo.c:0:5
	add	r1, sp, #40
	str	r1, [sp, #8]                    @ 4-byte Spill
	movs	r2, #0
.Ltmp28:
	.loc	3 1222 9 is_stmt 1              @ ../../../CORTEX_MPU_M3_NUCLEO_L152RE_GCC/Demo/StreamBufferDemo.c:1222:9
	str	r2, [sp, #4]                    @ 4-byte Spill
	strh	r2, [r1, #28]
	str	r2, [sp, #64]
	str	r2, [sp, #60]
	str	r2, [sp, #56]
	str	r2, [sp, #52]
	str	r2, [sp, #48]
	str	r2, [sp, #44]
	str	r2, [sp, #40]
	.loc	3 1225 49                       @ ../../../CORTEX_MPU_M3_NUCLEO_L152RE_GCC/Demo/StreamBufferDemo.c:1225:49
	ldr	r0, [sp, #28]
	.loc	3 1225 70 is_stmt 0             @ ../../../CORTEX_MPU_M3_NUCLEO_L152RE_GCC/Demo/StreamBufferDemo.c:1225:70
	ldr	r0, [r0]
	mvns	r3, r2
	str	r3, [sp, #12]                   @ 4-byte Spill
	movs	r2, #30
	.loc	3 1225 27                       @ ../../../CORTEX_MPU_M3_NUCLEO_L152RE_GCC/Demo/StreamBufferDemo.c:1225:27
	bl	MPU_xStreamBufferReceive
	.loc	3 1225 25                       @ ../../../CORTEX_MPU_M3_NUCLEO_L152RE_GCC/Demo/StreamBufferDemo.c:1225:25
	str	r0, [sp, #72]
	.loc	3 1228 32 is_stmt 1             @ ../../../CORTEX_MPU_M3_NUCLEO_L152RE_GCC/Demo/StreamBufferDemo.c:1228:32
	ldr	r0, [sp, #72]
	.loc	3 1228 48 is_stmt 0             @ ../../../CORTEX_MPU_M3_NUCLEO_L152RE_GCC/Demo/StreamBufferDemo.c:1228:48
	subs	r1, r0, #1
	sbcs	r0, r1
	.loc	3 1228 9                        @ ../../../CORTEX_MPU_M3_NUCLEO_L152RE_GCC/Demo/StreamBufferDemo.c:1228:9
	bl	prvCheckExpectedState
	ldr	r1, [sp, #8]                    @ 4-byte Reload
	ldr	r3, [sp, #12]                   @ 4-byte Reload
	.loc	3 1231 28 is_stmt 1             @ ../../../CORTEX_MPU_M3_NUCLEO_L152RE_GCC/Demo/StreamBufferDemo.c:1231:28
	ldr	r0, [sp, #28]
	.loc	3 1231 49 is_stmt 0             @ ../../../CORTEX_MPU_M3_NUCLEO_L152RE_GCC/Demo/StreamBufferDemo.c:1231:49
	ldr	r0, [r0, #4]
	.loc	3 1231 97                       @ ../../../CORTEX_MPU_M3_NUCLEO_L152RE_GCC/Demo/StreamBufferDemo.c:1231:97
	ldr	r2, [sp, #72]
	.loc	3 1231 9                        @ ../../../CORTEX_MPU_M3_NUCLEO_L152RE_GCC/Demo/StreamBufferDemo.c:1231:9
	bl	MPU_xStreamBufferSend
.Ltmp29:
	.loc	3 1220 5 is_stmt 1              @ ../../../CORTEX_MPU_M3_NUCLEO_L152RE_GCC/Demo/StreamBufferDemo.c:1220:5
	b	.LBB1_6
.Ltmp30:
.Lfunc_end1:
	.size	prvEchoServer, .Lfunc_end1-prvEchoServer
	.cfi_endproc
	.cantunwind
	.fnend
                                        @ -- End function
	.section	.text.prvNonBlockingReceiverTask,"ax",%progbits
	.p2align	1                               @ -- Begin function prvNonBlockingReceiverTask
	.type	prvNonBlockingReceiverTask,%function
	.code	16                              @ @prvNonBlockingReceiverTask
	.thumb_func
prvNonBlockingReceiverTask:
.Lfunc_begin2:
	.loc	3 878 0                         @ ../../../CORTEX_MPU_M3_NUCLEO_L152RE_GCC/Demo/StreamBufferDemo.c:878:0
	.fnstart
	.cfi_startproc
@ %bb.0:
	.save	{r7, lr}
	push	{r7, lr}
	.cfi_def_cfa_offset 8
	.cfi_offset lr, -4
	.cfi_offset r7, -8
	.pad	#48
	sub	sp, #48
	.cfi_def_cfa_offset 56
	str	r0, [sp, #44]
	movs	r0, #0
.Ltmp31:
	.loc	3 880 12 prologue_end           @ ../../../CORTEX_MPU_M3_NUCLEO_L152RE_GCC/Demo/StreamBufferDemo.c:880:12
	str	r0, [sp]                        @ 4-byte Spill
	str	r0, [sp, #36]
	.loc	3 881 34                        @ ../../../CORTEX_MPU_M3_NUCLEO_L152RE_GCC/Demo/StreamBufferDemo.c:881:34
	movw	r0, :lower16:pc54ByteString
	movt	r0, :upper16:pc54ByteString
	bl	strlen
	mov	r1, r0
	.loc	3 881 18 is_stmt 0              @ ../../../CORTEX_MPU_M3_NUCLEO_L152RE_GCC/Demo/StreamBufferDemo.c:881:18
	ldr	r0, [sp]                        @ 4-byte Reload
	str	r1, [sp, #20]
	.loc	3 883 16 is_stmt 1              @ ../../../CORTEX_MPU_M3_NUCLEO_L152RE_GCC/Demo/StreamBufferDemo.c:883:16
	str	r0, [sp, #4]
	.loc	3 887 46                        @ ../../../CORTEX_MPU_M3_NUCLEO_L152RE_GCC/Demo/StreamBufferDemo.c:887:46
	ldr	r0, [sp, #44]
	.loc	3 887 19 is_stmt 0              @ ../../../CORTEX_MPU_M3_NUCLEO_L152RE_GCC/Demo/StreamBufferDemo.c:887:19
	str	r0, [sp, #40]
	.loc	3 891 5 is_stmt 1               @ ../../../CORTEX_MPU_M3_NUCLEO_L152RE_GCC/Demo/StreamBufferDemo.c:891:5
	b	.LBB2_1
.LBB2_1:                                @ =>This Inner Loop Header: Depth=1
.Ltmp32:
	.loc	3 895 48                        @ ../../../CORTEX_MPU_M3_NUCLEO_L152RE_GCC/Demo/StreamBufferDemo.c:895:48
	ldr	r0, [sp, #40]
	add	r1, sp, #8
	movs	r2, #12
	movs	r3, #0
	.loc	3 895 26 is_stmt 0              @ ../../../CORTEX_MPU_M3_NUCLEO_L152RE_GCC/Demo/StreamBufferDemo.c:895:26
	bl	MPU_xStreamBufferReceive
	.loc	3 895 24                        @ ../../../CORTEX_MPU_M3_NUCLEO_L152RE_GCC/Demo/StreamBufferDemo.c:895:24
	str	r0, [sp, #32]
.Ltmp33:
	.loc	3 897 13 is_stmt 1              @ ../../../CORTEX_MPU_M3_NUCLEO_L152RE_GCC/Demo/StreamBufferDemo.c:897:13
	ldr	r0, [sp, #32]
.Ltmp34:
	.loc	3 897 13 is_stmt 0              @ ../../../CORTEX_MPU_M3_NUCLEO_L152RE_GCC/Demo/StreamBufferDemo.c:897:13
	cmp	r0, #0
	beq	.LBB2_14
	b	.LBB2_2
.LBB2_2:                                @   in Loop: Header=BB2_1 Depth=1
.Ltmp35:
	.loc	3 904 28 is_stmt 1              @ ../../../CORTEX_MPU_M3_NUCLEO_L152RE_GCC/Demo/StreamBufferDemo.c:904:28
	ldr	r0, [sp, #32]
	.loc	3 904 26 is_stmt 0              @ ../../../CORTEX_MPU_M3_NUCLEO_L152RE_GCC/Demo/StreamBufferDemo.c:904:26
	str	r0, [sp, #28]
.Ltmp36:
	.loc	3 906 19 is_stmt 1              @ ../../../CORTEX_MPU_M3_NUCLEO_L152RE_GCC/Demo/StreamBufferDemo.c:906:19
	ldr	r0, [sp, #36]
	.loc	3 906 31 is_stmt 0              @ ../../../CORTEX_MPU_M3_NUCLEO_L152RE_GCC/Demo/StreamBufferDemo.c:906:31
	ldr	r1, [sp, #28]
	.loc	3 906 29                        @ ../../../CORTEX_MPU_M3_NUCLEO_L152RE_GCC/Demo/StreamBufferDemo.c:906:29
	adds	r0, r0, r1
	.loc	3 906 48                        @ ../../../CORTEX_MPU_M3_NUCLEO_L152RE_GCC/Demo/StreamBufferDemo.c:906:48
	ldr	r1, [sp, #20]
.Ltmp37:
	.loc	3 906 17                        @ ../../../CORTEX_MPU_M3_NUCLEO_L152RE_GCC/Demo/StreamBufferDemo.c:906:17
	cmp	r0, r1
	bls	.LBB2_6
	b	.LBB2_3
.LBB2_3:                                @   in Loop: Header=BB2_1 Depth=1
.Ltmp38:
	.loc	3 909 32 is_stmt 1              @ ../../../CORTEX_MPU_M3_NUCLEO_L152RE_GCC/Demo/StreamBufferDemo.c:909:32
	ldr	r0, [sp, #20]
	.loc	3 909 48 is_stmt 0              @ ../../../CORTEX_MPU_M3_NUCLEO_L152RE_GCC/Demo/StreamBufferDemo.c:909:48
	ldr	r1, [sp, #36]
	.loc	3 909 46                        @ ../../../CORTEX_MPU_M3_NUCLEO_L152RE_GCC/Demo/StreamBufferDemo.c:909:46
	subs	r0, r0, r1
	.loc	3 909 30                        @ ../../../CORTEX_MPU_M3_NUCLEO_L152RE_GCC/Demo/StreamBufferDemo.c:909:30
	str	r0, [sp, #28]
.Ltmp39:
	.loc	3 911 65 is_stmt 1              @ ../../../CORTEX_MPU_M3_NUCLEO_L152RE_GCC/Demo/StreamBufferDemo.c:911:65
	ldr	r1, [sp, #36]
	.loc	3 911 49 is_stmt 0              @ ../../../CORTEX_MPU_M3_NUCLEO_L152RE_GCC/Demo/StreamBufferDemo.c:911:49
	movw	r0, :lower16:pc54ByteString
	movt	r0, :upper16:pc54ByteString
	adds	r0, r0, r1
	.loc	3 911 108                       @ ../../../CORTEX_MPU_M3_NUCLEO_L152RE_GCC/Demo/StreamBufferDemo.c:911:108
	ldr	r2, [sp, #28]
	add	r1, sp, #8
	.loc	3 911 21                        @ ../../../CORTEX_MPU_M3_NUCLEO_L152RE_GCC/Demo/StreamBufferDemo.c:911:21
	bl	memcmp
.Ltmp40:
	.loc	3 911 21                        @ ../../../CORTEX_MPU_M3_NUCLEO_L152RE_GCC/Demo/StreamBufferDemo.c:911:21
	cbz	r0, .LBB2_5
	b	.LBB2_4
.LBB2_4:                                @   in Loop: Header=BB2_1 Depth=1
	.loc	3 0 21                          @ ../../../CORTEX_MPU_M3_NUCLEO_L152RE_GCC/Demo/StreamBufferDemo.c:0:21
	movs	r0, #1
.Ltmp41:
	.loc	3 913 46 is_stmt 1              @ ../../../CORTEX_MPU_M3_NUCLEO_L152RE_GCC/Demo/StreamBufferDemo.c:913:46
	str	r0, [sp, #4]
	.loc	3 914 17                        @ ../../../CORTEX_MPU_M3_NUCLEO_L152RE_GCC/Demo/StreamBufferDemo.c:914:17
	b	.LBB2_5
.Ltmp42:
.LBB2_5:                                @   in Loop: Header=BB2_1 Depth=1
	.loc	3 0 17 is_stmt 0                @ ../../../CORTEX_MPU_M3_NUCLEO_L152RE_GCC/Demo/StreamBufferDemo.c:0:17
	movs	r0, #0
	.loc	3 918 27 is_stmt 1              @ ../../../CORTEX_MPU_M3_NUCLEO_L152RE_GCC/Demo/StreamBufferDemo.c:918:27
	str	r0, [sp, #36]
	.loc	3 919 31                        @ ../../../CORTEX_MPU_M3_NUCLEO_L152RE_GCC/Demo/StreamBufferDemo.c:919:31
	ldr	r0, [sp, #28]
	.loc	3 919 29 is_stmt 0              @ ../../../CORTEX_MPU_M3_NUCLEO_L152RE_GCC/Demo/StreamBufferDemo.c:919:29
	str	r0, [sp, #24]
	.loc	3 920 32 is_stmt 1              @ ../../../CORTEX_MPU_M3_NUCLEO_L152RE_GCC/Demo/StreamBufferDemo.c:920:32
	ldr	r0, [sp, #32]
	.loc	3 920 49 is_stmt 0              @ ../../../CORTEX_MPU_M3_NUCLEO_L152RE_GCC/Demo/StreamBufferDemo.c:920:49
	ldr	r1, [sp, #28]
	.loc	3 920 47                        @ ../../../CORTEX_MPU_M3_NUCLEO_L152RE_GCC/Demo/StreamBufferDemo.c:920:47
	subs	r0, r0, r1
	.loc	3 920 30                        @ ../../../CORTEX_MPU_M3_NUCLEO_L152RE_GCC/Demo/StreamBufferDemo.c:920:30
	str	r0, [sp, #28]
	.loc	3 921 13 is_stmt 1              @ ../../../CORTEX_MPU_M3_NUCLEO_L152RE_GCC/Demo/StreamBufferDemo.c:921:13
	b	.LBB2_7
.Ltmp43:
.LBB2_6:                                @   in Loop: Header=BB2_1 Depth=1
	.loc	3 0 13 is_stmt 0                @ ../../../CORTEX_MPU_M3_NUCLEO_L152RE_GCC/Demo/StreamBufferDemo.c:0:13
	movs	r0, #0
.Ltmp44:
	.loc	3 926 29 is_stmt 1              @ ../../../CORTEX_MPU_M3_NUCLEO_L152RE_GCC/Demo/StreamBufferDemo.c:926:29
	str	r0, [sp, #24]
	b	.LBB2_7
.Ltmp45:
.LBB2_7:                                @   in Loop: Header=BB2_1 Depth=1
	.loc	3 931 61                        @ ../../../CORTEX_MPU_M3_NUCLEO_L152RE_GCC/Demo/StreamBufferDemo.c:931:61
	ldr	r1, [sp, #36]
	.loc	3 931 45 is_stmt 0              @ ../../../CORTEX_MPU_M3_NUCLEO_L152RE_GCC/Demo/StreamBufferDemo.c:931:45
	movw	r0, :lower16:pc54ByteString
	movt	r0, :upper16:pc54ByteString
	adds	r0, r0, r1
	.loc	3 931 107                       @ ../../../CORTEX_MPU_M3_NUCLEO_L152RE_GCC/Demo/StreamBufferDemo.c:931:107
	ldr	r2, [sp, #24]
	add	r1, sp, #8
	.loc	3 931 96                        @ ../../../CORTEX_MPU_M3_NUCLEO_L152RE_GCC/Demo/StreamBufferDemo.c:931:96
	adds	r1, r1, r2
	.loc	3 931 124                       @ ../../../CORTEX_MPU_M3_NUCLEO_L152RE_GCC/Demo/StreamBufferDemo.c:931:124
	ldr	r2, [sp, #28]
	.loc	3 931 17                        @ ../../../CORTEX_MPU_M3_NUCLEO_L152RE_GCC/Demo/StreamBufferDemo.c:931:17
	bl	memcmp
.Ltmp46:
	.loc	3 931 17                        @ ../../../CORTEX_MPU_M3_NUCLEO_L152RE_GCC/Demo/StreamBufferDemo.c:931:17
	cbz	r0, .LBB2_9
	b	.LBB2_8
.LBB2_8:                                @   in Loop: Header=BB2_1 Depth=1
	.loc	3 0 17                          @ ../../../CORTEX_MPU_M3_NUCLEO_L152RE_GCC/Demo/StreamBufferDemo.c:0:17
	movs	r0, #1
.Ltmp47:
	.loc	3 933 42 is_stmt 1              @ ../../../CORTEX_MPU_M3_NUCLEO_L152RE_GCC/Demo/StreamBufferDemo.c:933:42
	str	r0, [sp, #4]
	.loc	3 934 13                        @ ../../../CORTEX_MPU_M3_NUCLEO_L152RE_GCC/Demo/StreamBufferDemo.c:934:13
	b	.LBB2_9
.Ltmp48:
.LBB2_9:                                @   in Loop: Header=BB2_1 Depth=1
	.loc	3 936 17                        @ ../../../CORTEX_MPU_M3_NUCLEO_L152RE_GCC/Demo/StreamBufferDemo.c:936:17
	ldr	r0, [sp, #4]
.Ltmp49:
	.loc	3 936 17 is_stmt 0              @ ../../../CORTEX_MPU_M3_NUCLEO_L152RE_GCC/Demo/StreamBufferDemo.c:936:17
	cbnz	r0, .LBB2_11
	b	.LBB2_10
.LBB2_10:                               @   in Loop: Header=BB2_1 Depth=1
.Ltmp50:
	.loc	3 940 44 is_stmt 1              @ ../../../CORTEX_MPU_M3_NUCLEO_L152RE_GCC/Demo/StreamBufferDemo.c:940:44
	movw	r1, :lower16:ulNonBlockingRxCounter
	movt	r1, :upper16:ulNonBlockingRxCounter
	ldr	r0, [r1]
	adds	r0, r0, #1
	str	r0, [r1]
	.loc	3 941 13                        @ ../../../CORTEX_MPU_M3_NUCLEO_L152RE_GCC/Demo/StreamBufferDemo.c:941:13
	b	.LBB2_11
.Ltmp51:
.LBB2_11:                               @   in Loop: Header=BB2_1 Depth=1
	.loc	3 943 26                        @ ../../../CORTEX_MPU_M3_NUCLEO_L152RE_GCC/Demo/StreamBufferDemo.c:943:26
	ldr	r1, [sp, #28]
	.loc	3 943 23 is_stmt 0              @ ../../../CORTEX_MPU_M3_NUCLEO_L152RE_GCC/Demo/StreamBufferDemo.c:943:23
	ldr	r0, [sp, #36]
	adds	r0, r0, r1
	str	r0, [sp, #36]
.Ltmp52:
	.loc	3 945 17 is_stmt 1              @ ../../../CORTEX_MPU_M3_NUCLEO_L152RE_GCC/Demo/StreamBufferDemo.c:945:17
	ldr	r0, [sp, #36]
	.loc	3 945 30 is_stmt 0              @ ../../../CORTEX_MPU_M3_NUCLEO_L152RE_GCC/Demo/StreamBufferDemo.c:945:30
	ldr	r1, [sp, #20]
.Ltmp53:
	.loc	3 945 17                        @ ../../../CORTEX_MPU_M3_NUCLEO_L152RE_GCC/Demo/StreamBufferDemo.c:945:17
	cmp	r0, r1
	blo	.LBB2_13
	b	.LBB2_12
.LBB2_12:                               @   in Loop: Header=BB2_1 Depth=1
	.loc	3 0 17                          @ ../../../CORTEX_MPU_M3_NUCLEO_L152RE_GCC/Demo/StreamBufferDemo.c:0:17
	movs	r0, #0
.Ltmp54:
	.loc	3 947 27 is_stmt 1              @ ../../../CORTEX_MPU_M3_NUCLEO_L152RE_GCC/Demo/StreamBufferDemo.c:947:27
	str	r0, [sp, #36]
	.loc	3 948 13                        @ ../../../CORTEX_MPU_M3_NUCLEO_L152RE_GCC/Demo/StreamBufferDemo.c:948:13
	b	.LBB2_13
.Ltmp55:
.LBB2_13:                               @   in Loop: Header=BB2_1 Depth=1
	.loc	3 949 9                         @ ../../../CORTEX_MPU_M3_NUCLEO_L152RE_GCC/Demo/StreamBufferDemo.c:949:9
	b	.LBB2_14
.Ltmp56:
.LBB2_14:                               @   in Loop: Header=BB2_1 Depth=1
	.loc	3 891 5                         @ ../../../CORTEX_MPU_M3_NUCLEO_L152RE_GCC/Demo/StreamBufferDemo.c:891:5
	b	.LBB2_1
.Ltmp57:
.Lfunc_end2:
	.size	prvNonBlockingReceiverTask, .Lfunc_end2-prvNonBlockingReceiverTask
	.cfi_endproc
	.cantunwind
	.fnend
                                        @ -- End function
	.section	.text.prvNonBlockingSenderTask,"ax",%progbits
	.p2align	1                               @ -- Begin function prvNonBlockingSenderTask
	.type	prvNonBlockingSenderTask,%function
	.code	16                              @ @prvNonBlockingSenderTask
	.thumb_func
prvNonBlockingSenderTask:
.Lfunc_begin3:
	.loc	3 841 0                         @ ../../../CORTEX_MPU_M3_NUCLEO_L152RE_GCC/Demo/StreamBufferDemo.c:841:0
	.fnstart
	.cfi_startproc
@ %bb.0:
	.save	{r7, lr}
	push	{r7, lr}
	.cfi_def_cfa_offset 8
	.cfi_offset lr, -4
	.cfi_offset r7, -8
	.pad	#40
	sub	sp, #40
	.cfi_def_cfa_offset 48
	str	r0, [sp, #36]
	movs	r0, #0
.Ltmp58:
	.loc	3 843 12 prologue_end           @ ../../../CORTEX_MPU_M3_NUCLEO_L152RE_GCC/Demo/StreamBufferDemo.c:843:12
	str	r0, [sp, #28]
	.loc	3 844 34                        @ ../../../CORTEX_MPU_M3_NUCLEO_L152RE_GCC/Demo/StreamBufferDemo.c:844:34
	movw	r0, :lower16:pc54ByteString
	movt	r0, :upper16:pc54ByteString
	bl	strlen
	.loc	3 844 18 is_stmt 0              @ ../../../CORTEX_MPU_M3_NUCLEO_L152RE_GCC/Demo/StreamBufferDemo.c:844:18
	str	r0, [sp, #16]
	.loc	3 848 46 is_stmt 1              @ ../../../CORTEX_MPU_M3_NUCLEO_L152RE_GCC/Demo/StreamBufferDemo.c:848:46
	ldr	r0, [sp, #36]
	.loc	3 848 19 is_stmt 0              @ ../../../CORTEX_MPU_M3_NUCLEO_L152RE_GCC/Demo/StreamBufferDemo.c:848:19
	str	r0, [sp, #32]
	.loc	3 853 5 is_stmt 1               @ ../../../CORTEX_MPU_M3_NUCLEO_L152RE_GCC/Demo/StreamBufferDemo.c:853:5
	b	.LBB3_1
.LBB3_1:                                @ =>This Inner Loop Header: Depth=1
.Ltmp59:
	.loc	3 858 24                        @ ../../../CORTEX_MPU_M3_NUCLEO_L152RE_GCC/Demo/StreamBufferDemo.c:858:24
	ldr	r0, [sp, #16]
	.loc	3 858 40 is_stmt 0              @ ../../../CORTEX_MPU_M3_NUCLEO_L152RE_GCC/Demo/StreamBufferDemo.c:858:40
	ldr	r1, [sp, #28]
	.loc	3 858 38                        @ ../../../CORTEX_MPU_M3_NUCLEO_L152RE_GCC/Demo/StreamBufferDemo.c:858:38
	subs	r0, r0, r1
	.loc	3 858 22                        @ ../../../CORTEX_MPU_M3_NUCLEO_L152RE_GCC/Demo/StreamBufferDemo.c:858:22
	str	r0, [sp, #24]
	.loc	3 861 49 is_stmt 1              @ ../../../CORTEX_MPU_M3_NUCLEO_L152RE_GCC/Demo/StreamBufferDemo.c:861:49
	ldr	r0, [sp, #32]
	.loc	3 861 100 is_stmt 0             @ ../../../CORTEX_MPU_M3_NUCLEO_L152RE_GCC/Demo/StreamBufferDemo.c:861:100
	ldr	r2, [sp, #28]
	.loc	3 861 84                        @ ../../../CORTEX_MPU_M3_NUCLEO_L152RE_GCC/Demo/StreamBufferDemo.c:861:84
	movw	r1, :lower16:pc54ByteString
	movt	r1, :upper16:pc54ByteString
	adds	r1, r1, r2
	.loc	3 861 115                       @ ../../../CORTEX_MPU_M3_NUCLEO_L152RE_GCC/Demo/StreamBufferDemo.c:861:115
	ldr	r2, [sp, #24]
	movs	r3, #0
	.loc	3 861 30                        @ ../../../CORTEX_MPU_M3_NUCLEO_L152RE_GCC/Demo/StreamBufferDemo.c:861:30
	str	r3, [sp, #4]                    @ 4-byte Spill
	bl	MPU_xStreamBufferSend
	.loc	3 861 28                        @ ../../../CORTEX_MPU_M3_NUCLEO_L152RE_GCC/Demo/StreamBufferDemo.c:861:28
	str	r0, [sp, #20]
	.loc	3 862 32 is_stmt 1              @ ../../../CORTEX_MPU_M3_NUCLEO_L152RE_GCC/Demo/StreamBufferDemo.c:862:32
	ldr	r1, [sp, #20]
	.loc	3 862 54 is_stmt 0              @ ../../../CORTEX_MPU_M3_NUCLEO_L152RE_GCC/Demo/StreamBufferDemo.c:862:54
	ldr	r2, [sp, #24]
	movs	r0, #1
	.loc	3 862 51                        @ ../../../CORTEX_MPU_M3_NUCLEO_L152RE_GCC/Demo/StreamBufferDemo.c:862:51
	str	r0, [sp, #8]                    @ 4-byte Spill
	cmp	r1, r2
	str	r0, [sp, #12]                   @ 4-byte Spill
	bls	.LBB3_3
@ %bb.2:                                @   in Loop: Header=BB3_1 Depth=1
	.loc	3 0 51                          @ ../../../CORTEX_MPU_M3_NUCLEO_L152RE_GCC/Demo/StreamBufferDemo.c:0:51
	ldr	r0, [sp, #4]                    @ 4-byte Reload
	str	r0, [sp, #12]                   @ 4-byte Spill
.LBB3_3:                                @   in Loop: Header=BB3_1 Depth=1
	.loc	3 862 51                        @ ../../../CORTEX_MPU_M3_NUCLEO_L152RE_GCC/Demo/StreamBufferDemo.c:862:51
	ldr	r0, [sp, #12]                   @ 4-byte Reload
	.loc	3 862 9                         @ ../../../CORTEX_MPU_M3_NUCLEO_L152RE_GCC/Demo/StreamBufferDemo.c:862:9
	bl	prvCheckExpectedState
	ldr	r0, [sp, #8]                    @ 4-byte Reload
	.loc	3 866 22 is_stmt 1              @ ../../../CORTEX_MPU_M3_NUCLEO_L152RE_GCC/Demo/StreamBufferDemo.c:866:22
	ldr	r2, [sp, #20]
	.loc	3 866 19 is_stmt 0              @ ../../../CORTEX_MPU_M3_NUCLEO_L152RE_GCC/Demo/StreamBufferDemo.c:866:19
	ldr	r1, [sp, #28]
	adds	r1, r1, r2
	str	r1, [sp, #28]
	.loc	3 867 32 is_stmt 1              @ ../../../CORTEX_MPU_M3_NUCLEO_L152RE_GCC/Demo/StreamBufferDemo.c:867:32
	ldr	r1, [sp, #28]
	.loc	3 867 45 is_stmt 0              @ ../../../CORTEX_MPU_M3_NUCLEO_L152RE_GCC/Demo/StreamBufferDemo.c:867:45
	ldr	r2, [sp, #16]
	.loc	3 867 42                        @ ../../../CORTEX_MPU_M3_NUCLEO_L152RE_GCC/Demo/StreamBufferDemo.c:867:42
	cmp	r1, r2
	str	r0, [sp]                        @ 4-byte Spill
	bls	.LBB3_5
@ %bb.4:                                @   in Loop: Header=BB3_1 Depth=1
	.loc	3 0 42                          @ ../../../CORTEX_MPU_M3_NUCLEO_L152RE_GCC/Demo/StreamBufferDemo.c:0:42
	ldr	r0, [sp, #4]                    @ 4-byte Reload
	str	r0, [sp]                        @ 4-byte Spill
.LBB3_5:                                @   in Loop: Header=BB3_1 Depth=1
	.loc	3 867 42                        @ ../../../CORTEX_MPU_M3_NUCLEO_L152RE_GCC/Demo/StreamBufferDemo.c:867:42
	ldr	r0, [sp]                        @ 4-byte Reload
	.loc	3 867 9                         @ ../../../CORTEX_MPU_M3_NUCLEO_L152RE_GCC/Demo/StreamBufferDemo.c:867:9
	bl	prvCheckExpectedState
.Ltmp60:
	.loc	3 869 13 is_stmt 1              @ ../../../CORTEX_MPU_M3_NUCLEO_L152RE_GCC/Demo/StreamBufferDemo.c:869:13
	ldr	r0, [sp, #28]
	.loc	3 869 26 is_stmt 0              @ ../../../CORTEX_MPU_M3_NUCLEO_L152RE_GCC/Demo/StreamBufferDemo.c:869:26
	ldr	r1, [sp, #16]
.Ltmp61:
	.loc	3 869 13                        @ ../../../CORTEX_MPU_M3_NUCLEO_L152RE_GCC/Demo/StreamBufferDemo.c:869:13
	cmp	r0, r1
	bne	.LBB3_7
	b	.LBB3_6
.LBB3_6:                                @   in Loop: Header=BB3_1 Depth=1
	.loc	3 0 13                          @ ../../../CORTEX_MPU_M3_NUCLEO_L152RE_GCC/Demo/StreamBufferDemo.c:0:13
	movs	r0, #0
.Ltmp62:
	.loc	3 871 23 is_stmt 1              @ ../../../CORTEX_MPU_M3_NUCLEO_L152RE_GCC/Demo/StreamBufferDemo.c:871:23
	str	r0, [sp, #28]
	.loc	3 872 9                         @ ../../../CORTEX_MPU_M3_NUCLEO_L152RE_GCC/Demo/StreamBufferDemo.c:872:9
	b	.LBB3_7
.Ltmp63:
.LBB3_7:                                @   in Loop: Header=BB3_1 Depth=1
	.loc	3 853 5                         @ ../../../CORTEX_MPU_M3_NUCLEO_L152RE_GCC/Demo/StreamBufferDemo.c:853:5
	b	.LBB3_1
.Ltmp64:
.Lfunc_end3:
	.size	prvNonBlockingSenderTask, .Lfunc_end3-prvNonBlockingSenderTask
	.cfi_endproc
	.cantunwind
	.fnend
                                        @ -- End function
	.section	.text.prvInterruptTriggerLevelTest,"ax",%progbits
	.p2align	1                               @ -- Begin function prvInterruptTriggerLevelTest
	.type	prvInterruptTriggerLevelTest,%function
	.code	16                              @ @prvInterruptTriggerLevelTest
	.thumb_func
prvInterruptTriggerLevelTest:
.Lfunc_begin4:
	.loc	3 1265 0                        @ ../../../CORTEX_MPU_M3_NUCLEO_L152RE_GCC/Demo/StreamBufferDemo.c:1265:0
	.fnstart
	.cfi_startproc
@ %bb.0:
	.save	{r7, lr}
	push	{r7, lr}
	.cfi_def_cfa_offset 8
	.cfi_offset lr, -4
	.cfi_offset r7, -8
	.pad	#64
	sub	sp, #64
	.cfi_def_cfa_offset 72
	str	r0, [sp, #60]
	movs	r0, #1
.Ltmp65:
	.loc	3 1267 12 prologue_end          @ ../../../CORTEX_MPU_M3_NUCLEO_L152RE_GCC/Demo/StreamBufferDemo.c:1267:12
	str	r0, [sp, #52]
	movs	r0, #9
	.loc	3 1268 18                       @ ../../../CORTEX_MPU_M3_NUCLEO_L152RE_GCC/Demo/StreamBufferDemo.c:1268:18
	str	r0, [sp, #44]
	movs	r0, #7
	.loc	3 1268 57 is_stmt 0             @ ../../../CORTEX_MPU_M3_NUCLEO_L152RE_GCC/Demo/StreamBufferDemo.c:1268:57
	str	r0, [sp, #40]
	movs	r0, #2
	.loc	3 1268 90                       @ ../../../CORTEX_MPU_M3_NUCLEO_L152RE_GCC/Demo/StreamBufferDemo.c:1268:90
	str	r0, [sp, #36]
	movs	r0, #5
	.loc	3 1269 22 is_stmt 1             @ ../../../CORTEX_MPU_M3_NUCLEO_L152RE_GCC/Demo/StreamBufferDemo.c:1269:22
	str	r0, [sp, #32]
	movs	r0, #10
	.loc	3 1269 42 is_stmt 0             @ ../../../CORTEX_MPU_M3_NUCLEO_L152RE_GCC/Demo/StreamBufferDemo.c:1269:42
	str	r0, [sp, #28]
	movs	r0, #0
	.loc	3 1271 16 is_stmt 1             @ ../../../CORTEX_MPU_M3_NUCLEO_L152RE_GCC/Demo/StreamBufferDemo.c:1271:16
	str	r0, [sp, #12]
	.loc	3 1274 22                       @ ../../../CORTEX_MPU_M3_NUCLEO_L152RE_GCC/Demo/StreamBufferDemo.c:1274:22
	str	r0, [sp, #8]
	.loc	3 1282 5                        @ ../../../CORTEX_MPU_M3_NUCLEO_L152RE_GCC/Demo/StreamBufferDemo.c:1282:5
	b	.LBB4_1
.LBB4_1:                                @ =>This Loop Header: Depth=1
                                        @     Child Loop BB4_2 Depth 2
	.loc	3 0 5 is_stmt 0                 @ ../../../CORTEX_MPU_M3_NUCLEO_L152RE_GCC/Demo/StreamBufferDemo.c:0:5
	movs	r0, #2
.Ltmp66:
	.loc	3 1284 28 is_stmt 1             @ ../../../CORTEX_MPU_M3_NUCLEO_L152RE_GCC/Demo/StreamBufferDemo.c:1284:28
	str	r0, [sp, #52]
	.loc	3 1284 14 is_stmt 0             @ ../../../CORTEX_MPU_M3_NUCLEO_L152RE_GCC/Demo/StreamBufferDemo.c:1284:14
	b	.LBB4_2
.LBB4_2:                                @   Parent Loop BB4_1 Depth=1
                                        @ =>  This Inner Loop Header: Depth=2
.Ltmp67:
	.loc	3 1284 48                       @ ../../../CORTEX_MPU_M3_NUCLEO_L152RE_GCC/Demo/StreamBufferDemo.c:1284:48
	ldr	r0, [sp, #52]
.Ltmp68:
	.loc	3 1284 9                        @ ../../../CORTEX_MPU_M3_NUCLEO_L152RE_GCC/Demo/StreamBufferDemo.c:1284:9
	cmp	r0, #6
	bls	.LBB4_3
	b	.LBB4_44
.LBB4_3:                                @   in Loop: Header=BB4_2 Depth=2
	.loc	3 0 9                           @ ../../../CORTEX_MPU_M3_NUCLEO_L152RE_GCC/Demo/StreamBufferDemo.c:0:9
	movs	r0, #10
.Ltmp69:
	.loc	3 1290 13 is_stmt 1             @ ../../../CORTEX_MPU_M3_NUCLEO_L152RE_GCC/Demo/StreamBufferDemo.c:1290:13
	bl	MPU_vTaskDelay
	add	r0, sp, #16
	movs	r3, #0
	.loc	3 1294 13                       @ ../../../CORTEX_MPU_M3_NUCLEO_L152RE_GCC/Demo/StreamBufferDemo.c:1294:13
	strb	r3, [r0, #8]
	str	r3, [sp, #20]
	str	r3, [sp, #16]
	.loc	3 1295 29                       @ ../../../CORTEX_MPU_M3_NUCLEO_L152RE_GCC/Demo/StreamBufferDemo.c:1295:29
	ldr	r1, [sp, #52]
	str	r3, [sp]
	movs	r0, #9
	mov	r2, r3
	bl	MPU_xStreamBufferGenericCreate
	.loc	3 1295 27 is_stmt 0             @ ../../../CORTEX_MPU_M3_NUCLEO_L152RE_GCC/Demo/StreamBufferDemo.c:1295:27
	str	r0, [sp, #56]
.Ltmp70:
	.loc	3 1296 13 is_stmt 1             @ ../../../CORTEX_MPU_M3_NUCLEO_L152RE_GCC/Demo/StreamBufferDemo.c:1296:13
	ldr	r0, [sp, #56]
.Ltmp71:
	.loc	3 1296 13 is_stmt 0             @ ../../../CORTEX_MPU_M3_NUCLEO_L152RE_GCC/Demo/StreamBufferDemo.c:1296:13
	cbnz	r0, .LBB4_6
	b	.LBB4_4
.LBB4_4:
.Ltmp72:
	.loc	3 1296 13                       @ ../../../CORTEX_MPU_M3_NUCLEO_L152RE_GCC/Demo/StreamBufferDemo.c:1296:13
	@APP
	cpsid i
	@NO_APP
	b	.LBB4_5
.LBB4_5:                                @ =>This Inner Loop Header: Depth=1
.Ltmp73:
	.loc	3 1296 13                       @ ../../../CORTEX_MPU_M3_NUCLEO_L152RE_GCC/Demo/StreamBufferDemo.c:1296:13
	b	.LBB4_5
.Ltmp74:
.LBB4_6:                                @   in Loop: Header=BB4_2 Depth=2
	.loc	3 1301 13 is_stmt 1             @ ../../../CORTEX_MPU_M3_NUCLEO_L152RE_GCC/Demo/StreamBufferDemo.c:1301:13
	bl	vPortEnterCritical
.Ltmp75:
	.loc	3 1303 47                       @ ../../../CORTEX_MPU_M3_NUCLEO_L152RE_GCC/Demo/StreamBufferDemo.c:1303:47
	ldr	r0, [sp, #56]
	.loc	3 1303 45 is_stmt 0             @ ../../../CORTEX_MPU_M3_NUCLEO_L152RE_GCC/Demo/StreamBufferDemo.c:1303:45
	movw	r1, :lower16:xInterruptStreamBuffer
	movt	r1, :upper16:xInterruptStreamBuffer
	str	r1, [sp, #4]                    @ 4-byte Spill
	str	r0, [r1]
.Ltmp76:
	.loc	3 1305 13 is_stmt 1             @ ../../../CORTEX_MPU_M3_NUCLEO_L152RE_GCC/Demo/StreamBufferDemo.c:1305:13
	bl	vPortExitCritical
	.loc	3 1307 52                       @ ../../../CORTEX_MPU_M3_NUCLEO_L152RE_GCC/Demo/StreamBufferDemo.c:1307:52
	ldr	r0, [sp, #56]
	add	r1, sp, #16
	movs	r2, #9
	movs	r3, #5
	.loc	3 1307 30 is_stmt 0             @ ../../../CORTEX_MPU_M3_NUCLEO_L152RE_GCC/Demo/StreamBufferDemo.c:1307:30
	bl	MPU_xStreamBufferReceive
	.loc	3 1307 28                       @ ../../../CORTEX_MPU_M3_NUCLEO_L152RE_GCC/Demo/StreamBufferDemo.c:1307:28
	str	r0, [sp, #48]
	.loc	3 1311 13 is_stmt 1             @ ../../../CORTEX_MPU_M3_NUCLEO_L152RE_GCC/Demo/StreamBufferDemo.c:1311:13
	bl	vPortEnterCritical
	ldr	r1, [sp, #4]                    @ 4-byte Reload
	movs	r0, #0
.Ltmp77:
	.loc	3 1313 45                       @ ../../../CORTEX_MPU_M3_NUCLEO_L152RE_GCC/Demo/StreamBufferDemo.c:1313:45
	str	r0, [r1]
.Ltmp78:
	.loc	3 1315 13                       @ ../../../CORTEX_MPU_M3_NUCLEO_L152RE_GCC/Demo/StreamBufferDemo.c:1315:13
	bl	vPortExitCritical
.Ltmp79:
	.loc	3 1320 17                       @ ../../../CORTEX_MPU_M3_NUCLEO_L152RE_GCC/Demo/StreamBufferDemo.c:1320:17
	ldr	r0, [sp, #52]
.Ltmp80:
	.loc	3 1320 17 is_stmt 0             @ ../../../CORTEX_MPU_M3_NUCLEO_L152RE_GCC/Demo/StreamBufferDemo.c:1320:17
	cmp	r0, #6
	blo	.LBB4_17
	b	.LBB4_7
.LBB4_7:                                @   in Loop: Header=BB4_2 Depth=2
.Ltmp81:
	.loc	3 1324 21 is_stmt 1             @ ../../../CORTEX_MPU_M3_NUCLEO_L152RE_GCC/Demo/StreamBufferDemo.c:1324:21
	ldr	r0, [sp, #48]
.Ltmp82:
	.loc	3 1324 21 is_stmt 0             @ ../../../CORTEX_MPU_M3_NUCLEO_L152RE_GCC/Demo/StreamBufferDemo.c:1324:21
	cmp	r0, #6
	blo	.LBB4_11
	b	.LBB4_8
.LBB4_8:                                @   in Loop: Header=BB4_2 Depth=2
.Ltmp83:
	.loc	3 1330 27 is_stmt 1             @ ../../../CORTEX_MPU_M3_NUCLEO_L152RE_GCC/Demo/StreamBufferDemo.c:1330:27
	ldr	r0, [sp, #48]
.Ltmp84:
	.loc	3 1330 25 is_stmt 0             @ ../../../CORTEX_MPU_M3_NUCLEO_L152RE_GCC/Demo/StreamBufferDemo.c:1330:25
	cmp	r0, #5
	beq	.LBB4_10
	b	.LBB4_9
.LBB4_9:                                @   in Loop: Header=BB4_2 Depth=2
	.loc	3 0 25                          @ ../../../CORTEX_MPU_M3_NUCLEO_L152RE_GCC/Demo/StreamBufferDemo.c:0:25
	movs	r0, #1
.Ltmp85:
	.loc	3 1332 40 is_stmt 1             @ ../../../CORTEX_MPU_M3_NUCLEO_L152RE_GCC/Demo/StreamBufferDemo.c:1332:40
	str	r0, [sp, #12]
	.loc	3 1333 21                       @ ../../../CORTEX_MPU_M3_NUCLEO_L152RE_GCC/Demo/StreamBufferDemo.c:1333:21
	b	.LBB4_10
.Ltmp86:
.LBB4_10:                               @   in Loop: Header=BB4_2 Depth=2
	.loc	3 1334 17                       @ ../../../CORTEX_MPU_M3_NUCLEO_L152RE_GCC/Demo/StreamBufferDemo.c:1334:17
	b	.LBB4_16
.Ltmp87:
.LBB4_11:                               @   in Loop: Header=BB4_2 Depth=2
	.loc	3 1335 44                       @ ../../../CORTEX_MPU_M3_NUCLEO_L152RE_GCC/Demo/StreamBufferDemo.c:1335:44
	ldr	r0, [sp, #48]
.Ltmp88:
	.loc	3 1335 26 is_stmt 0             @ ../../../CORTEX_MPU_M3_NUCLEO_L152RE_GCC/Demo/StreamBufferDemo.c:1335:26
	cmp	r0, #5
	beq	.LBB4_15
	b	.LBB4_12
.LBB4_12:                               @   in Loop: Header=BB4_2 Depth=2
.Ltmp89:
	.loc	3 1341 25 is_stmt 1             @ ../../../CORTEX_MPU_M3_NUCLEO_L152RE_GCC/Demo/StreamBufferDemo.c:1341:25
	ldr	r0, [sp, #48]
.Ltmp90:
	.loc	3 1341 25 is_stmt 0             @ ../../../CORTEX_MPU_M3_NUCLEO_L152RE_GCC/Demo/StreamBufferDemo.c:1341:25
	cmp	r0, #1
	beq	.LBB4_14
	b	.LBB4_13
.LBB4_13:                               @   in Loop: Header=BB4_2 Depth=2
	.loc	3 0 25                          @ ../../../CORTEX_MPU_M3_NUCLEO_L152RE_GCC/Demo/StreamBufferDemo.c:0:25
	movs	r0, #1
.Ltmp91:
	.loc	3 1343 40 is_stmt 1             @ ../../../CORTEX_MPU_M3_NUCLEO_L152RE_GCC/Demo/StreamBufferDemo.c:1343:40
	str	r0, [sp, #12]
	.loc	3 1344 21                       @ ../../../CORTEX_MPU_M3_NUCLEO_L152RE_GCC/Demo/StreamBufferDemo.c:1344:21
	b	.LBB4_14
.Ltmp92:
.LBB4_14:                               @   in Loop: Header=BB4_2 Depth=2
	.loc	3 1345 17                       @ ../../../CORTEX_MPU_M3_NUCLEO_L152RE_GCC/Demo/StreamBufferDemo.c:1345:17
	b	.LBB4_15
.Ltmp93:
.LBB4_15:                               @   in Loop: Header=BB4_2 Depth=2
	.loc	3 0 17 is_stmt 0                @ ../../../CORTEX_MPU_M3_NUCLEO_L152RE_GCC/Demo/StreamBufferDemo.c:0:17
	b	.LBB4_16
.LBB4_16:                               @   in Loop: Header=BB4_2 Depth=2
	.loc	3 1346 13 is_stmt 1             @ ../../../CORTEX_MPU_M3_NUCLEO_L152RE_GCC/Demo/StreamBufferDemo.c:1346:13
	b	.LBB4_35
.Ltmp94:
.LBB4_17:                               @   in Loop: Header=BB4_2 Depth=2
	.loc	3 1347 22                       @ ../../../CORTEX_MPU_M3_NUCLEO_L152RE_GCC/Demo/StreamBufferDemo.c:1347:22
	ldr	r0, [sp, #52]
.Ltmp95:
	.loc	3 1347 22 is_stmt 0             @ ../../../CORTEX_MPU_M3_NUCLEO_L152RE_GCC/Demo/StreamBufferDemo.c:1347:22
	cmp	r0, #4
	bhi	.LBB4_26
	b	.LBB4_18
.LBB4_18:                               @   in Loop: Header=BB4_2 Depth=2
.Ltmp96:
	.loc	3 1359 21 is_stmt 1             @ ../../../CORTEX_MPU_M3_NUCLEO_L152RE_GCC/Demo/StreamBufferDemo.c:1359:21
	ldr	r0, [sp, #48]
	.loc	3 1359 38 is_stmt 0             @ ../../../CORTEX_MPU_M3_NUCLEO_L152RE_GCC/Demo/StreamBufferDemo.c:1359:38
	ldr	r1, [sp, #52]
.Ltmp97:
	.loc	3 1359 21                       @ ../../../CORTEX_MPU_M3_NUCLEO_L152RE_GCC/Demo/StreamBufferDemo.c:1359:21
	cmp	r0, r1
	bhs	.LBB4_22
	b	.LBB4_19
.LBB4_19:                               @   in Loop: Header=BB4_2 Depth=2
.Ltmp98:
	.loc	3 1361 25 is_stmt 1             @ ../../../CORTEX_MPU_M3_NUCLEO_L152RE_GCC/Demo/StreamBufferDemo.c:1361:25
	ldr	r0, [sp, #48]
.Ltmp99:
	.loc	3 1361 25 is_stmt 0             @ ../../../CORTEX_MPU_M3_NUCLEO_L152RE_GCC/Demo/StreamBufferDemo.c:1361:25
	cmp	r0, #1
	beq	.LBB4_21
	b	.LBB4_20
.LBB4_20:                               @   in Loop: Header=BB4_2 Depth=2
	.loc	3 0 25                          @ ../../../CORTEX_MPU_M3_NUCLEO_L152RE_GCC/Demo/StreamBufferDemo.c:0:25
	movs	r0, #1
.Ltmp100:
	.loc	3 1363 40 is_stmt 1             @ ../../../CORTEX_MPU_M3_NUCLEO_L152RE_GCC/Demo/StreamBufferDemo.c:1363:40
	str	r0, [sp, #12]
	.loc	3 1364 21                       @ ../../../CORTEX_MPU_M3_NUCLEO_L152RE_GCC/Demo/StreamBufferDemo.c:1364:21
	b	.LBB4_21
.Ltmp101:
.LBB4_21:                               @   in Loop: Header=BB4_2 Depth=2
	.loc	3 1365 17                       @ ../../../CORTEX_MPU_M3_NUCLEO_L152RE_GCC/Demo/StreamBufferDemo.c:1365:17
	b	.LBB4_25
.Ltmp102:
.LBB4_22:                               @   in Loop: Header=BB4_2 Depth=2
	.loc	3 1366 28                       @ ../../../CORTEX_MPU_M3_NUCLEO_L152RE_GCC/Demo/StreamBufferDemo.c:1366:28
	ldr	r0, [sp, #48]
	.loc	3 1366 45 is_stmt 0             @ ../../../CORTEX_MPU_M3_NUCLEO_L152RE_GCC/Demo/StreamBufferDemo.c:1366:45
	ldr	r1, [sp, #52]
	.loc	3 1366 43                       @ ../../../CORTEX_MPU_M3_NUCLEO_L152RE_GCC/Demo/StreamBufferDemo.c:1366:43
	subs	r0, r0, r1
.Ltmp103:
	.loc	3 1366 26                       @ ../../../CORTEX_MPU_M3_NUCLEO_L152RE_GCC/Demo/StreamBufferDemo.c:1366:26
	cbz	r0, .LBB4_24
	b	.LBB4_23
.LBB4_23:                               @   in Loop: Header=BB4_2 Depth=2
	.loc	3 0 26                          @ ../../../CORTEX_MPU_M3_NUCLEO_L152RE_GCC/Demo/StreamBufferDemo.c:0:26
	movs	r0, #1
.Ltmp104:
	.loc	3 1368 36 is_stmt 1             @ ../../../CORTEX_MPU_M3_NUCLEO_L152RE_GCC/Demo/StreamBufferDemo.c:1368:36
	str	r0, [sp, #12]
	.loc	3 1369 17                       @ ../../../CORTEX_MPU_M3_NUCLEO_L152RE_GCC/Demo/StreamBufferDemo.c:1369:17
	b	.LBB4_24
.Ltmp105:
.LBB4_24:                               @   in Loop: Header=BB4_2 Depth=2
	.loc	3 0 17 is_stmt 0                @ ../../../CORTEX_MPU_M3_NUCLEO_L152RE_GCC/Demo/StreamBufferDemo.c:0:17
	b	.LBB4_25
.LBB4_25:                               @   in Loop: Header=BB4_2 Depth=2
	.loc	3 1370 13 is_stmt 1             @ ../../../CORTEX_MPU_M3_NUCLEO_L152RE_GCC/Demo/StreamBufferDemo.c:1370:13
	b	.LBB4_34
.Ltmp106:
.LBB4_26:                               @   in Loop: Header=BB4_2 Depth=2
	.loc	3 1381 21                       @ ../../../CORTEX_MPU_M3_NUCLEO_L152RE_GCC/Demo/StreamBufferDemo.c:1381:21
	ldr	r0, [sp, #48]
.Ltmp107:
	.loc	3 1381 21 is_stmt 0             @ ../../../CORTEX_MPU_M3_NUCLEO_L152RE_GCC/Demo/StreamBufferDemo.c:1381:21
	cmp	r0, #4
	bhi	.LBB4_30
	b	.LBB4_27
.LBB4_27:                               @   in Loop: Header=BB4_2 Depth=2
.Ltmp108:
	.loc	3 1383 25 is_stmt 1             @ ../../../CORTEX_MPU_M3_NUCLEO_L152RE_GCC/Demo/StreamBufferDemo.c:1383:25
	ldr	r0, [sp, #48]
.Ltmp109:
	.loc	3 1383 25 is_stmt 0             @ ../../../CORTEX_MPU_M3_NUCLEO_L152RE_GCC/Demo/StreamBufferDemo.c:1383:25
	cmp	r0, #1
	beq	.LBB4_29
	b	.LBB4_28
.LBB4_28:                               @   in Loop: Header=BB4_2 Depth=2
	.loc	3 0 25                          @ ../../../CORTEX_MPU_M3_NUCLEO_L152RE_GCC/Demo/StreamBufferDemo.c:0:25
	movs	r0, #1
.Ltmp110:
	.loc	3 1385 40 is_stmt 1             @ ../../../CORTEX_MPU_M3_NUCLEO_L152RE_GCC/Demo/StreamBufferDemo.c:1385:40
	str	r0, [sp, #12]
	.loc	3 1386 21                       @ ../../../CORTEX_MPU_M3_NUCLEO_L152RE_GCC/Demo/StreamBufferDemo.c:1386:21
	b	.LBB4_29
.Ltmp111:
.LBB4_29:                               @   in Loop: Header=BB4_2 Depth=2
	.loc	3 1387 17                       @ ../../../CORTEX_MPU_M3_NUCLEO_L152RE_GCC/Demo/StreamBufferDemo.c:1387:17
	b	.LBB4_33
.Ltmp112:
.LBB4_30:                               @   in Loop: Header=BB4_2 Depth=2
	.loc	3 1388 28                       @ ../../../CORTEX_MPU_M3_NUCLEO_L152RE_GCC/Demo/StreamBufferDemo.c:1388:28
	ldr	r0, [sp, #48]
.Ltmp113:
	.loc	3 1388 26 is_stmt 0             @ ../../../CORTEX_MPU_M3_NUCLEO_L152RE_GCC/Demo/StreamBufferDemo.c:1388:26
	cmp	r0, #5
	beq	.LBB4_32
	b	.LBB4_31
.LBB4_31:                               @   in Loop: Header=BB4_2 Depth=2
	.loc	3 0 26                          @ ../../../CORTEX_MPU_M3_NUCLEO_L152RE_GCC/Demo/StreamBufferDemo.c:0:26
	movs	r0, #1
.Ltmp114:
	.loc	3 1390 36 is_stmt 1             @ ../../../CORTEX_MPU_M3_NUCLEO_L152RE_GCC/Demo/StreamBufferDemo.c:1390:36
	str	r0, [sp, #12]
	.loc	3 1391 17                       @ ../../../CORTEX_MPU_M3_NUCLEO_L152RE_GCC/Demo/StreamBufferDemo.c:1391:17
	b	.LBB4_32
.Ltmp115:
.LBB4_32:                               @   in Loop: Header=BB4_2 Depth=2
	.loc	3 0 17 is_stmt 0                @ ../../../CORTEX_MPU_M3_NUCLEO_L152RE_GCC/Demo/StreamBufferDemo.c:0:17
	b	.LBB4_33
.LBB4_33:                               @   in Loop: Header=BB4_2 Depth=2
	b	.LBB4_34
.LBB4_34:                               @   in Loop: Header=BB4_2 Depth=2
	b	.LBB4_35
.LBB4_35:                               @   in Loop: Header=BB4_2 Depth=2
.Ltmp116:
	.loc	3 1394 17 is_stmt 1             @ ../../../CORTEX_MPU_M3_NUCLEO_L152RE_GCC/Demo/StreamBufferDemo.c:1394:17
	ldr	r0, [sp, #48]
.Ltmp117:
	.loc	3 1394 17 is_stmt 0             @ ../../../CORTEX_MPU_M3_NUCLEO_L152RE_GCC/Demo/StreamBufferDemo.c:1394:17
	cmp	r0, #10
	blo	.LBB4_37
	b	.LBB4_36
.LBB4_36:                               @   in Loop: Header=BB4_2 Depth=2
	.loc	3 0 17                          @ ../../../CORTEX_MPU_M3_NUCLEO_L152RE_GCC/Demo/StreamBufferDemo.c:0:17
	movs	r0, #1
.Ltmp118:
	.loc	3 1396 32 is_stmt 1             @ ../../../CORTEX_MPU_M3_NUCLEO_L152RE_GCC/Demo/StreamBufferDemo.c:1396:32
	str	r0, [sp, #12]
	.loc	3 1397 13                       @ ../../../CORTEX_MPU_M3_NUCLEO_L152RE_GCC/Demo/StreamBufferDemo.c:1397:13
	b	.LBB4_40
.Ltmp119:
.LBB4_37:                               @   in Loop: Header=BB4_2 Depth=2
	.loc	3 1398 93                       @ ../../../CORTEX_MPU_M3_NUCLEO_L152RE_GCC/Demo/StreamBufferDemo.c:1398:93
	ldr	r2, [sp, #48]
	.loc	3 1398 22 is_stmt 0             @ ../../../CORTEX_MPU_M3_NUCLEO_L152RE_GCC/Demo/StreamBufferDemo.c:1398:22
	movw	r1, :lower16:pcDataSentFromInterrupt
	movt	r1, :upper16:pcDataSentFromInterrupt
	add	r0, sp, #16
	bl	memcmp
.Ltmp120:
	.loc	3 1398 22                       @ ../../../CORTEX_MPU_M3_NUCLEO_L152RE_GCC/Demo/StreamBufferDemo.c:1398:22
	cbz	r0, .LBB4_39
	b	.LBB4_38
.LBB4_38:                               @   in Loop: Header=BB4_2 Depth=2
	.loc	3 0 22                          @ ../../../CORTEX_MPU_M3_NUCLEO_L152RE_GCC/Demo/StreamBufferDemo.c:0:22
	movs	r0, #1
.Ltmp121:
	.loc	3 1401 32 is_stmt 1             @ ../../../CORTEX_MPU_M3_NUCLEO_L152RE_GCC/Demo/StreamBufferDemo.c:1401:32
	str	r0, [sp, #12]
	.loc	3 1402 13                       @ ../../../CORTEX_MPU_M3_NUCLEO_L152RE_GCC/Demo/StreamBufferDemo.c:1402:13
	b	.LBB4_39
.Ltmp122:
.LBB4_39:                               @   in Loop: Header=BB4_2 Depth=2
	.loc	3 0 13 is_stmt 0                @ ../../../CORTEX_MPU_M3_NUCLEO_L152RE_GCC/Demo/StreamBufferDemo.c:0:13
	b	.LBB4_40
.LBB4_40:                               @   in Loop: Header=BB4_2 Depth=2
.Ltmp123:
	.loc	3 1404 17 is_stmt 1             @ ../../../CORTEX_MPU_M3_NUCLEO_L152RE_GCC/Demo/StreamBufferDemo.c:1404:17
	ldr	r0, [sp, #12]
.Ltmp124:
	.loc	3 1404 17 is_stmt 0             @ ../../../CORTEX_MPU_M3_NUCLEO_L152RE_GCC/Demo/StreamBufferDemo.c:1404:17
	cbnz	r0, .LBB4_42
	b	.LBB4_41
.LBB4_41:                               @   in Loop: Header=BB4_2 Depth=2
.Ltmp125:
	.loc	3 1408 47 is_stmt 1             @ ../../../CORTEX_MPU_M3_NUCLEO_L152RE_GCC/Demo/StreamBufferDemo.c:1408:47
	movw	r1, :lower16:ulInterruptTriggerCounter
	movt	r1, :upper16:ulInterruptTriggerCounter
	ldr	r0, [r1]
	adds	r0, r0, #1
	str	r0, [r1]
	.loc	3 1409 13                       @ ../../../CORTEX_MPU_M3_NUCLEO_L152RE_GCC/Demo/StreamBufferDemo.c:1409:13
	b	.LBB4_42
.Ltmp126:
.LBB4_42:                               @   in Loop: Header=BB4_2 Depth=2
	.loc	3 1412 34                       @ ../../../CORTEX_MPU_M3_NUCLEO_L152RE_GCC/Demo/StreamBufferDemo.c:1412:34
	ldr	r0, [sp, #56]
	.loc	3 1412 13 is_stmt 0             @ ../../../CORTEX_MPU_M3_NUCLEO_L152RE_GCC/Demo/StreamBufferDemo.c:1412:13
	bl	MPU_vStreamBufferDelete
	.loc	3 1413 9 is_stmt 1              @ ../../../CORTEX_MPU_M3_NUCLEO_L152RE_GCC/Demo/StreamBufferDemo.c:1413:9
	b	.LBB4_43
.Ltmp127:
.LBB4_43:                               @   in Loop: Header=BB4_2 Depth=2
	.loc	3 1284 95                       @ ../../../CORTEX_MPU_M3_NUCLEO_L152RE_GCC/Demo/StreamBufferDemo.c:1284:95
	ldr	r0, [sp, #52]
	adds	r0, r0, #1
	str	r0, [sp, #52]
	.loc	3 1284 9 is_stmt 0              @ ../../../CORTEX_MPU_M3_NUCLEO_L152RE_GCC/Demo/StreamBufferDemo.c:1284:9
	b	.LBB4_2
.Ltmp128:
.LBB4_44:                               @   in Loop: Header=BB4_1 Depth=1
	.loc	3 1282 5 is_stmt 1              @ ../../../CORTEX_MPU_M3_NUCLEO_L152RE_GCC/Demo/StreamBufferDemo.c:1282:5
	b	.LBB4_1
.Ltmp129:
.Lfunc_end4:
	.size	prvInterruptTriggerLevelTest, .Lfunc_end4-prvInterruptTriggerLevelTest
	.cfi_endproc
	.cantunwind
	.fnend
                                        @ -- End function
	.section	.text.prvEchoClient,"ax",%progbits
	.p2align	1                               @ -- Begin function prvEchoClient
	.type	prvEchoClient,%function
	.code	16                              @ @prvEchoClient
	.thumb_func
prvEchoClient:
.Lfunc_begin5:
	.loc	3 1074 0                        @ ../../../CORTEX_MPU_M3_NUCLEO_L152RE_GCC/Demo/StreamBufferDemo.c:1074:0
	.fnstart
	.cfi_startproc
@ %bb.0:
	.save	{r7, lr}
	push	{r7, lr}
	.cfi_def_cfa_offset 8
	.cfi_offset lr, -4
	.cfi_offset r7, -8
	.pad	#128
	sub	sp, #128
	.cfi_def_cfa_offset 136
	str	r0, [sp, #124]
	movs	r0, #0
.Ltmp130:
	.loc	3 1075 12 prologue_end          @ ../../../CORTEX_MPU_M3_NUCLEO_L152RE_GCC/Demo/StreamBufferDemo.c:1075:12
	str	r0, [sp, #120]
	add	r2, sp, #48
	movs	r1, #32
	.loc	3 1078 10                       @ ../../../CORTEX_MPU_M3_NUCLEO_L152RE_GCC/Demo/StreamBufferDemo.c:1078:10
	strb	r1, [r2]
	movs	r1, #5
	.loc	3 1079 22                       @ ../../../CORTEX_MPU_M3_NUCLEO_L152RE_GCC/Demo/StreamBufferDemo.c:1079:22
	str	r1, [sp, #44]
	.loc	3 1084 27                       @ ../../../CORTEX_MPU_M3_NUCLEO_L152RE_GCC/Demo/StreamBufferDemo.c:1084:27
	bl	MPU_uxTaskPriorityGet
	.loc	3 1084 17 is_stmt 0             @ ../../../CORTEX_MPU_M3_NUCLEO_L152RE_GCC/Demo/StreamBufferDemo.c:1084:17
	str	r0, [sp, #36]
	.loc	3 1088 71 is_stmt 1             @ ../../../CORTEX_MPU_M3_NUCLEO_L152RE_GCC/Demo/StreamBufferDemo.c:1088:71
	ldr	r0, [sp, #124]
	.loc	3 1088 27 is_stmt 0             @ ../../../CORTEX_MPU_M3_NUCLEO_L152RE_GCC/Demo/StreamBufferDemo.c:1088:27
	str	r0, [sp, #32]
	.loc	3 1090 5 is_stmt 1              @ ../../../CORTEX_MPU_M3_NUCLEO_L152RE_GCC/Demo/StreamBufferDemo.c:1090:5
	b	.LBB5_1
.LBB5_1:                                @ =>This Loop Header: Depth=1
                                        @     Child Loop BB5_4 Depth 2
                                        @     Child Loop BB5_10 Depth 2
.Ltmp131:
	.loc	3 1093 20                       @ ../../../CORTEX_MPU_M3_NUCLEO_L152RE_GCC/Demo/StreamBufferDemo.c:1093:20
	ldr	r0, [sp, #120]
	adds	r0, r0, #1
	str	r0, [sp, #120]
.Ltmp132:
	.loc	3 1098 13                       @ ../../../CORTEX_MPU_M3_NUCLEO_L152RE_GCC/Demo/StreamBufferDemo.c:1098:13
	ldr	r0, [sp, #120]
.Ltmp133:
	.loc	3 1098 13 is_stmt 0             @ ../../../CORTEX_MPU_M3_NUCLEO_L152RE_GCC/Demo/StreamBufferDemo.c:1098:13
	cmp	r0, #27
	blo	.LBB5_3
	b	.LBB5_2
.LBB5_2:                                @   in Loop: Header=BB5_1 Depth=1
	.loc	3 0 13                          @ ../../../CORTEX_MPU_M3_NUCLEO_L152RE_GCC/Demo/StreamBufferDemo.c:0:13
	movs	r0, #1
.Ltmp134:
	.loc	3 1101 25 is_stmt 1             @ ../../../CORTEX_MPU_M3_NUCLEO_L152RE_GCC/Demo/StreamBufferDemo.c:1101:25
	str	r0, [sp, #120]
	.loc	3 1102 9                        @ ../../../CORTEX_MPU_M3_NUCLEO_L152RE_GCC/Demo/StreamBufferDemo.c:1102:9
	b	.LBB5_3
.Ltmp135:
.LBB5_3:                                @   in Loop: Header=BB5_1 Depth=1
	.loc	3 0 9 is_stmt 0                 @ ../../../CORTEX_MPU_M3_NUCLEO_L152RE_GCC/Demo/StreamBufferDemo.c:0:9
	add	r1, sp, #84
	movs	r0, #0
	.loc	3 1104 9 is_stmt 1              @ ../../../CORTEX_MPU_M3_NUCLEO_L152RE_GCC/Demo/StreamBufferDemo.c:1104:9
	str	r0, [sp, #28]                   @ 4-byte Spill
	strh	r0, [r1, #28]
	str	r0, [sp, #108]
	str	r0, [sp, #104]
	str	r0, [sp, #100]
	str	r0, [sp, #96]
	str	r0, [sp, #92]
	str	r0, [sp, #88]
	str	r0, [sp, #84]
.Ltmp136:
	.loc	3 1106 17                       @ ../../../CORTEX_MPU_M3_NUCLEO_L152RE_GCC/Demo/StreamBufferDemo.c:1106:17
	str	r0, [sp, #116]
	.loc	3 1106 14 is_stmt 0             @ ../../../CORTEX_MPU_M3_NUCLEO_L152RE_GCC/Demo/StreamBufferDemo.c:1106:14
	b	.LBB5_4
.LBB5_4:                                @   Parent Loop BB5_1 Depth=1
                                        @ =>  This Inner Loop Header: Depth=2
.Ltmp137:
	.loc	3 1106 22                       @ ../../../CORTEX_MPU_M3_NUCLEO_L152RE_GCC/Demo/StreamBufferDemo.c:1106:22
	ldr	r0, [sp, #116]
	.loc	3 1106 27                       @ ../../../CORTEX_MPU_M3_NUCLEO_L152RE_GCC/Demo/StreamBufferDemo.c:1106:27
	ldr	r1, [sp, #120]
.Ltmp138:
	.loc	3 1106 9                        @ ../../../CORTEX_MPU_M3_NUCLEO_L152RE_GCC/Demo/StreamBufferDemo.c:1106:9
	cmp	r0, r1
	bhs	.LBB5_9
	b	.LBB5_5
.LBB5_5:                                @   in Loop: Header=BB5_4 Depth=2
.Ltmp139:
	.loc	3 1108 36 is_stmt 1             @ ../../../CORTEX_MPU_M3_NUCLEO_L152RE_GCC/Demo/StreamBufferDemo.c:1108:36
	ldr	r0, [sp, #48]
	.loc	3 1108 29 is_stmt 0             @ ../../../CORTEX_MPU_M3_NUCLEO_L152RE_GCC/Demo/StreamBufferDemo.c:1108:29
	ldr	r2, [sp, #116]
	add	r1, sp, #84
	.loc	3 1108 34                       @ ../../../CORTEX_MPU_M3_NUCLEO_L152RE_GCC/Demo/StreamBufferDemo.c:1108:34
	strb	r0, [r1, r2]
	.loc	3 1110 22 is_stmt 1             @ ../../../CORTEX_MPU_M3_NUCLEO_L152RE_GCC/Demo/StreamBufferDemo.c:1110:22
	ldr	r0, [sp, #48]
	adds	r1, r0, #1
	add	r0, sp, #48
	strb	r1, [r0]
.Ltmp140:
	.loc	3 1112 17                       @ ../../../CORTEX_MPU_M3_NUCLEO_L152RE_GCC/Demo/StreamBufferDemo.c:1112:17
	ldrb	r0, [r0]
.Ltmp141:
	.loc	3 1112 17 is_stmt 0             @ ../../../CORTEX_MPU_M3_NUCLEO_L152RE_GCC/Demo/StreamBufferDemo.c:1112:17
	cmp	r0, #127
	blt	.LBB5_7
	b	.LBB5_6
.LBB5_6:                                @   in Loop: Header=BB5_4 Depth=2
	.loc	3 0 17                          @ ../../../CORTEX_MPU_M3_NUCLEO_L152RE_GCC/Demo/StreamBufferDemo.c:0:17
	add	r1, sp, #48
	movs	r0, #32
.Ltmp142:
	.loc	3 1114 27 is_stmt 1             @ ../../../CORTEX_MPU_M3_NUCLEO_L152RE_GCC/Demo/StreamBufferDemo.c:1114:27
	strb	r0, [r1]
	.loc	3 1115 13                       @ ../../../CORTEX_MPU_M3_NUCLEO_L152RE_GCC/Demo/StreamBufferDemo.c:1115:13
	b	.LBB5_7
.Ltmp143:
.LBB5_7:                                @   in Loop: Header=BB5_4 Depth=2
	.loc	3 1116 9                        @ ../../../CORTEX_MPU_M3_NUCLEO_L152RE_GCC/Demo/StreamBufferDemo.c:1116:9
	b	.LBB5_8
.Ltmp144:
.LBB5_8:                                @   in Loop: Header=BB5_4 Depth=2
	.loc	3 1106 42                       @ ../../../CORTEX_MPU_M3_NUCLEO_L152RE_GCC/Demo/StreamBufferDemo.c:1106:42
	ldr	r0, [sp, #116]
	adds	r0, r0, #1
	str	r0, [sp, #116]
	.loc	3 1106 9 is_stmt 0              @ ../../../CORTEX_MPU_M3_NUCLEO_L152RE_GCC/Demo/StreamBufferDemo.c:1106:9
	b	.LBB5_4
.Ltmp145:
.LBB5_9:                                @   in Loop: Header=BB5_1 Depth=1
	.loc	3 1119 9 is_stmt 1              @ ../../../CORTEX_MPU_M3_NUCLEO_L152RE_GCC/Demo/StreamBufferDemo.c:1119:9
	b	.LBB5_10
.LBB5_10:                               @   Parent Loop BB5_1 Depth=1
                                        @ =>  This Inner Loop Header: Depth=2
.Ltmp146:
	.loc	3 1121 37                       @ ../../../CORTEX_MPU_M3_NUCLEO_L152RE_GCC/Demo/StreamBufferDemo.c:1121:37
	ldr	r0, [sp, #32]
	.loc	3 1121 54 is_stmt 0             @ ../../../CORTEX_MPU_M3_NUCLEO_L152RE_GCC/Demo/StreamBufferDemo.c:1121:54
	ldr	r0, [r0]
	.loc	3 1121 100                      @ ../../../CORTEX_MPU_M3_NUCLEO_L152RE_GCC/Demo/StreamBufferDemo.c:1121:100
	ldr	r2, [sp, #120]
	add	r1, sp, #84
	movs	r3, #5
	.loc	3 1121 18                       @ ../../../CORTEX_MPU_M3_NUCLEO_L152RE_GCC/Demo/StreamBufferDemo.c:1121:18
	bl	MPU_xStreamBufferSend
	.loc	3 1121 16                       @ ../../../CORTEX_MPU_M3_NUCLEO_L152RE_GCC/Demo/StreamBufferDemo.c:1121:16
	str	r0, [sp, #116]
	.loc	3 1122 9 is_stmt 1              @ ../../../CORTEX_MPU_M3_NUCLEO_L152RE_GCC/Demo/StreamBufferDemo.c:1122:9
	b	.LBB5_11
.Ltmp147:
.LBB5_11:                               @   in Loop: Header=BB5_10 Depth=2
	.loc	3 1122 18 is_stmt 0             @ ../../../CORTEX_MPU_M3_NUCLEO_L152RE_GCC/Demo/StreamBufferDemo.c:1122:18
	ldr	r0, [sp, #116]
.Ltmp148:
	.loc	3 1122 9                        @ ../../../CORTEX_MPU_M3_NUCLEO_L152RE_GCC/Demo/StreamBufferDemo.c:1122:9
	cmp	r0, #0
	beq	.LBB5_10
	b	.LBB5_12
.Ltmp149:
.LBB5_12:                               @   in Loop: Header=BB5_1 Depth=1
	.loc	3 0 9                           @ ../../../CORTEX_MPU_M3_NUCLEO_L152RE_GCC/Demo/StreamBufferDemo.c:0:9
	add	r1, sp, #52
	str	r1, [sp, #16]                   @ 4-byte Spill
	movs	r3, #0
	.loc	3 1125 9 is_stmt 1              @ ../../../CORTEX_MPU_M3_NUCLEO_L152RE_GCC/Demo/StreamBufferDemo.c:1125:9
	str	r3, [sp, #24]                   @ 4-byte Spill
	strh	r3, [r1, #28]
	str	r3, [sp, #76]
	str	r3, [sp, #72]
	str	r3, [sp, #68]
	str	r3, [sp, #64]
	str	r3, [sp, #60]
	str	r3, [sp, #56]
	str	r3, [sp, #52]
	.loc	3 1126 31                       @ ../../../CORTEX_MPU_M3_NUCLEO_L152RE_GCC/Demo/StreamBufferDemo.c:1126:31
	ldr	r0, [sp, #32]
	.loc	3 1126 48 is_stmt 0             @ ../../../CORTEX_MPU_M3_NUCLEO_L152RE_GCC/Demo/StreamBufferDemo.c:1126:48
	ldr	r0, [r0, #4]
	.loc	3 1126 96                       @ ../../../CORTEX_MPU_M3_NUCLEO_L152RE_GCC/Demo/StreamBufferDemo.c:1126:96
	ldr	r2, [sp, #120]
	mvns	r3, r3
	.loc	3 1126 9                        @ ../../../CORTEX_MPU_M3_NUCLEO_L152RE_GCC/Demo/StreamBufferDemo.c:1126:9
	bl	MPU_xStreamBufferReceive
	ldr	r1, [sp, #16]                   @ 4-byte Reload
	add	r0, sp, #84
	.loc	3 1128 32 is_stmt 1             @ ../../../CORTEX_MPU_M3_NUCLEO_L152RE_GCC/Demo/StreamBufferDemo.c:1128:32
	bl	strcmp
	.loc	3 1128 75 is_stmt 0             @ ../../../CORTEX_MPU_M3_NUCLEO_L152RE_GCC/Demo/StreamBufferDemo.c:1128:75
	rsbs	r1, r0, #0
	adcs	r0, r1
	.loc	3 1128 9                        @ ../../../CORTEX_MPU_M3_NUCLEO_L152RE_GCC/Demo/StreamBufferDemo.c:1128:9
	bl	prvCheckExpectedState
	ldr	r3, [sp, #24]                   @ 4-byte Reload
	.loc	3 1135 29 is_stmt 1             @ ../../../CORTEX_MPU_M3_NUCLEO_L152RE_GCC/Demo/StreamBufferDemo.c:1135:29
	ldr	r0, [sp, #36]
	.loc	3 1135 9 is_stmt 0              @ ../../../CORTEX_MPU_M3_NUCLEO_L152RE_GCC/Demo/StreamBufferDemo.c:1135:9
	lsls	r2, r0, #2
	movw	r1, :lower16:ulEchoLoopCounters
	movt	r1, :upper16:ulEchoLoopCounters
	.loc	3 1135 38                       @ ../../../CORTEX_MPU_M3_NUCLEO_L152RE_GCC/Demo/StreamBufferDemo.c:1135:38
	ldr	r0, [r1, r2]
	adds	r0, r0, #1
	str	r0, [r1, r2]
	.loc	3 1139 29 is_stmt 1             @ ../../../CORTEX_MPU_M3_NUCLEO_L152RE_GCC/Demo/StreamBufferDemo.c:1139:29
	str	r3, [sp]
	movs	r0, #30
	movs	r1, #1
	str	r1, [sp, #20]                   @ 4-byte Spill
	mov	r2, r3
	bl	MPU_xStreamBufferGenericCreate
	.loc	3 1139 27 is_stmt 0             @ ../../../CORTEX_MPU_M3_NUCLEO_L152RE_GCC/Demo/StreamBufferDemo.c:1139:27
	str	r0, [sp, #40]
	.loc	3 1140 30 is_stmt 1             @ ../../../CORTEX_MPU_M3_NUCLEO_L152RE_GCC/Demo/StreamBufferDemo.c:1140:30
	ldr	r0, [sp, #40]
	.loc	3 1140 9 is_stmt 0              @ ../../../CORTEX_MPU_M3_NUCLEO_L152RE_GCC/Demo/StreamBufferDemo.c:1140:9
	bl	MPU_vStreamBufferDelete
	ldr	r1, [sp, #20]                   @ 4-byte Reload
	ldr	r3, [sp, #24]                   @ 4-byte Reload
	.loc	3 1144 29 is_stmt 1             @ ../../../CORTEX_MPU_M3_NUCLEO_L152RE_GCC/Demo/StreamBufferDemo.c:1144:29
	str	r3, [sp]
	mov	r0, r1
	mov	r2, r3
	bl	MPU_xStreamBufferGenericCreate
	.loc	3 1144 27 is_stmt 0             @ ../../../CORTEX_MPU_M3_NUCLEO_L152RE_GCC/Demo/StreamBufferDemo.c:1144:27
	str	r0, [sp, #40]
.Ltmp150:
	.loc	3 1146 9 is_stmt 1              @ ../../../CORTEX_MPU_M3_NUCLEO_L152RE_GCC/Demo/StreamBufferDemo.c:1146:9
	ldr	r0, [sp, #40]
.Ltmp151:
	.loc	3 1146 9 is_stmt 0              @ ../../../CORTEX_MPU_M3_NUCLEO_L152RE_GCC/Demo/StreamBufferDemo.c:1146:9
	cbnz	r0, .LBB5_15
	b	.LBB5_13
.LBB5_13:
.Ltmp152:
	.loc	3 1146 9                        @ ../../../CORTEX_MPU_M3_NUCLEO_L152RE_GCC/Demo/StreamBufferDemo.c:1146:9
	@APP
	cpsid i
	@NO_APP
	b	.LBB5_14
.LBB5_14:                               @ =>This Inner Loop Header: Depth=1
.Ltmp153:
	.loc	3 1146 9                        @ ../../../CORTEX_MPU_M3_NUCLEO_L152RE_GCC/Demo/StreamBufferDemo.c:1146:9
	b	.LBB5_14
.Ltmp154:
.LBB5_15:                               @   in Loop: Header=BB5_1 Depth=1
	.loc	3 1149 33 is_stmt 1             @ ../../../CORTEX_MPU_M3_NUCLEO_L152RE_GCC/Demo/StreamBufferDemo.c:1149:33
	ldr	r0, [sp, #40]
	add	r1, sp, #84
	movs	r2, #1
	movs	r3, #0
	.loc	3 1149 14 is_stmt 0             @ ../../../CORTEX_MPU_M3_NUCLEO_L152RE_GCC/Demo/StreamBufferDemo.c:1149:14
	bl	MPU_xStreamBufferSend
	.loc	3 1149 12                       @ ../../../CORTEX_MPU_M3_NUCLEO_L152RE_GCC/Demo/StreamBufferDemo.c:1149:12
	str	r0, [sp, #116]
.Ltmp155:
	.loc	3 1151 9 is_stmt 1              @ ../../../CORTEX_MPU_M3_NUCLEO_L152RE_GCC/Demo/StreamBufferDemo.c:1151:9
	ldr	r0, [sp, #116]
.Ltmp156:
	.loc	3 1151 9 is_stmt 0              @ ../../../CORTEX_MPU_M3_NUCLEO_L152RE_GCC/Demo/StreamBufferDemo.c:1151:9
	cmp	r0, #1
	beq	.LBB5_18
	b	.LBB5_16
.LBB5_16:
.Ltmp157:
	.loc	3 1151 9                        @ ../../../CORTEX_MPU_M3_NUCLEO_L152RE_GCC/Demo/StreamBufferDemo.c:1151:9
	@APP
	cpsid i
	@NO_APP
	b	.LBB5_17
.LBB5_17:                               @ =>This Inner Loop Header: Depth=1
.Ltmp158:
	.loc	3 1151 9                        @ ../../../CORTEX_MPU_M3_NUCLEO_L152RE_GCC/Demo/StreamBufferDemo.c:1151:9
	b	.LBB5_17
.Ltmp159:
.LBB5_18:                               @   in Loop: Header=BB5_1 Depth=1
	.loc	3 1153 33 is_stmt 1             @ ../../../CORTEX_MPU_M3_NUCLEO_L152RE_GCC/Demo/StreamBufferDemo.c:1153:33
	ldr	r0, [sp, #40]
	add	r1, sp, #84
	movs	r2, #1
	movs	r3, #0
	.loc	3 1153 14 is_stmt 0             @ ../../../CORTEX_MPU_M3_NUCLEO_L152RE_GCC/Demo/StreamBufferDemo.c:1153:14
	bl	MPU_xStreamBufferSend
	.loc	3 1153 12                       @ ../../../CORTEX_MPU_M3_NUCLEO_L152RE_GCC/Demo/StreamBufferDemo.c:1153:12
	str	r0, [sp, #116]
.Ltmp160:
	.loc	3 1155 9 is_stmt 1              @ ../../../CORTEX_MPU_M3_NUCLEO_L152RE_GCC/Demo/StreamBufferDemo.c:1155:9
	ldr	r0, [sp, #116]
.Ltmp161:
	.loc	3 1155 9 is_stmt 0              @ ../../../CORTEX_MPU_M3_NUCLEO_L152RE_GCC/Demo/StreamBufferDemo.c:1155:9
	cbz	r0, .LBB5_21
	b	.LBB5_19
.LBB5_19:
.Ltmp162:
	.loc	3 1155 9                        @ ../../../CORTEX_MPU_M3_NUCLEO_L152RE_GCC/Demo/StreamBufferDemo.c:1155:9
	@APP
	cpsid i
	@NO_APP
	b	.LBB5_20
.LBB5_20:                               @ =>This Inner Loop Header: Depth=1
.Ltmp163:
	.loc	3 1155 9                        @ ../../../CORTEX_MPU_M3_NUCLEO_L152RE_GCC/Demo/StreamBufferDemo.c:1155:9
	b	.LBB5_20
.Ltmp164:
.LBB5_21:                               @   in Loop: Header=BB5_1 Depth=1
	.loc	3 0 9                           @ ../../../CORTEX_MPU_M3_NUCLEO_L152RE_GCC/Demo/StreamBufferDemo.c:0:9
	add	r1, sp, #52
	movs	r3, #0
	.loc	3 1158 9 is_stmt 1              @ ../../../CORTEX_MPU_M3_NUCLEO_L152RE_GCC/Demo/StreamBufferDemo.c:1158:9
	str	r3, [sp, #12]                   @ 4-byte Spill
	strh	r3, [r1, #28]
	str	r3, [sp, #76]
	str	r3, [sp, #72]
	str	r3, [sp, #68]
	str	r3, [sp, #64]
	str	r3, [sp, #60]
	str	r3, [sp, #56]
	str	r3, [sp, #52]
	.loc	3 1159 36                       @ ../../../CORTEX_MPU_M3_NUCLEO_L152RE_GCC/Demo/StreamBufferDemo.c:1159:36
	ldr	r0, [sp, #40]
	movs	r2, #1
	.loc	3 1159 14 is_stmt 0             @ ../../../CORTEX_MPU_M3_NUCLEO_L152RE_GCC/Demo/StreamBufferDemo.c:1159:14
	bl	MPU_xStreamBufferReceive
	.loc	3 1159 12                       @ ../../../CORTEX_MPU_M3_NUCLEO_L152RE_GCC/Demo/StreamBufferDemo.c:1159:12
	str	r0, [sp, #116]
.Ltmp165:
	.loc	3 1161 9 is_stmt 1              @ ../../../CORTEX_MPU_M3_NUCLEO_L152RE_GCC/Demo/StreamBufferDemo.c:1161:9
	ldr	r0, [sp, #116]
.Ltmp166:
	.loc	3 1161 9 is_stmt 0              @ ../../../CORTEX_MPU_M3_NUCLEO_L152RE_GCC/Demo/StreamBufferDemo.c:1161:9
	cmp	r0, #1
	beq	.LBB5_24
	b	.LBB5_22
.LBB5_22:
.Ltmp167:
	.loc	3 1161 9                        @ ../../../CORTEX_MPU_M3_NUCLEO_L152RE_GCC/Demo/StreamBufferDemo.c:1161:9
	@APP
	cpsid i
	@NO_APP
	b	.LBB5_23
.LBB5_23:                               @ =>This Inner Loop Header: Depth=1
.Ltmp168:
	.loc	3 1161 9                        @ ../../../CORTEX_MPU_M3_NUCLEO_L152RE_GCC/Demo/StreamBufferDemo.c:1161:9
	b	.LBB5_23
.Ltmp169:
.LBB5_24:                               @   in Loop: Header=BB5_1 Depth=1
	.loc	3 0 9                           @ ../../../CORTEX_MPU_M3_NUCLEO_L152RE_GCC/Demo/StreamBufferDemo.c:0:9
	add	r0, sp, #84
.Ltmp170:
	.loc	3 1163 9 is_stmt 1              @ ../../../CORTEX_MPU_M3_NUCLEO_L152RE_GCC/Demo/StreamBufferDemo.c:1163:9
	ldrb	r0, [r0]
	add	r1, sp, #52
	ldrb	r1, [r1]
.Ltmp171:
	.loc	3 1163 9 is_stmt 0              @ ../../../CORTEX_MPU_M3_NUCLEO_L152RE_GCC/Demo/StreamBufferDemo.c:1163:9
	cmp	r0, r1
	beq	.LBB5_27
	b	.LBB5_25
.LBB5_25:
.Ltmp172:
	.loc	3 1163 9                        @ ../../../CORTEX_MPU_M3_NUCLEO_L152RE_GCC/Demo/StreamBufferDemo.c:1163:9
	@APP
	cpsid i
	@NO_APP
	b	.LBB5_26
.LBB5_26:                               @ =>This Inner Loop Header: Depth=1
.Ltmp173:
	.loc	3 1163 9                        @ ../../../CORTEX_MPU_M3_NUCLEO_L152RE_GCC/Demo/StreamBufferDemo.c:1163:9
	b	.LBB5_26
.Ltmp174:
.LBB5_27:                               @   in Loop: Header=BB5_1 Depth=1
	.loc	3 1165 36 is_stmt 1             @ ../../../CORTEX_MPU_M3_NUCLEO_L152RE_GCC/Demo/StreamBufferDemo.c:1165:36
	ldr	r0, [sp, #40]
	add	r1, sp, #52
	movs	r2, #1
	movs	r3, #0
	.loc	3 1165 14 is_stmt 0             @ ../../../CORTEX_MPU_M3_NUCLEO_L152RE_GCC/Demo/StreamBufferDemo.c:1165:14
	bl	MPU_xStreamBufferReceive
	.loc	3 1165 12                       @ ../../../CORTEX_MPU_M3_NUCLEO_L152RE_GCC/Demo/StreamBufferDemo.c:1165:12
	str	r0, [sp, #116]
.Ltmp175:
	.loc	3 1167 9 is_stmt 1              @ ../../../CORTEX_MPU_M3_NUCLEO_L152RE_GCC/Demo/StreamBufferDemo.c:1167:9
	ldr	r0, [sp, #116]
.Ltmp176:
	.loc	3 1167 9 is_stmt 0              @ ../../../CORTEX_MPU_M3_NUCLEO_L152RE_GCC/Demo/StreamBufferDemo.c:1167:9
	cbz	r0, .LBB5_30
	b	.LBB5_28
.LBB5_28:
.Ltmp177:
	.loc	3 1167 9                        @ ../../../CORTEX_MPU_M3_NUCLEO_L152RE_GCC/Demo/StreamBufferDemo.c:1167:9
	@APP
	cpsid i
	@NO_APP
	b	.LBB5_29
.LBB5_29:                               @ =>This Inner Loop Header: Depth=1
.Ltmp178:
	.loc	3 1167 9                        @ ../../../CORTEX_MPU_M3_NUCLEO_L152RE_GCC/Demo/StreamBufferDemo.c:1167:9
	b	.LBB5_29
.Ltmp179:
.LBB5_30:                               @   in Loop: Header=BB5_1 Depth=1
	.loc	3 1171 33 is_stmt 1             @ ../../../CORTEX_MPU_M3_NUCLEO_L152RE_GCC/Demo/StreamBufferDemo.c:1171:33
	ldr	r0, [sp, #40]
	add	r1, sp, #84
	movs	r2, #2
	movs	r3, #0
	.loc	3 1171 14 is_stmt 0             @ ../../../CORTEX_MPU_M3_NUCLEO_L152RE_GCC/Demo/StreamBufferDemo.c:1171:14
	bl	MPU_xStreamBufferSend
	.loc	3 1171 12                       @ ../../../CORTEX_MPU_M3_NUCLEO_L152RE_GCC/Demo/StreamBufferDemo.c:1171:12
	str	r0, [sp, #116]
.Ltmp180:
	.loc	3 1173 9 is_stmt 1              @ ../../../CORTEX_MPU_M3_NUCLEO_L152RE_GCC/Demo/StreamBufferDemo.c:1173:9
	ldr	r0, [sp, #116]
.Ltmp181:
	.loc	3 1173 9 is_stmt 0              @ ../../../CORTEX_MPU_M3_NUCLEO_L152RE_GCC/Demo/StreamBufferDemo.c:1173:9
	cmp	r0, #1
	beq	.LBB5_33
	b	.LBB5_31
.LBB5_31:
.Ltmp182:
	.loc	3 1173 9                        @ ../../../CORTEX_MPU_M3_NUCLEO_L152RE_GCC/Demo/StreamBufferDemo.c:1173:9
	@APP
	cpsid i
	@NO_APP
	b	.LBB5_32
.LBB5_32:                               @ =>This Inner Loop Header: Depth=1
.Ltmp183:
	.loc	3 1173 9                        @ ../../../CORTEX_MPU_M3_NUCLEO_L152RE_GCC/Demo/StreamBufferDemo.c:1173:9
	b	.LBB5_32
.Ltmp184:
.LBB5_33:                               @   in Loop: Header=BB5_1 Depth=1
	.loc	3 0 9                           @ ../../../CORTEX_MPU_M3_NUCLEO_L152RE_GCC/Demo/StreamBufferDemo.c:0:9
	add	r1, sp, #52
	movs	r3, #0
	.loc	3 1177 9 is_stmt 1              @ ../../../CORTEX_MPU_M3_NUCLEO_L152RE_GCC/Demo/StreamBufferDemo.c:1177:9
	str	r3, [sp, #8]                    @ 4-byte Spill
	strh	r3, [r1, #28]
	str	r3, [sp, #76]
	str	r3, [sp, #72]
	str	r3, [sp, #68]
	str	r3, [sp, #64]
	str	r3, [sp, #60]
	str	r3, [sp, #56]
	str	r3, [sp, #52]
	.loc	3 1178 36                       @ ../../../CORTEX_MPU_M3_NUCLEO_L152RE_GCC/Demo/StreamBufferDemo.c:1178:36
	ldr	r0, [sp, #40]
	movs	r2, #2
	.loc	3 1178 14 is_stmt 0             @ ../../../CORTEX_MPU_M3_NUCLEO_L152RE_GCC/Demo/StreamBufferDemo.c:1178:14
	bl	MPU_xStreamBufferReceive
	.loc	3 1178 12                       @ ../../../CORTEX_MPU_M3_NUCLEO_L152RE_GCC/Demo/StreamBufferDemo.c:1178:12
	str	r0, [sp, #116]
.Ltmp185:
	.loc	3 1180 9 is_stmt 1              @ ../../../CORTEX_MPU_M3_NUCLEO_L152RE_GCC/Demo/StreamBufferDemo.c:1180:9
	ldr	r0, [sp, #116]
.Ltmp186:
	.loc	3 1180 9 is_stmt 0              @ ../../../CORTEX_MPU_M3_NUCLEO_L152RE_GCC/Demo/StreamBufferDemo.c:1180:9
	cmp	r0, #1
	beq	.LBB5_36
	b	.LBB5_34
.LBB5_34:
.Ltmp187:
	.loc	3 1180 9                        @ ../../../CORTEX_MPU_M3_NUCLEO_L152RE_GCC/Demo/StreamBufferDemo.c:1180:9
	@APP
	cpsid i
	@NO_APP
	b	.LBB5_35
.LBB5_35:                               @ =>This Inner Loop Header: Depth=1
.Ltmp188:
	.loc	3 1180 9                        @ ../../../CORTEX_MPU_M3_NUCLEO_L152RE_GCC/Demo/StreamBufferDemo.c:1180:9
	b	.LBB5_35
.Ltmp189:
.LBB5_36:                               @   in Loop: Header=BB5_1 Depth=1
	.loc	3 0 9                           @ ../../../CORTEX_MPU_M3_NUCLEO_L152RE_GCC/Demo/StreamBufferDemo.c:0:9
	add	r0, sp, #84
.Ltmp190:
	.loc	3 1182 9 is_stmt 1              @ ../../../CORTEX_MPU_M3_NUCLEO_L152RE_GCC/Demo/StreamBufferDemo.c:1182:9
	ldrb	r0, [r0]
	add	r1, sp, #52
	ldrb	r1, [r1]
.Ltmp191:
	.loc	3 1182 9 is_stmt 0              @ ../../../CORTEX_MPU_M3_NUCLEO_L152RE_GCC/Demo/StreamBufferDemo.c:1182:9
	cmp	r0, r1
	beq	.LBB5_39
	b	.LBB5_37
.LBB5_37:
.Ltmp192:
	.loc	3 1182 9                        @ ../../../CORTEX_MPU_M3_NUCLEO_L152RE_GCC/Demo/StreamBufferDemo.c:1182:9
	@APP
	cpsid i
	@NO_APP
	b	.LBB5_38
.LBB5_38:                               @ =>This Inner Loop Header: Depth=1
.Ltmp193:
	.loc	3 1182 9                        @ ../../../CORTEX_MPU_M3_NUCLEO_L152RE_GCC/Demo/StreamBufferDemo.c:1182:9
	b	.LBB5_38
.Ltmp194:
.LBB5_39:                               @   in Loop: Header=BB5_1 Depth=1
	.loc	3 1185 30 is_stmt 1             @ ../../../CORTEX_MPU_M3_NUCLEO_L152RE_GCC/Demo/StreamBufferDemo.c:1185:30
	ldr	r0, [sp, #40]
	.loc	3 1185 9 is_stmt 0              @ ../../../CORTEX_MPU_M3_NUCLEO_L152RE_GCC/Demo/StreamBufferDemo.c:1185:9
	bl	MPU_vStreamBufferDelete
.Ltmp195:
	.loc	3 1090 5 is_stmt 1              @ ../../../CORTEX_MPU_M3_NUCLEO_L152RE_GCC/Demo/StreamBufferDemo.c:1090:5
	b	.LBB5_1
.Ltmp196:
.Lfunc_end5:
	.size	prvEchoClient, .Lfunc_end5-prvEchoClient
	.cfi_endproc
	.cantunwind
	.fnend
                                        @ -- End function
	.section	.text.prvSenderTask,"ax",%progbits
	.p2align	1                               @ -- Begin function prvSenderTask
	.type	prvSenderTask,%function
	.code	16                              @ @prvSenderTask
	.thumb_func
prvSenderTask:
.Lfunc_begin6:
	.loc	3 957 0                         @ ../../../CORTEX_MPU_M3_NUCLEO_L152RE_GCC/Demo/StreamBufferDemo.c:957:0
	.fnstart
	.cfi_startproc
@ %bb.0:
	.save	{r7, lr}
	push	{r7, lr}
	.cfi_def_cfa_offset 8
	.cfi_offset lr, -4
	.cfi_offset r7, -8
	.pad	#112
	sub	sp, #112
	.cfi_def_cfa_offset 120
	str	r0, [sp, #108]
	movs	r0, #12
.Ltmp197:
	.loc	3 960 26 prologue_end           @ ../../../CORTEX_MPU_M3_NUCLEO_L152RE_GCC/Demo/StreamBufferDemo.c:960:26
	str	r0, [sp, #96]
	movs	r0, #5
	.loc	3 960 61 is_stmt 0              @ ../../../CORTEX_MPU_M3_NUCLEO_L152RE_GCC/Demo/StreamBufferDemo.c:960:61
	str	r0, [sp, #92]
	movs	r0, #0
	.loc	3 962 16 is_stmt 1              @ ../../../CORTEX_MPU_M3_NUCLEO_L152RE_GCC/Demo/StreamBufferDemo.c:962:16
	str	r0, [sp, #28]                   @ 4-byte Spill
	str	r0, [sp, #52]
	.loc	3 963 38                        @ ../../../CORTEX_MPU_M3_NUCLEO_L152RE_GCC/Demo/StreamBufferDemo.c:963:38
	movw	r0, :lower16:pc55ByteString
	movt	r0, :upper16:pc55ByteString
	bl	strlen
	mov	r1, r0
	.loc	3 963 22 is_stmt 0              @ ../../../CORTEX_MPU_M3_NUCLEO_L152RE_GCC/Demo/StreamBufferDemo.c:963:22
	ldr	r0, [sp, #28]                   @ 4-byte Reload
	str	r1, [sp, #40]
	.loc	3 967 31 is_stmt 1              @ ../../../CORTEX_MPU_M3_NUCLEO_L152RE_GCC/Demo/StreamBufferDemo.c:967:31
	bl	MPU_uxTaskPriorityGet
	.loc	3 967 21 is_stmt 0              @ ../../../CORTEX_MPU_M3_NUCLEO_L152RE_GCC/Demo/StreamBufferDemo.c:967:21
	str	r0, [sp, #36]
	.loc	3 971 32 is_stmt 1              @ ../../../CORTEX_MPU_M3_NUCLEO_L152RE_GCC/Demo/StreamBufferDemo.c:971:32
	ldr	r1, [sp, #36]
	movs	r0, #1
	.loc	3 971 40 is_stmt 0              @ ../../../CORTEX_MPU_M3_NUCLEO_L152RE_GCC/Demo/StreamBufferDemo.c:971:40
	cmp	r1, #2
	str	r0, [sp, #32]                   @ 4-byte Spill
	blo	.LBB6_2
@ %bb.1:
	.loc	3 0 40                          @ ../../../CORTEX_MPU_M3_NUCLEO_L152RE_GCC/Demo/StreamBufferDemo.c:0:40
	ldr	r0, [sp, #28]                   @ 4-byte Reload
	str	r0, [sp, #32]                   @ 4-byte Spill
.LBB6_2:
	.loc	3 971 40                        @ ../../../CORTEX_MPU_M3_NUCLEO_L152RE_GCC/Demo/StreamBufferDemo.c:971:40
	ldr	r0, [sp, #32]                   @ 4-byte Reload
	.loc	3 971 9                         @ ../../../CORTEX_MPU_M3_NUCLEO_L152RE_GCC/Demo/StreamBufferDemo.c:971:9
	bl	prvCheckExpectedState
	ldr	r0, [sp, #28]                   @ 4-byte Reload
	.loc	3 973 50 is_stmt 1              @ ../../../CORTEX_MPU_M3_NUCLEO_L152RE_GCC/Demo/StreamBufferDemo.c:973:50
	ldr	r1, [sp, #108]
	.loc	3 973 23 is_stmt 0              @ ../../../CORTEX_MPU_M3_NUCLEO_L152RE_GCC/Demo/StreamBufferDemo.c:973:23
	str	r1, [sp, #104]
.Ltmp198:
	.loc	3 975 13 is_stmt 1              @ ../../../CORTEX_MPU_M3_NUCLEO_L152RE_GCC/Demo/StreamBufferDemo.c:975:13
	bl	MPU_uxTaskPriorityGet
.Ltmp199:
	.loc	3 975 13 is_stmt 0              @ ../../../CORTEX_MPU_M3_NUCLEO_L152RE_GCC/Demo/StreamBufferDemo.c:975:13
	cbnz	r0, .LBB6_4
	b	.LBB6_3
.LBB6_3:
.Ltmp200:
	.loc	3 979 33 is_stmt 1              @ ../../../CORTEX_MPU_M3_NUCLEO_L152RE_GCC/Demo/StreamBufferDemo.c:979:33
	ldr	r0, [sp, #104]
	.loc	3 979 13 is_stmt 0              @ ../../../CORTEX_MPU_M3_NUCLEO_L152RE_GCC/Demo/StreamBufferDemo.c:979:13
	bl	prvSingleTaskTests
	.loc	3 980 26 is_stmt 1              @ ../../../CORTEX_MPU_M3_NUCLEO_L152RE_GCC/Demo/StreamBufferDemo.c:980:26
	movw	r0, :lower16:xReceiverTaskHandles
	movt	r0, :upper16:xReceiverTaskHandles
	ldr	r0, [r0, #4]
	.loc	3 980 13 is_stmt 0              @ ../../../CORTEX_MPU_M3_NUCLEO_L152RE_GCC/Demo/StreamBufferDemo.c:980:13
	bl	MPU_vTaskResume
	.loc	3 981 9 is_stmt 1               @ ../../../CORTEX_MPU_M3_NUCLEO_L152RE_GCC/Demo/StreamBufferDemo.c:981:9
	b	.LBB6_5
.Ltmp201:
.LBB6_4:
	.loc	3 984 26                        @ ../../../CORTEX_MPU_M3_NUCLEO_L152RE_GCC/Demo/StreamBufferDemo.c:984:26
	movw	r0, :lower16:xReceiverTaskHandles
	movt	r0, :upper16:xReceiverTaskHandles
	ldr	r0, [r0]
	.loc	3 984 13 is_stmt 0              @ ../../../CORTEX_MPU_M3_NUCLEO_L152RE_GCC/Demo/StreamBufferDemo.c:984:13
	bl	MPU_vTaskResume
	b	.LBB6_5
.Ltmp202:
.LBB6_5:
	.loc	3 987 9 is_stmt 1               @ ../../../CORTEX_MPU_M3_NUCLEO_L152RE_GCC/Demo/StreamBufferDemo.c:987:9
	b	.LBB6_6
.LBB6_6:                                @ =>This Inner Loop Header: Depth=1
.Ltmp203:
	.loc	3 992 28                        @ ../../../CORTEX_MPU_M3_NUCLEO_L152RE_GCC/Demo/StreamBufferDemo.c:992:28
	ldr	r0, [sp, #40]
	.loc	3 992 44 is_stmt 0              @ ../../../CORTEX_MPU_M3_NUCLEO_L152RE_GCC/Demo/StreamBufferDemo.c:992:44
	ldr	r1, [sp, #52]
	.loc	3 992 42                        @ ../../../CORTEX_MPU_M3_NUCLEO_L152RE_GCC/Demo/StreamBufferDemo.c:992:42
	subs	r0, r0, r1
	.loc	3 992 26                        @ ../../../CORTEX_MPU_M3_NUCLEO_L152RE_GCC/Demo/StreamBufferDemo.c:992:26
	str	r0, [sp, #48]
	.loc	3 995 53 is_stmt 1              @ ../../../CORTEX_MPU_M3_NUCLEO_L152RE_GCC/Demo/StreamBufferDemo.c:995:53
	ldr	r0, [sp, #104]
	.loc	3 995 104 is_stmt 0             @ ../../../CORTEX_MPU_M3_NUCLEO_L152RE_GCC/Demo/StreamBufferDemo.c:995:104
	ldr	r2, [sp, #52]
	.loc	3 995 88                        @ ../../../CORTEX_MPU_M3_NUCLEO_L152RE_GCC/Demo/StreamBufferDemo.c:995:88
	movw	r1, :lower16:pc55ByteString
	movt	r1, :upper16:pc55ByteString
	adds	r1, r1, r2
	.loc	3 995 119                       @ ../../../CORTEX_MPU_M3_NUCLEO_L152RE_GCC/Demo/StreamBufferDemo.c:995:119
	ldr	r2, [sp, #48]
	movs	r3, #12
	.loc	3 995 34                        @ ../../../CORTEX_MPU_M3_NUCLEO_L152RE_GCC/Demo/StreamBufferDemo.c:995:34
	bl	MPU_xStreamBufferSend
	.loc	3 995 32                        @ ../../../CORTEX_MPU_M3_NUCLEO_L152RE_GCC/Demo/StreamBufferDemo.c:995:32
	str	r0, [sp, #44]
	.loc	3 996 36 is_stmt 1              @ ../../../CORTEX_MPU_M3_NUCLEO_L152RE_GCC/Demo/StreamBufferDemo.c:996:36
	ldr	r1, [sp, #44]
	.loc	3 996 58 is_stmt 0              @ ../../../CORTEX_MPU_M3_NUCLEO_L152RE_GCC/Demo/StreamBufferDemo.c:996:58
	ldr	r2, [sp, #48]
	movs	r0, #1
	str	r0, [sp, #16]                   @ 4-byte Spill
	movs	r3, #0
	.loc	3 996 55                        @ ../../../CORTEX_MPU_M3_NUCLEO_L152RE_GCC/Demo/StreamBufferDemo.c:996:55
	str	r3, [sp, #20]                   @ 4-byte Spill
	cmp	r1, r2
	str	r0, [sp, #24]                   @ 4-byte Spill
	bls	.LBB6_8
@ %bb.7:                                @   in Loop: Header=BB6_6 Depth=1
	.loc	3 0 55                          @ ../../../CORTEX_MPU_M3_NUCLEO_L152RE_GCC/Demo/StreamBufferDemo.c:0:55
	ldr	r0, [sp, #20]                   @ 4-byte Reload
	str	r0, [sp, #24]                   @ 4-byte Spill
.LBB6_8:                                @   in Loop: Header=BB6_6 Depth=1
	.loc	3 996 55                        @ ../../../CORTEX_MPU_M3_NUCLEO_L152RE_GCC/Demo/StreamBufferDemo.c:996:55
	ldr	r0, [sp, #24]                   @ 4-byte Reload
	.loc	3 996 13                        @ ../../../CORTEX_MPU_M3_NUCLEO_L152RE_GCC/Demo/StreamBufferDemo.c:996:13
	bl	prvCheckExpectedState
	ldr	r0, [sp, #16]                   @ 4-byte Reload
	.loc	3 1000 26 is_stmt 1             @ ../../../CORTEX_MPU_M3_NUCLEO_L152RE_GCC/Demo/StreamBufferDemo.c:1000:26
	ldr	r2, [sp, #44]
	.loc	3 1000 23 is_stmt 0             @ ../../../CORTEX_MPU_M3_NUCLEO_L152RE_GCC/Demo/StreamBufferDemo.c:1000:23
	ldr	r1, [sp, #52]
	adds	r1, r1, r2
	str	r1, [sp, #52]
	.loc	3 1001 36 is_stmt 1             @ ../../../CORTEX_MPU_M3_NUCLEO_L152RE_GCC/Demo/StreamBufferDemo.c:1001:36
	ldr	r1, [sp, #52]
	.loc	3 1001 49 is_stmt 0             @ ../../../CORTEX_MPU_M3_NUCLEO_L152RE_GCC/Demo/StreamBufferDemo.c:1001:49
	ldr	r2, [sp, #40]
	.loc	3 1001 46                       @ ../../../CORTEX_MPU_M3_NUCLEO_L152RE_GCC/Demo/StreamBufferDemo.c:1001:46
	cmp	r1, r2
	str	r0, [sp, #12]                   @ 4-byte Spill
	bls	.LBB6_10
@ %bb.9:                                @   in Loop: Header=BB6_6 Depth=1
	.loc	3 0 46                          @ ../../../CORTEX_MPU_M3_NUCLEO_L152RE_GCC/Demo/StreamBufferDemo.c:0:46
	ldr	r0, [sp, #20]                   @ 4-byte Reload
	str	r0, [sp, #12]                   @ 4-byte Spill
.LBB6_10:                               @   in Loop: Header=BB6_6 Depth=1
	.loc	3 1001 46                       @ ../../../CORTEX_MPU_M3_NUCLEO_L152RE_GCC/Demo/StreamBufferDemo.c:1001:46
	ldr	r0, [sp, #12]                   @ 4-byte Reload
	.loc	3 1001 13                       @ ../../../CORTEX_MPU_M3_NUCLEO_L152RE_GCC/Demo/StreamBufferDemo.c:1001:13
	bl	prvCheckExpectedState
.Ltmp204:
	.loc	3 1003 17 is_stmt 1             @ ../../../CORTEX_MPU_M3_NUCLEO_L152RE_GCC/Demo/StreamBufferDemo.c:1003:17
	ldr	r0, [sp, #52]
	.loc	3 1003 30 is_stmt 0             @ ../../../CORTEX_MPU_M3_NUCLEO_L152RE_GCC/Demo/StreamBufferDemo.c:1003:30
	ldr	r1, [sp, #40]
.Ltmp205:
	.loc	3 1003 17                       @ ../../../CORTEX_MPU_M3_NUCLEO_L152RE_GCC/Demo/StreamBufferDemo.c:1003:17
	cmp	r0, r1
	bne	.LBB6_12
	b	.LBB6_11
.LBB6_11:                               @   in Loop: Header=BB6_6 Depth=1
	.loc	3 0 17                          @ ../../../CORTEX_MPU_M3_NUCLEO_L152RE_GCC/Demo/StreamBufferDemo.c:0:17
	movs	r0, #0
.Ltmp206:
	.loc	3 1005 27 is_stmt 1             @ ../../../CORTEX_MPU_M3_NUCLEO_L152RE_GCC/Demo/StreamBufferDemo.c:1005:27
	str	r0, [sp, #52]
	.loc	3 1006 13                       @ ../../../CORTEX_MPU_M3_NUCLEO_L152RE_GCC/Demo/StreamBufferDemo.c:1006:13
	b	.LBB6_12
.Ltmp207:
.LBB6_12:                               @   in Loop: Header=BB6_6 Depth=1
	.loc	3 1010 35                       @ ../../../CORTEX_MPU_M3_NUCLEO_L152RE_GCC/Demo/StreamBufferDemo.c:1010:35
	ldr	r0, [sp, #36]
	.loc	3 1010 13 is_stmt 0             @ ../../../CORTEX_MPU_M3_NUCLEO_L152RE_GCC/Demo/StreamBufferDemo.c:1010:13
	lsls	r2, r0, #2
	movw	r1, :lower16:ulSenderLoopCounters
	movt	r1, :upper16:ulSenderLoopCounters
	.loc	3 1010 44                       @ ../../../CORTEX_MPU_M3_NUCLEO_L152RE_GCC/Demo/StreamBufferDemo.c:1010:44
	ldr	r0, [r1, r2]
	adds	r0, r0, #1
	str	r0, [r1, r2]
	movs	r0, #0
.Ltmp208:
	.loc	3 1012 17 is_stmt 1             @ ../../../CORTEX_MPU_M3_NUCLEO_L152RE_GCC/Demo/StreamBufferDemo.c:1012:17
	bl	MPU_uxTaskPriorityGet
.Ltmp209:
	.loc	3 1012 17 is_stmt 0             @ ../../../CORTEX_MPU_M3_NUCLEO_L152RE_GCC/Demo/StreamBufferDemo.c:1012:17
	cmp	r0, #1
	bne	.LBB6_14
	b	.LBB6_13
.LBB6_13:                               @   in Loop: Header=BB6_6 Depth=1
	.loc	3 0 17                          @ ../../../CORTEX_MPU_M3_NUCLEO_L152RE_GCC/Demo/StreamBufferDemo.c:0:17
	movs	r0, #5
.Ltmp210:
	.loc	3 1015 17 is_stmt 1             @ ../../../CORTEX_MPU_M3_NUCLEO_L152RE_GCC/Demo/StreamBufferDemo.c:1015:17
	bl	MPU_vTaskDelay
	.loc	3 1016 13                       @ ../../../CORTEX_MPU_M3_NUCLEO_L152RE_GCC/Demo/StreamBufferDemo.c:1016:13
	b	.LBB6_14
.Ltmp211:
.LBB6_14:                               @   in Loop: Header=BB6_6 Depth=1
	.loc	3 0 13 is_stmt 0                @ ../../../CORTEX_MPU_M3_NUCLEO_L152RE_GCC/Demo/StreamBufferDemo.c:0:13
	movs	r2, #0
	.loc	3 1024 33 is_stmt 1             @ ../../../CORTEX_MPU_M3_NUCLEO_L152RE_GCC/Demo/StreamBufferDemo.c:1024:33
	str	r2, [sp, #8]
	str	r2, [sp, #4]
	add	r0, sp, #56
	str	r0, [sp]
	movw	r3, :lower16:prvSenderTask.ucTempBuffer
	movt	r3, :upper16:prvSenderTask.ucTempBuffer
	movs	r0, #10
	movs	r1, #1
	bl	MPU_xStreamBufferGenericCreateStatic
	.loc	3 1024 31 is_stmt 0             @ ../../../CORTEX_MPU_M3_NUCLEO_L152RE_GCC/Demo/StreamBufferDemo.c:1024:31
	str	r0, [sp, #100]
	.loc	3 1025 33 is_stmt 1             @ ../../../CORTEX_MPU_M3_NUCLEO_L152RE_GCC/Demo/StreamBufferDemo.c:1025:33
	ldr	r0, [sp, #100]
	.loc	3 1025 13 is_stmt 0             @ ../../../CORTEX_MPU_M3_NUCLEO_L152RE_GCC/Demo/StreamBufferDemo.c:1025:13
	bl	MPU_xStreamBufferReset
	.loc	3 1026 34 is_stmt 1             @ ../../../CORTEX_MPU_M3_NUCLEO_L152RE_GCC/Demo/StreamBufferDemo.c:1026:34
	ldr	r0, [sp, #100]
	.loc	3 1026 13 is_stmt 0             @ ../../../CORTEX_MPU_M3_NUCLEO_L152RE_GCC/Demo/StreamBufferDemo.c:1026:13
	bl	MPU_vStreamBufferDelete
.Ltmp212:
	.loc	3 987 9 is_stmt 1               @ ../../../CORTEX_MPU_M3_NUCLEO_L152RE_GCC/Demo/StreamBufferDemo.c:987:9
	b	.LBB6_6
.Ltmp213:
.Lfunc_end6:
	.size	prvSenderTask, .Lfunc_end6-prvSenderTask
	.cfi_endproc
	.cantunwind
	.fnend
                                        @ -- End function
	.section	.text.prvReceiverTask,"ax",%progbits
	.p2align	1                               @ -- Begin function prvReceiverTask
	.type	prvReceiverTask,%function
	.code	16                              @ @prvReceiverTask
	.thumb_func
prvReceiverTask:
.Lfunc_begin7:
	.loc	3 1036 0                        @ ../../../CORTEX_MPU_M3_NUCLEO_L152RE_GCC/Demo/StreamBufferDemo.c:1036:0
	.fnstart
	.cfi_startproc
@ %bb.0:
	.save	{r7, lr}
	push	{r7, lr}
	.cfi_def_cfa_offset 8
	.cfi_offset lr, -4
	.cfi_offset r7, -8
	.pad	#48
	sub	sp, #48
	.cfi_def_cfa_offset 56
	str	r0, [sp, #44]
.Ltmp214:
	.loc	3 1037 78 prologue_end          @ ../../../CORTEX_MPU_M3_NUCLEO_L152RE_GCC/Demo/StreamBufferDemo.c:1037:78
	ldr	r0, [sp, #44]
	.loc	3 1037 36 is_stmt 0             @ ../../../CORTEX_MPU_M3_NUCLEO_L152RE_GCC/Demo/StreamBufferDemo.c:1037:36
	str	r0, [sp, #40]
	movs	r0, #0
	.loc	3 1039 26 is_stmt 1             @ ../../../CORTEX_MPU_M3_NUCLEO_L152RE_GCC/Demo/StreamBufferDemo.c:1039:26
	str	r0, [sp, #4]                    @ 4-byte Spill
	str	r0, [sp, #24]
	.loc	3 1040 38                       @ ../../../CORTEX_MPU_M3_NUCLEO_L152RE_GCC/Demo/StreamBufferDemo.c:1040:38
	movw	r0, :lower16:pc55ByteString
	movt	r0, :upper16:pc55ByteString
	bl	strlen
	mov	r1, r0
	.loc	3 1040 22 is_stmt 0             @ ../../../CORTEX_MPU_M3_NUCLEO_L152RE_GCC/Demo/StreamBufferDemo.c:1040:22
	ldr	r0, [sp, #4]                    @ 4-byte Reload
	str	r1, [sp, #20]
	.loc	3 1041 16 is_stmt 1             @ ../../../CORTEX_MPU_M3_NUCLEO_L152RE_GCC/Demo/StreamBufferDemo.c:1041:16
	str	r0, [sp, #16]
	.loc	3 1043 9                        @ ../../../CORTEX_MPU_M3_NUCLEO_L152RE_GCC/Demo/StreamBufferDemo.c:1043:9
	b	.LBB7_1
.LBB7_1:                                @ =>This Loop Header: Depth=1
                                        @     Child Loop BB7_5 Depth 2
.Ltmp215:
	.loc	3 1048 31                       @ ../../../CORTEX_MPU_M3_NUCLEO_L152RE_GCC/Demo/StreamBufferDemo.c:1048:31
	ldr	r0, [sp, #20]
	ldr	r1, [sp, #16]
	subs	r0, r0, r1
	cmp	r0, #11
	bhi	.LBB7_3
	b	.LBB7_2
.LBB7_2:                                @   in Loop: Header=BB7_1 Depth=1
	ldr	r0, [sp, #20]
	ldr	r1, [sp, #16]
	subs	r0, r0, r1
	str	r0, [sp]                        @ 4-byte Spill
	b	.LBB7_4
.LBB7_3:                                @   in Loop: Header=BB7_1 Depth=1
	.loc	3 0 31 is_stmt 0                @ ../../../CORTEX_MPU_M3_NUCLEO_L152RE_GCC/Demo/StreamBufferDemo.c:0:31
	movs	r0, #12
	.loc	3 1048 31                       @ ../../../CORTEX_MPU_M3_NUCLEO_L152RE_GCC/Demo/StreamBufferDemo.c:1048:31
	str	r0, [sp]                        @ 4-byte Spill
	b	.LBB7_4
.LBB7_4:                                @   in Loop: Header=BB7_1 Depth=1
	ldr	r0, [sp]                        @ 4-byte Reload
	.loc	3 1048 29                       @ ../../../CORTEX_MPU_M3_NUCLEO_L152RE_GCC/Demo/StreamBufferDemo.c:1048:29
	str	r0, [sp, #8]
	.loc	3 1050 13 is_stmt 1             @ ../../../CORTEX_MPU_M3_NUCLEO_L152RE_GCC/Demo/StreamBufferDemo.c:1050:13
	b	.LBB7_5
.LBB7_5:                                @   Parent Loop BB7_1 Depth=1
                                        @ =>  This Inner Loop Header: Depth=2
.Ltmp216:
	.loc	3 1052 57                       @ ../../../CORTEX_MPU_M3_NUCLEO_L152RE_GCC/Demo/StreamBufferDemo.c:1052:57
	ldr	r0, [sp, #40]
	.loc	3 1052 95 is_stmt 0             @ ../../../CORTEX_MPU_M3_NUCLEO_L152RE_GCC/Demo/StreamBufferDemo.c:1052:95
	ldr	r2, [sp, #8]
	add	r1, sp, #28
	movs	r3, #0
	.loc	3 1052 35                       @ ../../../CORTEX_MPU_M3_NUCLEO_L152RE_GCC/Demo/StreamBufferDemo.c:1052:35
	bl	MPU_xStreamBufferReceive
	.loc	3 1052 33                       @ ../../../CORTEX_MPU_M3_NUCLEO_L152RE_GCC/Demo/StreamBufferDemo.c:1052:33
	str	r0, [sp, #12]
	.loc	3 1053 13 is_stmt 1             @ ../../../CORTEX_MPU_M3_NUCLEO_L152RE_GCC/Demo/StreamBufferDemo.c:1053:13
	b	.LBB7_6
.Ltmp217:
.LBB7_6:                                @   in Loop: Header=BB7_5 Depth=2
	.loc	3 1053 22 is_stmt 0             @ ../../../CORTEX_MPU_M3_NUCLEO_L152RE_GCC/Demo/StreamBufferDemo.c:1053:22
	ldr	r0, [sp, #12]
.Ltmp218:
	.loc	3 1053 13                       @ ../../../CORTEX_MPU_M3_NUCLEO_L152RE_GCC/Demo/StreamBufferDemo.c:1053:13
	cmp	r0, #0
	beq	.LBB7_5
	b	.LBB7_7
.Ltmp219:
.LBB7_7:                                @   in Loop: Header=BB7_1 Depth=1
	.loc	3 1056 102 is_stmt 1            @ ../../../CORTEX_MPU_M3_NUCLEO_L152RE_GCC/Demo/StreamBufferDemo.c:1056:102
	ldr	r1, [sp, #16]
	.loc	3 1056 86 is_stmt 0             @ ../../../CORTEX_MPU_M3_NUCLEO_L152RE_GCC/Demo/StreamBufferDemo.c:1056:86
	movw	r0, :lower16:pc55ByteString
	movt	r0, :upper16:pc55ByteString
	adds	r1, r0, r1
	.loc	3 1056 117                      @ ../../../CORTEX_MPU_M3_NUCLEO_L152RE_GCC/Demo/StreamBufferDemo.c:1056:117
	ldr	r2, [sp, #12]
	add	r0, sp, #28
	.loc	3 1056 36                       @ ../../../CORTEX_MPU_M3_NUCLEO_L152RE_GCC/Demo/StreamBufferDemo.c:1056:36
	bl	memcmp
	.loc	3 1056 135                      @ ../../../CORTEX_MPU_M3_NUCLEO_L152RE_GCC/Demo/StreamBufferDemo.c:1056:135
	rsbs	r1, r0, #0
	adcs	r0, r1
	.loc	3 1056 13                       @ ../../../CORTEX_MPU_M3_NUCLEO_L152RE_GCC/Demo/StreamBufferDemo.c:1056:13
	bl	prvCheckExpectedState
	.loc	3 1061 26 is_stmt 1             @ ../../../CORTEX_MPU_M3_NUCLEO_L152RE_GCC/Demo/StreamBufferDemo.c:1061:26
	ldr	r1, [sp, #12]
	.loc	3 1061 23 is_stmt 0             @ ../../../CORTEX_MPU_M3_NUCLEO_L152RE_GCC/Demo/StreamBufferDemo.c:1061:23
	ldr	r0, [sp, #16]
	adds	r0, r0, r1
	str	r0, [sp, #16]
.Ltmp220:
	.loc	3 1063 17 is_stmt 1             @ ../../../CORTEX_MPU_M3_NUCLEO_L152RE_GCC/Demo/StreamBufferDemo.c:1063:17
	ldr	r0, [sp, #16]
	.loc	3 1063 30 is_stmt 0             @ ../../../CORTEX_MPU_M3_NUCLEO_L152RE_GCC/Demo/StreamBufferDemo.c:1063:30
	ldr	r1, [sp, #20]
.Ltmp221:
	.loc	3 1063 17                       @ ../../../CORTEX_MPU_M3_NUCLEO_L152RE_GCC/Demo/StreamBufferDemo.c:1063:17
	cmp	r0, r1
	blo	.LBB7_9
	b	.LBB7_8
.LBB7_8:                                @   in Loop: Header=BB7_1 Depth=1
	.loc	3 0 17                          @ ../../../CORTEX_MPU_M3_NUCLEO_L152RE_GCC/Demo/StreamBufferDemo.c:0:17
	movs	r0, #0
.Ltmp222:
	.loc	3 1065 27 is_stmt 1             @ ../../../CORTEX_MPU_M3_NUCLEO_L152RE_GCC/Demo/StreamBufferDemo.c:1065:27
	str	r0, [sp, #16]
	.loc	3 1066 13                       @ ../../../CORTEX_MPU_M3_NUCLEO_L152RE_GCC/Demo/StreamBufferDemo.c:1066:13
	b	.LBB7_9
.Ltmp223:
.LBB7_9:                                @   in Loop: Header=BB7_1 Depth=1
	.loc	3 1043 9                        @ ../../../CORTEX_MPU_M3_NUCLEO_L152RE_GCC/Demo/StreamBufferDemo.c:1043:9
	b	.LBB7_1
.Ltmp224:
.Lfunc_end7:
	.size	prvReceiverTask, .Lfunc_end7-prvReceiverTask
	.cfi_endproc
	.cantunwind
	.fnend
                                        @ -- End function
	.section	.text.vPeriodicStreamBufferProcessing,"ax",%progbits
	.hidden	vPeriodicStreamBufferProcessing @ -- Begin function vPeriodicStreamBufferProcessing
	.globl	vPeriodicStreamBufferProcessing
	.p2align	1
	.type	vPeriodicStreamBufferProcessing,%function
	.code	16                              @ @vPeriodicStreamBufferProcessing
	.thumb_func
vPeriodicStreamBufferProcessing:
.Lfunc_begin8:
	.loc	3 1237 0                        @ ../../../CORTEX_MPU_M3_NUCLEO_L152RE_GCC/Demo/StreamBufferDemo.c:1237:0
	.fnstart
	.cfi_startproc
@ %bb.0:
	.save	{r7, lr}
	push	{r7, lr}
	.cfi_def_cfa_offset 8
	.cfi_offset lr, -4
	.cfi_offset r7, -8
	.pad	#16
	sub	sp, #16
	.cfi_def_cfa_offset 24
	movs	r0, #0
.Ltmp225:
	.loc	3 1239 16 prologue_end          @ ../../../CORTEX_MPU_M3_NUCLEO_L152RE_GCC/Demo/StreamBufferDemo.c:1239:16
	str	r0, [sp, #12]
.Ltmp226:
	.loc	3 1244 9                        @ ../../../CORTEX_MPU_M3_NUCLEO_L152RE_GCC/Demo/StreamBufferDemo.c:1244:9
	movw	r0, :lower16:xInterruptStreamBuffer
	movt	r0, :upper16:xInterruptStreamBuffer
	ldr	r0, [r0]
.Ltmp227:
	.loc	3 1244 9 is_stmt 0              @ ../../../CORTEX_MPU_M3_NUCLEO_L152RE_GCC/Demo/StreamBufferDemo.c:1244:9
	cbz	r0, .LBB8_4
	b	.LBB8_1
.LBB8_1:
.Ltmp228:
	.loc	3 1249 35 is_stmt 1             @ ../../../CORTEX_MPU_M3_NUCLEO_L152RE_GCC/Demo/StreamBufferDemo.c:1249:35
	movw	r0, :lower16:xInterruptStreamBuffer
	movt	r0, :upper16:xInterruptStreamBuffer
	ldr	r0, [r0]
	.loc	3 1249 109 is_stmt 0            @ ../../../CORTEX_MPU_M3_NUCLEO_L152RE_GCC/Demo/StreamBufferDemo.c:1249:109
	movw	r1, :lower16:vPeriodicStreamBufferProcessing.xNextChar
	movt	r1, :upper16:vPeriodicStreamBufferProcessing.xNextChar
	str	r1, [sp]                        @ 4-byte Spill
	ldr	r2, [r1]
	.loc	3 1249 84                       @ ../../../CORTEX_MPU_M3_NUCLEO_L152RE_GCC/Demo/StreamBufferDemo.c:1249:84
	movw	r1, :lower16:pcDataSentFromInterrupt
	movt	r1, :upper16:pcDataSentFromInterrupt
	str	r1, [sp, #4]                    @ 4-byte Spill
	adds	r1, r1, r2
	movs	r2, #1
	add	r3, sp, #12
	.loc	3 1249 9                        @ ../../../CORTEX_MPU_M3_NUCLEO_L152RE_GCC/Demo/StreamBufferDemo.c:1249:9
	bl	xStreamBufferSendFromISR
	ldr	r1, [sp]                        @ 4-byte Reload
                                        @ kill: def $r2 killed $r0
.Ltmp229:
	.loc	3 1251 13 is_stmt 1             @ ../../../CORTEX_MPU_M3_NUCLEO_L152RE_GCC/Demo/StreamBufferDemo.c:1251:13
	ldr	r0, [sp, #4]                    @ 4-byte Reload
	ldr	r1, [r1]
	.loc	3 1251 25 is_stmt 0             @ ../../../CORTEX_MPU_M3_NUCLEO_L152RE_GCC/Demo/StreamBufferDemo.c:1251:25
	str	r1, [sp, #8]                    @ 4-byte Spill
	bl	strlen
	mov	r1, r0
.Ltmp230:
	.loc	3 1251 13                       @ ../../../CORTEX_MPU_M3_NUCLEO_L152RE_GCC/Demo/StreamBufferDemo.c:1251:13
	ldr	r0, [sp, #8]                    @ 4-byte Reload
	cmp	r0, r1
	bhs	.LBB8_3
	b	.LBB8_2
.LBB8_2:
.Ltmp231:
	.loc	3 1253 22 is_stmt 1             @ ../../../CORTEX_MPU_M3_NUCLEO_L152RE_GCC/Demo/StreamBufferDemo.c:1253:22
	movw	r1, :lower16:vPeriodicStreamBufferProcessing.xNextChar
	movt	r1, :upper16:vPeriodicStreamBufferProcessing.xNextChar
	ldr	r0, [r1]
	adds	r0, r0, #1
	str	r0, [r1]
	.loc	3 1254 9                        @ ../../../CORTEX_MPU_M3_NUCLEO_L152RE_GCC/Demo/StreamBufferDemo.c:1254:9
	b	.LBB8_3
.Ltmp232:
.LBB8_3:
	.loc	3 1255 5                        @ ../../../CORTEX_MPU_M3_NUCLEO_L152RE_GCC/Demo/StreamBufferDemo.c:1255:5
	b	.LBB8_5
.Ltmp233:
.LBB8_4:
	.loc	3 1259 19                       @ ../../../CORTEX_MPU_M3_NUCLEO_L152RE_GCC/Demo/StreamBufferDemo.c:1259:19
	movw	r1, :lower16:vPeriodicStreamBufferProcessing.xNextChar
	movt	r1, :upper16:vPeriodicStreamBufferProcessing.xNextChar
	movs	r0, #0
	str	r0, [r1]
	b	.LBB8_5
.Ltmp234:
.LBB8_5:
	.loc	3 1261 1                        @ ../../../CORTEX_MPU_M3_NUCLEO_L152RE_GCC/Demo/StreamBufferDemo.c:1261:1
	add	sp, #16
	pop	{r7, pc}
.Ltmp235:
.Lfunc_end8:
	.size	vPeriodicStreamBufferProcessing, .Lfunc_end8-vPeriodicStreamBufferProcessing
	.cfi_endproc
	.cantunwind
	.fnend
                                        @ -- End function
	.section	.text.xAreStreamBufferTasksStillRunning,"ax",%progbits
	.hidden	xAreStreamBufferTasksStillRunning @ -- Begin function xAreStreamBufferTasksStillRunning
	.globl	xAreStreamBufferTasksStillRunning
	.p2align	1
	.type	xAreStreamBufferTasksStillRunning,%function
	.code	16                              @ @xAreStreamBufferTasksStillRunning
	.thumb_func
xAreStreamBufferTasksStillRunning:
.Lfunc_begin9:
	.loc	3 1419 0                        @ ../../../CORTEX_MPU_M3_NUCLEO_L152RE_GCC/Demo/StreamBufferDemo.c:1419:0
	.fnstart
	.cfi_startproc
@ %bb.0:
	.pad	#4
	sub	sp, #4
	.cfi_def_cfa_offset 4
	movs	r0, #0
.Ltmp236:
	.loc	3 1425 12 prologue_end          @ ../../../CORTEX_MPU_M3_NUCLEO_L152RE_GCC/Demo/StreamBufferDemo.c:1425:12
	str	r0, [sp]
	.loc	3 1425 10 is_stmt 0             @ ../../../CORTEX_MPU_M3_NUCLEO_L152RE_GCC/Demo/StreamBufferDemo.c:1425:10
	b	.LBB9_1
.LBB9_1:                                @ =>This Inner Loop Header: Depth=1
.Ltmp237:
	.loc	3 1425 17                       @ ../../../CORTEX_MPU_M3_NUCLEO_L152RE_GCC/Demo/StreamBufferDemo.c:1425:17
	ldr	r0, [sp]
.Ltmp238:
	.loc	3 1425 5                        @ ../../../CORTEX_MPU_M3_NUCLEO_L152RE_GCC/Demo/StreamBufferDemo.c:1425:5
	cmp	r0, #1
	bgt	.LBB9_7
	b	.LBB9_2
.LBB9_2:                                @   in Loop: Header=BB9_1 Depth=1
.Ltmp239:
	.loc	3 1427 37 is_stmt 1             @ ../../../CORTEX_MPU_M3_NUCLEO_L152RE_GCC/Demo/StreamBufferDemo.c:1427:37
	ldr	r0, [sp]
	.loc	3 1427 13 is_stmt 0             @ ../../../CORTEX_MPU_M3_NUCLEO_L152RE_GCC/Demo/StreamBufferDemo.c:1427:13
	lsls	r2, r0, #2
	movw	r0, :lower16:xAreStreamBufferTasksStillRunning.ulLastEchoLoopCounters
	movt	r0, :upper16:xAreStreamBufferTasksStillRunning.ulLastEchoLoopCounters
	ldr	r0, [r0, r2]
	.loc	3 1427 44                       @ ../../../CORTEX_MPU_M3_NUCLEO_L152RE_GCC/Demo/StreamBufferDemo.c:1427:44
	movw	r1, :lower16:ulEchoLoopCounters
	movt	r1, :upper16:ulEchoLoopCounters
	ldr	r1, [r1, r2]
.Ltmp240:
	.loc	3 1427 13                       @ ../../../CORTEX_MPU_M3_NUCLEO_L152RE_GCC/Demo/StreamBufferDemo.c:1427:13
	cmp	r0, r1
	bne	.LBB9_4
	b	.LBB9_3
.LBB9_3:                                @   in Loop: Header=BB9_1 Depth=1
.Ltmp241:
	.loc	3 1429 31 is_stmt 1             @ ../../../CORTEX_MPU_M3_NUCLEO_L152RE_GCC/Demo/StreamBufferDemo.c:1429:31
	movw	r1, :lower16:xErrorStatus
	movt	r1, :upper16:xErrorStatus
	movs	r0, #0
	str	r0, [r1]
	.loc	3 1430 9                        @ ../../../CORTEX_MPU_M3_NUCLEO_L152RE_GCC/Demo/StreamBufferDemo.c:1430:9
	b	.LBB9_5
.Ltmp242:
.LBB9_4:                                @   in Loop: Header=BB9_1 Depth=1
	.loc	3 1433 63                       @ ../../../CORTEX_MPU_M3_NUCLEO_L152RE_GCC/Demo/StreamBufferDemo.c:1433:63
	ldr	r0, [sp]
	.loc	3 1433 43 is_stmt 0             @ ../../../CORTEX_MPU_M3_NUCLEO_L152RE_GCC/Demo/StreamBufferDemo.c:1433:43
	lsls	r1, r0, #2
	movw	r0, :lower16:ulEchoLoopCounters
	movt	r0, :upper16:ulEchoLoopCounters
	ldr	r0, [r0, r1]
	.loc	3 1433 37                       @ ../../../CORTEX_MPU_M3_NUCLEO_L152RE_GCC/Demo/StreamBufferDemo.c:1433:37
	ldr	r1, [sp]
	.loc	3 1433 13                       @ ../../../CORTEX_MPU_M3_NUCLEO_L152RE_GCC/Demo/StreamBufferDemo.c:1433:13
	lsls	r2, r1, #2
	movw	r1, :lower16:xAreStreamBufferTasksStillRunning.ulLastEchoLoopCounters
	movt	r1, :upper16:xAreStreamBufferTasksStillRunning.ulLastEchoLoopCounters
	.loc	3 1433 41                       @ ../../../CORTEX_MPU_M3_NUCLEO_L152RE_GCC/Demo/StreamBufferDemo.c:1433:41
	str	r0, [r1, r2]
	b	.LBB9_5
.Ltmp243:
.LBB9_5:                                @   in Loop: Header=BB9_1 Depth=1
	.loc	3 1435 5 is_stmt 1              @ ../../../CORTEX_MPU_M3_NUCLEO_L152RE_GCC/Demo/StreamBufferDemo.c:1435:5
	b	.LBB9_6
.Ltmp244:
.LBB9_6:                                @   in Loop: Header=BB9_1 Depth=1
	.loc	3 1425 48                       @ ../../../CORTEX_MPU_M3_NUCLEO_L152RE_GCC/Demo/StreamBufferDemo.c:1425:48
	ldr	r0, [sp]
	adds	r0, r0, #1
	str	r0, [sp]
	.loc	3 1425 5 is_stmt 0              @ ../../../CORTEX_MPU_M3_NUCLEO_L152RE_GCC/Demo/StreamBufferDemo.c:1425:5
	b	.LBB9_1
.Ltmp245:
.LBB9_7:
	.loc	3 1437 9 is_stmt 1              @ ../../../CORTEX_MPU_M3_NUCLEO_L152RE_GCC/Demo/StreamBufferDemo.c:1437:9
	movw	r0, :lower16:ulNonBlockingRxCounter
	movt	r0, :upper16:ulNonBlockingRxCounter
	ldr	r0, [r0]
	.loc	3 1437 40 is_stmt 0             @ ../../../CORTEX_MPU_M3_NUCLEO_L152RE_GCC/Demo/StreamBufferDemo.c:1437:40
	movw	r1, :lower16:xAreStreamBufferTasksStillRunning.ulLastNonBlockingRxCounter
	movt	r1, :upper16:xAreStreamBufferTasksStillRunning.ulLastNonBlockingRxCounter
	ldr	r1, [r1]
.Ltmp246:
	.loc	3 1437 9                        @ ../../../CORTEX_MPU_M3_NUCLEO_L152RE_GCC/Demo/StreamBufferDemo.c:1437:9
	cmp	r0, r1
	bne	.LBB9_9
	b	.LBB9_8
.LBB9_8:
.Ltmp247:
	.loc	3 1439 27 is_stmt 1             @ ../../../CORTEX_MPU_M3_NUCLEO_L152RE_GCC/Demo/StreamBufferDemo.c:1439:27
	movw	r1, :lower16:xErrorStatus
	movt	r1, :upper16:xErrorStatus
	movs	r0, #0
	str	r0, [r1]
	.loc	3 1440 5                        @ ../../../CORTEX_MPU_M3_NUCLEO_L152RE_GCC/Demo/StreamBufferDemo.c:1440:5
	b	.LBB9_10
.Ltmp248:
.LBB9_9:
	.loc	3 1443 38                       @ ../../../CORTEX_MPU_M3_NUCLEO_L152RE_GCC/Demo/StreamBufferDemo.c:1443:38
	movw	r0, :lower16:ulNonBlockingRxCounter
	movt	r0, :upper16:ulNonBlockingRxCounter
	ldr	r0, [r0]
	.loc	3 1443 36 is_stmt 0             @ ../../../CORTEX_MPU_M3_NUCLEO_L152RE_GCC/Demo/StreamBufferDemo.c:1443:36
	movw	r1, :lower16:xAreStreamBufferTasksStillRunning.ulLastNonBlockingRxCounter
	movt	r1, :upper16:xAreStreamBufferTasksStillRunning.ulLastNonBlockingRxCounter
	str	r0, [r1]
	b	.LBB9_10
.Ltmp249:
.LBB9_10:
	.loc	3 1446 9 is_stmt 1              @ ../../../CORTEX_MPU_M3_NUCLEO_L152RE_GCC/Demo/StreamBufferDemo.c:1446:9
	movw	r0, :lower16:xAreStreamBufferTasksStillRunning.ulLastInterruptTriggerCounter
	movt	r0, :upper16:xAreStreamBufferTasksStillRunning.ulLastInterruptTriggerCounter
	ldr	r0, [r0]
	.loc	3 1446 42 is_stmt 0             @ ../../../CORTEX_MPU_M3_NUCLEO_L152RE_GCC/Demo/StreamBufferDemo.c:1446:42
	movw	r1, :lower16:ulInterruptTriggerCounter
	movt	r1, :upper16:ulInterruptTriggerCounter
	ldr	r1, [r1]
.Ltmp250:
	.loc	3 1446 9                        @ ../../../CORTEX_MPU_M3_NUCLEO_L152RE_GCC/Demo/StreamBufferDemo.c:1446:9
	cmp	r0, r1
	bne	.LBB9_12
	b	.LBB9_11
.LBB9_11:
.Ltmp251:
	.loc	3 1448 27 is_stmt 1             @ ../../../CORTEX_MPU_M3_NUCLEO_L152RE_GCC/Demo/StreamBufferDemo.c:1448:27
	movw	r1, :lower16:xErrorStatus
	movt	r1, :upper16:xErrorStatus
	movs	r0, #0
	str	r0, [r1]
	.loc	3 1449 5                        @ ../../../CORTEX_MPU_M3_NUCLEO_L152RE_GCC/Demo/StreamBufferDemo.c:1449:5
	b	.LBB9_13
.Ltmp252:
.LBB9_12:
	.loc	3 1452 41                       @ ../../../CORTEX_MPU_M3_NUCLEO_L152RE_GCC/Demo/StreamBufferDemo.c:1452:41
	movw	r0, :lower16:ulInterruptTriggerCounter
	movt	r0, :upper16:ulInterruptTriggerCounter
	ldr	r0, [r0]
	.loc	3 1452 39 is_stmt 0             @ ../../../CORTEX_MPU_M3_NUCLEO_L152RE_GCC/Demo/StreamBufferDemo.c:1452:39
	movw	r1, :lower16:xAreStreamBufferTasksStillRunning.ulLastInterruptTriggerCounter
	movt	r1, :upper16:xAreStreamBufferTasksStillRunning.ulLastInterruptTriggerCounter
	str	r0, [r1]
	b	.LBB9_13
.Ltmp253:
.LBB9_13:
	.loc	3 0 39                          @ ../../../CORTEX_MPU_M3_NUCLEO_L152RE_GCC/Demo/StreamBufferDemo.c:0:39
	movs	r0, #0
.Ltmp254:
	.loc	3 1459 20 is_stmt 1             @ ../../../CORTEX_MPU_M3_NUCLEO_L152RE_GCC/Demo/StreamBufferDemo.c:1459:20
	str	r0, [sp]
	.loc	3 1459 18 is_stmt 0             @ ../../../CORTEX_MPU_M3_NUCLEO_L152RE_GCC/Demo/StreamBufferDemo.c:1459:18
	b	.LBB9_14
.LBB9_14:                               @ =>This Inner Loop Header: Depth=1
.Ltmp255:
	.loc	3 1459 25                       @ ../../../CORTEX_MPU_M3_NUCLEO_L152RE_GCC/Demo/StreamBufferDemo.c:1459:25
	ldr	r0, [sp]
.Ltmp256:
	.loc	3 1459 13                       @ ../../../CORTEX_MPU_M3_NUCLEO_L152RE_GCC/Demo/StreamBufferDemo.c:1459:13
	cmp	r0, #1
	bgt	.LBB9_20
	b	.LBB9_15
.LBB9_15:                               @   in Loop: Header=BB9_14 Depth=1
.Ltmp257:
	.loc	3 1461 47 is_stmt 1             @ ../../../CORTEX_MPU_M3_NUCLEO_L152RE_GCC/Demo/StreamBufferDemo.c:1461:47
	ldr	r0, [sp]
	.loc	3 1461 21 is_stmt 0             @ ../../../CORTEX_MPU_M3_NUCLEO_L152RE_GCC/Demo/StreamBufferDemo.c:1461:21
	lsls	r2, r0, #2
	movw	r0, :lower16:xAreStreamBufferTasksStillRunning.ulLastSenderLoopCounters
	movt	r0, :upper16:xAreStreamBufferTasksStillRunning.ulLastSenderLoopCounters
	ldr	r0, [r0, r2]
	.loc	3 1461 54                       @ ../../../CORTEX_MPU_M3_NUCLEO_L152RE_GCC/Demo/StreamBufferDemo.c:1461:54
	movw	r1, :lower16:ulSenderLoopCounters
	movt	r1, :upper16:ulSenderLoopCounters
	ldr	r1, [r1, r2]
.Ltmp258:
	.loc	3 1461 21                       @ ../../../CORTEX_MPU_M3_NUCLEO_L152RE_GCC/Demo/StreamBufferDemo.c:1461:21
	cmp	r0, r1
	bne	.LBB9_17
	b	.LBB9_16
.LBB9_16:                               @   in Loop: Header=BB9_14 Depth=1
.Ltmp259:
	.loc	3 1463 39 is_stmt 1             @ ../../../CORTEX_MPU_M3_NUCLEO_L152RE_GCC/Demo/StreamBufferDemo.c:1463:39
	movw	r1, :lower16:xErrorStatus
	movt	r1, :upper16:xErrorStatus
	movs	r0, #0
	str	r0, [r1]
	.loc	3 1464 17                       @ ../../../CORTEX_MPU_M3_NUCLEO_L152RE_GCC/Demo/StreamBufferDemo.c:1464:17
	b	.LBB9_18
.Ltmp260:
.LBB9_17:                               @   in Loop: Header=BB9_14 Depth=1
	.loc	3 1467 75                       @ ../../../CORTEX_MPU_M3_NUCLEO_L152RE_GCC/Demo/StreamBufferDemo.c:1467:75
	ldr	r0, [sp]
	.loc	3 1467 53 is_stmt 0             @ ../../../CORTEX_MPU_M3_NUCLEO_L152RE_GCC/Demo/StreamBufferDemo.c:1467:53
	lsls	r2, r0, #2
	movw	r0, :lower16:ulSenderLoopCounters
	movt	r0, :upper16:ulSenderLoopCounters
	ldr	r0, [r0, r2]
	.loc	3 1467 21                       @ ../../../CORTEX_MPU_M3_NUCLEO_L152RE_GCC/Demo/StreamBufferDemo.c:1467:21
	movw	r1, :lower16:xAreStreamBufferTasksStillRunning.ulLastSenderLoopCounters
	movt	r1, :upper16:xAreStreamBufferTasksStillRunning.ulLastSenderLoopCounters
	.loc	3 1467 51                       @ ../../../CORTEX_MPU_M3_NUCLEO_L152RE_GCC/Demo/StreamBufferDemo.c:1467:51
	str	r0, [r1, r2]
	b	.LBB9_18
.Ltmp261:
.LBB9_18:                               @   in Loop: Header=BB9_14 Depth=1
	.loc	3 1469 13 is_stmt 1             @ ../../../CORTEX_MPU_M3_NUCLEO_L152RE_GCC/Demo/StreamBufferDemo.c:1469:13
	b	.LBB9_19
.Ltmp262:
.LBB9_19:                               @   in Loop: Header=BB9_14 Depth=1
	.loc	3 1459 56                       @ ../../../CORTEX_MPU_M3_NUCLEO_L152RE_GCC/Demo/StreamBufferDemo.c:1459:56
	ldr	r0, [sp]
	adds	r0, r0, #1
	str	r0, [sp]
	.loc	3 1459 13 is_stmt 0             @ ../../../CORTEX_MPU_M3_NUCLEO_L152RE_GCC/Demo/StreamBufferDemo.c:1459:13
	b	.LBB9_14
.Ltmp263:
.LBB9_20:
	.loc	3 1473 12 is_stmt 1             @ ../../../CORTEX_MPU_M3_NUCLEO_L152RE_GCC/Demo/StreamBufferDemo.c:1473:12
	movw	r0, :lower16:xErrorStatus
	movt	r0, :upper16:xErrorStatus
	ldr	r0, [r0]
	.loc	3 1473 5 is_stmt 0              @ ../../../CORTEX_MPU_M3_NUCLEO_L152RE_GCC/Demo/StreamBufferDemo.c:1473:5
	add	sp, #4
	bx	lr
.Ltmp264:
.Lfunc_end9:
	.size	xAreStreamBufferTasksStillRunning, .Lfunc_end9-xAreStreamBufferTasksStillRunning
	.cfi_endproc
	.cantunwind
	.fnend
                                        @ -- End function
	.section	.text.prvCheckExpectedState,"ax",%progbits
	.p2align	1                               @ -- Begin function prvCheckExpectedState
	.type	prvCheckExpectedState,%function
	.code	16                              @ @prvCheckExpectedState
	.thumb_func
prvCheckExpectedState:
.Lfunc_begin10:
	.loc	3 487 0 is_stmt 1               @ ../../../CORTEX_MPU_M3_NUCLEO_L152RE_GCC/Demo/StreamBufferDemo.c:487:0
	.fnstart
	.cfi_startproc
@ %bb.0:
	.pad	#4
	sub	sp, #4
	.cfi_def_cfa_offset 4
	str	r0, [sp]
.Ltmp265:
	.loc	3 488 5 prologue_end            @ ../../../CORTEX_MPU_M3_NUCLEO_L152RE_GCC/Demo/StreamBufferDemo.c:488:5
	ldr	r0, [sp]
.Ltmp266:
	.loc	3 488 5 is_stmt 0               @ ../../../CORTEX_MPU_M3_NUCLEO_L152RE_GCC/Demo/StreamBufferDemo.c:488:5
	cbnz	r0, .LBB10_3
	b	.LBB10_1
.LBB10_1:
.Ltmp267:
	.loc	3 488 5                         @ ../../../CORTEX_MPU_M3_NUCLEO_L152RE_GCC/Demo/StreamBufferDemo.c:488:5
	@APP
	cpsid i
	@NO_APP
	b	.LBB10_2
.LBB10_2:                               @ =>This Inner Loop Header: Depth=1
.Ltmp268:
	.loc	3 488 5                         @ ../../../CORTEX_MPU_M3_NUCLEO_L152RE_GCC/Demo/StreamBufferDemo.c:488:5
	b	.LBB10_2
.Ltmp269:
.LBB10_3:
	.loc	3 490 9 is_stmt 1               @ ../../../CORTEX_MPU_M3_NUCLEO_L152RE_GCC/Demo/StreamBufferDemo.c:490:9
	ldr	r0, [sp]
.Ltmp270:
	.loc	3 490 9 is_stmt 0               @ ../../../CORTEX_MPU_M3_NUCLEO_L152RE_GCC/Demo/StreamBufferDemo.c:490:9
	cbnz	r0, .LBB10_5
	b	.LBB10_4
.LBB10_4:
.Ltmp271:
	.loc	3 492 27 is_stmt 1              @ ../../../CORTEX_MPU_M3_NUCLEO_L152RE_GCC/Demo/StreamBufferDemo.c:492:27
	movw	r1, :lower16:xErrorStatus
	movt	r1, :upper16:xErrorStatus
	movs	r0, #0
	str	r0, [r1]
	.loc	3 493 5                         @ ../../../CORTEX_MPU_M3_NUCLEO_L152RE_GCC/Demo/StreamBufferDemo.c:493:5
	b	.LBB10_5
.Ltmp272:
.LBB10_5:
	.loc	3 494 1                         @ ../../../CORTEX_MPU_M3_NUCLEO_L152RE_GCC/Demo/StreamBufferDemo.c:494:1
	add	sp, #4
	bx	lr
.Ltmp273:
.Lfunc_end10:
	.size	prvCheckExpectedState, .Lfunc_end10-prvCheckExpectedState
	.cfi_endproc
	.cantunwind
	.fnend
                                        @ -- End function
	.section	.text.prvSingleTaskTests,"ax",%progbits
	.p2align	1                               @ -- Begin function prvSingleTaskTests
	.type	prvSingleTaskTests,%function
	.code	16                              @ @prvSingleTaskTests
	.thumb_func
prvSingleTaskTests:
.Lfunc_begin11:
	.loc	3 498 0                         @ ../../../CORTEX_MPU_M3_NUCLEO_L152RE_GCC/Demo/StreamBufferDemo.c:498:0
	.fnstart
	.cfi_startproc
@ %bb.0:
	.save	{r7, lr}
	push	{r7, lr}
	.cfi_def_cfa_offset 8
	.cfi_offset lr, -4
	.cfi_offset r7, -8
	.pad	#224
	sub	sp, #224
	.cfi_def_cfa_offset 232
	str	r0, [sp, #220]
	movs	r0, #5
.Ltmp274:
	.loc	3 500 18 prologue_end           @ ../../../CORTEX_MPU_M3_NUCLEO_L152RE_GCC/Demo/StreamBufferDemo.c:500:18
	str	r0, [sp, #196]
	movs	r0, #31
	.loc	3 501 18                        @ ../../../CORTEX_MPU_M3_NUCLEO_L152RE_GCC/Demo/StreamBufferDemo.c:501:18
	str	r0, [sp, #72]                   @ 4-byte Spill
	str	r0, [sp, #192]
	movs	r0, #6
	.loc	3 502 18                        @ ../../../CORTEX_MPU_M3_NUCLEO_L152RE_GCC/Demo/StreamBufferDemo.c:502:18
	str	r0, [sp, #188]
	movs	r0, #17
	.loc	3 502 36 is_stmt 0              @ ../../../CORTEX_MPU_M3_NUCLEO_L152RE_GCC/Demo/StreamBufferDemo.c:502:36
	str	r0, [sp, #184]
	movs	r0, #60
	.loc	3 502 56                        @ ../../../CORTEX_MPU_M3_NUCLEO_L152RE_GCC/Demo/StreamBufferDemo.c:502:56
	str	r0, [sp, #180]
	movs	r0, #1
	.loc	3 506 22 is_stmt 1              @ ../../../CORTEX_MPU_M3_NUCLEO_L152RE_GCC/Demo/StreamBufferDemo.c:506:22
	str	r0, [sp, #68]                   @ 4-byte Spill
	str	r0, [sp, #96]
	movs	r0, #0
	.loc	3 506 56 is_stmt 0              @ ../../../CORTEX_MPU_M3_NUCLEO_L152RE_GCC/Demo/StreamBufferDemo.c:506:56
	str	r0, [sp, #80]                   @ 4-byte Spill
	str	r0, [sp, #92]
	movs	r1, #2
	.loc	3 506 95                        @ ../../../CORTEX_MPU_M3_NUCLEO_L152RE_GCC/Demo/StreamBufferDemo.c:506:95
	str	r1, [sp, #88]
	add	r1, sp, #120
	.loc	3 512 19 is_stmt 1              @ ../../../CORTEX_MPU_M3_NUCLEO_L152RE_GCC/Demo/StreamBufferDemo.c:512:19
	str	r1, [sp, #116]
	.loc	3 514 15                        @ ../../../CORTEX_MPU_M3_NUCLEO_L152RE_GCC/Demo/StreamBufferDemo.c:514:15
	ldr	r1, [sp, #116]
	.loc	3 514 13 is_stmt 0              @ ../../../CORTEX_MPU_M3_NUCLEO_L152RE_GCC/Demo/StreamBufferDemo.c:514:13
	str	r1, [sp, #112]
	.loc	3 515 19 is_stmt 1              @ ../../../CORTEX_MPU_M3_NUCLEO_L152RE_GCC/Demo/StreamBufferDemo.c:515:19
	ldr	r1, [sp, #112]
	.loc	3 515 27 is_stmt 0              @ ../../../CORTEX_MPU_M3_NUCLEO_L152RE_GCC/Demo/StreamBufferDemo.c:515:27
	adds	r1, #17
	.loc	3 515 17                        @ ../../../CORTEX_MPU_M3_NUCLEO_L152RE_GCC/Demo/StreamBufferDemo.c:515:17
	str	r1, [sp, #108]
	movs	r1, #30
	.loc	3 519 21 is_stmt 1              @ ../../../CORTEX_MPU_M3_NUCLEO_L152RE_GCC/Demo/StreamBufferDemo.c:519:21
	str	r1, [sp, #204]
	.loc	3 520 20                        @ ../../../CORTEX_MPU_M3_NUCLEO_L152RE_GCC/Demo/StreamBufferDemo.c:520:20
	str	r0, [sp, #200]
	.loc	3 521 47                        @ ../../../CORTEX_MPU_M3_NUCLEO_L152RE_GCC/Demo/StreamBufferDemo.c:521:47
	ldr	r0, [sp, #220]
	.loc	3 521 17 is_stmt 0              @ ../../../CORTEX_MPU_M3_NUCLEO_L152RE_GCC/Demo/StreamBufferDemo.c:521:17
	bl	MPU_xStreamBufferSpacesAvailable
	.loc	3 521 15                        @ ../../../CORTEX_MPU_M3_NUCLEO_L152RE_GCC/Demo/StreamBufferDemo.c:521:15
	str	r0, [sp, #208]
	.loc	3 522 28 is_stmt 1              @ ../../../CORTEX_MPU_M3_NUCLEO_L152RE_GCC/Demo/StreamBufferDemo.c:522:28
	ldr	r0, [sp, #208]
	.loc	3 522 41 is_stmt 0              @ ../../../CORTEX_MPU_M3_NUCLEO_L152RE_GCC/Demo/StreamBufferDemo.c:522:41
	ldr	r1, [sp, #204]
	.loc	3 522 38                        @ ../../../CORTEX_MPU_M3_NUCLEO_L152RE_GCC/Demo/StreamBufferDemo.c:522:38
	subs	r0, r0, r1
	rsbs	r1, r0, #0
	adcs	r0, r1
	.loc	3 522 5                         @ ../../../CORTEX_MPU_M3_NUCLEO_L152RE_GCC/Demo/StreamBufferDemo.c:522:5
	bl	prvCheckExpectedState
	.loc	3 523 46 is_stmt 1              @ ../../../CORTEX_MPU_M3_NUCLEO_L152RE_GCC/Demo/StreamBufferDemo.c:523:46
	ldr	r0, [sp, #220]
	.loc	3 523 17 is_stmt 0              @ ../../../CORTEX_MPU_M3_NUCLEO_L152RE_GCC/Demo/StreamBufferDemo.c:523:17
	bl	MPU_xStreamBufferBytesAvailable
	.loc	3 523 15                        @ ../../../CORTEX_MPU_M3_NUCLEO_L152RE_GCC/Demo/StreamBufferDemo.c:523:15
	str	r0, [sp, #208]
	.loc	3 524 28 is_stmt 1              @ ../../../CORTEX_MPU_M3_NUCLEO_L152RE_GCC/Demo/StreamBufferDemo.c:524:28
	ldr	r0, [sp, #208]
	.loc	3 524 41 is_stmt 0              @ ../../../CORTEX_MPU_M3_NUCLEO_L152RE_GCC/Demo/StreamBufferDemo.c:524:41
	ldr	r1, [sp, #200]
	.loc	3 524 38                        @ ../../../CORTEX_MPU_M3_NUCLEO_L152RE_GCC/Demo/StreamBufferDemo.c:524:38
	subs	r0, r0, r1
	rsbs	r1, r0, #0
	adcs	r0, r1
	.loc	3 524 5                         @ ../../../CORTEX_MPU_M3_NUCLEO_L152RE_GCC/Demo/StreamBufferDemo.c:524:5
	bl	prvCheckExpectedState
	.loc	3 525 50 is_stmt 1              @ ../../../CORTEX_MPU_M3_NUCLEO_L152RE_GCC/Demo/StreamBufferDemo.c:525:50
	ldr	r0, [sp, #220]
	.loc	3 525 28 is_stmt 0              @ ../../../CORTEX_MPU_M3_NUCLEO_L152RE_GCC/Demo/StreamBufferDemo.c:525:28
	bl	MPU_xStreamBufferIsEmpty
	.loc	3 525 66                        @ ../../../CORTEX_MPU_M3_NUCLEO_L152RE_GCC/Demo/StreamBufferDemo.c:525:66
	subs	r0, r0, #1
	rsbs	r1, r0, #0
	adcs	r0, r1
	.loc	3 525 5                         @ ../../../CORTEX_MPU_M3_NUCLEO_L152RE_GCC/Demo/StreamBufferDemo.c:525:5
	bl	prvCheckExpectedState
	.loc	3 526 49 is_stmt 1              @ ../../../CORTEX_MPU_M3_NUCLEO_L152RE_GCC/Demo/StreamBufferDemo.c:526:49
	ldr	r0, [sp, #220]
	.loc	3 526 28 is_stmt 0              @ ../../../CORTEX_MPU_M3_NUCLEO_L152RE_GCC/Demo/StreamBufferDemo.c:526:28
	bl	MPU_xStreamBufferIsFull
	.loc	3 526 65                        @ ../../../CORTEX_MPU_M3_NUCLEO_L152RE_GCC/Demo/StreamBufferDemo.c:526:65
	rsbs	r1, r0, #0
	adcs	r0, r1
	.loc	3 526 5                         @ ../../../CORTEX_MPU_M3_NUCLEO_L152RE_GCC/Demo/StreamBufferDemo.c:526:5
	bl	prvCheckExpectedState
	ldr	r2, [sp, #68]                   @ 4-byte Reload
	ldr	r3, [sp, #80]                   @ 4-byte Reload
	.loc	3 530 20 is_stmt 1              @ ../../../CORTEX_MPU_M3_NUCLEO_L152RE_GCC/Demo/StreamBufferDemo.c:530:20
	ldr	r0, [sp, #204]
	subs	r0, r0, #1
	str	r0, [sp, #204]
	.loc	3 531 19                        @ ../../../CORTEX_MPU_M3_NUCLEO_L152RE_GCC/Demo/StreamBufferDemo.c:531:19
	ldr	r0, [sp, #200]
	adds	r0, r0, #1
	str	r0, [sp, #200]
	.loc	3 532 36                        @ ../../../CORTEX_MPU_M3_NUCLEO_L152RE_GCC/Demo/StreamBufferDemo.c:532:36
	ldr	r0, [sp, #220]
	.loc	3 532 62 is_stmt 0              @ ../../../CORTEX_MPU_M3_NUCLEO_L152RE_GCC/Demo/StreamBufferDemo.c:532:62
	ldr	r1, [sp, #112]
	.loc	3 532 17                        @ ../../../CORTEX_MPU_M3_NUCLEO_L152RE_GCC/Demo/StreamBufferDemo.c:532:17
	bl	MPU_xStreamBufferSend
	.loc	3 532 15                        @ ../../../CORTEX_MPU_M3_NUCLEO_L152RE_GCC/Demo/StreamBufferDemo.c:532:15
	str	r0, [sp, #216]
	.loc	3 533 28 is_stmt 1              @ ../../../CORTEX_MPU_M3_NUCLEO_L152RE_GCC/Demo/StreamBufferDemo.c:533:28
	ldr	r0, [sp, #216]
	.loc	3 533 38 is_stmt 0              @ ../../../CORTEX_MPU_M3_NUCLEO_L152RE_GCC/Demo/StreamBufferDemo.c:533:38
	subs	r0, r0, #1
	rsbs	r1, r0, #0
	adcs	r0, r1
	.loc	3 533 5                         @ ../../../CORTEX_MPU_M3_NUCLEO_L152RE_GCC/Demo/StreamBufferDemo.c:533:5
	bl	prvCheckExpectedState
	.loc	3 534 47 is_stmt 1              @ ../../../CORTEX_MPU_M3_NUCLEO_L152RE_GCC/Demo/StreamBufferDemo.c:534:47
	ldr	r0, [sp, #220]
	.loc	3 534 17 is_stmt 0              @ ../../../CORTEX_MPU_M3_NUCLEO_L152RE_GCC/Demo/StreamBufferDemo.c:534:17
	bl	MPU_xStreamBufferSpacesAvailable
	.loc	3 534 15                        @ ../../../CORTEX_MPU_M3_NUCLEO_L152RE_GCC/Demo/StreamBufferDemo.c:534:15
	str	r0, [sp, #208]
	.loc	3 535 28 is_stmt 1              @ ../../../CORTEX_MPU_M3_NUCLEO_L152RE_GCC/Demo/StreamBufferDemo.c:535:28
	ldr	r0, [sp, #208]
	.loc	3 535 41 is_stmt 0              @ ../../../CORTEX_MPU_M3_NUCLEO_L152RE_GCC/Demo/StreamBufferDemo.c:535:41
	ldr	r1, [sp, #204]
	.loc	3 535 38                        @ ../../../CORTEX_MPU_M3_NUCLEO_L152RE_GCC/Demo/StreamBufferDemo.c:535:38
	subs	r0, r0, r1
	rsbs	r1, r0, #0
	adcs	r0, r1
	.loc	3 535 5                         @ ../../../CORTEX_MPU_M3_NUCLEO_L152RE_GCC/Demo/StreamBufferDemo.c:535:5
	bl	prvCheckExpectedState
	.loc	3 536 46 is_stmt 1              @ ../../../CORTEX_MPU_M3_NUCLEO_L152RE_GCC/Demo/StreamBufferDemo.c:536:46
	ldr	r0, [sp, #220]
	.loc	3 536 17 is_stmt 0              @ ../../../CORTEX_MPU_M3_NUCLEO_L152RE_GCC/Demo/StreamBufferDemo.c:536:17
	bl	MPU_xStreamBufferBytesAvailable
	.loc	3 536 15                        @ ../../../CORTEX_MPU_M3_NUCLEO_L152RE_GCC/Demo/StreamBufferDemo.c:536:15
	str	r0, [sp, #208]
	.loc	3 537 28 is_stmt 1              @ ../../../CORTEX_MPU_M3_NUCLEO_L152RE_GCC/Demo/StreamBufferDemo.c:537:28
	ldr	r0, [sp, #208]
	.loc	3 537 41 is_stmt 0              @ ../../../CORTEX_MPU_M3_NUCLEO_L152RE_GCC/Demo/StreamBufferDemo.c:537:41
	ldr	r1, [sp, #200]
	.loc	3 537 38                        @ ../../../CORTEX_MPU_M3_NUCLEO_L152RE_GCC/Demo/StreamBufferDemo.c:537:38
	subs	r0, r0, r1
	rsbs	r1, r0, #0
	adcs	r0, r1
	.loc	3 537 5                         @ ../../../CORTEX_MPU_M3_NUCLEO_L152RE_GCC/Demo/StreamBufferDemo.c:537:5
	bl	prvCheckExpectedState
	.loc	3 538 50 is_stmt 1              @ ../../../CORTEX_MPU_M3_NUCLEO_L152RE_GCC/Demo/StreamBufferDemo.c:538:50
	ldr	r0, [sp, #220]
	.loc	3 538 28 is_stmt 0              @ ../../../CORTEX_MPU_M3_NUCLEO_L152RE_GCC/Demo/StreamBufferDemo.c:538:28
	bl	MPU_xStreamBufferIsEmpty
	.loc	3 538 66                        @ ../../../CORTEX_MPU_M3_NUCLEO_L152RE_GCC/Demo/StreamBufferDemo.c:538:66
	rsbs	r1, r0, #0
	adcs	r0, r1
	.loc	3 538 5                         @ ../../../CORTEX_MPU_M3_NUCLEO_L152RE_GCC/Demo/StreamBufferDemo.c:538:5
	bl	prvCheckExpectedState
	.loc	3 539 49 is_stmt 1              @ ../../../CORTEX_MPU_M3_NUCLEO_L152RE_GCC/Demo/StreamBufferDemo.c:539:49
	ldr	r0, [sp, #220]
	.loc	3 539 28 is_stmt 0              @ ../../../CORTEX_MPU_M3_NUCLEO_L152RE_GCC/Demo/StreamBufferDemo.c:539:28
	bl	MPU_xStreamBufferIsFull
	.loc	3 539 65                        @ ../../../CORTEX_MPU_M3_NUCLEO_L152RE_GCC/Demo/StreamBufferDemo.c:539:65
	rsbs	r1, r0, #0
	adcs	r0, r1
	.loc	3 539 5                         @ ../../../CORTEX_MPU_M3_NUCLEO_L152RE_GCC/Demo/StreamBufferDemo.c:539:5
	bl	prvCheckExpectedState
	ldr	r3, [sp, #80]                   @ 4-byte Reload
	.loc	3 542 21 is_stmt 1              @ ../../../CORTEX_MPU_M3_NUCLEO_L152RE_GCC/Demo/StreamBufferDemo.c:542:21
	ldr	r0, [sp, #204]
	subs	r0, #29
	str	r0, [sp, #204]
	.loc	3 543 20                        @ ../../../CORTEX_MPU_M3_NUCLEO_L152RE_GCC/Demo/StreamBufferDemo.c:543:20
	ldr	r0, [sp, #200]
	adds	r0, #29
	str	r0, [sp, #200]
	.loc	3 544 36                        @ ../../../CORTEX_MPU_M3_NUCLEO_L152RE_GCC/Demo/StreamBufferDemo.c:544:36
	ldr	r0, [sp, #220]
	.loc	3 544 62 is_stmt 0              @ ../../../CORTEX_MPU_M3_NUCLEO_L152RE_GCC/Demo/StreamBufferDemo.c:544:62
	ldr	r1, [sp, #112]
	movs	r2, #29
	.loc	3 544 17                        @ ../../../CORTEX_MPU_M3_NUCLEO_L152RE_GCC/Demo/StreamBufferDemo.c:544:17
	str	r2, [sp, #64]                   @ 4-byte Spill
	bl	MPU_xStreamBufferSend
	.loc	3 544 15                        @ ../../../CORTEX_MPU_M3_NUCLEO_L152RE_GCC/Demo/StreamBufferDemo.c:544:15
	str	r0, [sp, #216]
	.loc	3 545 28 is_stmt 1              @ ../../../CORTEX_MPU_M3_NUCLEO_L152RE_GCC/Demo/StreamBufferDemo.c:545:28
	ldr	r0, [sp, #216]
	.loc	3 545 38 is_stmt 0              @ ../../../CORTEX_MPU_M3_NUCLEO_L152RE_GCC/Demo/StreamBufferDemo.c:545:38
	subs	r0, #29
	rsbs	r1, r0, #0
	adcs	r0, r1
	.loc	3 545 5                         @ ../../../CORTEX_MPU_M3_NUCLEO_L152RE_GCC/Demo/StreamBufferDemo.c:545:5
	bl	prvCheckExpectedState
	.loc	3 546 47 is_stmt 1              @ ../../../CORTEX_MPU_M3_NUCLEO_L152RE_GCC/Demo/StreamBufferDemo.c:546:47
	ldr	r0, [sp, #220]
	.loc	3 546 17 is_stmt 0              @ ../../../CORTEX_MPU_M3_NUCLEO_L152RE_GCC/Demo/StreamBufferDemo.c:546:17
	bl	MPU_xStreamBufferSpacesAvailable
	.loc	3 546 15                        @ ../../../CORTEX_MPU_M3_NUCLEO_L152RE_GCC/Demo/StreamBufferDemo.c:546:15
	str	r0, [sp, #208]
	.loc	3 547 28 is_stmt 1              @ ../../../CORTEX_MPU_M3_NUCLEO_L152RE_GCC/Demo/StreamBufferDemo.c:547:28
	ldr	r0, [sp, #208]
	.loc	3 547 41 is_stmt 0              @ ../../../CORTEX_MPU_M3_NUCLEO_L152RE_GCC/Demo/StreamBufferDemo.c:547:41
	ldr	r1, [sp, #204]
	.loc	3 547 38                        @ ../../../CORTEX_MPU_M3_NUCLEO_L152RE_GCC/Demo/StreamBufferDemo.c:547:38
	subs	r0, r0, r1
	rsbs	r1, r0, #0
	adcs	r0, r1
	.loc	3 547 5                         @ ../../../CORTEX_MPU_M3_NUCLEO_L152RE_GCC/Demo/StreamBufferDemo.c:547:5
	bl	prvCheckExpectedState
	.loc	3 548 46 is_stmt 1              @ ../../../CORTEX_MPU_M3_NUCLEO_L152RE_GCC/Demo/StreamBufferDemo.c:548:46
	ldr	r0, [sp, #220]
	.loc	3 548 17 is_stmt 0              @ ../../../CORTEX_MPU_M3_NUCLEO_L152RE_GCC/Demo/StreamBufferDemo.c:548:17
	bl	MPU_xStreamBufferBytesAvailable
	.loc	3 548 15                        @ ../../../CORTEX_MPU_M3_NUCLEO_L152RE_GCC/Demo/StreamBufferDemo.c:548:15
	str	r0, [sp, #208]
	.loc	3 549 28 is_stmt 1              @ ../../../CORTEX_MPU_M3_NUCLEO_L152RE_GCC/Demo/StreamBufferDemo.c:549:28
	ldr	r0, [sp, #208]
	.loc	3 549 41 is_stmt 0              @ ../../../CORTEX_MPU_M3_NUCLEO_L152RE_GCC/Demo/StreamBufferDemo.c:549:41
	ldr	r1, [sp, #200]
	.loc	3 549 38                        @ ../../../CORTEX_MPU_M3_NUCLEO_L152RE_GCC/Demo/StreamBufferDemo.c:549:38
	subs	r0, r0, r1
	rsbs	r1, r0, #0
	adcs	r0, r1
	.loc	3 549 5                         @ ../../../CORTEX_MPU_M3_NUCLEO_L152RE_GCC/Demo/StreamBufferDemo.c:549:5
	bl	prvCheckExpectedState
	.loc	3 550 50 is_stmt 1              @ ../../../CORTEX_MPU_M3_NUCLEO_L152RE_GCC/Demo/StreamBufferDemo.c:550:50
	ldr	r0, [sp, #220]
	.loc	3 550 28 is_stmt 0              @ ../../../CORTEX_MPU_M3_NUCLEO_L152RE_GCC/Demo/StreamBufferDemo.c:550:28
	bl	MPU_xStreamBufferIsEmpty
	.loc	3 550 66                        @ ../../../CORTEX_MPU_M3_NUCLEO_L152RE_GCC/Demo/StreamBufferDemo.c:550:66
	rsbs	r1, r0, #0
	adcs	r0, r1
	.loc	3 550 5                         @ ../../../CORTEX_MPU_M3_NUCLEO_L152RE_GCC/Demo/StreamBufferDemo.c:550:5
	bl	prvCheckExpectedState
	.loc	3 551 49 is_stmt 1              @ ../../../CORTEX_MPU_M3_NUCLEO_L152RE_GCC/Demo/StreamBufferDemo.c:551:49
	ldr	r0, [sp, #220]
	.loc	3 551 28 is_stmt 0              @ ../../../CORTEX_MPU_M3_NUCLEO_L152RE_GCC/Demo/StreamBufferDemo.c:551:28
	bl	MPU_xStreamBufferIsFull
	.loc	3 551 65                        @ ../../../CORTEX_MPU_M3_NUCLEO_L152RE_GCC/Demo/StreamBufferDemo.c:551:65
	subs	r0, r0, #1
	rsbs	r1, r0, #0
	adcs	r0, r1
	.loc	3 551 5                         @ ../../../CORTEX_MPU_M3_NUCLEO_L152RE_GCC/Demo/StreamBufferDemo.c:551:5
	bl	prvCheckExpectedState
	ldr	r2, [sp, #68]                   @ 4-byte Reload
	ldr	r3, [sp, #80]                   @ 4-byte Reload
	.loc	3 554 36 is_stmt 1              @ ../../../CORTEX_MPU_M3_NUCLEO_L152RE_GCC/Demo/StreamBufferDemo.c:554:36
	ldr	r0, [sp, #220]
	.loc	3 554 62 is_stmt 0              @ ../../../CORTEX_MPU_M3_NUCLEO_L152RE_GCC/Demo/StreamBufferDemo.c:554:62
	ldr	r1, [sp, #112]
	.loc	3 554 17                        @ ../../../CORTEX_MPU_M3_NUCLEO_L152RE_GCC/Demo/StreamBufferDemo.c:554:17
	bl	MPU_xStreamBufferSend
	.loc	3 554 15                        @ ../../../CORTEX_MPU_M3_NUCLEO_L152RE_GCC/Demo/StreamBufferDemo.c:554:15
	str	r0, [sp, #216]
	.loc	3 555 28 is_stmt 1              @ ../../../CORTEX_MPU_M3_NUCLEO_L152RE_GCC/Demo/StreamBufferDemo.c:555:28
	ldr	r0, [sp, #216]
	.loc	3 555 38 is_stmt 0              @ ../../../CORTEX_MPU_M3_NUCLEO_L152RE_GCC/Demo/StreamBufferDemo.c:555:38
	rsbs	r1, r0, #0
	adcs	r0, r1
	.loc	3 555 5                         @ ../../../CORTEX_MPU_M3_NUCLEO_L152RE_GCC/Demo/StreamBufferDemo.c:555:5
	bl	prvCheckExpectedState
	ldr	r2, [sp, #68]                   @ 4-byte Reload
	ldr	r3, [sp, #80]                   @ 4-byte Reload
	.loc	3 559 21 is_stmt 1              @ ../../../CORTEX_MPU_M3_NUCLEO_L152RE_GCC/Demo/StreamBufferDemo.c:559:21
	ldr	r0, [sp, #204]
	adds	r0, r0, #1
	str	r0, [sp, #204]
	.loc	3 560 20                        @ ../../../CORTEX_MPU_M3_NUCLEO_L152RE_GCC/Demo/StreamBufferDemo.c:560:20
	ldr	r0, [sp, #200]
	subs	r0, r0, #1
	str	r0, [sp, #200]
	.loc	3 561 39                        @ ../../../CORTEX_MPU_M3_NUCLEO_L152RE_GCC/Demo/StreamBufferDemo.c:561:39
	ldr	r0, [sp, #220]
	.loc	3 561 65 is_stmt 0              @ ../../../CORTEX_MPU_M3_NUCLEO_L152RE_GCC/Demo/StreamBufferDemo.c:561:65
	ldr	r1, [sp, #112]
	.loc	3 561 17                        @ ../../../CORTEX_MPU_M3_NUCLEO_L152RE_GCC/Demo/StreamBufferDemo.c:561:17
	bl	MPU_xStreamBufferReceive
	.loc	3 561 15                        @ ../../../CORTEX_MPU_M3_NUCLEO_L152RE_GCC/Demo/StreamBufferDemo.c:561:15
	str	r0, [sp, #216]
	.loc	3 562 28 is_stmt 1              @ ../../../CORTEX_MPU_M3_NUCLEO_L152RE_GCC/Demo/StreamBufferDemo.c:562:28
	ldr	r0, [sp, #216]
	.loc	3 562 38 is_stmt 0              @ ../../../CORTEX_MPU_M3_NUCLEO_L152RE_GCC/Demo/StreamBufferDemo.c:562:38
	subs	r0, r0, #1
	rsbs	r1, r0, #0
	adcs	r0, r1
	.loc	3 562 5                         @ ../../../CORTEX_MPU_M3_NUCLEO_L152RE_GCC/Demo/StreamBufferDemo.c:562:5
	bl	prvCheckExpectedState
	.loc	3 563 47 is_stmt 1              @ ../../../CORTEX_MPU_M3_NUCLEO_L152RE_GCC/Demo/StreamBufferDemo.c:563:47
	ldr	r0, [sp, #220]
	.loc	3 563 17 is_stmt 0              @ ../../../CORTEX_MPU_M3_NUCLEO_L152RE_GCC/Demo/StreamBufferDemo.c:563:17
	bl	MPU_xStreamBufferSpacesAvailable
	.loc	3 563 15                        @ ../../../CORTEX_MPU_M3_NUCLEO_L152RE_GCC/Demo/StreamBufferDemo.c:563:15
	str	r0, [sp, #208]
	.loc	3 564 28 is_stmt 1              @ ../../../CORTEX_MPU_M3_NUCLEO_L152RE_GCC/Demo/StreamBufferDemo.c:564:28
	ldr	r0, [sp, #208]
	.loc	3 564 41 is_stmt 0              @ ../../../CORTEX_MPU_M3_NUCLEO_L152RE_GCC/Demo/StreamBufferDemo.c:564:41
	ldr	r1, [sp, #204]
	.loc	3 564 38                        @ ../../../CORTEX_MPU_M3_NUCLEO_L152RE_GCC/Demo/StreamBufferDemo.c:564:38
	subs	r0, r0, r1
	rsbs	r1, r0, #0
	adcs	r0, r1
	.loc	3 564 5                         @ ../../../CORTEX_MPU_M3_NUCLEO_L152RE_GCC/Demo/StreamBufferDemo.c:564:5
	bl	prvCheckExpectedState
	.loc	3 565 46 is_stmt 1              @ ../../../CORTEX_MPU_M3_NUCLEO_L152RE_GCC/Demo/StreamBufferDemo.c:565:46
	ldr	r0, [sp, #220]
	.loc	3 565 17 is_stmt 0              @ ../../../CORTEX_MPU_M3_NUCLEO_L152RE_GCC/Demo/StreamBufferDemo.c:565:17
	bl	MPU_xStreamBufferBytesAvailable
	.loc	3 565 15                        @ ../../../CORTEX_MPU_M3_NUCLEO_L152RE_GCC/Demo/StreamBufferDemo.c:565:15
	str	r0, [sp, #208]
	.loc	3 566 28 is_stmt 1              @ ../../../CORTEX_MPU_M3_NUCLEO_L152RE_GCC/Demo/StreamBufferDemo.c:566:28
	ldr	r0, [sp, #208]
	.loc	3 566 41 is_stmt 0              @ ../../../CORTEX_MPU_M3_NUCLEO_L152RE_GCC/Demo/StreamBufferDemo.c:566:41
	ldr	r1, [sp, #200]
	.loc	3 566 38                        @ ../../../CORTEX_MPU_M3_NUCLEO_L152RE_GCC/Demo/StreamBufferDemo.c:566:38
	subs	r0, r0, r1
	rsbs	r1, r0, #0
	adcs	r0, r1
	.loc	3 566 5                         @ ../../../CORTEX_MPU_M3_NUCLEO_L152RE_GCC/Demo/StreamBufferDemo.c:566:5
	bl	prvCheckExpectedState
	.loc	3 567 50 is_stmt 1              @ ../../../CORTEX_MPU_M3_NUCLEO_L152RE_GCC/Demo/StreamBufferDemo.c:567:50
	ldr	r0, [sp, #220]
	.loc	3 567 28 is_stmt 0              @ ../../../CORTEX_MPU_M3_NUCLEO_L152RE_GCC/Demo/StreamBufferDemo.c:567:28
	bl	MPU_xStreamBufferIsEmpty
	.loc	3 567 66                        @ ../../../CORTEX_MPU_M3_NUCLEO_L152RE_GCC/Demo/StreamBufferDemo.c:567:66
	rsbs	r1, r0, #0
	adcs	r0, r1
	.loc	3 567 5                         @ ../../../CORTEX_MPU_M3_NUCLEO_L152RE_GCC/Demo/StreamBufferDemo.c:567:5
	bl	prvCheckExpectedState
	.loc	3 568 49 is_stmt 1              @ ../../../CORTEX_MPU_M3_NUCLEO_L152RE_GCC/Demo/StreamBufferDemo.c:568:49
	ldr	r0, [sp, #220]
	.loc	3 568 28 is_stmt 0              @ ../../../CORTEX_MPU_M3_NUCLEO_L152RE_GCC/Demo/StreamBufferDemo.c:568:28
	bl	MPU_xStreamBufferIsFull
	.loc	3 568 65                        @ ../../../CORTEX_MPU_M3_NUCLEO_L152RE_GCC/Demo/StreamBufferDemo.c:568:65
	rsbs	r1, r0, #0
	adcs	r0, r1
	.loc	3 568 5                         @ ../../../CORTEX_MPU_M3_NUCLEO_L152RE_GCC/Demo/StreamBufferDemo.c:568:5
	bl	prvCheckExpectedState
	ldr	r2, [sp, #68]                   @ 4-byte Reload
	ldr	r3, [sp, #80]                   @ 4-byte Reload
	.loc	3 571 21 is_stmt 1              @ ../../../CORTEX_MPU_M3_NUCLEO_L152RE_GCC/Demo/StreamBufferDemo.c:571:21
	ldr	r0, [sp, #204]
	subs	r0, r0, #1
	str	r0, [sp, #204]
	.loc	3 572 20                        @ ../../../CORTEX_MPU_M3_NUCLEO_L152RE_GCC/Demo/StreamBufferDemo.c:572:20
	ldr	r0, [sp, #200]
	adds	r0, r0, #1
	str	r0, [sp, #200]
	.loc	3 573 36                        @ ../../../CORTEX_MPU_M3_NUCLEO_L152RE_GCC/Demo/StreamBufferDemo.c:573:36
	ldr	r0, [sp, #220]
	.loc	3 573 62 is_stmt 0              @ ../../../CORTEX_MPU_M3_NUCLEO_L152RE_GCC/Demo/StreamBufferDemo.c:573:62
	ldr	r1, [sp, #112]
	.loc	3 573 17                        @ ../../../CORTEX_MPU_M3_NUCLEO_L152RE_GCC/Demo/StreamBufferDemo.c:573:17
	bl	MPU_xStreamBufferSend
	.loc	3 573 15                        @ ../../../CORTEX_MPU_M3_NUCLEO_L152RE_GCC/Demo/StreamBufferDemo.c:573:15
	str	r0, [sp, #216]
	.loc	3 574 28 is_stmt 1              @ ../../../CORTEX_MPU_M3_NUCLEO_L152RE_GCC/Demo/StreamBufferDemo.c:574:28
	ldr	r0, [sp, #216]
	.loc	3 574 38 is_stmt 0              @ ../../../CORTEX_MPU_M3_NUCLEO_L152RE_GCC/Demo/StreamBufferDemo.c:574:38
	subs	r0, r0, #1
	rsbs	r1, r0, #0
	adcs	r0, r1
	.loc	3 574 5                         @ ../../../CORTEX_MPU_M3_NUCLEO_L152RE_GCC/Demo/StreamBufferDemo.c:574:5
	bl	prvCheckExpectedState
	.loc	3 575 47 is_stmt 1              @ ../../../CORTEX_MPU_M3_NUCLEO_L152RE_GCC/Demo/StreamBufferDemo.c:575:47
	ldr	r0, [sp, #220]
	.loc	3 575 17 is_stmt 0              @ ../../../CORTEX_MPU_M3_NUCLEO_L152RE_GCC/Demo/StreamBufferDemo.c:575:17
	bl	MPU_xStreamBufferSpacesAvailable
	.loc	3 575 15                        @ ../../../CORTEX_MPU_M3_NUCLEO_L152RE_GCC/Demo/StreamBufferDemo.c:575:15
	str	r0, [sp, #208]
	.loc	3 576 28 is_stmt 1              @ ../../../CORTEX_MPU_M3_NUCLEO_L152RE_GCC/Demo/StreamBufferDemo.c:576:28
	ldr	r0, [sp, #208]
	.loc	3 576 41 is_stmt 0              @ ../../../CORTEX_MPU_M3_NUCLEO_L152RE_GCC/Demo/StreamBufferDemo.c:576:41
	ldr	r1, [sp, #204]
	.loc	3 576 38                        @ ../../../CORTEX_MPU_M3_NUCLEO_L152RE_GCC/Demo/StreamBufferDemo.c:576:38
	subs	r0, r0, r1
	rsbs	r1, r0, #0
	adcs	r0, r1
	.loc	3 576 5                         @ ../../../CORTEX_MPU_M3_NUCLEO_L152RE_GCC/Demo/StreamBufferDemo.c:576:5
	bl	prvCheckExpectedState
	.loc	3 577 46 is_stmt 1              @ ../../../CORTEX_MPU_M3_NUCLEO_L152RE_GCC/Demo/StreamBufferDemo.c:577:46
	ldr	r0, [sp, #220]
	.loc	3 577 17 is_stmt 0              @ ../../../CORTEX_MPU_M3_NUCLEO_L152RE_GCC/Demo/StreamBufferDemo.c:577:17
	bl	MPU_xStreamBufferBytesAvailable
	.loc	3 577 15                        @ ../../../CORTEX_MPU_M3_NUCLEO_L152RE_GCC/Demo/StreamBufferDemo.c:577:15
	str	r0, [sp, #208]
	.loc	3 578 28 is_stmt 1              @ ../../../CORTEX_MPU_M3_NUCLEO_L152RE_GCC/Demo/StreamBufferDemo.c:578:28
	ldr	r0, [sp, #208]
	.loc	3 578 41 is_stmt 0              @ ../../../CORTEX_MPU_M3_NUCLEO_L152RE_GCC/Demo/StreamBufferDemo.c:578:41
	ldr	r1, [sp, #200]
	.loc	3 578 38                        @ ../../../CORTEX_MPU_M3_NUCLEO_L152RE_GCC/Demo/StreamBufferDemo.c:578:38
	subs	r0, r0, r1
	rsbs	r1, r0, #0
	adcs	r0, r1
	.loc	3 578 5                         @ ../../../CORTEX_MPU_M3_NUCLEO_L152RE_GCC/Demo/StreamBufferDemo.c:578:5
	bl	prvCheckExpectedState
	.loc	3 579 50 is_stmt 1              @ ../../../CORTEX_MPU_M3_NUCLEO_L152RE_GCC/Demo/StreamBufferDemo.c:579:50
	ldr	r0, [sp, #220]
	.loc	3 579 28 is_stmt 0              @ ../../../CORTEX_MPU_M3_NUCLEO_L152RE_GCC/Demo/StreamBufferDemo.c:579:28
	bl	MPU_xStreamBufferIsEmpty
	.loc	3 579 66                        @ ../../../CORTEX_MPU_M3_NUCLEO_L152RE_GCC/Demo/StreamBufferDemo.c:579:66
	rsbs	r1, r0, #0
	adcs	r0, r1
	.loc	3 579 5                         @ ../../../CORTEX_MPU_M3_NUCLEO_L152RE_GCC/Demo/StreamBufferDemo.c:579:5
	bl	prvCheckExpectedState
	.loc	3 580 49 is_stmt 1              @ ../../../CORTEX_MPU_M3_NUCLEO_L152RE_GCC/Demo/StreamBufferDemo.c:580:49
	ldr	r0, [sp, #220]
	.loc	3 580 28 is_stmt 0              @ ../../../CORTEX_MPU_M3_NUCLEO_L152RE_GCC/Demo/StreamBufferDemo.c:580:28
	bl	MPU_xStreamBufferIsFull
	.loc	3 580 65                        @ ../../../CORTEX_MPU_M3_NUCLEO_L152RE_GCC/Demo/StreamBufferDemo.c:580:65
	subs	r0, r0, #1
	rsbs	r1, r0, #0
	adcs	r0, r1
	.loc	3 580 5                         @ ../../../CORTEX_MPU_M3_NUCLEO_L152RE_GCC/Demo/StreamBufferDemo.c:580:5
	bl	prvCheckExpectedState
	ldr	r2, [sp, #64]                   @ 4-byte Reload
	ldr	r3, [sp, #80]                   @ 4-byte Reload
	.loc	3 584 21 is_stmt 1              @ ../../../CORTEX_MPU_M3_NUCLEO_L152RE_GCC/Demo/StreamBufferDemo.c:584:21
	ldr	r0, [sp, #204]
	adds	r0, #29
	str	r0, [sp, #204]
	.loc	3 585 20                        @ ../../../CORTEX_MPU_M3_NUCLEO_L152RE_GCC/Demo/StreamBufferDemo.c:585:20
	ldr	r0, [sp, #200]
	subs	r0, #29
	str	r0, [sp, #200]
	.loc	3 586 39                        @ ../../../CORTEX_MPU_M3_NUCLEO_L152RE_GCC/Demo/StreamBufferDemo.c:586:39
	ldr	r0, [sp, #220]
	.loc	3 586 65 is_stmt 0              @ ../../../CORTEX_MPU_M3_NUCLEO_L152RE_GCC/Demo/StreamBufferDemo.c:586:65
	ldr	r1, [sp, #112]
	.loc	3 586 17                        @ ../../../CORTEX_MPU_M3_NUCLEO_L152RE_GCC/Demo/StreamBufferDemo.c:586:17
	bl	MPU_xStreamBufferReceive
	.loc	3 586 15                        @ ../../../CORTEX_MPU_M3_NUCLEO_L152RE_GCC/Demo/StreamBufferDemo.c:586:15
	str	r0, [sp, #216]
	.loc	3 587 28 is_stmt 1              @ ../../../CORTEX_MPU_M3_NUCLEO_L152RE_GCC/Demo/StreamBufferDemo.c:587:28
	ldr	r0, [sp, #216]
	.loc	3 587 38 is_stmt 0              @ ../../../CORTEX_MPU_M3_NUCLEO_L152RE_GCC/Demo/StreamBufferDemo.c:587:38
	subs	r0, #29
	rsbs	r1, r0, #0
	adcs	r0, r1
	.loc	3 587 5                         @ ../../../CORTEX_MPU_M3_NUCLEO_L152RE_GCC/Demo/StreamBufferDemo.c:587:5
	bl	prvCheckExpectedState
	.loc	3 588 47 is_stmt 1              @ ../../../CORTEX_MPU_M3_NUCLEO_L152RE_GCC/Demo/StreamBufferDemo.c:588:47
	ldr	r0, [sp, #220]
	.loc	3 588 17 is_stmt 0              @ ../../../CORTEX_MPU_M3_NUCLEO_L152RE_GCC/Demo/StreamBufferDemo.c:588:17
	bl	MPU_xStreamBufferSpacesAvailable
	.loc	3 588 15                        @ ../../../CORTEX_MPU_M3_NUCLEO_L152RE_GCC/Demo/StreamBufferDemo.c:588:15
	str	r0, [sp, #208]
	.loc	3 589 28 is_stmt 1              @ ../../../CORTEX_MPU_M3_NUCLEO_L152RE_GCC/Demo/StreamBufferDemo.c:589:28
	ldr	r0, [sp, #208]
	.loc	3 589 41 is_stmt 0              @ ../../../CORTEX_MPU_M3_NUCLEO_L152RE_GCC/Demo/StreamBufferDemo.c:589:41
	ldr	r1, [sp, #204]
	.loc	3 589 38                        @ ../../../CORTEX_MPU_M3_NUCLEO_L152RE_GCC/Demo/StreamBufferDemo.c:589:38
	subs	r0, r0, r1
	rsbs	r1, r0, #0
	adcs	r0, r1
	.loc	3 589 5                         @ ../../../CORTEX_MPU_M3_NUCLEO_L152RE_GCC/Demo/StreamBufferDemo.c:589:5
	bl	prvCheckExpectedState
	.loc	3 590 46 is_stmt 1              @ ../../../CORTEX_MPU_M3_NUCLEO_L152RE_GCC/Demo/StreamBufferDemo.c:590:46
	ldr	r0, [sp, #220]
	.loc	3 590 17 is_stmt 0              @ ../../../CORTEX_MPU_M3_NUCLEO_L152RE_GCC/Demo/StreamBufferDemo.c:590:17
	bl	MPU_xStreamBufferBytesAvailable
	.loc	3 590 15                        @ ../../../CORTEX_MPU_M3_NUCLEO_L152RE_GCC/Demo/StreamBufferDemo.c:590:15
	str	r0, [sp, #208]
	.loc	3 591 28 is_stmt 1              @ ../../../CORTEX_MPU_M3_NUCLEO_L152RE_GCC/Demo/StreamBufferDemo.c:591:28
	ldr	r0, [sp, #208]
	.loc	3 591 41 is_stmt 0              @ ../../../CORTEX_MPU_M3_NUCLEO_L152RE_GCC/Demo/StreamBufferDemo.c:591:41
	ldr	r1, [sp, #200]
	.loc	3 591 38                        @ ../../../CORTEX_MPU_M3_NUCLEO_L152RE_GCC/Demo/StreamBufferDemo.c:591:38
	subs	r0, r0, r1
	rsbs	r1, r0, #0
	adcs	r0, r1
	.loc	3 591 5                         @ ../../../CORTEX_MPU_M3_NUCLEO_L152RE_GCC/Demo/StreamBufferDemo.c:591:5
	bl	prvCheckExpectedState
	.loc	3 592 50 is_stmt 1              @ ../../../CORTEX_MPU_M3_NUCLEO_L152RE_GCC/Demo/StreamBufferDemo.c:592:50
	ldr	r0, [sp, #220]
	.loc	3 592 28 is_stmt 0              @ ../../../CORTEX_MPU_M3_NUCLEO_L152RE_GCC/Demo/StreamBufferDemo.c:592:28
	bl	MPU_xStreamBufferIsEmpty
	.loc	3 592 66                        @ ../../../CORTEX_MPU_M3_NUCLEO_L152RE_GCC/Demo/StreamBufferDemo.c:592:66
	rsbs	r1, r0, #0
	adcs	r0, r1
	.loc	3 592 5                         @ ../../../CORTEX_MPU_M3_NUCLEO_L152RE_GCC/Demo/StreamBufferDemo.c:592:5
	bl	prvCheckExpectedState
	.loc	3 593 49 is_stmt 1              @ ../../../CORTEX_MPU_M3_NUCLEO_L152RE_GCC/Demo/StreamBufferDemo.c:593:49
	ldr	r0, [sp, #220]
	.loc	3 593 28 is_stmt 0              @ ../../../CORTEX_MPU_M3_NUCLEO_L152RE_GCC/Demo/StreamBufferDemo.c:593:28
	bl	MPU_xStreamBufferIsFull
	.loc	3 593 65                        @ ../../../CORTEX_MPU_M3_NUCLEO_L152RE_GCC/Demo/StreamBufferDemo.c:593:65
	rsbs	r1, r0, #0
	adcs	r0, r1
	.loc	3 593 5                         @ ../../../CORTEX_MPU_M3_NUCLEO_L152RE_GCC/Demo/StreamBufferDemo.c:593:5
	bl	prvCheckExpectedState
	ldr	r2, [sp, #68]                   @ 4-byte Reload
	ldr	r3, [sp, #80]                   @ 4-byte Reload
	.loc	3 597 21 is_stmt 1              @ ../../../CORTEX_MPU_M3_NUCLEO_L152RE_GCC/Demo/StreamBufferDemo.c:597:21
	ldr	r0, [sp, #204]
	adds	r0, r0, #1
	str	r0, [sp, #204]
	.loc	3 598 20                        @ ../../../CORTEX_MPU_M3_NUCLEO_L152RE_GCC/Demo/StreamBufferDemo.c:598:20
	ldr	r0, [sp, #200]
	subs	r0, r0, #1
	str	r0, [sp, #200]
	.loc	3 599 39                        @ ../../../CORTEX_MPU_M3_NUCLEO_L152RE_GCC/Demo/StreamBufferDemo.c:599:39
	ldr	r0, [sp, #220]
	.loc	3 599 65 is_stmt 0              @ ../../../CORTEX_MPU_M3_NUCLEO_L152RE_GCC/Demo/StreamBufferDemo.c:599:65
	ldr	r1, [sp, #112]
	.loc	3 599 17                        @ ../../../CORTEX_MPU_M3_NUCLEO_L152RE_GCC/Demo/StreamBufferDemo.c:599:17
	bl	MPU_xStreamBufferReceive
	.loc	3 599 15                        @ ../../../CORTEX_MPU_M3_NUCLEO_L152RE_GCC/Demo/StreamBufferDemo.c:599:15
	str	r0, [sp, #216]
	.loc	3 600 28 is_stmt 1              @ ../../../CORTEX_MPU_M3_NUCLEO_L152RE_GCC/Demo/StreamBufferDemo.c:600:28
	ldr	r0, [sp, #216]
	.loc	3 600 38 is_stmt 0              @ ../../../CORTEX_MPU_M3_NUCLEO_L152RE_GCC/Demo/StreamBufferDemo.c:600:38
	subs	r0, r0, #1
	rsbs	r1, r0, #0
	adcs	r0, r1
	.loc	3 600 5                         @ ../../../CORTEX_MPU_M3_NUCLEO_L152RE_GCC/Demo/StreamBufferDemo.c:600:5
	bl	prvCheckExpectedState
	.loc	3 601 47 is_stmt 1              @ ../../../CORTEX_MPU_M3_NUCLEO_L152RE_GCC/Demo/StreamBufferDemo.c:601:47
	ldr	r0, [sp, #220]
	.loc	3 601 17 is_stmt 0              @ ../../../CORTEX_MPU_M3_NUCLEO_L152RE_GCC/Demo/StreamBufferDemo.c:601:17
	bl	MPU_xStreamBufferSpacesAvailable
	.loc	3 601 15                        @ ../../../CORTEX_MPU_M3_NUCLEO_L152RE_GCC/Demo/StreamBufferDemo.c:601:15
	str	r0, [sp, #208]
	.loc	3 602 28 is_stmt 1              @ ../../../CORTEX_MPU_M3_NUCLEO_L152RE_GCC/Demo/StreamBufferDemo.c:602:28
	ldr	r0, [sp, #208]
	.loc	3 602 41 is_stmt 0              @ ../../../CORTEX_MPU_M3_NUCLEO_L152RE_GCC/Demo/StreamBufferDemo.c:602:41
	ldr	r1, [sp, #204]
	.loc	3 602 38                        @ ../../../CORTEX_MPU_M3_NUCLEO_L152RE_GCC/Demo/StreamBufferDemo.c:602:38
	subs	r0, r0, r1
	rsbs	r1, r0, #0
	adcs	r0, r1
	.loc	3 602 5                         @ ../../../CORTEX_MPU_M3_NUCLEO_L152RE_GCC/Demo/StreamBufferDemo.c:602:5
	bl	prvCheckExpectedState
	.loc	3 603 46 is_stmt 1              @ ../../../CORTEX_MPU_M3_NUCLEO_L152RE_GCC/Demo/StreamBufferDemo.c:603:46
	ldr	r0, [sp, #220]
	.loc	3 603 17 is_stmt 0              @ ../../../CORTEX_MPU_M3_NUCLEO_L152RE_GCC/Demo/StreamBufferDemo.c:603:17
	bl	MPU_xStreamBufferBytesAvailable
	.loc	3 603 15                        @ ../../../CORTEX_MPU_M3_NUCLEO_L152RE_GCC/Demo/StreamBufferDemo.c:603:15
	str	r0, [sp, #208]
	.loc	3 604 28 is_stmt 1              @ ../../../CORTEX_MPU_M3_NUCLEO_L152RE_GCC/Demo/StreamBufferDemo.c:604:28
	ldr	r0, [sp, #208]
	.loc	3 604 41 is_stmt 0              @ ../../../CORTEX_MPU_M3_NUCLEO_L152RE_GCC/Demo/StreamBufferDemo.c:604:41
	ldr	r1, [sp, #200]
	.loc	3 604 38                        @ ../../../CORTEX_MPU_M3_NUCLEO_L152RE_GCC/Demo/StreamBufferDemo.c:604:38
	subs	r0, r0, r1
	rsbs	r1, r0, #0
	adcs	r0, r1
	.loc	3 604 5                         @ ../../../CORTEX_MPU_M3_NUCLEO_L152RE_GCC/Demo/StreamBufferDemo.c:604:5
	bl	prvCheckExpectedState
	.loc	3 605 50 is_stmt 1              @ ../../../CORTEX_MPU_M3_NUCLEO_L152RE_GCC/Demo/StreamBufferDemo.c:605:50
	ldr	r0, [sp, #220]
	.loc	3 605 28 is_stmt 0              @ ../../../CORTEX_MPU_M3_NUCLEO_L152RE_GCC/Demo/StreamBufferDemo.c:605:28
	bl	MPU_xStreamBufferIsEmpty
	.loc	3 605 66                        @ ../../../CORTEX_MPU_M3_NUCLEO_L152RE_GCC/Demo/StreamBufferDemo.c:605:66
	subs	r0, r0, #1
	rsbs	r1, r0, #0
	adcs	r0, r1
	.loc	3 605 5                         @ ../../../CORTEX_MPU_M3_NUCLEO_L152RE_GCC/Demo/StreamBufferDemo.c:605:5
	bl	prvCheckExpectedState
	.loc	3 606 49 is_stmt 1              @ ../../../CORTEX_MPU_M3_NUCLEO_L152RE_GCC/Demo/StreamBufferDemo.c:606:49
	ldr	r0, [sp, #220]
	.loc	3 606 28 is_stmt 0              @ ../../../CORTEX_MPU_M3_NUCLEO_L152RE_GCC/Demo/StreamBufferDemo.c:606:28
	bl	MPU_xStreamBufferIsFull
	.loc	3 606 65                        @ ../../../CORTEX_MPU_M3_NUCLEO_L152RE_GCC/Demo/StreamBufferDemo.c:606:65
	rsbs	r1, r0, #0
	adcs	r0, r1
	.loc	3 606 5                         @ ../../../CORTEX_MPU_M3_NUCLEO_L152RE_GCC/Demo/StreamBufferDemo.c:606:5
	bl	prvCheckExpectedState
	ldr	r2, [sp, #72]                   @ 4-byte Reload
	ldr	r3, [sp, #80]                   @ 4-byte Reload
	.loc	3 610 36 is_stmt 1              @ ../../../CORTEX_MPU_M3_NUCLEO_L152RE_GCC/Demo/StreamBufferDemo.c:610:36
	ldr	r0, [sp, #220]
	.loc	3 610 62 is_stmt 0              @ ../../../CORTEX_MPU_M3_NUCLEO_L152RE_GCC/Demo/StreamBufferDemo.c:610:62
	ldr	r1, [sp, #112]
	mvns	r3, r3
	.loc	3 610 17                        @ ../../../CORTEX_MPU_M3_NUCLEO_L152RE_GCC/Demo/StreamBufferDemo.c:610:17
	str	r3, [sp, #76]                   @ 4-byte Spill
	bl	MPU_xStreamBufferSend
	mov	r1, r0
	.loc	3 610 15                        @ ../../../CORTEX_MPU_M3_NUCLEO_L152RE_GCC/Demo/StreamBufferDemo.c:610:15
	ldr	r0, [sp, #80]                   @ 4-byte Reload
	str	r1, [sp, #216]
	.loc	3 611 21 is_stmt 1              @ ../../../CORTEX_MPU_M3_NUCLEO_L152RE_GCC/Demo/StreamBufferDemo.c:611:21
	str	r0, [sp, #204]
	.loc	3 612 28                        @ ../../../CORTEX_MPU_M3_NUCLEO_L152RE_GCC/Demo/StreamBufferDemo.c:612:28
	ldr	r0, [sp, #216]
	.loc	3 612 38 is_stmt 0              @ ../../../CORTEX_MPU_M3_NUCLEO_L152RE_GCC/Demo/StreamBufferDemo.c:612:38
	subs	r0, #30
	rsbs	r1, r0, #0
	adcs	r0, r1
	.loc	3 612 5                         @ ../../../CORTEX_MPU_M3_NUCLEO_L152RE_GCC/Demo/StreamBufferDemo.c:612:5
	bl	prvCheckExpectedState
	.loc	3 613 47 is_stmt 1              @ ../../../CORTEX_MPU_M3_NUCLEO_L152RE_GCC/Demo/StreamBufferDemo.c:613:47
	ldr	r0, [sp, #220]
	.loc	3 613 17 is_stmt 0              @ ../../../CORTEX_MPU_M3_NUCLEO_L152RE_GCC/Demo/StreamBufferDemo.c:613:17
	bl	MPU_xStreamBufferSpacesAvailable
	.loc	3 613 15                        @ ../../../CORTEX_MPU_M3_NUCLEO_L152RE_GCC/Demo/StreamBufferDemo.c:613:15
	str	r0, [sp, #208]
	.loc	3 614 28 is_stmt 1              @ ../../../CORTEX_MPU_M3_NUCLEO_L152RE_GCC/Demo/StreamBufferDemo.c:614:28
	ldr	r0, [sp, #208]
	.loc	3 614 41 is_stmt 0              @ ../../../CORTEX_MPU_M3_NUCLEO_L152RE_GCC/Demo/StreamBufferDemo.c:614:41
	ldr	r1, [sp, #204]
	.loc	3 614 38                        @ ../../../CORTEX_MPU_M3_NUCLEO_L152RE_GCC/Demo/StreamBufferDemo.c:614:38
	subs	r0, r0, r1
	rsbs	r1, r0, #0
	adcs	r0, r1
	.loc	3 614 5                         @ ../../../CORTEX_MPU_M3_NUCLEO_L152RE_GCC/Demo/StreamBufferDemo.c:614:5
	bl	prvCheckExpectedState
	.loc	3 615 50 is_stmt 1              @ ../../../CORTEX_MPU_M3_NUCLEO_L152RE_GCC/Demo/StreamBufferDemo.c:615:50
	ldr	r0, [sp, #220]
	.loc	3 615 28 is_stmt 0              @ ../../../CORTEX_MPU_M3_NUCLEO_L152RE_GCC/Demo/StreamBufferDemo.c:615:28
	bl	MPU_xStreamBufferIsEmpty
	.loc	3 615 66                        @ ../../../CORTEX_MPU_M3_NUCLEO_L152RE_GCC/Demo/StreamBufferDemo.c:615:66
	rsbs	r1, r0, #0
	adcs	r0, r1
	.loc	3 615 5                         @ ../../../CORTEX_MPU_M3_NUCLEO_L152RE_GCC/Demo/StreamBufferDemo.c:615:5
	bl	prvCheckExpectedState
	.loc	3 616 49 is_stmt 1              @ ../../../CORTEX_MPU_M3_NUCLEO_L152RE_GCC/Demo/StreamBufferDemo.c:616:49
	ldr	r0, [sp, #220]
	.loc	3 616 28 is_stmt 0              @ ../../../CORTEX_MPU_M3_NUCLEO_L152RE_GCC/Demo/StreamBufferDemo.c:616:28
	bl	MPU_xStreamBufferIsFull
	.loc	3 616 65                        @ ../../../CORTEX_MPU_M3_NUCLEO_L152RE_GCC/Demo/StreamBufferDemo.c:616:65
	subs	r0, r0, #1
	rsbs	r1, r0, #0
	adcs	r0, r1
	.loc	3 616 5                         @ ../../../CORTEX_MPU_M3_NUCLEO_L152RE_GCC/Demo/StreamBufferDemo.c:616:5
	bl	prvCheckExpectedState
	ldr	r2, [sp, #72]                   @ 4-byte Reload
	ldr	r3, [sp, #76]                   @ 4-byte Reload
	.loc	3 621 39 is_stmt 1              @ ../../../CORTEX_MPU_M3_NUCLEO_L152RE_GCC/Demo/StreamBufferDemo.c:621:39
	ldr	r0, [sp, #220]
	.loc	3 621 65 is_stmt 0              @ ../../../CORTEX_MPU_M3_NUCLEO_L152RE_GCC/Demo/StreamBufferDemo.c:621:65
	ldr	r1, [sp, #112]
	.loc	3 621 17                        @ ../../../CORTEX_MPU_M3_NUCLEO_L152RE_GCC/Demo/StreamBufferDemo.c:621:17
	bl	MPU_xStreamBufferReceive
	.loc	3 621 15                        @ ../../../CORTEX_MPU_M3_NUCLEO_L152RE_GCC/Demo/StreamBufferDemo.c:621:15
	str	r0, [sp, #216]
	.loc	3 622 28 is_stmt 1              @ ../../../CORTEX_MPU_M3_NUCLEO_L152RE_GCC/Demo/StreamBufferDemo.c:622:28
	ldr	r0, [sp, #216]
	.loc	3 622 38 is_stmt 0              @ ../../../CORTEX_MPU_M3_NUCLEO_L152RE_GCC/Demo/StreamBufferDemo.c:622:38
	subs	r0, #30
	rsbs	r1, r0, #0
	adcs	r0, r1
	.loc	3 622 5                         @ ../../../CORTEX_MPU_M3_NUCLEO_L152RE_GCC/Demo/StreamBufferDemo.c:622:5
	bl	prvCheckExpectedState
	.loc	3 623 47 is_stmt 1              @ ../../../CORTEX_MPU_M3_NUCLEO_L152RE_GCC/Demo/StreamBufferDemo.c:623:47
	ldr	r0, [sp, #220]
	.loc	3 623 17 is_stmt 0              @ ../../../CORTEX_MPU_M3_NUCLEO_L152RE_GCC/Demo/StreamBufferDemo.c:623:17
	bl	MPU_xStreamBufferSpacesAvailable
	.loc	3 623 15                        @ ../../../CORTEX_MPU_M3_NUCLEO_L152RE_GCC/Demo/StreamBufferDemo.c:623:15
	str	r0, [sp, #208]
	.loc	3 624 28 is_stmt 1              @ ../../../CORTEX_MPU_M3_NUCLEO_L152RE_GCC/Demo/StreamBufferDemo.c:624:28
	ldr	r0, [sp, #208]
	.loc	3 624 38 is_stmt 0              @ ../../../CORTEX_MPU_M3_NUCLEO_L152RE_GCC/Demo/StreamBufferDemo.c:624:38
	subs	r0, #30
	rsbs	r1, r0, #0
	adcs	r0, r1
	.loc	3 624 5                         @ ../../../CORTEX_MPU_M3_NUCLEO_L152RE_GCC/Demo/StreamBufferDemo.c:624:5
	bl	prvCheckExpectedState
	.loc	3 625 46 is_stmt 1              @ ../../../CORTEX_MPU_M3_NUCLEO_L152RE_GCC/Demo/StreamBufferDemo.c:625:46
	ldr	r0, [sp, #220]
	.loc	3 625 17 is_stmt 0              @ ../../../CORTEX_MPU_M3_NUCLEO_L152RE_GCC/Demo/StreamBufferDemo.c:625:17
	bl	MPU_xStreamBufferBytesAvailable
	.loc	3 625 15                        @ ../../../CORTEX_MPU_M3_NUCLEO_L152RE_GCC/Demo/StreamBufferDemo.c:625:15
	str	r0, [sp, #208]
	.loc	3 626 28 is_stmt 1              @ ../../../CORTEX_MPU_M3_NUCLEO_L152RE_GCC/Demo/StreamBufferDemo.c:626:28
	ldr	r0, [sp, #208]
	.loc	3 626 38 is_stmt 0              @ ../../../CORTEX_MPU_M3_NUCLEO_L152RE_GCC/Demo/StreamBufferDemo.c:626:38
	rsbs	r1, r0, #0
	adcs	r0, r1
	.loc	3 626 5                         @ ../../../CORTEX_MPU_M3_NUCLEO_L152RE_GCC/Demo/StreamBufferDemo.c:626:5
	bl	prvCheckExpectedState
	.loc	3 627 50 is_stmt 1              @ ../../../CORTEX_MPU_M3_NUCLEO_L152RE_GCC/Demo/StreamBufferDemo.c:627:50
	ldr	r0, [sp, #220]
	.loc	3 627 28 is_stmt 0              @ ../../../CORTEX_MPU_M3_NUCLEO_L152RE_GCC/Demo/StreamBufferDemo.c:627:28
	bl	MPU_xStreamBufferIsEmpty
	.loc	3 627 66                        @ ../../../CORTEX_MPU_M3_NUCLEO_L152RE_GCC/Demo/StreamBufferDemo.c:627:66
	subs	r0, r0, #1
	rsbs	r1, r0, #0
	adcs	r0, r1
	.loc	3 627 5                         @ ../../../CORTEX_MPU_M3_NUCLEO_L152RE_GCC/Demo/StreamBufferDemo.c:627:5
	bl	prvCheckExpectedState
	.loc	3 628 49 is_stmt 1              @ ../../../CORTEX_MPU_M3_NUCLEO_L152RE_GCC/Demo/StreamBufferDemo.c:628:49
	ldr	r0, [sp, #220]
	.loc	3 628 28 is_stmt 0              @ ../../../CORTEX_MPU_M3_NUCLEO_L152RE_GCC/Demo/StreamBufferDemo.c:628:28
	bl	MPU_xStreamBufferIsFull
	.loc	3 628 65                        @ ../../../CORTEX_MPU_M3_NUCLEO_L152RE_GCC/Demo/StreamBufferDemo.c:628:65
	rsbs	r1, r0, #0
	adcs	r0, r1
	.loc	3 628 5                         @ ../../../CORTEX_MPU_M3_NUCLEO_L152RE_GCC/Demo/StreamBufferDemo.c:628:5
	bl	prvCheckExpectedState
	.loc	3 633 47 is_stmt 1              @ ../../../CORTEX_MPU_M3_NUCLEO_L152RE_GCC/Demo/StreamBufferDemo.c:633:47
	ldr	r0, [sp, #220]
	.loc	3 633 17 is_stmt 0              @ ../../../CORTEX_MPU_M3_NUCLEO_L152RE_GCC/Demo/StreamBufferDemo.c:633:17
	bl	MPU_xStreamBufferSpacesAvailable
	mov	r1, r0
	.loc	3 633 15                        @ ../../../CORTEX_MPU_M3_NUCLEO_L152RE_GCC/Demo/StreamBufferDemo.c:633:15
	ldr	r0, [sp, #80]                   @ 4-byte Reload
	str	r1, [sp, #208]
.Ltmp275:
	.loc	3 635 16 is_stmt 1              @ ../../../CORTEX_MPU_M3_NUCLEO_L152RE_GCC/Demo/StreamBufferDemo.c:635:16
	str	r0, [sp, #212]
	.loc	3 635 10 is_stmt 0              @ ../../../CORTEX_MPU_M3_NUCLEO_L152RE_GCC/Demo/StreamBufferDemo.c:635:10
	b	.LBB11_1
.LBB11_1:                               @ =>This Inner Loop Header: Depth=1
.Ltmp276:
	.loc	3 635 21                        @ ../../../CORTEX_MPU_M3_NUCLEO_L152RE_GCC/Demo/StreamBufferDemo.c:635:21
	ldr	r0, [sp, #212]
.Ltmp277:
	.loc	3 635 5                         @ ../../../CORTEX_MPU_M3_NUCLEO_L152RE_GCC/Demo/StreamBufferDemo.c:635:5
	cmp	r0, #4
	bhi	.LBB11_4
	b	.LBB11_2
.LBB11_2:                               @   in Loop: Header=BB11_1 Depth=1
.Ltmp278:
	.loc	3 637 53 is_stmt 1              @ ../../../CORTEX_MPU_M3_NUCLEO_L152RE_GCC/Demo/StreamBufferDemo.c:637:53
	ldr	r0, [sp, #220]
	.loc	3 637 32 is_stmt 0              @ ../../../CORTEX_MPU_M3_NUCLEO_L152RE_GCC/Demo/StreamBufferDemo.c:637:32
	bl	MPU_xStreamBufferIsFull
	.loc	3 637 69                        @ ../../../CORTEX_MPU_M3_NUCLEO_L152RE_GCC/Demo/StreamBufferDemo.c:637:69
	rsbs	r1, r0, #0
	adcs	r0, r1
	.loc	3 637 9                         @ ../../../CORTEX_MPU_M3_NUCLEO_L152RE_GCC/Demo/StreamBufferDemo.c:637:9
	bl	prvCheckExpectedState
	.loc	3 645 28 is_stmt 1              @ ../../../CORTEX_MPU_M3_NUCLEO_L152RE_GCC/Demo/StreamBufferDemo.c:645:28
	ldr	r1, [sp, #112]
	.loc	3 645 63 is_stmt 0              @ ../../../CORTEX_MPU_M3_NUCLEO_L152RE_GCC/Demo/StreamBufferDemo.c:645:63
	ldr	r0, [sp, #212]
	.loc	3 645 9                         @ ../../../CORTEX_MPU_M3_NUCLEO_L152RE_GCC/Demo/StreamBufferDemo.c:645:9
	adds	r0, #48
	strb	r0, [r1, #5]
	strb	r0, [r1, #4]
	strb	r0, [r1, #3]
	strb	r0, [r1, #2]
	strb	r0, [r1, #1]
	strb	r0, [r1]
	.loc	3 646 9 is_stmt 1               @ ../../../CORTEX_MPU_M3_NUCLEO_L152RE_GCC/Demo/StreamBufferDemo.c:646:9
	bl	vPortEnterCritical
.Ltmp279:
	.loc	3 648 51                        @ ../../../CORTEX_MPU_M3_NUCLEO_L152RE_GCC/Demo/StreamBufferDemo.c:648:51
	ldr	r0, [sp, #220]
	.loc	3 648 77 is_stmt 0              @ ../../../CORTEX_MPU_M3_NUCLEO_L152RE_GCC/Demo/StreamBufferDemo.c:648:77
	ldr	r1, [sp, #112]
	movs	r2, #6
	str	r2, [sp, #60]                   @ 4-byte Spill
	movs	r3, #0
	.loc	3 648 25                        @ ../../../CORTEX_MPU_M3_NUCLEO_L152RE_GCC/Demo/StreamBufferDemo.c:648:25
	bl	xStreamBufferSendFromISR
	.loc	3 648 23                        @ ../../../CORTEX_MPU_M3_NUCLEO_L152RE_GCC/Demo/StreamBufferDemo.c:648:23
	str	r0, [sp, #216]
.Ltmp280:
	.loc	3 650 9 is_stmt 1               @ ../../../CORTEX_MPU_M3_NUCLEO_L152RE_GCC/Demo/StreamBufferDemo.c:650:9
	bl	vPortExitCritical
	.loc	3 651 32                        @ ../../../CORTEX_MPU_M3_NUCLEO_L152RE_GCC/Demo/StreamBufferDemo.c:651:32
	ldr	r0, [sp, #216]
	.loc	3 651 42 is_stmt 0              @ ../../../CORTEX_MPU_M3_NUCLEO_L152RE_GCC/Demo/StreamBufferDemo.c:651:42
	subs	r0, r0, #6
	rsbs	r1, r0, #0
	adcs	r0, r1
	.loc	3 651 9                         @ ../../../CORTEX_MPU_M3_NUCLEO_L152RE_GCC/Demo/StreamBufferDemo.c:651:9
	bl	prvCheckExpectedState
	.loc	3 655 19 is_stmt 1              @ ../../../CORTEX_MPU_M3_NUCLEO_L152RE_GCC/Demo/StreamBufferDemo.c:655:19
	ldr	r0, [sp, #208]
	subs	r0, r0, #6
	str	r0, [sp, #208]
	.loc	3 656 51                        @ ../../../CORTEX_MPU_M3_NUCLEO_L152RE_GCC/Demo/StreamBufferDemo.c:656:51
	ldr	r0, [sp, #220]
	.loc	3 656 21 is_stmt 0              @ ../../../CORTEX_MPU_M3_NUCLEO_L152RE_GCC/Demo/StreamBufferDemo.c:656:21
	bl	MPU_xStreamBufferSpacesAvailable
	.loc	3 656 19                        @ ../../../CORTEX_MPU_M3_NUCLEO_L152RE_GCC/Demo/StreamBufferDemo.c:656:19
	str	r0, [sp, #216]
	.loc	3 657 32 is_stmt 1              @ ../../../CORTEX_MPU_M3_NUCLEO_L152RE_GCC/Demo/StreamBufferDemo.c:657:32
	ldr	r0, [sp, #216]
	.loc	3 657 45 is_stmt 0              @ ../../../CORTEX_MPU_M3_NUCLEO_L152RE_GCC/Demo/StreamBufferDemo.c:657:45
	ldr	r1, [sp, #208]
	.loc	3 657 42                        @ ../../../CORTEX_MPU_M3_NUCLEO_L152RE_GCC/Demo/StreamBufferDemo.c:657:42
	subs	r0, r0, r1
	rsbs	r1, r0, #0
	adcs	r0, r1
	.loc	3 657 9                         @ ../../../CORTEX_MPU_M3_NUCLEO_L152RE_GCC/Demo/StreamBufferDemo.c:657:9
	bl	prvCheckExpectedState
	.loc	3 658 50 is_stmt 1              @ ../../../CORTEX_MPU_M3_NUCLEO_L152RE_GCC/Demo/StreamBufferDemo.c:658:50
	ldr	r0, [sp, #220]
	.loc	3 658 21 is_stmt 0              @ ../../../CORTEX_MPU_M3_NUCLEO_L152RE_GCC/Demo/StreamBufferDemo.c:658:21
	bl	MPU_xStreamBufferBytesAvailable
	ldr	r1, [sp, #60]                   @ 4-byte Reload
	.loc	3 658 19                        @ ../../../CORTEX_MPU_M3_NUCLEO_L152RE_GCC/Demo/StreamBufferDemo.c:658:19
	str	r0, [sp, #216]
	.loc	3 660 32 is_stmt 1              @ ../../../CORTEX_MPU_M3_NUCLEO_L152RE_GCC/Demo/StreamBufferDemo.c:660:32
	ldr	r0, [sp, #216]
	.loc	3 660 49 is_stmt 0              @ ../../../CORTEX_MPU_M3_NUCLEO_L152RE_GCC/Demo/StreamBufferDemo.c:660:49
	ldr	r2, [sp, #212]
	.loc	3 660 55                        @ ../../../CORTEX_MPU_M3_NUCLEO_L152RE_GCC/Demo/StreamBufferDemo.c:660:55
	muls	r1, r2, r1
	.loc	3 660 42                        @ ../../../CORTEX_MPU_M3_NUCLEO_L152RE_GCC/Demo/StreamBufferDemo.c:660:42
	subs	r0, r0, r1
	subs	r0, r0, #6
	rsbs	r1, r0, #0
	adcs	r0, r1
	.loc	3 660 9                         @ ../../../CORTEX_MPU_M3_NUCLEO_L152RE_GCC/Demo/StreamBufferDemo.c:660:9
	bl	prvCheckExpectedState
	.loc	3 661 5 is_stmt 1               @ ../../../CORTEX_MPU_M3_NUCLEO_L152RE_GCC/Demo/StreamBufferDemo.c:661:5
	b	.LBB11_3
.Ltmp281:
.LBB11_3:                               @   in Loop: Header=BB11_1 Depth=1
	.loc	3 635 53                        @ ../../../CORTEX_MPU_M3_NUCLEO_L152RE_GCC/Demo/StreamBufferDemo.c:635:53
	ldr	r0, [sp, #212]
	adds	r0, r0, #1
	str	r0, [sp, #212]
	.loc	3 635 5 is_stmt 0               @ ../../../CORTEX_MPU_M3_NUCLEO_L152RE_GCC/Demo/StreamBufferDemo.c:635:5
	b	.LBB11_1
.Ltmp282:
.LBB11_4:
	.loc	3 664 49 is_stmt 1              @ ../../../CORTEX_MPU_M3_NUCLEO_L152RE_GCC/Demo/StreamBufferDemo.c:664:49
	ldr	r0, [sp, #220]
	.loc	3 664 28 is_stmt 0              @ ../../../CORTEX_MPU_M3_NUCLEO_L152RE_GCC/Demo/StreamBufferDemo.c:664:28
	bl	MPU_xStreamBufferIsFull
	.loc	3 664 65                        @ ../../../CORTEX_MPU_M3_NUCLEO_L152RE_GCC/Demo/StreamBufferDemo.c:664:65
	subs	r0, r0, #1
	rsbs	r1, r0, #0
	adcs	r0, r1
	.loc	3 664 5                         @ ../../../CORTEX_MPU_M3_NUCLEO_L152RE_GCC/Demo/StreamBufferDemo.c:664:5
	bl	prvCheckExpectedState
	.loc	3 665 36 is_stmt 1              @ ../../../CORTEX_MPU_M3_NUCLEO_L152RE_GCC/Demo/StreamBufferDemo.c:665:36
	ldr	r0, [sp, #220]
	.loc	3 665 62 is_stmt 0              @ ../../../CORTEX_MPU_M3_NUCLEO_L152RE_GCC/Demo/StreamBufferDemo.c:665:62
	ldr	r1, [sp, #112]
	movs	r2, #1
	str	r2, [sp, #52]                   @ 4-byte Spill
	movs	r3, #0
	.loc	3 665 17                        @ ../../../CORTEX_MPU_M3_NUCLEO_L152RE_GCC/Demo/StreamBufferDemo.c:665:17
	str	r3, [sp, #56]                   @ 4-byte Spill
	bl	MPU_xStreamBufferSend
	.loc	3 665 15                        @ ../../../CORTEX_MPU_M3_NUCLEO_L152RE_GCC/Demo/StreamBufferDemo.c:665:15
	str	r0, [sp, #216]
	.loc	3 666 28 is_stmt 1              @ ../../../CORTEX_MPU_M3_NUCLEO_L152RE_GCC/Demo/StreamBufferDemo.c:666:28
	ldr	r0, [sp, #216]
	.loc	3 666 38 is_stmt 0              @ ../../../CORTEX_MPU_M3_NUCLEO_L152RE_GCC/Demo/StreamBufferDemo.c:666:38
	rsbs	r1, r0, #0
	adcs	r0, r1
	.loc	3 666 5                         @ ../../../CORTEX_MPU_M3_NUCLEO_L152RE_GCC/Demo/StreamBufferDemo.c:666:5
	bl	prvCheckExpectedState
	ldr	r0, [sp, #56]                   @ 4-byte Reload
	.loc	3 671 26 is_stmt 1              @ ../../../CORTEX_MPU_M3_NUCLEO_L152RE_GCC/Demo/StreamBufferDemo.c:671:26
	bl	MPU_uxTaskPriorityGet
	mov	r1, r0
	.loc	3 671 24 is_stmt 0              @ ../../../CORTEX_MPU_M3_NUCLEO_L152RE_GCC/Demo/StreamBufferDemo.c:671:24
	ldr	r0, [sp, #56]                   @ 4-byte Reload
	str	r1, [sp, #84]
	movs	r1, #4
	.loc	3 672 5 is_stmt 1               @ ../../../CORTEX_MPU_M3_NUCLEO_L152RE_GCC/Demo/StreamBufferDemo.c:672:5
	bl	MPU_vTaskPrioritySet
	.loc	3 673 23                        @ ../../../CORTEX_MPU_M3_NUCLEO_L152RE_GCC/Demo/StreamBufferDemo.c:673:23
	bl	MPU_xTaskGetTickCount
	ldr	r3, [sp, #52]                   @ 4-byte Reload
	.loc	3 673 21 is_stmt 0              @ ../../../CORTEX_MPU_M3_NUCLEO_L152RE_GCC/Demo/StreamBufferDemo.c:673:21
	str	r0, [sp, #104]
	.loc	3 674 36 is_stmt 1              @ ../../../CORTEX_MPU_M3_NUCLEO_L152RE_GCC/Demo/StreamBufferDemo.c:674:36
	ldr	r0, [sp, #220]
	.loc	3 674 62 is_stmt 0              @ ../../../CORTEX_MPU_M3_NUCLEO_L152RE_GCC/Demo/StreamBufferDemo.c:674:62
	ldr	r1, [sp, #112]
	.loc	3 674 17                        @ ../../../CORTEX_MPU_M3_NUCLEO_L152RE_GCC/Demo/StreamBufferDemo.c:674:17
	mov	r2, r3
	bl	MPU_xStreamBufferSend
	.loc	3 674 15                        @ ../../../CORTEX_MPU_M3_NUCLEO_L152RE_GCC/Demo/StreamBufferDemo.c:674:15
	str	r0, [sp, #216]
	.loc	3 675 22 is_stmt 1              @ ../../../CORTEX_MPU_M3_NUCLEO_L152RE_GCC/Demo/StreamBufferDemo.c:675:22
	bl	MPU_xTaskGetTickCount
	mov	r1, r0
	.loc	3 675 20 is_stmt 0              @ ../../../CORTEX_MPU_M3_NUCLEO_L152RE_GCC/Demo/StreamBufferDemo.c:675:20
	ldr	r0, [sp, #56]                   @ 4-byte Reload
	str	r1, [sp, #100]
	.loc	3 676 29 is_stmt 1              @ ../../../CORTEX_MPU_M3_NUCLEO_L152RE_GCC/Demo/StreamBufferDemo.c:676:29
	ldr	r1, [sp, #84]
	.loc	3 676 5 is_stmt 0               @ ../../../CORTEX_MPU_M3_NUCLEO_L152RE_GCC/Demo/StreamBufferDemo.c:676:5
	bl	MPU_vTaskPrioritySet
	.loc	3 677 47 is_stmt 1              @ ../../../CORTEX_MPU_M3_NUCLEO_L152RE_GCC/Demo/StreamBufferDemo.c:677:47
	ldr	r0, [sp, #100]
	.loc	3 677 64 is_stmt 0              @ ../../../CORTEX_MPU_M3_NUCLEO_L152RE_GCC/Demo/StreamBufferDemo.c:677:64
	ldr	r1, [sp, #104]
	.loc	3 677 62                        @ ../../../CORTEX_MPU_M3_NUCLEO_L152RE_GCC/Demo/StreamBufferDemo.c:677:62
	subs	r0, r0, r1
	.loc	3 677 84                        @ ../../../CORTEX_MPU_M3_NUCLEO_L152RE_GCC/Demo/StreamBufferDemo.c:677:84
	subs	r1, r0, #1
	sbcs	r0, r1
	.loc	3 677 5                         @ ../../../CORTEX_MPU_M3_NUCLEO_L152RE_GCC/Demo/StreamBufferDemo.c:677:5
	bl	prvCheckExpectedState
	.loc	3 678 47 is_stmt 1              @ ../../../CORTEX_MPU_M3_NUCLEO_L152RE_GCC/Demo/StreamBufferDemo.c:678:47
	ldr	r0, [sp, #100]
	.loc	3 678 64 is_stmt 0              @ ../../../CORTEX_MPU_M3_NUCLEO_L152RE_GCC/Demo/StreamBufferDemo.c:678:64
	ldr	r1, [sp, #104]
	.loc	3 678 62                        @ ../../../CORTEX_MPU_M3_NUCLEO_L152RE_GCC/Demo/StreamBufferDemo.c:678:62
	subs	r0, r0, r1
	.loc	3 678 84                        @ ../../../CORTEX_MPU_M3_NUCLEO_L152RE_GCC/Demo/StreamBufferDemo.c:678:84
	rsbs	r1, r0, #0
	adcs	r0, r1
	.loc	3 678 5                         @ ../../../CORTEX_MPU_M3_NUCLEO_L152RE_GCC/Demo/StreamBufferDemo.c:678:5
	bl	prvCheckExpectedState
	.loc	3 679 28 is_stmt 1              @ ../../../CORTEX_MPU_M3_NUCLEO_L152RE_GCC/Demo/StreamBufferDemo.c:679:28
	ldr	r0, [sp, #216]
	.loc	3 679 38 is_stmt 0              @ ../../../CORTEX_MPU_M3_NUCLEO_L152RE_GCC/Demo/StreamBufferDemo.c:679:38
	rsbs	r1, r0, #0
	adcs	r0, r1
	.loc	3 679 5                         @ ../../../CORTEX_MPU_M3_NUCLEO_L152RE_GCC/Demo/StreamBufferDemo.c:679:5
	bl	prvCheckExpectedState
	ldr	r0, [sp, #56]                   @ 4-byte Reload
.Ltmp283:
	.loc	3 683 16 is_stmt 1              @ ../../../CORTEX_MPU_M3_NUCLEO_L152RE_GCC/Demo/StreamBufferDemo.c:683:16
	str	r0, [sp, #212]
	.loc	3 683 10 is_stmt 0              @ ../../../CORTEX_MPU_M3_NUCLEO_L152RE_GCC/Demo/StreamBufferDemo.c:683:10
	b	.LBB11_5
.LBB11_5:                               @ =>This Inner Loop Header: Depth=1
.Ltmp284:
	.loc	3 683 21                        @ ../../../CORTEX_MPU_M3_NUCLEO_L152RE_GCC/Demo/StreamBufferDemo.c:683:21
	ldr	r0, [sp, #212]
.Ltmp285:
	.loc	3 683 5                         @ ../../../CORTEX_MPU_M3_NUCLEO_L152RE_GCC/Demo/StreamBufferDemo.c:683:5
	cmp	r0, #4
	bhi	.LBB11_8
	b	.LBB11_6
.LBB11_6:                               @   in Loop: Header=BB11_5 Depth=1
.Ltmp286:
	.loc	3 687 28 is_stmt 1              @ ../../../CORTEX_MPU_M3_NUCLEO_L152RE_GCC/Demo/StreamBufferDemo.c:687:28
	ldr	r1, [sp, #112]
	.loc	3 687 63 is_stmt 0              @ ../../../CORTEX_MPU_M3_NUCLEO_L152RE_GCC/Demo/StreamBufferDemo.c:687:63
	ldr	r0, [sp, #212]
	.loc	3 687 9                         @ ../../../CORTEX_MPU_M3_NUCLEO_L152RE_GCC/Demo/StreamBufferDemo.c:687:9
	adds	r0, #48
	strb	r0, [r1, #5]
	strb	r0, [r1, #4]
	strb	r0, [r1, #3]
	strb	r0, [r1, #2]
	strb	r0, [r1, #1]
	strb	r0, [r1]
	.loc	3 693 9 is_stmt 1               @ ../../../CORTEX_MPU_M3_NUCLEO_L152RE_GCC/Demo/StreamBufferDemo.c:693:9
	bl	vPortEnterCritical
.Ltmp287:
	.loc	3 695 54                        @ ../../../CORTEX_MPU_M3_NUCLEO_L152RE_GCC/Demo/StreamBufferDemo.c:695:54
	ldr	r0, [sp, #220]
	.loc	3 695 80 is_stmt 0              @ ../../../CORTEX_MPU_M3_NUCLEO_L152RE_GCC/Demo/StreamBufferDemo.c:695:80
	ldr	r1, [sp, #108]
	movs	r2, #6
	str	r2, [sp, #48]                   @ 4-byte Spill
	movs	r3, #0
	.loc	3 695 25                        @ ../../../CORTEX_MPU_M3_NUCLEO_L152RE_GCC/Demo/StreamBufferDemo.c:695:25
	bl	xStreamBufferReceiveFromISR
	.loc	3 695 23                        @ ../../../CORTEX_MPU_M3_NUCLEO_L152RE_GCC/Demo/StreamBufferDemo.c:695:23
	str	r0, [sp, #216]
.Ltmp288:
	.loc	3 697 9 is_stmt 1               @ ../../../CORTEX_MPU_M3_NUCLEO_L152RE_GCC/Demo/StreamBufferDemo.c:697:9
	bl	vPortExitCritical
	.loc	3 698 32                        @ ../../../CORTEX_MPU_M3_NUCLEO_L152RE_GCC/Demo/StreamBufferDemo.c:698:32
	ldr	r0, [sp, #216]
	.loc	3 698 42 is_stmt 0              @ ../../../CORTEX_MPU_M3_NUCLEO_L152RE_GCC/Demo/StreamBufferDemo.c:698:42
	subs	r0, r0, #6
	rsbs	r1, r0, #0
	adcs	r0, r1
	.loc	3 698 9                         @ ../../../CORTEX_MPU_M3_NUCLEO_L152RE_GCC/Demo/StreamBufferDemo.c:698:9
	bl	prvCheckExpectedState
	ldr	r2, [sp, #48]                   @ 4-byte Reload
	.loc	3 701 51 is_stmt 1              @ ../../../CORTEX_MPU_M3_NUCLEO_L152RE_GCC/Demo/StreamBufferDemo.c:701:51
	ldr	r0, [sp, #112]
	.loc	3 701 71 is_stmt 0              @ ../../../CORTEX_MPU_M3_NUCLEO_L152RE_GCC/Demo/StreamBufferDemo.c:701:71
	ldr	r1, [sp, #108]
	.loc	3 701 32                        @ ../../../CORTEX_MPU_M3_NUCLEO_L152RE_GCC/Demo/StreamBufferDemo.c:701:32
	bl	memcmp
	.loc	3 701 99                        @ ../../../CORTEX_MPU_M3_NUCLEO_L152RE_GCC/Demo/StreamBufferDemo.c:701:99
	rsbs	r1, r0, #0
	adcs	r0, r1
	.loc	3 701 9                         @ ../../../CORTEX_MPU_M3_NUCLEO_L152RE_GCC/Demo/StreamBufferDemo.c:701:9
	bl	prvCheckExpectedState
	.loc	3 705 19 is_stmt 1              @ ../../../CORTEX_MPU_M3_NUCLEO_L152RE_GCC/Demo/StreamBufferDemo.c:705:19
	ldr	r0, [sp, #208]
	adds	r0, r0, #6
	str	r0, [sp, #208]
	.loc	3 706 51                        @ ../../../CORTEX_MPU_M3_NUCLEO_L152RE_GCC/Demo/StreamBufferDemo.c:706:51
	ldr	r0, [sp, #220]
	.loc	3 706 21 is_stmt 0              @ ../../../CORTEX_MPU_M3_NUCLEO_L152RE_GCC/Demo/StreamBufferDemo.c:706:21
	bl	MPU_xStreamBufferSpacesAvailable
	.loc	3 706 19                        @ ../../../CORTEX_MPU_M3_NUCLEO_L152RE_GCC/Demo/StreamBufferDemo.c:706:19
	str	r0, [sp, #216]
	.loc	3 707 32 is_stmt 1              @ ../../../CORTEX_MPU_M3_NUCLEO_L152RE_GCC/Demo/StreamBufferDemo.c:707:32
	ldr	r0, [sp, #216]
	.loc	3 707 45 is_stmt 0              @ ../../../CORTEX_MPU_M3_NUCLEO_L152RE_GCC/Demo/StreamBufferDemo.c:707:45
	ldr	r1, [sp, #208]
	.loc	3 707 42                        @ ../../../CORTEX_MPU_M3_NUCLEO_L152RE_GCC/Demo/StreamBufferDemo.c:707:42
	subs	r0, r0, r1
	rsbs	r1, r0, #0
	adcs	r0, r1
	.loc	3 707 9                         @ ../../../CORTEX_MPU_M3_NUCLEO_L152RE_GCC/Demo/StreamBufferDemo.c:707:9
	bl	prvCheckExpectedState
	.loc	3 708 50 is_stmt 1              @ ../../../CORTEX_MPU_M3_NUCLEO_L152RE_GCC/Demo/StreamBufferDemo.c:708:50
	ldr	r0, [sp, #220]
	.loc	3 708 21 is_stmt 0              @ ../../../CORTEX_MPU_M3_NUCLEO_L152RE_GCC/Demo/StreamBufferDemo.c:708:21
	bl	MPU_xStreamBufferBytesAvailable
	.loc	3 708 19                        @ ../../../CORTEX_MPU_M3_NUCLEO_L152RE_GCC/Demo/StreamBufferDemo.c:708:19
	str	r0, [sp, #216]
	.loc	3 709 32 is_stmt 1              @ ../../../CORTEX_MPU_M3_NUCLEO_L152RE_GCC/Demo/StreamBufferDemo.c:709:32
	ldr	r1, [sp, #216]
	.loc	3 709 78 is_stmt 0              @ ../../../CORTEX_MPU_M3_NUCLEO_L152RE_GCC/Demo/StreamBufferDemo.c:709:78
	ldr	r0, [sp, #208]
	.loc	3 709 42                        @ ../../../CORTEX_MPU_M3_NUCLEO_L152RE_GCC/Demo/StreamBufferDemo.c:709:42
	adds	r0, r0, r1
	subs	r0, #30
	rsbs	r1, r0, #0
	adcs	r0, r1
	.loc	3 709 9                         @ ../../../CORTEX_MPU_M3_NUCLEO_L152RE_GCC/Demo/StreamBufferDemo.c:709:9
	bl	prvCheckExpectedState
	.loc	3 710 5 is_stmt 1               @ ../../../CORTEX_MPU_M3_NUCLEO_L152RE_GCC/Demo/StreamBufferDemo.c:710:5
	b	.LBB11_7
.Ltmp289:
.LBB11_7:                               @   in Loop: Header=BB11_5 Depth=1
	.loc	3 683 53                        @ ../../../CORTEX_MPU_M3_NUCLEO_L152RE_GCC/Demo/StreamBufferDemo.c:683:53
	ldr	r0, [sp, #212]
	adds	r0, r0, #1
	str	r0, [sp, #212]
	.loc	3 683 5 is_stmt 0               @ ../../../CORTEX_MPU_M3_NUCLEO_L152RE_GCC/Demo/StreamBufferDemo.c:683:5
	b	.LBB11_5
.Ltmp290:
.LBB11_8:
	.loc	3 713 50 is_stmt 1              @ ../../../CORTEX_MPU_M3_NUCLEO_L152RE_GCC/Demo/StreamBufferDemo.c:713:50
	ldr	r0, [sp, #220]
	.loc	3 713 28 is_stmt 0              @ ../../../CORTEX_MPU_M3_NUCLEO_L152RE_GCC/Demo/StreamBufferDemo.c:713:28
	bl	MPU_xStreamBufferIsEmpty
	.loc	3 713 66                        @ ../../../CORTEX_MPU_M3_NUCLEO_L152RE_GCC/Demo/StreamBufferDemo.c:713:66
	subs	r0, r0, #1
	rsbs	r1, r0, #0
	adcs	r0, r1
	.loc	3 713 5                         @ ../../../CORTEX_MPU_M3_NUCLEO_L152RE_GCC/Demo/StreamBufferDemo.c:713:5
	bl	prvCheckExpectedState
	.loc	3 714 47 is_stmt 1              @ ../../../CORTEX_MPU_M3_NUCLEO_L152RE_GCC/Demo/StreamBufferDemo.c:714:47
	ldr	r0, [sp, #220]
	.loc	3 714 17 is_stmt 0              @ ../../../CORTEX_MPU_M3_NUCLEO_L152RE_GCC/Demo/StreamBufferDemo.c:714:17
	bl	MPU_xStreamBufferSpacesAvailable
	.loc	3 714 15                        @ ../../../CORTEX_MPU_M3_NUCLEO_L152RE_GCC/Demo/StreamBufferDemo.c:714:15
	str	r0, [sp, #208]
	.loc	3 715 28 is_stmt 1              @ ../../../CORTEX_MPU_M3_NUCLEO_L152RE_GCC/Demo/StreamBufferDemo.c:715:28
	ldr	r0, [sp, #208]
	.loc	3 715 38 is_stmt 0              @ ../../../CORTEX_MPU_M3_NUCLEO_L152RE_GCC/Demo/StreamBufferDemo.c:715:38
	subs	r0, #30
	rsbs	r1, r0, #0
	adcs	r0, r1
	.loc	3 715 5                         @ ../../../CORTEX_MPU_M3_NUCLEO_L152RE_GCC/Demo/StreamBufferDemo.c:715:5
	bl	prvCheckExpectedState
	movs	r0, #0
	str	r0, [sp, #44]                   @ 4-byte Spill
	movs	r1, #4
	.loc	3 720 5 is_stmt 1               @ ../../../CORTEX_MPU_M3_NUCLEO_L152RE_GCC/Demo/StreamBufferDemo.c:720:5
	bl	MPU_vTaskPrioritySet
	.loc	3 721 23                        @ ../../../CORTEX_MPU_M3_NUCLEO_L152RE_GCC/Demo/StreamBufferDemo.c:721:23
	bl	MPU_xTaskGetTickCount
	.loc	3 721 21 is_stmt 0              @ ../../../CORTEX_MPU_M3_NUCLEO_L152RE_GCC/Demo/StreamBufferDemo.c:721:21
	str	r0, [sp, #104]
	.loc	3 722 39 is_stmt 1              @ ../../../CORTEX_MPU_M3_NUCLEO_L152RE_GCC/Demo/StreamBufferDemo.c:722:39
	ldr	r0, [sp, #220]
	.loc	3 722 65 is_stmt 0              @ ../../../CORTEX_MPU_M3_NUCLEO_L152RE_GCC/Demo/StreamBufferDemo.c:722:65
	ldr	r1, [sp, #108]
	movs	r2, #6
	movs	r3, #1
	.loc	3 722 17                        @ ../../../CORTEX_MPU_M3_NUCLEO_L152RE_GCC/Demo/StreamBufferDemo.c:722:17
	bl	MPU_xStreamBufferReceive
	.loc	3 722 15                        @ ../../../CORTEX_MPU_M3_NUCLEO_L152RE_GCC/Demo/StreamBufferDemo.c:722:15
	str	r0, [sp, #216]
	.loc	3 723 22 is_stmt 1              @ ../../../CORTEX_MPU_M3_NUCLEO_L152RE_GCC/Demo/StreamBufferDemo.c:723:22
	bl	MPU_xTaskGetTickCount
	mov	r1, r0
	.loc	3 723 20 is_stmt 0              @ ../../../CORTEX_MPU_M3_NUCLEO_L152RE_GCC/Demo/StreamBufferDemo.c:723:20
	ldr	r0, [sp, #44]                   @ 4-byte Reload
	str	r1, [sp, #100]
	.loc	3 724 29 is_stmt 1              @ ../../../CORTEX_MPU_M3_NUCLEO_L152RE_GCC/Demo/StreamBufferDemo.c:724:29
	ldr	r1, [sp, #84]
	.loc	3 724 5 is_stmt 0               @ ../../../CORTEX_MPU_M3_NUCLEO_L152RE_GCC/Demo/StreamBufferDemo.c:724:5
	bl	MPU_vTaskPrioritySet
	.loc	3 725 47 is_stmt 1              @ ../../../CORTEX_MPU_M3_NUCLEO_L152RE_GCC/Demo/StreamBufferDemo.c:725:47
	ldr	r0, [sp, #100]
	.loc	3 725 64 is_stmt 0              @ ../../../CORTEX_MPU_M3_NUCLEO_L152RE_GCC/Demo/StreamBufferDemo.c:725:64
	ldr	r1, [sp, #104]
	.loc	3 725 62                        @ ../../../CORTEX_MPU_M3_NUCLEO_L152RE_GCC/Demo/StreamBufferDemo.c:725:62
	subs	r0, r0, r1
	.loc	3 725 84                        @ ../../../CORTEX_MPU_M3_NUCLEO_L152RE_GCC/Demo/StreamBufferDemo.c:725:84
	subs	r1, r0, #1
	sbcs	r0, r1
	.loc	3 725 5                         @ ../../../CORTEX_MPU_M3_NUCLEO_L152RE_GCC/Demo/StreamBufferDemo.c:725:5
	bl	prvCheckExpectedState
	.loc	3 726 47 is_stmt 1              @ ../../../CORTEX_MPU_M3_NUCLEO_L152RE_GCC/Demo/StreamBufferDemo.c:726:47
	ldr	r0, [sp, #100]
	.loc	3 726 64 is_stmt 0              @ ../../../CORTEX_MPU_M3_NUCLEO_L152RE_GCC/Demo/StreamBufferDemo.c:726:64
	ldr	r1, [sp, #104]
	.loc	3 726 62                        @ ../../../CORTEX_MPU_M3_NUCLEO_L152RE_GCC/Demo/StreamBufferDemo.c:726:62
	subs	r0, r0, r1
	.loc	3 726 84                        @ ../../../CORTEX_MPU_M3_NUCLEO_L152RE_GCC/Demo/StreamBufferDemo.c:726:84
	rsbs	r1, r0, #0
	adcs	r0, r1
	.loc	3 726 5                         @ ../../../CORTEX_MPU_M3_NUCLEO_L152RE_GCC/Demo/StreamBufferDemo.c:726:5
	bl	prvCheckExpectedState
	.loc	3 727 28 is_stmt 1              @ ../../../CORTEX_MPU_M3_NUCLEO_L152RE_GCC/Demo/StreamBufferDemo.c:727:28
	ldr	r0, [sp, #216]
	.loc	3 727 38 is_stmt 0              @ ../../../CORTEX_MPU_M3_NUCLEO_L152RE_GCC/Demo/StreamBufferDemo.c:727:38
	rsbs	r1, r0, #0
	adcs	r0, r1
	.loc	3 727 5                         @ ../../../CORTEX_MPU_M3_NUCLEO_L152RE_GCC/Demo/StreamBufferDemo.c:727:5
	bl	prvCheckExpectedState
	ldr	r0, [sp, #44]                   @ 4-byte Reload
	movs	r1, #13
	.loc	3 732 15 is_stmt 1              @ ../../../CORTEX_MPU_M3_NUCLEO_L152RE_GCC/Demo/StreamBufferDemo.c:732:15
	str	r1, [sp, #208]
.Ltmp291:
	.loc	3 734 16                        @ ../../../CORTEX_MPU_M3_NUCLEO_L152RE_GCC/Demo/StreamBufferDemo.c:734:16
	str	r0, [sp, #212]
	.loc	3 734 10 is_stmt 0              @ ../../../CORTEX_MPU_M3_NUCLEO_L152RE_GCC/Demo/StreamBufferDemo.c:734:10
	b	.LBB11_9
.LBB11_9:                               @ =>This Inner Loop Header: Depth=1
.Ltmp292:
	.loc	3 734 21                        @ ../../../CORTEX_MPU_M3_NUCLEO_L152RE_GCC/Demo/StreamBufferDemo.c:734:21
	ldr	r0, [sp, #212]
.Ltmp293:
	.loc	3 734 5                         @ ../../../CORTEX_MPU_M3_NUCLEO_L152RE_GCC/Demo/StreamBufferDemo.c:734:5
	cmp	r0, #99
	bhi	.LBB11_12
	b	.LBB11_10
.LBB11_10:                              @   in Loop: Header=BB11_9 Depth=1
.Ltmp294:
	.loc	3 739 28 is_stmt 1              @ ../../../CORTEX_MPU_M3_NUCLEO_L152RE_GCC/Demo/StreamBufferDemo.c:739:28
	ldr	r0, [sp, #112]
	.loc	3 739 63 is_stmt 0              @ ../../../CORTEX_MPU_M3_NUCLEO_L152RE_GCC/Demo/StreamBufferDemo.c:739:63
	ldr	r1, [sp, #212]
	.loc	3 739 53                        @ ../../../CORTEX_MPU_M3_NUCLEO_L152RE_GCC/Demo/StreamBufferDemo.c:739:53
	adds	r1, #48
	.loc	3 739 9                         @ ../../../CORTEX_MPU_M3_NUCLEO_L152RE_GCC/Demo/StreamBufferDemo.c:739:9
	uxtb	r2, r1
	movs	r1, #17
	str	r1, [sp, #40]                   @ 4-byte Spill
	bl	__aeabi_memset
	ldr	r2, [sp, #40]                   @ 4-byte Reload
	.loc	3 740 40 is_stmt 1              @ ../../../CORTEX_MPU_M3_NUCLEO_L152RE_GCC/Demo/StreamBufferDemo.c:740:40
	ldr	r0, [sp, #220]
	.loc	3 740 66 is_stmt 0              @ ../../../CORTEX_MPU_M3_NUCLEO_L152RE_GCC/Demo/StreamBufferDemo.c:740:66
	ldr	r1, [sp, #112]
	movs	r3, #0
	.loc	3 740 21                        @ ../../../CORTEX_MPU_M3_NUCLEO_L152RE_GCC/Demo/StreamBufferDemo.c:740:21
	str	r3, [sp, #36]                   @ 4-byte Spill
	bl	MPU_xStreamBufferSend
	.loc	3 740 19                        @ ../../../CORTEX_MPU_M3_NUCLEO_L152RE_GCC/Demo/StreamBufferDemo.c:740:19
	str	r0, [sp, #216]
	.loc	3 741 32 is_stmt 1              @ ../../../CORTEX_MPU_M3_NUCLEO_L152RE_GCC/Demo/StreamBufferDemo.c:741:32
	ldr	r0, [sp, #216]
	.loc	3 741 42 is_stmt 0              @ ../../../CORTEX_MPU_M3_NUCLEO_L152RE_GCC/Demo/StreamBufferDemo.c:741:42
	subs	r0, #17
	rsbs	r1, r0, #0
	adcs	r0, r1
	.loc	3 741 9                         @ ../../../CORTEX_MPU_M3_NUCLEO_L152RE_GCC/Demo/StreamBufferDemo.c:741:9
	bl	prvCheckExpectedState
	.loc	3 745 51 is_stmt 1              @ ../../../CORTEX_MPU_M3_NUCLEO_L152RE_GCC/Demo/StreamBufferDemo.c:745:51
	ldr	r0, [sp, #220]
	.loc	3 745 21 is_stmt 0              @ ../../../CORTEX_MPU_M3_NUCLEO_L152RE_GCC/Demo/StreamBufferDemo.c:745:21
	bl	MPU_xStreamBufferSpacesAvailable
	.loc	3 745 19                        @ ../../../CORTEX_MPU_M3_NUCLEO_L152RE_GCC/Demo/StreamBufferDemo.c:745:19
	str	r0, [sp, #216]
	.loc	3 746 32 is_stmt 1              @ ../../../CORTEX_MPU_M3_NUCLEO_L152RE_GCC/Demo/StreamBufferDemo.c:746:32
	ldr	r0, [sp, #216]
	.loc	3 746 45 is_stmt 0              @ ../../../CORTEX_MPU_M3_NUCLEO_L152RE_GCC/Demo/StreamBufferDemo.c:746:45
	ldr	r1, [sp, #208]
	.loc	3 746 42                        @ ../../../CORTEX_MPU_M3_NUCLEO_L152RE_GCC/Demo/StreamBufferDemo.c:746:42
	subs	r0, r0, r1
	rsbs	r1, r0, #0
	adcs	r0, r1
	.loc	3 746 9                         @ ../../../CORTEX_MPU_M3_NUCLEO_L152RE_GCC/Demo/StreamBufferDemo.c:746:9
	bl	prvCheckExpectedState
	.loc	3 747 50 is_stmt 1              @ ../../../CORTEX_MPU_M3_NUCLEO_L152RE_GCC/Demo/StreamBufferDemo.c:747:50
	ldr	r0, [sp, #220]
	.loc	3 747 21 is_stmt 0              @ ../../../CORTEX_MPU_M3_NUCLEO_L152RE_GCC/Demo/StreamBufferDemo.c:747:21
	bl	MPU_xStreamBufferBytesAvailable
	.loc	3 747 19                        @ ../../../CORTEX_MPU_M3_NUCLEO_L152RE_GCC/Demo/StreamBufferDemo.c:747:19
	str	r0, [sp, #216]
	.loc	3 748 32 is_stmt 1              @ ../../../CORTEX_MPU_M3_NUCLEO_L152RE_GCC/Demo/StreamBufferDemo.c:748:32
	ldr	r0, [sp, #216]
	.loc	3 748 42 is_stmt 0              @ ../../../CORTEX_MPU_M3_NUCLEO_L152RE_GCC/Demo/StreamBufferDemo.c:748:42
	subs	r0, #17
	rsbs	r1, r0, #0
	adcs	r0, r1
	.loc	3 748 9                         @ ../../../CORTEX_MPU_M3_NUCLEO_L152RE_GCC/Demo/StreamBufferDemo.c:748:9
	bl	prvCheckExpectedState
	.loc	3 749 53 is_stmt 1              @ ../../../CORTEX_MPU_M3_NUCLEO_L152RE_GCC/Demo/StreamBufferDemo.c:749:53
	ldr	r0, [sp, #220]
	.loc	3 749 32 is_stmt 0              @ ../../../CORTEX_MPU_M3_NUCLEO_L152RE_GCC/Demo/StreamBufferDemo.c:749:32
	bl	MPU_xStreamBufferIsFull
	.loc	3 749 69                        @ ../../../CORTEX_MPU_M3_NUCLEO_L152RE_GCC/Demo/StreamBufferDemo.c:749:69
	rsbs	r1, r0, #0
	adcs	r0, r1
	.loc	3 749 9                         @ ../../../CORTEX_MPU_M3_NUCLEO_L152RE_GCC/Demo/StreamBufferDemo.c:749:9
	bl	prvCheckExpectedState
	.loc	3 750 54 is_stmt 1              @ ../../../CORTEX_MPU_M3_NUCLEO_L152RE_GCC/Demo/StreamBufferDemo.c:750:54
	ldr	r0, [sp, #220]
	.loc	3 750 32 is_stmt 0              @ ../../../CORTEX_MPU_M3_NUCLEO_L152RE_GCC/Demo/StreamBufferDemo.c:750:32
	bl	MPU_xStreamBufferIsEmpty
	.loc	3 750 70                        @ ../../../CORTEX_MPU_M3_NUCLEO_L152RE_GCC/Demo/StreamBufferDemo.c:750:70
	rsbs	r1, r0, #0
	adcs	r0, r1
	.loc	3 750 9                         @ ../../../CORTEX_MPU_M3_NUCLEO_L152RE_GCC/Demo/StreamBufferDemo.c:750:9
	bl	prvCheckExpectedState
	ldr	r3, [sp, #36]                   @ 4-byte Reload
	ldr	r2, [sp, #40]                   @ 4-byte Reload
	.loc	3 753 43 is_stmt 1              @ ../../../CORTEX_MPU_M3_NUCLEO_L152RE_GCC/Demo/StreamBufferDemo.c:753:43
	ldr	r0, [sp, #220]
	.loc	3 753 69 is_stmt 0              @ ../../../CORTEX_MPU_M3_NUCLEO_L152RE_GCC/Demo/StreamBufferDemo.c:753:69
	ldr	r1, [sp, #108]
	.loc	3 753 21                        @ ../../../CORTEX_MPU_M3_NUCLEO_L152RE_GCC/Demo/StreamBufferDemo.c:753:21
	bl	MPU_xStreamBufferReceive
	.loc	3 753 19                        @ ../../../CORTEX_MPU_M3_NUCLEO_L152RE_GCC/Demo/StreamBufferDemo.c:753:19
	str	r0, [sp, #216]
	.loc	3 754 32 is_stmt 1              @ ../../../CORTEX_MPU_M3_NUCLEO_L152RE_GCC/Demo/StreamBufferDemo.c:754:32
	ldr	r0, [sp, #216]
	.loc	3 754 42 is_stmt 0              @ ../../../CORTEX_MPU_M3_NUCLEO_L152RE_GCC/Demo/StreamBufferDemo.c:754:42
	subs	r0, #17
	rsbs	r1, r0, #0
	adcs	r0, r1
	.loc	3 754 9                         @ ../../../CORTEX_MPU_M3_NUCLEO_L152RE_GCC/Demo/StreamBufferDemo.c:754:9
	bl	prvCheckExpectedState
	ldr	r2, [sp, #40]                   @ 4-byte Reload
	.loc	3 757 51 is_stmt 1              @ ../../../CORTEX_MPU_M3_NUCLEO_L152RE_GCC/Demo/StreamBufferDemo.c:757:51
	ldr	r0, [sp, #112]
	.loc	3 757 71 is_stmt 0              @ ../../../CORTEX_MPU_M3_NUCLEO_L152RE_GCC/Demo/StreamBufferDemo.c:757:71
	ldr	r1, [sp, #108]
	.loc	3 757 32                        @ ../../../CORTEX_MPU_M3_NUCLEO_L152RE_GCC/Demo/StreamBufferDemo.c:757:32
	bl	memcmp
	.loc	3 757 100                       @ ../../../CORTEX_MPU_M3_NUCLEO_L152RE_GCC/Demo/StreamBufferDemo.c:757:100
	rsbs	r1, r0, #0
	adcs	r0, r1
	.loc	3 757 9                         @ ../../../CORTEX_MPU_M3_NUCLEO_L152RE_GCC/Demo/StreamBufferDemo.c:757:9
	bl	prvCheckExpectedState
	.loc	3 760 51 is_stmt 1              @ ../../../CORTEX_MPU_M3_NUCLEO_L152RE_GCC/Demo/StreamBufferDemo.c:760:51
	ldr	r0, [sp, #220]
	.loc	3 760 21 is_stmt 0              @ ../../../CORTEX_MPU_M3_NUCLEO_L152RE_GCC/Demo/StreamBufferDemo.c:760:21
	bl	MPU_xStreamBufferSpacesAvailable
	.loc	3 760 19                        @ ../../../CORTEX_MPU_M3_NUCLEO_L152RE_GCC/Demo/StreamBufferDemo.c:760:19
	str	r0, [sp, #216]
	.loc	3 761 32 is_stmt 1              @ ../../../CORTEX_MPU_M3_NUCLEO_L152RE_GCC/Demo/StreamBufferDemo.c:761:32
	ldr	r0, [sp, #216]
	.loc	3 761 42 is_stmt 0              @ ../../../CORTEX_MPU_M3_NUCLEO_L152RE_GCC/Demo/StreamBufferDemo.c:761:42
	subs	r0, #30
	rsbs	r1, r0, #0
	adcs	r0, r1
	.loc	3 761 9                         @ ../../../CORTEX_MPU_M3_NUCLEO_L152RE_GCC/Demo/StreamBufferDemo.c:761:9
	bl	prvCheckExpectedState
	.loc	3 762 50 is_stmt 1              @ ../../../CORTEX_MPU_M3_NUCLEO_L152RE_GCC/Demo/StreamBufferDemo.c:762:50
	ldr	r0, [sp, #220]
	.loc	3 762 21 is_stmt 0              @ ../../../CORTEX_MPU_M3_NUCLEO_L152RE_GCC/Demo/StreamBufferDemo.c:762:21
	bl	MPU_xStreamBufferBytesAvailable
	.loc	3 762 19                        @ ../../../CORTEX_MPU_M3_NUCLEO_L152RE_GCC/Demo/StreamBufferDemo.c:762:19
	str	r0, [sp, #216]
	.loc	3 763 32 is_stmt 1              @ ../../../CORTEX_MPU_M3_NUCLEO_L152RE_GCC/Demo/StreamBufferDemo.c:763:32
	ldr	r0, [sp, #216]
	.loc	3 763 42 is_stmt 0              @ ../../../CORTEX_MPU_M3_NUCLEO_L152RE_GCC/Demo/StreamBufferDemo.c:763:42
	rsbs	r1, r0, #0
	adcs	r0, r1
	.loc	3 763 9                         @ ../../../CORTEX_MPU_M3_NUCLEO_L152RE_GCC/Demo/StreamBufferDemo.c:763:9
	bl	prvCheckExpectedState
	.loc	3 764 53 is_stmt 1              @ ../../../CORTEX_MPU_M3_NUCLEO_L152RE_GCC/Demo/StreamBufferDemo.c:764:53
	ldr	r0, [sp, #220]
	.loc	3 764 32 is_stmt 0              @ ../../../CORTEX_MPU_M3_NUCLEO_L152RE_GCC/Demo/StreamBufferDemo.c:764:32
	bl	MPU_xStreamBufferIsFull
	.loc	3 764 69                        @ ../../../CORTEX_MPU_M3_NUCLEO_L152RE_GCC/Demo/StreamBufferDemo.c:764:69
	rsbs	r1, r0, #0
	adcs	r0, r1
	.loc	3 764 9                         @ ../../../CORTEX_MPU_M3_NUCLEO_L152RE_GCC/Demo/StreamBufferDemo.c:764:9
	bl	prvCheckExpectedState
	.loc	3 765 54 is_stmt 1              @ ../../../CORTEX_MPU_M3_NUCLEO_L152RE_GCC/Demo/StreamBufferDemo.c:765:54
	ldr	r0, [sp, #220]
	.loc	3 765 32 is_stmt 0              @ ../../../CORTEX_MPU_M3_NUCLEO_L152RE_GCC/Demo/StreamBufferDemo.c:765:32
	bl	MPU_xStreamBufferIsEmpty
	.loc	3 765 70                        @ ../../../CORTEX_MPU_M3_NUCLEO_L152RE_GCC/Demo/StreamBufferDemo.c:765:70
	subs	r0, r0, #1
	rsbs	r1, r0, #0
	adcs	r0, r1
	.loc	3 765 9                         @ ../../../CORTEX_MPU_M3_NUCLEO_L152RE_GCC/Demo/StreamBufferDemo.c:765:9
	bl	prvCheckExpectedState
	.loc	3 766 5 is_stmt 1               @ ../../../CORTEX_MPU_M3_NUCLEO_L152RE_GCC/Demo/StreamBufferDemo.c:766:5
	b	.LBB11_11
.Ltmp295:
.LBB11_11:                              @   in Loop: Header=BB11_9 Depth=1
	.loc	3 734 39                        @ ../../../CORTEX_MPU_M3_NUCLEO_L152RE_GCC/Demo/StreamBufferDemo.c:734:39
	ldr	r0, [sp, #212]
	adds	r0, r0, #1
	str	r0, [sp, #212]
	.loc	3 734 5 is_stmt 0               @ ../../../CORTEX_MPU_M3_NUCLEO_L152RE_GCC/Demo/StreamBufferDemo.c:734:5
	b	.LBB11_9
.Ltmp296:
.LBB11_12:
	.loc	3 770 24 is_stmt 1              @ ../../../CORTEX_MPU_M3_NUCLEO_L152RE_GCC/Demo/StreamBufferDemo.c:770:24
	ldr	r0, [sp, #220]
	.loc	3 770 5 is_stmt 0               @ ../../../CORTEX_MPU_M3_NUCLEO_L152RE_GCC/Demo/StreamBufferDemo.c:770:5
	movw	r1, :lower16:pc55ByteString
	movt	r1, :upper16:pc55ByteString
	str	r1, [sp, #28]                   @ 4-byte Spill
	movs	r2, #30
	str	r2, [sp, #24]                   @ 4-byte Spill
	movs	r3, #0
	str	r3, [sp, #32]                   @ 4-byte Spill
	bl	MPU_xStreamBufferSend
	ldr	r2, [sp, #24]                   @ 4-byte Reload
	ldr	r3, [sp, #32]                   @ 4-byte Reload
	.loc	3 771 27 is_stmt 1              @ ../../../CORTEX_MPU_M3_NUCLEO_L152RE_GCC/Demo/StreamBufferDemo.c:771:27
	ldr	r0, [sp, #220]
	.loc	3 771 53 is_stmt 0              @ ../../../CORTEX_MPU_M3_NUCLEO_L152RE_GCC/Demo/StreamBufferDemo.c:771:53
	ldr	r1, [sp, #116]
	.loc	3 771 5                         @ ../../../CORTEX_MPU_M3_NUCLEO_L152RE_GCC/Demo/StreamBufferDemo.c:771:5
	bl	MPU_xStreamBufferReceive
	ldr	r2, [sp, #24]                   @ 4-byte Reload
                                        @ kill: def $r1 killed $r0
	.loc	3 772 52 is_stmt 1              @ ../../../CORTEX_MPU_M3_NUCLEO_L152RE_GCC/Demo/StreamBufferDemo.c:772:52
	ldr	r0, [sp, #28]                   @ 4-byte Reload
	ldr	r1, [sp, #116]
	.loc	3 772 28 is_stmt 0              @ ../../../CORTEX_MPU_M3_NUCLEO_L152RE_GCC/Demo/StreamBufferDemo.c:772:28
	bl	memcmp
	.loc	3 772 98                        @ ../../../CORTEX_MPU_M3_NUCLEO_L152RE_GCC/Demo/StreamBufferDemo.c:772:98
	rsbs	r1, r0, #0
	adcs	r0, r1
	.loc	3 772 5                         @ ../../../CORTEX_MPU_M3_NUCLEO_L152RE_GCC/Demo/StreamBufferDemo.c:772:5
	bl	prvCheckExpectedState
	ldr	r0, [sp, #32]                   @ 4-byte Reload
.Ltmp297:
	.loc	3 775 16 is_stmt 1              @ ../../../CORTEX_MPU_M3_NUCLEO_L152RE_GCC/Demo/StreamBufferDemo.c:775:16
	str	r0, [sp, #212]
	.loc	3 775 10 is_stmt 0              @ ../../../CORTEX_MPU_M3_NUCLEO_L152RE_GCC/Demo/StreamBufferDemo.c:775:10
	b	.LBB11_13
.LBB11_13:                              @ =>This Inner Loop Header: Depth=1
.Ltmp298:
	.loc	3 775 21                        @ ../../../CORTEX_MPU_M3_NUCLEO_L152RE_GCC/Demo/StreamBufferDemo.c:775:21
	ldr	r0, [sp, #212]
.Ltmp299:
	.loc	3 775 5                         @ ../../../CORTEX_MPU_M3_NUCLEO_L152RE_GCC/Demo/StreamBufferDemo.c:775:5
	cmp	r0, #29
	bhi	.LBB11_16
	b	.LBB11_14
.LBB11_14:                              @   in Loop: Header=BB11_13 Depth=1
.Ltmp300:
	.loc	3 779 28 is_stmt 1              @ ../../../CORTEX_MPU_M3_NUCLEO_L152RE_GCC/Demo/StreamBufferDemo.c:779:28
	ldr	r0, [sp, #220]
	.loc	3 779 79 is_stmt 0              @ ../../../CORTEX_MPU_M3_NUCLEO_L152RE_GCC/Demo/StreamBufferDemo.c:779:79
	ldr	r2, [sp, #212]
	.loc	3 779 63                        @ ../../../CORTEX_MPU_M3_NUCLEO_L152RE_GCC/Demo/StreamBufferDemo.c:779:63
	movw	r1, :lower16:pc54ByteString
	movt	r1, :upper16:pc54ByteString
	adds	r1, r1, r2
	movs	r2, #1
	movs	r3, #12
	.loc	3 779 9                         @ ../../../CORTEX_MPU_M3_NUCLEO_L152RE_GCC/Demo/StreamBufferDemo.c:779:9
	bl	MPU_xStreamBufferSend
	.loc	3 780 5 is_stmt 1               @ ../../../CORTEX_MPU_M3_NUCLEO_L152RE_GCC/Demo/StreamBufferDemo.c:780:5
	b	.LBB11_15
.Ltmp301:
.LBB11_15:                              @   in Loop: Header=BB11_13 Depth=1
	.loc	3 775 64                        @ ../../../CORTEX_MPU_M3_NUCLEO_L152RE_GCC/Demo/StreamBufferDemo.c:775:64
	ldr	r0, [sp, #212]
	adds	r0, r0, #1
	str	r0, [sp, #212]
	.loc	3 775 5 is_stmt 0               @ ../../../CORTEX_MPU_M3_NUCLEO_L152RE_GCC/Demo/StreamBufferDemo.c:775:5
	b	.LBB11_13
.Ltmp302:
.LBB11_16:
	.loc	3 783 49 is_stmt 1              @ ../../../CORTEX_MPU_M3_NUCLEO_L152RE_GCC/Demo/StreamBufferDemo.c:783:49
	ldr	r0, [sp, #220]
	.loc	3 783 28 is_stmt 0              @ ../../../CORTEX_MPU_M3_NUCLEO_L152RE_GCC/Demo/StreamBufferDemo.c:783:28
	bl	MPU_xStreamBufferIsFull
	.loc	3 783 65                        @ ../../../CORTEX_MPU_M3_NUCLEO_L152RE_GCC/Demo/StreamBufferDemo.c:783:65
	subs	r0, r0, #1
	rsbs	r1, r0, #0
	adcs	r0, r1
	.loc	3 783 5                         @ ../../../CORTEX_MPU_M3_NUCLEO_L152RE_GCC/Demo/StreamBufferDemo.c:783:5
	bl	prvCheckExpectedState
	.loc	3 789 39 is_stmt 1              @ ../../../CORTEX_MPU_M3_NUCLEO_L152RE_GCC/Demo/StreamBufferDemo.c:789:39
	ldr	r0, [sp, #220]
	.loc	3 789 54 is_stmt 0              @ ../../../CORTEX_MPU_M3_NUCLEO_L152RE_GCC/Demo/StreamBufferDemo.c:789:54
	ldr	r1, [sp, #116]
	movs	r2, #60
	movs	r3, #12
	.loc	3 789 17                        @ ../../../CORTEX_MPU_M3_NUCLEO_L152RE_GCC/Demo/StreamBufferDemo.c:789:17
	str	r3, [sp, #20]                   @ 4-byte Spill
	bl	MPU_xStreamBufferReceive
	.loc	3 789 15                        @ ../../../CORTEX_MPU_M3_NUCLEO_L152RE_GCC/Demo/StreamBufferDemo.c:789:15
	str	r0, [sp, #216]
	.loc	3 790 28 is_stmt 1              @ ../../../CORTEX_MPU_M3_NUCLEO_L152RE_GCC/Demo/StreamBufferDemo.c:790:28
	ldr	r0, [sp, #216]
	.loc	3 790 38 is_stmt 0              @ ../../../CORTEX_MPU_M3_NUCLEO_L152RE_GCC/Demo/StreamBufferDemo.c:790:38
	subs	r0, #30
	rsbs	r1, r0, #0
	adcs	r0, r1
	.loc	3 790 5                         @ ../../../CORTEX_MPU_M3_NUCLEO_L152RE_GCC/Demo/StreamBufferDemo.c:790:5
	bl	prvCheckExpectedState
	.loc	3 791 86 is_stmt 1              @ ../../../CORTEX_MPU_M3_NUCLEO_L152RE_GCC/Demo/StreamBufferDemo.c:791:86
	ldr	r1, [sp, #116]
	.loc	3 791 28 is_stmt 0              @ ../../../CORTEX_MPU_M3_NUCLEO_L152RE_GCC/Demo/StreamBufferDemo.c:791:28
	movw	r0, :lower16:pc54ByteString
	movt	r0, :upper16:pc54ByteString
	movs	r2, #30
	str	r2, [sp, #16]                   @ 4-byte Spill
	bl	memcmp
	.loc	3 791 132                       @ ../../../CORTEX_MPU_M3_NUCLEO_L152RE_GCC/Demo/StreamBufferDemo.c:791:132
	rsbs	r1, r0, #0
	adcs	r0, r1
	.loc	3 791 5                         @ ../../../CORTEX_MPU_M3_NUCLEO_L152RE_GCC/Demo/StreamBufferDemo.c:791:5
	bl	prvCheckExpectedState
	ldr	r2, [sp, #16]                   @ 4-byte Reload
	ldr	r3, [sp, #20]                   @ 4-byte Reload
	.loc	3 794 36 is_stmt 1              @ ../../../CORTEX_MPU_M3_NUCLEO_L152RE_GCC/Demo/StreamBufferDemo.c:794:36
	ldr	r0, [sp, #220]
	.loc	3 794 17 is_stmt 0              @ ../../../CORTEX_MPU_M3_NUCLEO_L152RE_GCC/Demo/StreamBufferDemo.c:794:17
	movw	r1, :lower16:pc55ByteString
	movt	r1, :upper16:pc55ByteString
	bl	MPU_xStreamBufferSend
	.loc	3 794 15                        @ ../../../CORTEX_MPU_M3_NUCLEO_L152RE_GCC/Demo/StreamBufferDemo.c:794:15
	str	r0, [sp, #216]
	.loc	3 795 28 is_stmt 1              @ ../../../CORTEX_MPU_M3_NUCLEO_L152RE_GCC/Demo/StreamBufferDemo.c:795:28
	ldr	r0, [sp, #216]
	.loc	3 795 38 is_stmt 0              @ ../../../CORTEX_MPU_M3_NUCLEO_L152RE_GCC/Demo/StreamBufferDemo.c:795:38
	subs	r0, #30
	rsbs	r1, r0, #0
	adcs	r0, r1
	.loc	3 795 5                         @ ../../../CORTEX_MPU_M3_NUCLEO_L152RE_GCC/Demo/StreamBufferDemo.c:795:5
	bl	prvCheckExpectedState
	.loc	3 796 49 is_stmt 1              @ ../../../CORTEX_MPU_M3_NUCLEO_L152RE_GCC/Demo/StreamBufferDemo.c:796:49
	ldr	r0, [sp, #220]
	.loc	3 796 28 is_stmt 0              @ ../../../CORTEX_MPU_M3_NUCLEO_L152RE_GCC/Demo/StreamBufferDemo.c:796:28
	bl	MPU_xStreamBufferIsFull
	.loc	3 796 65                        @ ../../../CORTEX_MPU_M3_NUCLEO_L152RE_GCC/Demo/StreamBufferDemo.c:796:65
	subs	r0, r0, #1
	rsbs	r1, r0, #0
	adcs	r0, r1
	.loc	3 796 5                         @ ../../../CORTEX_MPU_M3_NUCLEO_L152RE_GCC/Demo/StreamBufferDemo.c:796:5
	bl	prvCheckExpectedState
	.loc	3 797 50 is_stmt 1              @ ../../../CORTEX_MPU_M3_NUCLEO_L152RE_GCC/Demo/StreamBufferDemo.c:797:50
	ldr	r0, [sp, #220]
	.loc	3 797 28 is_stmt 0              @ ../../../CORTEX_MPU_M3_NUCLEO_L152RE_GCC/Demo/StreamBufferDemo.c:797:28
	bl	MPU_xStreamBufferIsEmpty
	.loc	3 797 66                        @ ../../../CORTEX_MPU_M3_NUCLEO_L152RE_GCC/Demo/StreamBufferDemo.c:797:66
	rsbs	r1, r0, #0
	adcs	r0, r1
	.loc	3 797 5                         @ ../../../CORTEX_MPU_M3_NUCLEO_L152RE_GCC/Demo/StreamBufferDemo.c:797:5
	bl	prvCheckExpectedState
	.loc	3 798 57 is_stmt 1              @ ../../../CORTEX_MPU_M3_NUCLEO_L152RE_GCC/Demo/StreamBufferDemo.c:798:57
	ldr	r0, [sp, #220]
	.loc	3 798 28 is_stmt 0              @ ../../../CORTEX_MPU_M3_NUCLEO_L152RE_GCC/Demo/StreamBufferDemo.c:798:28
	bl	MPU_xStreamBufferBytesAvailable
	.loc	3 798 73                        @ ../../../CORTEX_MPU_M3_NUCLEO_L152RE_GCC/Demo/StreamBufferDemo.c:798:73
	subs	r0, #30
	rsbs	r1, r0, #0
	adcs	r0, r1
	.loc	3 798 5                         @ ../../../CORTEX_MPU_M3_NUCLEO_L152RE_GCC/Demo/StreamBufferDemo.c:798:5
	bl	prvCheckExpectedState
	.loc	3 799 58 is_stmt 1              @ ../../../CORTEX_MPU_M3_NUCLEO_L152RE_GCC/Demo/StreamBufferDemo.c:799:58
	ldr	r0, [sp, #220]
	.loc	3 799 28 is_stmt 0              @ ../../../CORTEX_MPU_M3_NUCLEO_L152RE_GCC/Demo/StreamBufferDemo.c:799:28
	bl	MPU_xStreamBufferSpacesAvailable
	.loc	3 799 74                        @ ../../../CORTEX_MPU_M3_NUCLEO_L152RE_GCC/Demo/StreamBufferDemo.c:799:74
	rsbs	r1, r0, #0
	adcs	r0, r1
	.loc	3 799 5                         @ ../../../CORTEX_MPU_M3_NUCLEO_L152RE_GCC/Demo/StreamBufferDemo.c:799:5
	bl	prvCheckExpectedState
	movs	r0, #0
.Ltmp303:
	.loc	3 802 16 is_stmt 1              @ ../../../CORTEX_MPU_M3_NUCLEO_L152RE_GCC/Demo/StreamBufferDemo.c:802:16
	str	r0, [sp, #212]
	.loc	3 802 10 is_stmt 0              @ ../../../CORTEX_MPU_M3_NUCLEO_L152RE_GCC/Demo/StreamBufferDemo.c:802:10
	b	.LBB11_17
.LBB11_17:                              @ =>This Inner Loop Header: Depth=1
.Ltmp304:
	.loc	3 802 21                        @ ../../../CORTEX_MPU_M3_NUCLEO_L152RE_GCC/Demo/StreamBufferDemo.c:802:21
	ldr	r0, [sp, #212]
.Ltmp305:
	.loc	3 802 5                         @ ../../../CORTEX_MPU_M3_NUCLEO_L152RE_GCC/Demo/StreamBufferDemo.c:802:5
	cmp	r0, #29
	bhi	.LBB11_20
	b	.LBB11_18
.LBB11_18:                              @   in Loop: Header=BB11_17 Depth=1
.Ltmp306:
	.loc	3 806 31 is_stmt 1              @ ../../../CORTEX_MPU_M3_NUCLEO_L152RE_GCC/Demo/StreamBufferDemo.c:806:31
	ldr	r0, [sp, #220]
	.loc	3 806 57 is_stmt 0              @ ../../../CORTEX_MPU_M3_NUCLEO_L152RE_GCC/Demo/StreamBufferDemo.c:806:57
	ldr	r1, [sp, #116]
	movs	r2, #1
	movs	r3, #12
	.loc	3 806 9                         @ ../../../CORTEX_MPU_M3_NUCLEO_L152RE_GCC/Demo/StreamBufferDemo.c:806:9
	bl	MPU_xStreamBufferReceive
	.loc	3 807 48 is_stmt 1              @ ../../../CORTEX_MPU_M3_NUCLEO_L152RE_GCC/Demo/StreamBufferDemo.c:807:48
	ldr	r1, [sp, #212]
	.loc	3 807 32 is_stmt 0              @ ../../../CORTEX_MPU_M3_NUCLEO_L152RE_GCC/Demo/StreamBufferDemo.c:807:32
	movw	r0, :lower16:pc55ByteString
	movt	r0, :upper16:pc55ByteString
	ldrb	r0, [r0, r1]
	.loc	3 807 59                        @ ../../../CORTEX_MPU_M3_NUCLEO_L152RE_GCC/Demo/StreamBufferDemo.c:807:59
	ldr	r1, [sp, #116]
	ldrb	r1, [r1]
	.loc	3 807 56                        @ ../../../CORTEX_MPU_M3_NUCLEO_L152RE_GCC/Demo/StreamBufferDemo.c:807:56
	subs	r0, r0, r1
	rsbs	r1, r0, #0
	adcs	r0, r1
	.loc	3 807 9                         @ ../../../CORTEX_MPU_M3_NUCLEO_L152RE_GCC/Demo/StreamBufferDemo.c:807:9
	bl	prvCheckExpectedState
	.loc	3 808 5 is_stmt 1               @ ../../../CORTEX_MPU_M3_NUCLEO_L152RE_GCC/Demo/StreamBufferDemo.c:808:5
	b	.LBB11_19
.Ltmp307:
.LBB11_19:                              @   in Loop: Header=BB11_17 Depth=1
	.loc	3 802 64                        @ ../../../CORTEX_MPU_M3_NUCLEO_L152RE_GCC/Demo/StreamBufferDemo.c:802:64
	ldr	r0, [sp, #212]
	adds	r0, r0, #1
	str	r0, [sp, #212]
	.loc	3 802 5 is_stmt 0               @ ../../../CORTEX_MPU_M3_NUCLEO_L152RE_GCC/Demo/StreamBufferDemo.c:802:5
	b	.LBB11_17
.Ltmp308:
.LBB11_20:
	.loc	3 810 50 is_stmt 1              @ ../../../CORTEX_MPU_M3_NUCLEO_L152RE_GCC/Demo/StreamBufferDemo.c:810:50
	ldr	r0, [sp, #220]
	.loc	3 810 28 is_stmt 0              @ ../../../CORTEX_MPU_M3_NUCLEO_L152RE_GCC/Demo/StreamBufferDemo.c:810:28
	bl	MPU_xStreamBufferIsEmpty
	.loc	3 810 66                        @ ../../../CORTEX_MPU_M3_NUCLEO_L152RE_GCC/Demo/StreamBufferDemo.c:810:66
	subs	r0, r0, #1
	rsbs	r1, r0, #0
	adcs	r0, r1
	.loc	3 810 5                         @ ../../../CORTEX_MPU_M3_NUCLEO_L152RE_GCC/Demo/StreamBufferDemo.c:810:5
	bl	prvCheckExpectedState
	.loc	3 811 49 is_stmt 1              @ ../../../CORTEX_MPU_M3_NUCLEO_L152RE_GCC/Demo/StreamBufferDemo.c:811:49
	ldr	r0, [sp, #220]
	.loc	3 811 28 is_stmt 0              @ ../../../CORTEX_MPU_M3_NUCLEO_L152RE_GCC/Demo/StreamBufferDemo.c:811:28
	bl	MPU_xStreamBufferIsFull
	.loc	3 811 65                        @ ../../../CORTEX_MPU_M3_NUCLEO_L152RE_GCC/Demo/StreamBufferDemo.c:811:65
	rsbs	r1, r0, #0
	adcs	r0, r1
	.loc	3 811 5                         @ ../../../CORTEX_MPU_M3_NUCLEO_L152RE_GCC/Demo/StreamBufferDemo.c:811:5
	bl	prvCheckExpectedState
	movs	r0, #0
	str	r0, [sp, #12]                   @ 4-byte Spill
	movs	r1, #4
	.loc	3 814 5 is_stmt 1               @ ../../../CORTEX_MPU_M3_NUCLEO_L152RE_GCC/Demo/StreamBufferDemo.c:814:5
	bl	MPU_vTaskPrioritySet
	.loc	3 815 36                        @ ../../../CORTEX_MPU_M3_NUCLEO_L152RE_GCC/Demo/StreamBufferDemo.c:815:36
	ldr	r0, [sp, #220]
	.loc	3 815 17 is_stmt 0              @ ../../../CORTEX_MPU_M3_NUCLEO_L152RE_GCC/Demo/StreamBufferDemo.c:815:17
	movw	r1, :lower16:pc54ByteString
	movt	r1, :upper16:pc54ByteString
	str	r1, [sp, #8]                    @ 4-byte Spill
	movs	r2, #60
	str	r2, [sp]                        @ 4-byte Spill
	movs	r3, #2
	str	r3, [sp, #4]                    @ 4-byte Spill
	bl	MPU_xStreamBufferSend
	mov	r1, r0
	.loc	3 815 15                        @ ../../../CORTEX_MPU_M3_NUCLEO_L152RE_GCC/Demo/StreamBufferDemo.c:815:15
	ldr	r0, [sp, #12]                   @ 4-byte Reload
	str	r1, [sp, #216]
	.loc	3 816 29 is_stmt 1              @ ../../../CORTEX_MPU_M3_NUCLEO_L152RE_GCC/Demo/StreamBufferDemo.c:816:29
	ldr	r1, [sp, #84]
	.loc	3 816 5 is_stmt 0               @ ../../../CORTEX_MPU_M3_NUCLEO_L152RE_GCC/Demo/StreamBufferDemo.c:816:5
	bl	MPU_vTaskPrioritySet
	.loc	3 817 28 is_stmt 1              @ ../../../CORTEX_MPU_M3_NUCLEO_L152RE_GCC/Demo/StreamBufferDemo.c:817:28
	ldr	r0, [sp, #216]
	.loc	3 817 38 is_stmt 0              @ ../../../CORTEX_MPU_M3_NUCLEO_L152RE_GCC/Demo/StreamBufferDemo.c:817:38
	subs	r0, #30
	rsbs	r1, r0, #0
	adcs	r0, r1
	.loc	3 817 5                         @ ../../../CORTEX_MPU_M3_NUCLEO_L152RE_GCC/Demo/StreamBufferDemo.c:817:5
	bl	prvCheckExpectedState
	.loc	3 818 49 is_stmt 1              @ ../../../CORTEX_MPU_M3_NUCLEO_L152RE_GCC/Demo/StreamBufferDemo.c:818:49
	ldr	r0, [sp, #220]
	.loc	3 818 28 is_stmt 0              @ ../../../CORTEX_MPU_M3_NUCLEO_L152RE_GCC/Demo/StreamBufferDemo.c:818:28
	bl	MPU_xStreamBufferIsFull
	.loc	3 818 65                        @ ../../../CORTEX_MPU_M3_NUCLEO_L152RE_GCC/Demo/StreamBufferDemo.c:818:65
	subs	r0, r0, #1
	rsbs	r1, r0, #0
	adcs	r0, r1
	.loc	3 818 5                         @ ../../../CORTEX_MPU_M3_NUCLEO_L152RE_GCC/Demo/StreamBufferDemo.c:818:5
	bl	prvCheckExpectedState
	.loc	3 819 50 is_stmt 1              @ ../../../CORTEX_MPU_M3_NUCLEO_L152RE_GCC/Demo/StreamBufferDemo.c:819:50
	ldr	r0, [sp, #220]
	.loc	3 819 28 is_stmt 0              @ ../../../CORTEX_MPU_M3_NUCLEO_L152RE_GCC/Demo/StreamBufferDemo.c:819:28
	bl	MPU_xStreamBufferIsEmpty
	.loc	3 819 66                        @ ../../../CORTEX_MPU_M3_NUCLEO_L152RE_GCC/Demo/StreamBufferDemo.c:819:66
	rsbs	r1, r0, #0
	adcs	r0, r1
	.loc	3 819 5                         @ ../../../CORTEX_MPU_M3_NUCLEO_L152RE_GCC/Demo/StreamBufferDemo.c:819:5
	bl	prvCheckExpectedState
	ldr	r2, [sp]                        @ 4-byte Reload
	ldr	r3, [sp, #4]                    @ 4-byte Reload
	ldr	r1, [sp, #8]                    @ 4-byte Reload
	.loc	3 822 36 is_stmt 1              @ ../../../CORTEX_MPU_M3_NUCLEO_L152RE_GCC/Demo/StreamBufferDemo.c:822:36
	ldr	r0, [sp, #220]
	.loc	3 822 17 is_stmt 0              @ ../../../CORTEX_MPU_M3_NUCLEO_L152RE_GCC/Demo/StreamBufferDemo.c:822:17
	bl	MPU_xStreamBufferSend
	.loc	3 822 15                        @ ../../../CORTEX_MPU_M3_NUCLEO_L152RE_GCC/Demo/StreamBufferDemo.c:822:15
	str	r0, [sp, #216]
	.loc	3 823 28 is_stmt 1              @ ../../../CORTEX_MPU_M3_NUCLEO_L152RE_GCC/Demo/StreamBufferDemo.c:823:28
	ldr	r0, [sp, #216]
	.loc	3 823 38 is_stmt 0              @ ../../../CORTEX_MPU_M3_NUCLEO_L152RE_GCC/Demo/StreamBufferDemo.c:823:38
	rsbs	r1, r0, #0
	adcs	r0, r1
	.loc	3 823 5                         @ ../../../CORTEX_MPU_M3_NUCLEO_L152RE_GCC/Demo/StreamBufferDemo.c:823:5
	bl	prvCheckExpectedState
	ldr	r2, [sp]                        @ 4-byte Reload
	ldr	r3, [sp, #4]                    @ 4-byte Reload
	.loc	3 828 39 is_stmt 1              @ ../../../CORTEX_MPU_M3_NUCLEO_L152RE_GCC/Demo/StreamBufferDemo.c:828:39
	ldr	r0, [sp, #220]
	.loc	3 828 65 is_stmt 0              @ ../../../CORTEX_MPU_M3_NUCLEO_L152RE_GCC/Demo/StreamBufferDemo.c:828:65
	ldr	r1, [sp, #116]
	.loc	3 828 17                        @ ../../../CORTEX_MPU_M3_NUCLEO_L152RE_GCC/Demo/StreamBufferDemo.c:828:17
	bl	MPU_xStreamBufferReceive
	ldr	r1, [sp, #8]                    @ 4-byte Reload
	.loc	3 828 15                        @ ../../../CORTEX_MPU_M3_NUCLEO_L152RE_GCC/Demo/StreamBufferDemo.c:828:15
	str	r0, [sp, #216]
	.loc	3 829 53 is_stmt 1              @ ../../../CORTEX_MPU_M3_NUCLEO_L152RE_GCC/Demo/StreamBufferDemo.c:829:53
	ldr	r0, [sp, #116]
	movs	r2, #30
	.loc	3 829 28 is_stmt 0              @ ../../../CORTEX_MPU_M3_NUCLEO_L152RE_GCC/Demo/StreamBufferDemo.c:829:28
	bl	memcmp
	.loc	3 829 132                       @ ../../../CORTEX_MPU_M3_NUCLEO_L152RE_GCC/Demo/StreamBufferDemo.c:829:132
	rsbs	r1, r0, #0
	adcs	r0, r1
	.loc	3 829 5                         @ ../../../CORTEX_MPU_M3_NUCLEO_L152RE_GCC/Demo/StreamBufferDemo.c:829:5
	bl	prvCheckExpectedState
	.loc	3 830 49 is_stmt 1              @ ../../../CORTEX_MPU_M3_NUCLEO_L152RE_GCC/Demo/StreamBufferDemo.c:830:49
	ldr	r0, [sp, #220]
	.loc	3 830 28 is_stmt 0              @ ../../../CORTEX_MPU_M3_NUCLEO_L152RE_GCC/Demo/StreamBufferDemo.c:830:28
	bl	MPU_xStreamBufferIsFull
	.loc	3 830 65                        @ ../../../CORTEX_MPU_M3_NUCLEO_L152RE_GCC/Demo/StreamBufferDemo.c:830:65
	rsbs	r1, r0, #0
	adcs	r0, r1
	.loc	3 830 5                         @ ../../../CORTEX_MPU_M3_NUCLEO_L152RE_GCC/Demo/StreamBufferDemo.c:830:5
	bl	prvCheckExpectedState
	.loc	3 831 50 is_stmt 1              @ ../../../CORTEX_MPU_M3_NUCLEO_L152RE_GCC/Demo/StreamBufferDemo.c:831:50
	ldr	r0, [sp, #220]
	.loc	3 831 28 is_stmt 0              @ ../../../CORTEX_MPU_M3_NUCLEO_L152RE_GCC/Demo/StreamBufferDemo.c:831:28
	bl	MPU_xStreamBufferIsEmpty
	.loc	3 831 66                        @ ../../../CORTEX_MPU_M3_NUCLEO_L152RE_GCC/Demo/StreamBufferDemo.c:831:66
	subs	r0, r0, #1
	rsbs	r1, r0, #0
	adcs	r0, r1
	.loc	3 831 5                         @ ../../../CORTEX_MPU_M3_NUCLEO_L152RE_GCC/Demo/StreamBufferDemo.c:831:5
	bl	prvCheckExpectedState
	ldr	r3, [sp, #12]                   @ 4-byte Reload
	.loc	3 835 33 is_stmt 1              @ ../../../CORTEX_MPU_M3_NUCLEO_L152RE_GCC/Demo/StreamBufferDemo.c:835:33
	ldr	r0, [sp, #220]
	.loc	3 835 14 is_stmt 0              @ ../../../CORTEX_MPU_M3_NUCLEO_L152RE_GCC/Demo/StreamBufferDemo.c:835:14
	movw	r1, :lower16:pc55ByteString
	movt	r1, :upper16:pc55ByteString
	movs	r2, #15
	bl	MPU_xStreamBufferSend
	.loc	3 836 25 is_stmt 1              @ ../../../CORTEX_MPU_M3_NUCLEO_L152RE_GCC/Demo/StreamBufferDemo.c:836:25
	ldr	r0, [sp, #220]
	.loc	3 836 5 is_stmt 0               @ ../../../CORTEX_MPU_M3_NUCLEO_L152RE_GCC/Demo/StreamBufferDemo.c:836:5
	bl	MPU_xStreamBufferReset
	.loc	3 837 1 is_stmt 1               @ ../../../CORTEX_MPU_M3_NUCLEO_L152RE_GCC/Demo/StreamBufferDemo.c:837:1
	add	sp, #224
	pop	{r7, pc}
.Ltmp309:
.Lfunc_end11:
	.size	prvSingleTaskTests, .Lfunc_end11-prvSingleTaskTests
	.cfi_endproc
	.cantunwind
	.fnend
                                        @ -- End function
	.type	vStartStreamBufferTasks.xEchoServerTask1Stack,%object @ @vStartStreamBufferTasks.xEchoServerTask1Stack
	.section	.bss.vStartStreamBufferTasks.xEchoServerTask1Stack,"aw",%nobits
	.p2align	10, 0x0
vStartStreamBufferTasks.xEchoServerTask1Stack:
	.zero	1024
	.size	vStartStreamBufferTasks.xEchoServerTask1Stack, 1024

	.type	vStartStreamBufferTasks.xEchoServerTask2Stack,%object @ @vStartStreamBufferTasks.xEchoServerTask2Stack
	.section	.bss.vStartStreamBufferTasks.xEchoServerTask2Stack,"aw",%nobits
	.p2align	10, 0x0
vStartStreamBufferTasks.xEchoServerTask2Stack:
	.zero	1024
	.size	vStartStreamBufferTasks.xEchoServerTask2Stack, 1024

	.type	vStartStreamBufferTasks.xNonBlockingReceiverTaskStack,%object @ @vStartStreamBufferTasks.xNonBlockingReceiverTaskStack
	.section	.bss.vStartStreamBufferTasks.xNonBlockingReceiverTaskStack,"aw",%nobits
	.p2align	9, 0x0
vStartStreamBufferTasks.xNonBlockingReceiverTaskStack:
	.zero	512
	.size	vStartStreamBufferTasks.xNonBlockingReceiverTaskStack, 512

	.type	vStartStreamBufferTasks.xNonBlockingSenderTaskStack,%object @ @vStartStreamBufferTasks.xNonBlockingSenderTaskStack
	.section	.bss.vStartStreamBufferTasks.xNonBlockingSenderTaskStack,"aw",%nobits
	.p2align	9, 0x0
vStartStreamBufferTasks.xNonBlockingSenderTaskStack:
	.zero	512
	.size	vStartStreamBufferTasks.xNonBlockingSenderTaskStack, 512

	.type	vStartStreamBufferTasks.xInterruptTriggerLevelTestStack,%object @ @vStartStreamBufferTasks.xInterruptTriggerLevelTestStack
	.section	.bss.vStartStreamBufferTasks.xInterruptTriggerLevelTestStack,"aw",%nobits
	.p2align	9, 0x0
vStartStreamBufferTasks.xInterruptTriggerLevelTestStack:
	.zero	512
	.size	vStartStreamBufferTasks.xInterruptTriggerLevelTestStack, 512

	.type	vStartStreamBufferTasks.xEchoClientTask1Stack,%object @ @vStartStreamBufferTasks.xEchoClientTask1Stack
	.section	.bss.vStartStreamBufferTasks.xEchoClientTask1Stack,"aw",%nobits
	.p2align	10, 0x0
vStartStreamBufferTasks.xEchoClientTask1Stack:
	.zero	1024
	.size	vStartStreamBufferTasks.xEchoClientTask1Stack, 1024

	.type	vStartStreamBufferTasks.xEchoClientTask2Stack,%object @ @vStartStreamBufferTasks.xEchoClientTask2Stack
	.section	.bss.vStartStreamBufferTasks.xEchoClientTask2Stack,"aw",%nobits
	.p2align	10, 0x0
vStartStreamBufferTasks.xEchoClientTask2Stack:
	.zero	1024
	.size	vStartStreamBufferTasks.xEchoClientTask2Stack, 1024

	.type	.L.str,%object                  @ @.str
	.section	.rodata.str1.1,"aMS",%progbits,1
.L.str:
	.asciz	"1StrEchoServer"
	.size	.L.str, 15

	.type	.L__const.vStartStreamBufferTasks.xEchoServerTask1Parameters,%object @ @__const.vStartStreamBufferTasks.xEchoServerTask1Parameters
	.section	.rodata..L__const.vStartStreamBufferTasks.xEchoServerTask1Parameters,"a",%progbits
	.p2align	2, 0x0
.L__const.vStartStreamBufferTasks.xEchoServerTask1Parameters:
	.long	prvEchoServer
	.long	.L.str
	.short	256                             @ 0x100
	.zero	2
	.long	0
	.long	2147483649                      @ 0x80000001
	.long	vStartStreamBufferTasks.xEchoServerTask1Stack
	.zero	36
	.long	0
	.size	.L__const.vStartStreamBufferTasks.xEchoServerTask1Parameters, 64

	.type	.L.str.1,%object                @ @.str.1
	.section	.rodata.str1.1,"aMS",%progbits,1
.L.str.1:
	.asciz	"2StrEchoServer"
	.size	.L.str.1, 15

	.type	.L__const.vStartStreamBufferTasks.xEchoServerTask2Parameters,%object @ @__const.vStartStreamBufferTasks.xEchoServerTask2Parameters
	.section	.rodata..L__const.vStartStreamBufferTasks.xEchoServerTask2Parameters,"a",%progbits
	.p2align	2, 0x0
.L__const.vStartStreamBufferTasks.xEchoServerTask2Parameters:
	.long	prvEchoServer
	.long	.L.str.1
	.short	256                             @ 0x100
	.zero	2
	.long	0
	.long	2147483648                      @ 0x80000000
	.long	vStartStreamBufferTasks.xEchoServerTask2Stack
	.zero	36
	.long	0
	.size	.L__const.vStartStreamBufferTasks.xEchoServerTask2Parameters, 64

	.type	.L.str.2,%object                @ @.str.2
	.section	.rodata.str1.1,"aMS",%progbits,1
.L.str.2:
	.asciz	"StrNonBlkRx"
	.size	.L.str.2, 12

	.type	ulNonBlockingRxCounter,%object  @ @ulNonBlockingRxCounter
	.section	.bss.ulNonBlockingRxCounter,"aw",%nobits
	.p2align	5, 0x0
ulNonBlockingRxCounter:
	.zero	32
	.size	ulNonBlockingRxCounter, 32

	.type	pc54ByteString,%object          @ @pc54ByteString
	.section	.bss.pc54ByteString,"aw",%nobits
	.p2align	7, 0x0
pc54ByteString:
	.zero	128
	.size	pc54ByteString, 128

	.type	.L__const.vStartStreamBufferTasks.xNonBlockingReceiverTaskParameters,%object @ @__const.vStartStreamBufferTasks.xNonBlockingReceiverTaskParameters
	.section	.rodata..L__const.vStartStreamBufferTasks.xNonBlockingReceiverTaskParameters,"a",%progbits
	.p2align	2, 0x0
.L__const.vStartStreamBufferTasks.xNonBlockingReceiverTaskParameters:
	.long	prvNonBlockingReceiverTask
	.long	.L.str.2
	.short	128                             @ 0x80
	.zero	2
	.long	0
	.long	0                               @ 0x0
	.long	vStartStreamBufferTasks.xNonBlockingReceiverTaskStack
	.long	ulNonBlockingRxCounter
	.long	32                              @ 0x20
	.long	3                               @ 0x3
	.long	pc54ByteString
	.long	128                             @ 0x80
	.long	3                               @ 0x3
	.zero	12
	.long	0
	.size	.L__const.vStartStreamBufferTasks.xNonBlockingReceiverTaskParameters, 64

	.type	.L.str.3,%object                @ @.str.3
	.section	.rodata.str1.1,"aMS",%progbits,1
.L.str.3:
	.asciz	"StrNonBlkTx"
	.size	.L.str.3, 12

	.type	xErrorStatus,%object            @ @xErrorStatus
	.section	.data.xErrorStatus,"aw",%progbits
	.p2align	5, 0x0
xErrorStatus:
	.long	1                               @ 0x1
	.long	0                               @ 0x0
	.long	0                               @ 0x0
	.long	0                               @ 0x0
	.long	0                               @ 0x0
	.long	0                               @ 0x0
	.long	0                               @ 0x0
	.long	0                               @ 0x0
	.size	xErrorStatus, 32

	.type	.L__const.vStartStreamBufferTasks.xNonBlockingSenderTaskParameters,%object @ @__const.vStartStreamBufferTasks.xNonBlockingSenderTaskParameters
	.section	.rodata..L__const.vStartStreamBufferTasks.xNonBlockingSenderTaskParameters,"a",%progbits
	.p2align	2, 0x0
.L__const.vStartStreamBufferTasks.xNonBlockingSenderTaskParameters:
	.long	prvNonBlockingSenderTask
	.long	.L.str.3
	.short	128                             @ 0x80
	.zero	2
	.long	0
	.long	0                               @ 0x0
	.long	vStartStreamBufferTasks.xNonBlockingSenderTaskStack
	.long	xErrorStatus
	.long	32                              @ 0x20
	.long	3                               @ 0x3
	.long	pc54ByteString
	.long	128                             @ 0x80
	.long	3                               @ 0x3
	.zero	12
	.long	0
	.size	.L__const.vStartStreamBufferTasks.xNonBlockingSenderTaskParameters, 64

	.type	.L.str.4,%object                @ @.str.4
	.section	.rodata.str1.1,"aMS",%progbits,1
.L.str.4:
	.asciz	"StrTrig"
	.size	.L.str.4, 8

	.type	.L__const.vStartStreamBufferTasks.xInterruptTriggerLevelTestTaskParameters,%object @ @__const.vStartStreamBufferTasks.xInterruptTriggerLevelTestTaskParameters
	.section	.rodata..L__const.vStartStreamBufferTasks.xInterruptTriggerLevelTestTaskParameters,"a",%progbits
	.p2align	2, 0x0
.L__const.vStartStreamBufferTasks.xInterruptTriggerLevelTestTaskParameters:
	.long	prvInterruptTriggerLevelTest
	.long	.L.str.4
	.short	128                             @ 0x80
	.zero	2
	.long	0
	.long	2147483652                      @ 0x80000004
	.long	vStartStreamBufferTasks.xInterruptTriggerLevelTestStack
	.zero	36
	.long	0
	.size	.L__const.vStartStreamBufferTasks.xInterruptTriggerLevelTestTaskParameters, 64

	.type	.L.str.5,%object                @ @.str.5
	.section	.rodata.str1.1,"aMS",%progbits,1
.L.str.5:
	.asciz	"EchoClient"
	.size	.L.str.5, 11

	.type	.L__const.vStartStreamBufferTasks.xEchoClientTask1Parameters,%object @ @__const.vStartStreamBufferTasks.xEchoClientTask1Parameters
	.section	.rodata..L__const.vStartStreamBufferTasks.xEchoClientTask1Parameters,"a",%progbits
	.p2align	2, 0x0
.L__const.vStartStreamBufferTasks.xEchoClientTask1Parameters:
	.long	prvEchoClient
	.long	.L.str.5
	.short	256                             @ 0x100
	.zero	2
	.long	0
	.long	2147483648                      @ 0x80000000
	.long	vStartStreamBufferTasks.xEchoClientTask1Stack
	.zero	36
	.long	0
	.size	.L__const.vStartStreamBufferTasks.xEchoClientTask1Parameters, 64

	.type	.L__const.vStartStreamBufferTasks.xEchoClientTask2Parameters,%object @ @__const.vStartStreamBufferTasks.xEchoClientTask2Parameters
	.section	.rodata..L__const.vStartStreamBufferTasks.xEchoClientTask2Parameters,"a",%progbits
	.p2align	2, 0x0
.L__const.vStartStreamBufferTasks.xEchoClientTask2Parameters:
	.long	prvEchoClient
	.long	.L.str.5
	.short	256                             @ 0x100
	.zero	2
	.long	0
	.long	2147483649                      @ 0x80000001
	.long	vStartStreamBufferTasks.xEchoClientTask2Stack
	.zero	36
	.long	0
	.size	.L__const.vStartStreamBufferTasks.xEchoClientTask2Parameters, 64

	.type	pcDataSentFromInterrupt,%object @ @pcDataSentFromInterrupt
	.section	.bss.pcDataSentFromInterrupt,"aw",%nobits
	.p2align	5, 0x0
pcDataSentFromInterrupt:
	.zero	32
	.size	pcDataSentFromInterrupt, 32

	.type	.L.str.6,%object                @ @.str.6
	.section	.rodata.str1.1,"aMS",%progbits,1
.L.str.6:
	.asciz	"0123456789"
	.size	.L.str.6, 11

	.type	pc55ByteString,%object          @ @pc55ByteString
	.section	.bss.pc55ByteString,"aw",%nobits
	.p2align	7, 0x0
pc55ByteString:
	.zero	128
	.size	pc55ByteString, 128

	.type	.L.str.7,%object                @ @.str.7
	.section	.rodata.str1.1,"aMS",%progbits,1
.L.str.7:
	.asciz	"One two three four five six seven eight nine ten eleven"
	.size	.L.str.7, 56

	.type	.L.str.8,%object                @ @.str.8
.L.str.8:
	.asciz	"01234567891abcdefghijklmnopqrstuvwxyzABCDEFGHIJKLMNOPQ"
	.size	.L.str.8, 55

	.type	xEchoStreamBuffersArray,%object @ @xEchoStreamBuffersArray
	.section	.bss.xEchoStreamBuffersArray,"aw",%nobits
	.p2align	5, 0x0
xEchoStreamBuffersArray:
	.zero	32
	.size	xEchoStreamBuffersArray, 32

	.type	xEchoClientTaskHandles,%object  @ @xEchoClientTaskHandles
	.section	.bss.xEchoClientTaskHandles,"aw",%nobits
	.p2align	5, 0x0
xEchoClientTaskHandles:
	.zero	32
	.size	xEchoClientTaskHandles, 32

	.type	vStartStreamBufferTasks.xSenderTask1Stack,%object @ @vStartStreamBufferTasks.xSenderTask1Stack
	.section	.bss.vStartStreamBufferTasks.xSenderTask1Stack,"aw",%nobits
	.p2align	10, 0x0
vStartStreamBufferTasks.xSenderTask1Stack:
	.zero	1024
	.size	vStartStreamBufferTasks.xSenderTask1Stack, 1024

	.type	vStartStreamBufferTasks.xSenderTask2Stack,%object @ @vStartStreamBufferTasks.xSenderTask2Stack
	.section	.bss.vStartStreamBufferTasks.xSenderTask2Stack,"aw",%nobits
	.p2align	10, 0x0
vStartStreamBufferTasks.xSenderTask2Stack:
	.zero	1024
	.size	vStartStreamBufferTasks.xSenderTask2Stack, 1024

	.type	vStartStreamBufferTasks.xReceivingTask1Stack,%object @ @vStartStreamBufferTasks.xReceivingTask1Stack
	.section	.bss.vStartStreamBufferTasks.xReceivingTask1Stack,"aw",%nobits
	.p2align	10, 0x0
vStartStreamBufferTasks.xReceivingTask1Stack:
	.zero	1024
	.size	vStartStreamBufferTasks.xReceivingTask1Stack, 1024

	.type	vStartStreamBufferTasks.xReceivingTask2Stack,%object @ @vStartStreamBufferTasks.xReceivingTask2Stack
	.section	.bss.vStartStreamBufferTasks.xReceivingTask2Stack,"aw",%nobits
	.p2align	10, 0x0
vStartStreamBufferTasks.xReceivingTask2Stack:
	.zero	1024
	.size	vStartStreamBufferTasks.xReceivingTask2Stack, 1024

	.type	.L.str.9,%object                @ @.str.9
	.section	.rodata.str1.1,"aMS",%progbits,1
.L.str.9:
	.asciz	"Str1Sender"
	.size	.L.str.9, 11

	.type	.L__const.vStartStreamBufferTasks.xSenderTask1Parameters,%object @ @__const.vStartStreamBufferTasks.xSenderTask1Parameters
	.section	.rodata..L__const.vStartStreamBufferTasks.xSenderTask1Parameters,"a",%progbits
	.p2align	2, 0x0
.L__const.vStartStreamBufferTasks.xSenderTask1Parameters:
	.long	prvSenderTask
	.long	.L.str.9
	.short	256                             @ 0x100
	.zero	2
	.long	0
	.long	2147483649                      @ 0x80000001
	.long	vStartStreamBufferTasks.xSenderTask1Stack
	.zero	36
	.long	0
	.size	.L__const.vStartStreamBufferTasks.xSenderTask1Parameters, 64

	.type	.L.str.10,%object               @ @.str.10
	.section	.rodata.str1.1,"aMS",%progbits,1
.L.str.10:
	.asciz	"Str2Sender"
	.size	.L.str.10, 11

	.type	.L__const.vStartStreamBufferTasks.xSenderTask2Parameters,%object @ @__const.vStartStreamBufferTasks.xSenderTask2Parameters
	.section	.rodata..L__const.vStartStreamBufferTasks.xSenderTask2Parameters,"a",%progbits
	.p2align	2, 0x0
.L__const.vStartStreamBufferTasks.xSenderTask2Parameters:
	.long	prvSenderTask
	.long	.L.str.10
	.short	192                             @ 0xc0
	.zero	2
	.long	0
	.long	2147483648                      @ 0x80000000
	.long	vStartStreamBufferTasks.xSenderTask2Stack
	.zero	36
	.long	0
	.size	.L__const.vStartStreamBufferTasks.xSenderTask2Parameters, 64

	.type	.L.str.11,%object               @ @.str.11
	.section	.rodata.str1.1,"aMS",%progbits,1
.L.str.11:
	.asciz	"StrReceiver"
	.size	.L.str.11, 12

	.type	.L__const.vStartStreamBufferTasks.xReceivingTask1Parameters,%object @ @__const.vStartStreamBufferTasks.xReceivingTask1Parameters
	.section	.rodata..L__const.vStartStreamBufferTasks.xReceivingTask1Parameters,"a",%progbits
	.p2align	2, 0x0
.L__const.vStartStreamBufferTasks.xReceivingTask1Parameters:
	.long	prvReceiverTask
	.long	.L.str.11
	.short	256                             @ 0x100
	.zero	2
	.long	0
	.long	0                               @ 0x0
	.long	vStartStreamBufferTasks.xReceivingTask1Stack
	.long	xErrorStatus
	.long	32                              @ 0x20
	.long	3                               @ 0x3
	.long	pc55ByteString
	.long	128                             @ 0x80
	.long	3                               @ 0x3
	.zero	12
	.long	0
	.size	.L__const.vStartStreamBufferTasks.xReceivingTask1Parameters, 64

	.type	.L__const.vStartStreamBufferTasks.xReceivingTask2Parameters,%object @ @__const.vStartStreamBufferTasks.xReceivingTask2Parameters
	.section	.rodata..L__const.vStartStreamBufferTasks.xReceivingTask2Parameters,"a",%progbits
	.p2align	2, 0x0
.L__const.vStartStreamBufferTasks.xReceivingTask2Parameters:
	.long	prvReceiverTask
	.long	.L.str.11
	.short	256                             @ 0x100
	.zero	2
	.long	0
	.long	1                               @ 0x1
	.long	vStartStreamBufferTasks.xReceivingTask2Stack
	.long	xErrorStatus
	.long	32                              @ 0x20
	.long	3                               @ 0x3
	.long	pc55ByteString
	.long	128                             @ 0x80
	.long	3                               @ 0x3
	.zero	12
	.long	0
	.size	.L__const.vStartStreamBufferTasks.xReceivingTask2Parameters, 64

	.type	ucBufferStorage,%object         @ @ucBufferStorage
	.section	.bss.ucBufferStorage,"aw",%nobits
ucBufferStorage:
	.zero	62
	.size	ucBufferStorage, 62

	.type	xStaticStreamBuffers,%object    @ @xStaticStreamBuffers
	.section	.bss.xStaticStreamBuffers,"aw",%nobits
	.p2align	2, 0x0
xStaticStreamBuffers:
	.zero	72
	.size	xStaticStreamBuffers, 72

	.type	xReceiverTaskHandles,%object    @ @xReceiverTaskHandles
	.section	.bss.xReceiverTaskHandles,"aw",%nobits
	.p2align	5, 0x0
xReceiverTaskHandles:
	.zero	32
	.size	xReceiverTaskHandles, 32

	.type	vPeriodicStreamBufferProcessing.xNextChar,%object @ @vPeriodicStreamBufferProcessing.xNextChar
	.section	.bss.vPeriodicStreamBufferProcessing.xNextChar,"aw",%nobits
	.p2align	2, 0x0
vPeriodicStreamBufferProcessing.xNextChar:
	.long	0                               @ 0x0
	.size	vPeriodicStreamBufferProcessing.xNextChar, 4

	.type	xInterruptStreamBuffer,%object  @ @xInterruptStreamBuffer
	.section	.bss.xInterruptStreamBuffer,"aw",%nobits
	.p2align	5, 0x0
xInterruptStreamBuffer:
	.zero	32
	.size	xInterruptStreamBuffer, 32

	.type	xAreStreamBufferTasksStillRunning.ulLastEchoLoopCounters,%object @ @xAreStreamBufferTasksStillRunning.ulLastEchoLoopCounters
	.section	.bss.xAreStreamBufferTasksStillRunning.ulLastEchoLoopCounters,"aw",%nobits
	.p2align	2, 0x0
xAreStreamBufferTasksStillRunning.ulLastEchoLoopCounters:
	.zero	8
	.size	xAreStreamBufferTasksStillRunning.ulLastEchoLoopCounters, 8

	.type	xAreStreamBufferTasksStillRunning.ulLastNonBlockingRxCounter,%object @ @xAreStreamBufferTasksStillRunning.ulLastNonBlockingRxCounter
	.section	.bss.xAreStreamBufferTasksStillRunning.ulLastNonBlockingRxCounter,"aw",%nobits
	.p2align	2, 0x0
xAreStreamBufferTasksStillRunning.ulLastNonBlockingRxCounter:
	.long	0                               @ 0x0
	.size	xAreStreamBufferTasksStillRunning.ulLastNonBlockingRxCounter, 4

	.type	xAreStreamBufferTasksStillRunning.ulLastInterruptTriggerCounter,%object @ @xAreStreamBufferTasksStillRunning.ulLastInterruptTriggerCounter
	.section	.bss.xAreStreamBufferTasksStillRunning.ulLastInterruptTriggerCounter,"aw",%nobits
	.p2align	2, 0x0
xAreStreamBufferTasksStillRunning.ulLastInterruptTriggerCounter:
	.long	0                               @ 0x0
	.size	xAreStreamBufferTasksStillRunning.ulLastInterruptTriggerCounter, 4

	.type	ulEchoLoopCounters,%object      @ @ulEchoLoopCounters
	.section	.bss.ulEchoLoopCounters,"aw",%nobits
	.p2align	5, 0x0
ulEchoLoopCounters:
	.zero	32
	.size	ulEchoLoopCounters, 32

	.type	ulInterruptTriggerCounter,%object @ @ulInterruptTriggerCounter
	.section	.bss.ulInterruptTriggerCounter,"aw",%nobits
	.p2align	5, 0x0
ulInterruptTriggerCounter:
	.zero	32
	.size	ulInterruptTriggerCounter, 32

	.type	xAreStreamBufferTasksStillRunning.ulLastSenderLoopCounters,%object @ @xAreStreamBufferTasksStillRunning.ulLastSenderLoopCounters
	.section	.bss.xAreStreamBufferTasksStillRunning.ulLastSenderLoopCounters,"aw",%nobits
	.p2align	2, 0x0
xAreStreamBufferTasksStillRunning.ulLastSenderLoopCounters:
	.zero	8
	.size	xAreStreamBufferTasksStillRunning.ulLastSenderLoopCounters, 8

	.type	ulSenderLoopCounters,%object    @ @ulSenderLoopCounters
	.section	.bss.ulSenderLoopCounters,"aw",%nobits
	.p2align	5, 0x0
ulSenderLoopCounters:
	.zero	32
	.size	ulSenderLoopCounters, 32

	.type	prvSenderTask.ucTempBuffer,%object @ @prvSenderTask.ucTempBuffer
	.section	.bss.prvSenderTask.ucTempBuffer,"aw",%nobits
prvSenderTask.ucTempBuffer:
	.zero	10
	.size	prvSenderTask.ucTempBuffer, 10

	.file	8 "C:\\Users\\karahulx\\Downloads\\Kernel\\FreeRTOS\\FreeRTOS\\Demo\\CORTEX_MPU_M23_Nuvoton_NuMaker_PFM_M2351_IAR_GCC\\Projects_NTZ\\Keil" "../../../../Source/include/projdefs.h"
	.section	".note.GNU-stack","",%progbits
	.eabi_attribute	30, 6	@ Tag_ABI_optimization_goals
	.ARM_attribute	16, 1	@ Tag_AV_eba