	.text
	.syntax unified
	.eabi_attribute	67, "2.09"	@ Tag_conformance
	.eabi_attribute	6, 16	@ Tag_CPU_arch
	.eabi_attribute	7, 77	@ Tag_CPU_arch_profile
	.eabi_attribute	8, 0	@ Tag_ARM_ISA_use
	.eabi_attribute	9, 3	@ Tag_THUMB_ISA_use
	.eabi_attribute	34, 0	@ Tag_CPU_unaligned_access
	.eabi_attribute	17, 1	@ Tag_ABI_PCS_GOT_use
	.eabi_attribute	20, 2	@ Tag_ABI_FP_denormal
	.eabi_attribute	21, 0	@ Tag_ABI_FP_exceptions
	.eabi_attribute	23, 1	@ Tag_ABI_FP_number_model
	.eabi_attribute	24, 1	@ Tag_ABI_align_needed
	.eabi_attribute	25, 1	@ Tag_ABI_align_preserved
	.eabi_attribute	38, 1	@ Tag_ABI_FP_16bit_format
	.eabi_attribute	18, 4	@ Tag_ABI_PCS_wchar_t
	.eabi_attribute	26, 2	@ Tag_ABI_enum_size
	.eabi_attribute	14, 0	@ Tag_ABI_PCS_R9_use
	.file	"TaskNotifyArray.c"
	.file	1 "C:\\Keil_v5\\ARM\\ARMCLANG\\Bin\\..\\include" "stdint.h"
	.file	2 "C:\\Users\\karahulx\\Downloads\\Kernel\\FreeRTOS\\FreeRTOS\\Demo\\CORTEX_MPU_M23_Nuvoton_NuMaker_PFM_M2351_IAR_GCC\\Projects_NTZ\\Keil" "../../../../Source/portable/GCC/ARM_CM23_NTZ/non_secure/portmacrocommon.h"
	.file	3 "C:\\Users\\karahulx\\Downloads\\Kernel\\FreeRTOS\\FreeRTOS\\Demo\\CORTEX_MPU_M23_Nuvoton_NuMaker_PFM_M2351_IAR_GCC\\Projects_NTZ\\Keil" "../../../CORTEX_MPU_M3_NUCLEO_L152RE_GCC/Demo/TaskNotifyArray.c"
	.file	4 "C:\\Users\\karahulx\\Downloads\\Kernel\\FreeRTOS\\FreeRTOS\\Demo\\CORTEX_MPU_M23_Nuvoton_NuMaker_PFM_M2351_IAR_GCC\\Projects_NTZ\\Keil" "../../../../Source/include\\timers.h"
	.file	5 "C:\\Users\\karahulx\\Downloads\\Kernel\\FreeRTOS\\FreeRTOS\\Demo\\CORTEX_MPU_M23_Nuvoton_NuMaker_PFM_M2351_IAR_GCC\\Projects_NTZ\\Keil" "../../../../Source/include/task.h"
	.file	6 "C:\\Keil_v5\\ARM\\ARMCLANG\\Bin\\..\\include" "stddef.h"
	.section	.text.vStartTaskNotifyArrayTask,"ax",%progbits
	.hidden	vStartTaskNotifyArrayTask       @ -- Begin function vStartTaskNotifyArrayTask
	.globl	vStartTaskNotifyArrayTask
	.p2align	1
	.type	vStartTaskNotifyArrayTask,%function
	.code	16                              @ @vStartTaskNotifyArrayTask
	.thumb_func
vStartTaskNotifyArrayTask:
.Lfunc_begin0:
	.loc	3 153 0                         @ ../../../CORTEX_MPU_M3_NUCLEO_L152RE_GCC/Demo/TaskNotifyArray.c:153:0
	.fnstart
	.cfi_sections .debug_frame
	.cfi_startproc
@ %bb.0:
	.save	{r4, r5, r6, lr}
	push	{r4, r5, r6, lr}
	.cfi_def_cfa_offset 16
	.cfi_offset lr, -4
	.cfi_offset r6, -8
	.cfi_offset r5, -12
	.cfi_offset r4, -16
	.pad	#88
	sub	sp, #88
	.cfi_def_cfa_offset 104
	movs	r0, #10
.Ltmp0:
	.loc	3 156 22 prologue_end           @ ../../../CORTEX_MPU_M3_NUCLEO_L152RE_GCC/Demo/TaskNotifyArray.c:156:22
	str	r0, [sp, #4]                    @ 4-byte Spill
	str	r0, [sp, #84]
	movs	r1, #5
	.loc	3 157 22                        @ ../../../CORTEX_MPU_M3_NUCLEO_L152RE_GCC/Demo/TaskNotifyArray.c:157:22
	str	r1, [sp, #80]
	.loc	3 161 39                        @ ../../../CORTEX_MPU_M3_NUCLEO_L152RE_GCC/Demo/TaskNotifyArray.c:161:39
	movw	r0, :lower16:prvSuspendedTaskTimerTestCallback
	movt	r0, :upper16:prvSuspendedTaskTimerTestCallback
	str	r0, [sp]
	movw	r0, :lower16:.L.str
	movt	r0, :upper16:.L.str
	movs	r3, #0
	str	r3, [sp, #8]                    @ 4-byte Spill
	mov	r2, r3
	bl	xTimerCreate
	ldr	r1, [sp, #4]                    @ 4-byte Reload
	ldr	r3, [sp, #8]                    @ 4-byte Reload
	.loc	3 161 37 is_stmt 0              @ ../../../CORTEX_MPU_M3_NUCLEO_L152RE_GCC/Demo/TaskNotifyArray.c:161:37
	movw	r2, :lower16:xNotifyWhileSuspendedTimer
	movt	r2, :upper16:xNotifyWhileSuspendedTimer
	str	r2, [sp, #12]                   @ 4-byte Spill
	str	r0, [r2]
	.loc	3 162 36 is_stmt 1              @ ../../../CORTEX_MPU_M3_NUCLEO_L152RE_GCC/Demo/TaskNotifyArray.c:162:36
	movw	r0, :lower16:prvNotifyingTimerCallback
	movt	r0, :upper16:prvNotifyingTimerCallback
	str	r0, [sp]
	movw	r0, :lower16:.L.str.1
	movt	r0, :upper16:.L.str.1
	mov	r2, r3
	bl	xTimerCreate
	mov	r1, r0
	.loc	3 162 34 is_stmt 0              @ ../../../CORTEX_MPU_M3_NUCLEO_L152RE_GCC/Demo/TaskNotifyArray.c:162:34
	ldr	r0, [sp, #12]                   @ 4-byte Reload
	movw	r2, :lower16:xIncrementingIndexTimer
	movt	r2, :upper16:xIncrementingIndexTimer
	str	r1, [r2]
.Ltmp1:
	.loc	3 163 5 is_stmt 1               @ ../../../CORTEX_MPU_M3_NUCLEO_L152RE_GCC/Demo/TaskNotifyArray.c:163:5
	ldr	r0, [r0]
.Ltmp2:
	.loc	3 163 5 is_stmt 0               @ ../../../CORTEX_MPU_M3_NUCLEO_L152RE_GCC/Demo/TaskNotifyArray.c:163:5
	cbnz	r0, .LBB0_3
	b	.LBB0_1
.LBB0_1:
.Ltmp3:
	.loc	3 163 5                         @ ../../../CORTEX_MPU_M3_NUCLEO_L152RE_GCC/Demo/TaskNotifyArray.c:163:5
	@APP
	cpsid i
	@NO_APP
	b	.LBB0_2
.LBB0_2:                                @ =>This Inner Loop Header: Depth=1
.Ltmp4:
	.loc	3 163 5                         @ ../../../CORTEX_MPU_M3_NUCLEO_L152RE_GCC/Demo/TaskNotifyArray.c:163:5
	b	.LBB0_2
.Ltmp5:
.LBB0_3:
	.loc	3 164 5 is_stmt 1               @ ../../../CORTEX_MPU_M3_NUCLEO_L152RE_GCC/Demo/TaskNotifyArray.c:164:5
	movw	r0, :lower16:xIncrementingIndexTimer
	movt	r0, :upper16:xIncrementingIndexTimer
	ldr	r0, [r0]
.Ltmp6:
	.loc	3 164 5 is_stmt 0               @ ../../../CORTEX_MPU_M3_NUCLEO_L152RE_GCC/Demo/TaskNotifyArray.c:164:5
	cbnz	r0, .LBB0_6
	b	.LBB0_4
.LBB0_4:
.Ltmp7:
	.loc	3 164 5                         @ ../../../CORTEX_MPU_M3_NUCLEO_L152RE_GCC/Demo/TaskNotifyArray.c:164:5
	@APP
	cpsid i
	@NO_APP
	b	.LBB0_5
.LBB0_5:                                @ =>This Inner Loop Header: Depth=1
.Ltmp8:
	.loc	3 164 5                         @ ../../../CORTEX_MPU_M3_NUCLEO_L152RE_GCC/Demo/TaskNotifyArray.c:164:5
	b	.LBB0_5
.Ltmp9:
.LBB0_6:
	.loc	3 169 22 is_stmt 1              @ ../../../CORTEX_MPU_M3_NUCLEO_L152RE_GCC/Demo/TaskNotifyArray.c:169:22
	movw	r2, :lower16:.L__const.vStartTaskNotifyArrayTask.xNotifiedTask
	movt	r2, :upper16:.L__const.vStartTaskNotifyArrayTask.xNotifiedTask
	add	r0, sp, #16
	mov	r1, r0
	ldm	r2!, {r3, r4, r5, r6}
	stm	r1!, {r3, r4, r5, r6}
	ldm	r2!, {r3, r4, r5, r6}
	stm	r1!, {r3, r4, r5, r6}
	ldm	r2!, {r3, r4, r5, r6}
	stm	r1!, {r3, r4, r5, r6}
	ldm	r2!, {r3, r4, r5, r6}
	stm	r1!, {r3, r4, r5, r6}
	.loc	3 185 5                         @ ../../../CORTEX_MPU_M3_NUCLEO_L152RE_GCC/Demo/TaskNotifyArray.c:185:5
	movw	r1, :lower16:xTaskToNotify
	movt	r1, :upper16:xTaskToNotify
	bl	xTaskCreateRestricted
	.loc	3 187 21                        @ ../../../CORTEX_MPU_M3_NUCLEO_L152RE_GCC/Demo/TaskNotifyArray.c:187:21
	movw	r1, :lower16:uxNextRand
	movt	r1, :upper16:uxNextRand
	movw	r0, :lower16:prvRand
	movt	r0, :upper16:prvRand
	str	r0, [r1]
	.loc	3 188 1                         @ ../../../CORTEX_MPU_M3_NUCLEO_L152RE_GCC/Demo/TaskNotifyArray.c:188:1
	add	sp, #88
	pop	{r4, r5, r6, pc}
.Ltmp10:
.Lfunc_end0:
	.size	vStartTaskNotifyArrayTask, .Lfunc_end0-vStartTaskNotifyArrayTask
	.cfi_endproc
	.cantunwind
	.fnend
                                        @ -- End function
	.section	.text.prvSuspendedTaskTimerTestCallback,"ax",%progbits
	.p2align	1                               @ -- Begin function prvSuspendedTaskTimerTestCallback
	.type	prvSuspendedTaskTimerTestCallback,%function
	.code	16                              @ @prvSuspendedTaskTimerTestCallback
	.thumb_func
prvSuspendedTaskTimerTestCallback:
.Lfunc_begin1:
	.loc	3 755 0                         @ ../../../CORTEX_MPU_M3_NUCLEO_L152RE_GCC/Demo/TaskNotifyArray.c:755:0
	.fnstart
	.cfi_startproc
@ %bb.0:
	.save	{r7, lr}
	push	{r7, lr}
	.cfi_def_cfa_offset 8
	.cfi_offset lr, -4
	.cfi_offset r7, -8
	.pad	#24
	sub	sp, #24
	.cfi_def_cfa_offset 32
	str	r0, [sp, #20]
.Ltmp11:
	.loc	3 769 11 prologue_end           @ ../../../CORTEX_MPU_M3_NUCLEO_L152RE_GCC/Demo/TaskNotifyArray.c:769:11
	movw	r0, :lower16:prvSuspendedTaskTimerTestCallback.ulCallCount
	movt	r0, :upper16:prvSuspendedTaskTimerTestCallback.ulCallCount
.Ltmp12:
	.loc	3 769 9 is_stmt 0               @ ../../../CORTEX_MPU_M3_NUCLEO_L152RE_GCC/Demo/TaskNotifyArray.c:769:9
	ldrb	r0, [r0]
	lsls	r0, r0, #31
	cbnz	r0, .LBB1_5
	b	.LBB1_1
.LBB1_1:
.Ltmp13:
	.loc	3 771 23 is_stmt 1              @ ../../../CORTEX_MPU_M3_NUCLEO_L152RE_GCC/Demo/TaskNotifyArray.c:771:23
	movw	r0, :lower16:xTaskToNotify
	movt	r0, :upper16:xTaskToNotify
	str	r0, [sp, #16]                   @ 4-byte Spill
	ldr	r0, [r0]
	.loc	3 771 9 is_stmt 0               @ ../../../CORTEX_MPU_M3_NUCLEO_L152RE_GCC/Demo/TaskNotifyArray.c:771:9
	bl	MPU_vTaskSuspend
	ldr	r0, [sp, #16]                   @ 4-byte Reload
.Ltmp14:
	.loc	3 772 9 is_stmt 1               @ ../../../CORTEX_MPU_M3_NUCLEO_L152RE_GCC/Demo/TaskNotifyArray.c:772:9
	ldr	r0, [r0]
	bl	MPU_eTaskGetState
.Ltmp15:
	.loc	3 772 9 is_stmt 0               @ ../../../CORTEX_MPU_M3_NUCLEO_L152RE_GCC/Demo/TaskNotifyArray.c:772:9
	cmp	r0, #3
	beq	.LBB1_4
	b	.LBB1_2
.LBB1_2:
.Ltmp16:
	.loc	3 772 9                         @ ../../../CORTEX_MPU_M3_NUCLEO_L152RE_GCC/Demo/TaskNotifyArray.c:772:9
	@APP
	cpsid i
	@NO_APP
	b	.LBB1_3
.LBB1_3:                                @ =>This Inner Loop Header: Depth=1
.Ltmp17:
	.loc	3 772 9                         @ ../../../CORTEX_MPU_M3_NUCLEO_L152RE_GCC/Demo/TaskNotifyArray.c:772:9
	b	.LBB1_3
.Ltmp18:
.LBB1_4:
	.loc	3 773 22 is_stmt 1              @ ../../../CORTEX_MPU_M3_NUCLEO_L152RE_GCC/Demo/TaskNotifyArray.c:773:22
	movw	r0, :lower16:xTaskToNotify
	movt	r0, :upper16:xTaskToNotify
	ldr	r0, [r0]
	.loc	3 773 9 is_stmt 0               @ ../../../CORTEX_MPU_M3_NUCLEO_L152RE_GCC/Demo/TaskNotifyArray.c:773:9
	bl	MPU_vTaskResume
	.loc	3 774 5 is_stmt 1               @ ../../../CORTEX_MPU_M3_NUCLEO_L152RE_GCC/Demo/TaskNotifyArray.c:774:5
	b	.LBB1_11
.Ltmp19:
.LBB1_5:
	.loc	3 777 23                        @ ../../../CORTEX_MPU_M3_NUCLEO_L152RE_GCC/Demo/TaskNotifyArray.c:777:23
	movw	r0, :lower16:xTaskToNotify
	movt	r0, :upper16:xTaskToNotify
	str	r0, [sp, #8]                    @ 4-byte Spill
	ldr	r0, [r0]
	.loc	3 777 9 is_stmt 0               @ ../../../CORTEX_MPU_M3_NUCLEO_L152RE_GCC/Demo/TaskNotifyArray.c:777:9
	bl	MPU_vTaskSuspend
	ldr	r0, [sp, #8]                    @ 4-byte Reload
	.loc	3 781 9 is_stmt 1               @ ../../../CORTEX_MPU_M3_NUCLEO_L152RE_GCC/Demo/TaskNotifyArray.c:781:9
	ldr	r0, [r0]
	movw	r1, :lower16:prvSuspendedTaskTimerTestCallback.uxIndexToNotify
	movt	r1, :upper16:prvSuspendedTaskTimerTestCallback.uxIndexToNotify
	str	r1, [sp, #12]                   @ 4-byte Spill
	ldr	r1, [r1]
	movs	r2, #0
	str	r2, [sp]
	movs	r2, #1
	movs	r3, #3
	bl	MPU_xTaskGenericNotify
                                        @ kill: def $r1 killed $r0
	.loc	3 785 24                        @ ../../../CORTEX_MPU_M3_NUCLEO_L152RE_GCC/Demo/TaskNotifyArray.c:785:24
	ldr	r0, [sp, #12]                   @ 4-byte Reload
	ldr	r1, [r0]
	adds	r1, r1, #1
	str	r1, [r0]
.Ltmp20:
	.loc	3 787 13                        @ ../../../CORTEX_MPU_M3_NUCLEO_L152RE_GCC/Demo/TaskNotifyArray.c:787:13
	ldr	r0, [r0]
.Ltmp21:
	.loc	3 787 13 is_stmt 0              @ ../../../CORTEX_MPU_M3_NUCLEO_L152RE_GCC/Demo/TaskNotifyArray.c:787:13
	cmp	r0, #3
	blo	.LBB1_7
	b	.LBB1_6
.LBB1_6:
.Ltmp22:
	.loc	3 789 29 is_stmt 1              @ ../../../CORTEX_MPU_M3_NUCLEO_L152RE_GCC/Demo/TaskNotifyArray.c:789:29
	movw	r1, :lower16:prvSuspendedTaskTimerTestCallback.uxIndexToNotify
	movt	r1, :upper16:prvSuspendedTaskTimerTestCallback.uxIndexToNotify
	movs	r0, #0
	str	r0, [r1]
	.loc	3 790 9                         @ ../../../CORTEX_MPU_M3_NUCLEO_L152RE_GCC/Demo/TaskNotifyArray.c:790:9
	b	.LBB1_7
.Ltmp23:
.LBB1_7:
	.loc	3 793 9                         @ ../../../CORTEX_MPU_M3_NUCLEO_L152RE_GCC/Demo/TaskNotifyArray.c:793:9
	movw	r0, :lower16:xTaskToNotify
	movt	r0, :upper16:xTaskToNotify
	ldr	r0, [r0]
	bl	MPU_eTaskGetState
.Ltmp24:
	.loc	3 793 9 is_stmt 0               @ ../../../CORTEX_MPU_M3_NUCLEO_L152RE_GCC/Demo/TaskNotifyArray.c:793:9
	cmp	r0, #3
	beq	.LBB1_10
	b	.LBB1_8
.LBB1_8:
.Ltmp25:
	.loc	3 793 9                         @ ../../../CORTEX_MPU_M3_NUCLEO_L152RE_GCC/Demo/TaskNotifyArray.c:793:9
	@APP
	cpsid i
	@NO_APP
	b	.LBB1_9
.LBB1_9:                                @ =>This Inner Loop Header: Depth=1
.Ltmp26:
	.loc	3 793 9                         @ ../../../CORTEX_MPU_M3_NUCLEO_L152RE_GCC/Demo/TaskNotifyArray.c:793:9
	b	.LBB1_9
.Ltmp27:
.LBB1_10:
	.loc	3 795 22 is_stmt 1              @ ../../../CORTEX_MPU_M3_NUCLEO_L152RE_GCC/Demo/TaskNotifyArray.c:795:22
	movw	r0, :lower16:xTaskToNotify
	movt	r0, :upper16:xTaskToNotify
	ldr	r0, [r0]
	.loc	3 795 9 is_stmt 0               @ ../../../CORTEX_MPU_M3_NUCLEO_L152RE_GCC/Demo/TaskNotifyArray.c:795:9
	bl	MPU_vTaskResume
	b	.LBB1_11
.Ltmp28:
.LBB1_11:
	.loc	3 798 16 is_stmt 1              @ ../../../CORTEX_MPU_M3_NUCLEO_L152RE_GCC/Demo/TaskNotifyArray.c:798:16
	movw	r1, :lower16:prvSuspendedTaskTimerTestCallback.ulCallCount
	movt	r1, :upper16:prvSuspendedTaskTimerTestCallback.ulCallCount
	ldr	r0, [r1]
	adds	r0, r0, #1
	str	r0, [r1]
	.loc	3 799 1                         @ ../../../CORTEX_MPU_M3_NUCLEO_L152RE_GCC/Demo/TaskNotifyArray.c:799:1
	add	sp, #24
	pop	{r7, pc}
.Ltmp29:
.Lfunc_end1:
	.size	prvSuspendedTaskTimerTestCallback, .Lfunc_end1-prvSuspendedTaskTimerTestCallback
	.cfi_endproc
	.cantunwind
	.fnend
                                        @ -- End function
	.section	.text.prvNotifyingTimerCallback,"ax",%progbits
	.p2align	1                               @ -- Begin function prvNotifyingTimerCallback
	.type	prvNotifyingTimerCallback,%function
	.code	16                              @ @prvNotifyingTimerCallback
	.thumb_func
prvNotifyingTimerCallback:
.Lfunc_begin2:
	.loc	3 803 0                         @ ../../../CORTEX_MPU_M3_NUCLEO_L152RE_GCC/Demo/TaskNotifyArray.c:803:0
	.fnstart
	.cfi_startproc
@ %bb.0:
	.save	{r7, lr}
	push	{r7, lr}
	.cfi_def_cfa_offset 8
	.cfi_offset lr, -4
	.cfi_offset r7, -8
	.pad	#16
	sub	sp, #16
	.cfi_def_cfa_offset 24
	str	r0, [sp, #12]
.Ltmp30:
	.loc	3 811 5 prologue_end            @ ../../../CORTEX_MPU_M3_NUCLEO_L152RE_GCC/Demo/TaskNotifyArray.c:811:5
	movw	r0, :lower16:xTaskToNotify
	movt	r0, :upper16:xTaskToNotify
	ldr	r0, [r0]
	movw	r1, :lower16:prvNotifyingTimerCallback.uxIndexToNotify
	movt	r1, :upper16:prvNotifyingTimerCallback.uxIndexToNotify
	str	r1, [sp, #8]                    @ 4-byte Spill
	ldr	r1, [r1]
	movs	r2, #0
	str	r2, [sp]
	movs	r3, #2
	bl	MPU_xTaskGenericNotify
                                        @ kill: def $r1 killed $r0
	.loc	3 815 20                        @ ../../../CORTEX_MPU_M3_NUCLEO_L152RE_GCC/Demo/TaskNotifyArray.c:815:20
	ldr	r0, [sp, #8]                    @ 4-byte Reload
	ldr	r1, [r0]
	adds	r1, r1, #1
	str	r1, [r0]
.Ltmp31:
	.loc	3 817 9                         @ ../../../CORTEX_MPU_M3_NUCLEO_L152RE_GCC/Demo/TaskNotifyArray.c:817:9
	ldr	r0, [r0]
.Ltmp32:
	.loc	3 817 9 is_stmt 0               @ ../../../CORTEX_MPU_M3_NUCLEO_L152RE_GCC/Demo/TaskNotifyArray.c:817:9
	cmp	r0, #3
	blt	.LBB2_2
	b	.LBB2_1
.LBB2_1:
.Ltmp33:
	.loc	3 819 25 is_stmt 1              @ ../../../CORTEX_MPU_M3_NUCLEO_L152RE_GCC/Demo/TaskNotifyArray.c:819:25
	movw	r1, :lower16:prvNotifyingTimerCallback.uxIndexToNotify
	movt	r1, :upper16:prvNotifyingTimerCallback.uxIndexToNotify
	movs	r0, #0
	str	r0, [r1]
	.loc	3 820 5                         @ ../../../CORTEX_MPU_M3_NUCLEO_L152RE_GCC/Demo/TaskNotifyArray.c:820:5
	b	.LBB2_2
.Ltmp34:
.LBB2_2:
	.loc	3 821 1                         @ ../../../CORTEX_MPU_M3_NUCLEO_L152RE_GCC/Demo/TaskNotifyArray.c:821:1
	add	sp, #16
	pop	{r7, pc}
.Ltmp35:
.Lfunc_end2:
	.size	prvNotifyingTimerCallback, .Lfunc_end2-prvNotifyingTimerCallback
	.cfi_endproc
	.cantunwind
	.fnend
                                        @ -- End function
	.section	.text.prvNotifiedTask,"ax",%progbits
	.p2align	1                               @ -- Begin function prvNotifiedTask
	.type	prvNotifiedTask,%function
	.code	16                              @ @prvNotifiedTask
	.thumb_func
prvNotifiedTask:
.Lfunc_begin3:
	.loc	3 192 0                         @ ../../../CORTEX_MPU_M3_NUCLEO_L152RE_GCC/Demo/TaskNotifyArray.c:192:0
	.fnstart
	.cfi_startproc
@ %bb.0:
	.save	{r7, lr}
	push	{r7, lr}
	.cfi_def_cfa_offset 8
	.cfi_offset lr, -4
	.cfi_offset r7, -8
	.pad	#8
	sub	sp, #8
	.cfi_def_cfa_offset 16
	str	r0, [sp, #4]
.Ltmp36:
	.loc	3 198 5 prologue_end            @ ../../../CORTEX_MPU_M3_NUCLEO_L152RE_GCC/Demo/TaskNotifyArray.c:198:5
	b	.LBB3_1
.LBB3_1:                                @ =>This Inner Loop Header: Depth=1
.Ltmp37:
	.loc	3 200 9                         @ ../../../CORTEX_MPU_M3_NUCLEO_L152RE_GCC/Demo/TaskNotifyArray.c:200:9
	bl	prvSingleTaskTests
	.loc	3 201 9                         @ ../../../CORTEX_MPU_M3_NUCLEO_L152RE_GCC/Demo/TaskNotifyArray.c:201:9
	bl	prvTestNotifyTaskWhileSuspended
	.loc	3 202 9                         @ ../../../CORTEX_MPU_M3_NUCLEO_L152RE_GCC/Demo/TaskNotifyArray.c:202:9
	bl	prvBlockOnTheNotifiedIndexed
	.loc	3 203 9                         @ ../../../CORTEX_MPU_M3_NUCLEO_L152RE_GCC/Demo/TaskNotifyArray.c:203:9
	bl	prvBlockOnANonNotifiedIndexed
	.loc	3 204 9                         @ ../../../CORTEX_MPU_M3_NUCLEO_L152RE_GCC/Demo/TaskNotifyArray.c:204:9
	bl	prvBlockOnNotificationsComingFromInterrupts
	.loc	3 205 34                        @ ../../../CORTEX_MPU_M3_NUCLEO_L152RE_GCC/Demo/TaskNotifyArray.c:205:34
	movw	r1, :lower16:ulCourseCycleCounter
	movt	r1, :upper16:ulCourseCycleCounter
	ldr	r0, [r1]
	adds	r0, r0, #1
	str	r0, [r1]
.Ltmp38:
	.loc	3 198 5                         @ ../../../CORTEX_MPU_M3_NUCLEO_L152RE_GCC/Demo/TaskNotifyArray.c:198:5
	b	.LBB3_1
.Ltmp39:
.Lfunc_end3:
	.size	prvNotifiedTask, .Lfunc_end3-prvNotifiedTask
	.cfi_endproc
	.cantunwind
	.fnend
                                        @ -- End function
	.section	.text.prvRand,"ax",%progbits
	.p2align	1                               @ -- Begin function prvRand
	.type	prvRand,%function
	.code	16                              @ @prvRand
	.thumb_func
prvRand:
.Lfunc_begin4:
	.loc	3 1229 0                        @ ../../../CORTEX_MPU_M3_NUCLEO_L152RE_GCC/Demo/TaskNotifyArray.c:1229:0
	.fnstart
	.cfi_startproc
@ %bb.0:
	.pad	#8
	sub	sp, #8
	.cfi_def_cfa_offset 8
	movw	r1, #20021
	movt	r1, #346
.Ltmp40:
	.loc	3 1230 18 prologue_end          @ ../../../CORTEX_MPU_M3_NUCLEO_L152RE_GCC/Demo/TaskNotifyArray.c:1230:18
	str	r1, [sp, #4]
	movs	r0, #1
	.loc	3 1230 56 is_stmt 0             @ ../../../CORTEX_MPU_M3_NUCLEO_L152RE_GCC/Demo/TaskNotifyArray.c:1230:56
	str	r0, [sp]
	.loc	3 1233 40 is_stmt 1             @ ../../../CORTEX_MPU_M3_NUCLEO_L152RE_GCC/Demo/TaskNotifyArray.c:1233:40
	movw	r0, :lower16:uxNextRand
	movt	r0, :upper16:uxNextRand
	ldr	r2, [r0]
	.loc	3 1233 38 is_stmt 0             @ ../../../CORTEX_MPU_M3_NUCLEO_L152RE_GCC/Demo/TaskNotifyArray.c:1233:38
	muls	r1, r2, r1
	.loc	3 1233 58                       @ ../../../CORTEX_MPU_M3_NUCLEO_L152RE_GCC/Demo/TaskNotifyArray.c:1233:58
	adds	r1, r1, #1
	.loc	3 1233 21                       @ ../../../CORTEX_MPU_M3_NUCLEO_L152RE_GCC/Demo/TaskNotifyArray.c:1233:21
	str	r1, [r0]
	.loc	3 1234 15 is_stmt 1             @ ../../../CORTEX_MPU_M3_NUCLEO_L152RE_GCC/Demo/TaskNotifyArray.c:1234:15
	ldrh	r0, [r0, #2]
	movw	r1, #32767
	.loc	3 1234 39 is_stmt 0             @ ../../../CORTEX_MPU_M3_NUCLEO_L152RE_GCC/Demo/TaskNotifyArray.c:1234:39
	ands	r0, r1
	.loc	3 1234 5                        @ ../../../CORTEX_MPU_M3_NUCLEO_L152RE_GCC/Demo/TaskNotifyArray.c:1234:5
	add	sp, #8
	bx	lr
.Ltmp41:
.Lfunc_end4:
	.size	prvRand, .Lfunc_end4-prvRand
	.cfi_endproc
	.cantunwind
	.fnend
                                        @ -- End function
	.section	.text.xNotifyArrayTaskFromISR,"ax",%progbits
	.hidden	xNotifyArrayTaskFromISR         @ -- Begin function xNotifyArrayTaskFromISR
	.globl	xNotifyArrayTaskFromISR
	.p2align	1
	.type	xNotifyArrayTaskFromISR,%function
	.code	16                              @ @xNotifyArrayTaskFromISR
	.thumb_func
xNotifyArrayTaskFromISR:
.Lfunc_begin5:
	.loc	3 1132 0 is_stmt 1              @ ../../../CORTEX_MPU_M3_NUCLEO_L152RE_GCC/Demo/TaskNotifyArray.c:1132:0
	.fnstart
	.cfi_startproc
@ %bb.0:
	.save	{r7, lr}
	push	{r7, lr}
	.cfi_def_cfa_offset 8
	.cfi_offset lr, -4
	.cfi_offset r7, -8
	.pad	#24
	sub	sp, #24
	.cfi_def_cfa_offset 32
	movs	r0, #255
.Ltmp42:
	.loc	3 1135 20 prologue_end          @ ../../../CORTEX_MPU_M3_NUCLEO_L152RE_GCC/Demo/TaskNotifyArray.c:1135:20
	str	r0, [sp, #16]
.Ltmp43:
	.loc	3 1144 9                        @ ../../../CORTEX_MPU_M3_NUCLEO_L152RE_GCC/Demo/TaskNotifyArray.c:1144:9
	movw	r0, :lower16:xSendNotificationFromISR
	movt	r0, :upper16:xSendNotificationFromISR
	ldr	r0, [r0]
.Ltmp44:
	.loc	3 1144 9 is_stmt 0              @ ../../../CORTEX_MPU_M3_NUCLEO_L152RE_GCC/Demo/TaskNotifyArray.c:1144:9
	cmp	r0, #1
	bne	.LBB5_14
	b	.LBB5_1
.LBB5_1:
.Ltmp45:
	.loc	3 1146 39 is_stmt 1             @ ../../../CORTEX_MPU_M3_NUCLEO_L152RE_GCC/Demo/TaskNotifyArray.c:1146:39
	movw	r1, :lower16:xSendNotificationFromISR
	movt	r1, :upper16:xSendNotificationFromISR
	movs	r0, #0
	str	r0, [r1]
	.loc	3 1152 17                       @ ../../../CORTEX_MPU_M3_NUCLEO_L152RE_GCC/Demo/TaskNotifyArray.c:1152:17
	movw	r0, :lower16:xNotifyArrayTaskFromISR.xAPIToUse
	movt	r0, :upper16:xNotifyArrayTaskFromISR.xAPIToUse
	ldr	r0, [r0]
	.loc	3 1152 9 is_stmt 0              @ ../../../CORTEX_MPU_M3_NUCLEO_L152RE_GCC/Demo/TaskNotifyArray.c:1152:9
	str	r0, [sp, #12]                   @ 4-byte Spill
	cbz	r0, .LBB5_4
	b	.LBB5_2
.LBB5_2:
	ldr	r0, [sp, #12]                   @ 4-byte Reload
	cmp	r0, #1
	beq	.LBB5_5
	b	.LBB5_3
.LBB5_3:
	ldr	r0, [sp, #12]                   @ 4-byte Reload
	cmp	r0, #2
	beq	.LBB5_6
	b	.LBB5_10
.LBB5_4:
.Ltmp46:
	.loc	3 1155 17 is_stmt 1             @ ../../../CORTEX_MPU_M3_NUCLEO_L152RE_GCC/Demo/TaskNotifyArray.c:1155:17
	movw	r0, :lower16:xTaskToNotify
	movt	r0, :upper16:xTaskToNotify
	ldr	r0, [r0]
	movw	r1, :lower16:xNotifyArrayTaskFromISR.uxIndexToNotify
	movt	r1, :upper16:xNotifyArrayTaskFromISR.uxIndexToNotify
	ldr	r1, [r1]
	movs	r2, #0
	bl	vTaskGenericNotifyGiveFromISR
	.loc	3 1156 26                       @ ../../../CORTEX_MPU_M3_NUCLEO_L152RE_GCC/Demo/TaskNotifyArray.c:1156:26
	movw	r1, :lower16:xNotifyArrayTaskFromISR.xAPIToUse
	movt	r1, :upper16:xNotifyArrayTaskFromISR.xAPIToUse
	ldr	r0, [r1]
	adds	r0, r0, #1
	str	r0, [r1]
	.loc	3 1157 17                       @ ../../../CORTEX_MPU_M3_NUCLEO_L152RE_GCC/Demo/TaskNotifyArray.c:1157:17
	b	.LBB5_11
.LBB5_5:
	.loc	3 1160 17                       @ ../../../CORTEX_MPU_M3_NUCLEO_L152RE_GCC/Demo/TaskNotifyArray.c:1160:17
	movw	r0, :lower16:xTaskToNotify
	movt	r0, :upper16:xTaskToNotify
	ldr	r0, [r0]
	movw	r1, :lower16:xNotifyArrayTaskFromISR.uxIndexToNotify
	movt	r1, :upper16:xNotifyArrayTaskFromISR.uxIndexToNotify
	ldr	r1, [r1]
	movs	r2, #0
	str	r2, [sp, #4]
	str	r2, [sp]
	movs	r3, #2
	bl	xTaskGenericNotifyFromISR
	.loc	3 1161 26                       @ ../../../CORTEX_MPU_M3_NUCLEO_L152RE_GCC/Demo/TaskNotifyArray.c:1161:26
	movw	r1, :lower16:xNotifyArrayTaskFromISR.xAPIToUse
	movt	r1, :upper16:xNotifyArrayTaskFromISR.xAPIToUse
	ldr	r0, [r1]
	adds	r0, r0, #1
	str	r0, [r1]
	.loc	3 1162 17                       @ ../../../CORTEX_MPU_M3_NUCLEO_L152RE_GCC/Demo/TaskNotifyArray.c:1162:17
	b	.LBB5_11
.LBB5_6:
	.loc	3 0 17 is_stmt 0                @ ../../../CORTEX_MPU_M3_NUCLEO_L152RE_GCC/Demo/TaskNotifyArray.c:0:17
	movs	r0, #255
	.loc	3 1165 33 is_stmt 1             @ ../../../CORTEX_MPU_M3_NUCLEO_L152RE_GCC/Demo/TaskNotifyArray.c:1165:33
	str	r0, [sp, #20]
	.loc	3 1166 17                       @ ../../../CORTEX_MPU_M3_NUCLEO_L152RE_GCC/Demo/TaskNotifyArray.c:1166:17
	movw	r0, :lower16:xTaskToNotify
	movt	r0, :upper16:xTaskToNotify
	ldr	r0, [r0]
	movw	r1, :lower16:xNotifyArrayTaskFromISR.uxIndexToNotify
	movt	r1, :upper16:xNotifyArrayTaskFromISR.uxIndexToNotify
	ldr	r1, [r1]
	movs	r2, #0
	str	r2, [sp, #4]
	add	r3, sp, #20
	str	r3, [sp]
	movs	r3, #2
	bl	xTaskGenericNotifyFromISR
.Ltmp47:
	.loc	3 1167 17                       @ ../../../CORTEX_MPU_M3_NUCLEO_L152RE_GCC/Demo/TaskNotifyArray.c:1167:17
	ldr	r0, [sp, #20]
.Ltmp48:
	.loc	3 1167 17 is_stmt 0             @ ../../../CORTEX_MPU_M3_NUCLEO_L152RE_GCC/Demo/TaskNotifyArray.c:1167:17
	cbz	r0, .LBB5_9
	b	.LBB5_7
.LBB5_7:
.Ltmp49:
	.loc	3 1167 17                       @ ../../../CORTEX_MPU_M3_NUCLEO_L152RE_GCC/Demo/TaskNotifyArray.c:1167:17
	@APP
	cpsid i
	@NO_APP
	b	.LBB5_8
.LBB5_8:                                @ =>This Inner Loop Header: Depth=1
.Ltmp50:
	.loc	3 1167 17                       @ ../../../CORTEX_MPU_M3_NUCLEO_L152RE_GCC/Demo/TaskNotifyArray.c:1167:17
	b	.LBB5_8
.Ltmp51:
.LBB5_9:
	.loc	3 1168 27 is_stmt 1             @ ../../../CORTEX_MPU_M3_NUCLEO_L152RE_GCC/Demo/TaskNotifyArray.c:1168:27
	movw	r1, :lower16:xNotifyArrayTaskFromISR.xAPIToUse
	movt	r1, :upper16:xNotifyArrayTaskFromISR.xAPIToUse
	movs	r0, #0
	str	r0, [r1]
	.loc	3 1169 17                       @ ../../../CORTEX_MPU_M3_NUCLEO_L152RE_GCC/Demo/TaskNotifyArray.c:1169:17
	b	.LBB5_11
.LBB5_10:
	.loc	3 1172 17                       @ ../../../CORTEX_MPU_M3_NUCLEO_L152RE_GCC/Demo/TaskNotifyArray.c:1172:17
	b	.LBB5_11
.Ltmp52:
.LBB5_11:
	.loc	3 1177 24                       @ ../../../CORTEX_MPU_M3_NUCLEO_L152RE_GCC/Demo/TaskNotifyArray.c:1177:24
	movw	r0, :lower16:xNotifyArrayTaskFromISR.uxIndexToNotify
	movt	r0, :upper16:xNotifyArrayTaskFromISR.uxIndexToNotify
	ldr	r1, [r0]
	adds	r1, r1, #1
	str	r1, [r0]
.Ltmp53:
	.loc	3 1179 13                       @ ../../../CORTEX_MPU_M3_NUCLEO_L152RE_GCC/Demo/TaskNotifyArray.c:1179:13
	ldr	r0, [r0]
.Ltmp54:
	.loc	3 1179 13 is_stmt 0             @ ../../../CORTEX_MPU_M3_NUCLEO_L152RE_GCC/Demo/TaskNotifyArray.c:1179:13
	cmp	r0, #3
	blo	.LBB5_13
	b	.LBB5_12
.LBB5_12:
.Ltmp55:
	.loc	3 1181 29 is_stmt 1             @ ../../../CORTEX_MPU_M3_NUCLEO_L152RE_GCC/Demo/TaskNotifyArray.c:1181:29
	movw	r1, :lower16:xNotifyArrayTaskFromISR.uxIndexToNotify
	movt	r1, :upper16:xNotifyArrayTaskFromISR.uxIndexToNotify
	movs	r0, #0
	str	r0, [r1]
	.loc	3 1182 9                        @ ../../../CORTEX_MPU_M3_NUCLEO_L152RE_GCC/Demo/TaskNotifyArray.c:1182:9
	b	.LBB5_13
.Ltmp56:
.LBB5_13:
	.loc	3 1183 5                        @ ../../../CORTEX_MPU_M3_NUCLEO_L152RE_GCC/Demo/TaskNotifyArray.c:1183:5
	b	.LBB5_14
.Ltmp57:
.LBB5_14:
	.loc	3 1184 1                        @ ../../../CORTEX_MPU_M3_NUCLEO_L152RE_GCC/Demo/TaskNotifyArray.c:1184:1
	add	sp, #24
	pop	{r7, pc}
.Ltmp58:
.Lfunc_end5:
	.size	xNotifyArrayTaskFromISR, .Lfunc_end5-xNotifyArrayTaskFromISR
	.cfi_endproc
	.cantunwind
	.fnend
                                        @ -- End function
	.section	.text.xAreTaskNotificationArrayTasksStillRunning,"ax",%progbits
	.hidden	xAreTaskNotificationArrayTasksStillRunning @ -- Begin function xAreTaskNotificationArrayTasksStillRunning
	.globl	xAreTaskNotificationArrayTasksStillRunning
	.p2align	1
	.type	xAreTaskNotificationArrayTasksStillRunning,%function
	.code	16                              @ @xAreTaskNotificationArrayTasksStillRunning
	.thumb_func
xAreTaskNotificationArrayTasksStillRunning:
.Lfunc_begin6:
	.loc	3 1190 0                        @ ../../../CORTEX_MPU_M3_NUCLEO_L152RE_GCC/Demo/TaskNotifyArray.c:1190:0
	.fnstart
	.cfi_startproc
@ %bb.0:
	.pad	#4
	sub	sp, #4
	.cfi_def_cfa_offset 4
	movs	r0, #3
.Ltmp59:
	.loc	3 1192 20 prologue_end          @ ../../../CORTEX_MPU_M3_NUCLEO_L152RE_GCC/Demo/TaskNotifyArray.c:1192:20
	str	r0, [sp]
.Ltmp60:
	.loc	3 1199 9                        @ ../../../CORTEX_MPU_M3_NUCLEO_L152RE_GCC/Demo/TaskNotifyArray.c:1199:9
	movw	r0, :lower16:xAreTaskNotificationArrayTasksStillRunning.ulLastFineCycleCount
	movt	r0, :upper16:xAreTaskNotificationArrayTasksStillRunning.ulLastFineCycleCount
	ldr	r0, [r0]
	.loc	3 1199 33 is_stmt 0             @ ../../../CORTEX_MPU_M3_NUCLEO_L152RE_GCC/Demo/TaskNotifyArray.c:1199:33
	movw	r1, :lower16:ulFineCycleCount
	movt	r1, :upper16:ulFineCycleCount
	ldr	r1, [r1]
.Ltmp61:
	.loc	3 1199 9                        @ ../../../CORTEX_MPU_M3_NUCLEO_L152RE_GCC/Demo/TaskNotifyArray.c:1199:9
	cmp	r0, r1
	bne	.LBB6_2
	b	.LBB6_1
.LBB6_1:
.Ltmp62:
	.loc	3 1201 22 is_stmt 1             @ ../../../CORTEX_MPU_M3_NUCLEO_L152RE_GCC/Demo/TaskNotifyArray.c:1201:22
	movw	r1, :lower16:xAreTaskNotificationArrayTasksStillRunning.xErrorStatus
	movt	r1, :upper16:xAreTaskNotificationArrayTasksStillRunning.xErrorStatus
	movs	r0, #0
	str	r0, [r1]
	.loc	3 1202 5                        @ ../../../CORTEX_MPU_M3_NUCLEO_L152RE_GCC/Demo/TaskNotifyArray.c:1202:5
	b	.LBB6_3
.Ltmp63:
.LBB6_2:
	.loc	3 1205 32                       @ ../../../CORTEX_MPU_M3_NUCLEO_L152RE_GCC/Demo/TaskNotifyArray.c:1205:32
	movw	r0, :lower16:ulFineCycleCount
	movt	r0, :upper16:ulFineCycleCount
	ldr	r0, [r0]
	.loc	3 1205 30 is_stmt 0             @ ../../../CORTEX_MPU_M3_NUCLEO_L152RE_GCC/Demo/TaskNotifyArray.c:1205:30
	movw	r1, :lower16:xAreTaskNotificationArrayTasksStillRunning.ulLastFineCycleCount
	movt	r1, :upper16:xAreTaskNotificationArrayTasksStillRunning.ulLastFineCycleCount
	str	r0, [r1]
	b	.LBB6_3
.Ltmp64:
.LBB6_3:
	.loc	3 1208 16 is_stmt 1             @ ../../../CORTEX_MPU_M3_NUCLEO_L152RE_GCC/Demo/TaskNotifyArray.c:1208:16
	movw	r0, :lower16:xAreTaskNotificationArrayTasksStillRunning.ulCallCount
	movt	r0, :upper16:xAreTaskNotificationArrayTasksStillRunning.ulCallCount
	ldr	r1, [r0]
	adds	r1, r1, #1
	str	r1, [r0]
.Ltmp65:
	.loc	3 1210 9                        @ ../../../CORTEX_MPU_M3_NUCLEO_L152RE_GCC/Demo/TaskNotifyArray.c:1210:9
	ldr	r0, [r0]
.Ltmp66:
	.loc	3 1210 9 is_stmt 0              @ ../../../CORTEX_MPU_M3_NUCLEO_L152RE_GCC/Demo/TaskNotifyArray.c:1210:9
	cmp	r0, #3
	blo	.LBB6_8
	b	.LBB6_4
.LBB6_4:
.Ltmp67:
	.loc	3 1212 21 is_stmt 1             @ ../../../CORTEX_MPU_M3_NUCLEO_L152RE_GCC/Demo/TaskNotifyArray.c:1212:21
	movw	r1, :lower16:xAreTaskNotificationArrayTasksStillRunning.ulCallCount
	movt	r1, :upper16:xAreTaskNotificationArrayTasksStillRunning.ulCallCount
	movs	r0, #0
	str	r0, [r1]
.Ltmp68:
	.loc	3 1214 13                       @ ../../../CORTEX_MPU_M3_NUCLEO_L152RE_GCC/Demo/TaskNotifyArray.c:1214:13
	movw	r0, :lower16:xAreTaskNotificationArrayTasksStillRunning.ulLastCourseCycleCount
	movt	r0, :upper16:xAreTaskNotificationArrayTasksStillRunning.ulLastCourseCycleCount
	ldr	r0, [r0]
	.loc	3 1214 39 is_stmt 0             @ ../../../CORTEX_MPU_M3_NUCLEO_L152RE_GCC/Demo/TaskNotifyArray.c:1214:39
	movw	r1, :lower16:ulCourseCycleCounter
	movt	r1, :upper16:ulCourseCycleCounter
	ldr	r1, [r1]
.Ltmp69:
	.loc	3 1214 13                       @ ../../../CORTEX_MPU_M3_NUCLEO_L152RE_GCC/Demo/TaskNotifyArray.c:1214:13
	cmp	r0, r1
	bne	.LBB6_6
	b	.LBB6_5
.LBB6_5:
.Ltmp70:
	.loc	3 1216 26 is_stmt 1             @ ../../../CORTEX_MPU_M3_NUCLEO_L152RE_GCC/Demo/TaskNotifyArray.c:1216:26
	movw	r1, :lower16:xAreTaskNotificationArrayTasksStillRunning.xErrorStatus
	movt	r1, :upper16:xAreTaskNotificationArrayTasksStillRunning.xErrorStatus
	movs	r0, #0
	str	r0, [r1]
	.loc	3 1217 9                        @ ../../../CORTEX_MPU_M3_NUCLEO_L152RE_GCC/Demo/TaskNotifyArray.c:1217:9
	b	.LBB6_7
.Ltmp71:
.LBB6_6:
	.loc	3 1220 38                       @ ../../../CORTEX_MPU_M3_NUCLEO_L152RE_GCC/Demo/TaskNotifyArray.c:1220:38
	movw	r0, :lower16:ulCourseCycleCounter
	movt	r0, :upper16:ulCourseCycleCounter
	ldr	r0, [r0]
	.loc	3 1220 36 is_stmt 0             @ ../../../CORTEX_MPU_M3_NUCLEO_L152RE_GCC/Demo/TaskNotifyArray.c:1220:36
	movw	r1, :lower16:xAreTaskNotificationArrayTasksStillRunning.ulLastCourseCycleCount
	movt	r1, :upper16:xAreTaskNotificationArrayTasksStillRunning.ulLastCourseCycleCount
	str	r0, [r1]
	b	.LBB6_7
.Ltmp72:
.LBB6_7:
	.loc	3 1222 5 is_stmt 1              @ ../../../CORTEX_MPU_M3_NUCLEO_L152RE_GCC/Demo/TaskNotifyArray.c:1222:5
	b	.LBB6_8
.Ltmp73:
.LBB6_8:
	.loc	3 1224 12                       @ ../../../CORTEX_MPU_M3_NUCLEO_L152RE_GCC/Demo/TaskNotifyArray.c:1224:12
	movw	r0, :lower16:xAreTaskNotificationArrayTasksStillRunning.xErrorStatus
	movt	r0, :upper16:xAreTaskNotificationArrayTasksStillRunning.xErrorStatus
	ldr	r0, [r0]
	.loc	3 1224 5 is_stmt 0              @ ../../../CORTEX_MPU_M3_NUCLEO_L152RE_GCC/Demo/TaskNotifyArray.c:1224:5
	add	sp, #4
	bx	lr
.Ltmp74:
.Lfunc_end6:
	.size	xAreTaskNotificationArrayTasksStillRunning, .Lfunc_end6-xAreTaskNotificationArrayTasksStillRunning
	.cfi_endproc
	.cantunwind
	.fnend
                                        @ -- End function
	.section	.text.prvSingleTaskTests,"ax",%progbits
	.p2align	1                               @ -- Begin function prvSingleTaskTests
	.type	prvSingleTaskTests,%function
	.code	16                              @ @prvSingleTaskTests
	.thumb_func
prvSingleTaskTests:
.Lfunc_begin7:
	.loc	3 211 0 is_stmt 1               @ ../../../CORTEX_MPU_M3_NUCLEO_L152RE_GCC/Demo/TaskNotifyArray.c:211:0
	.fnstart
	.cfi_startproc
@ %bb.0:
	.save	{r7, lr}
	push	{r7, lr}
	.cfi_def_cfa_offset 8
	.cfi_offset lr, -4
	.cfi_offset r7, -8
	.pad	#96
	sub	sp, #96
	.cfi_def_cfa_offset 104
	movs	r0, #10
.Ltmp75:
	.loc	3 212 22 prologue_end           @ ../../../CORTEX_MPU_M3_NUCLEO_L152RE_GCC/Demo/TaskNotifyArray.c:212:22
	str	r0, [sp, #92]
	movw	r0, #34465
	movt	r0, #1
	.loc	3 216 20                        @ ../../../CORTEX_MPU_M3_NUCLEO_L152RE_GCC/Demo/TaskNotifyArray.c:216:20
	str	r0, [sp, #52]
	movw	r0, #5555
	.loc	3 216 53 is_stmt 0              @ ../../../CORTEX_MPU_M3_NUCLEO_L152RE_GCC/Demo/TaskNotifyArray.c:216:53
	str	r0, [sp, #48]
	movs	r0, #5
	.loc	3 216 90                        @ ../../../CORTEX_MPU_M3_NUCLEO_L152RE_GCC/Demo/TaskNotifyArray.c:216:90
	str	r0, [sp, #44]
	movs	r0, #1
	.loc	3 217 20 is_stmt 1              @ ../../../CORTEX_MPU_M3_NUCLEO_L152RE_GCC/Demo/TaskNotifyArray.c:217:20
	str	r0, [sp, #40]
	movs	r0, #2
	.loc	3 217 37 is_stmt 0              @ ../../../CORTEX_MPU_M3_NUCLEO_L152RE_GCC/Demo/TaskNotifyArray.c:217:37
	str	r0, [sp, #36]
	movs	r0, #0
.Ltmp76:
	.loc	3 223 24 is_stmt 1              @ ../../../CORTEX_MPU_M3_NUCLEO_L152RE_GCC/Demo/TaskNotifyArray.c:223:24
	str	r0, [sp, #32]
	.loc	3 223 10 is_stmt 0              @ ../../../CORTEX_MPU_M3_NUCLEO_L152RE_GCC/Demo/TaskNotifyArray.c:223:10
	b	.LBB7_1
.LBB7_1:                                @ =>This Loop Header: Depth=1
                                        @     Child Loop BB7_3 Depth 2
                                        @     Child Loop BB7_18 Depth 2
.Ltmp77:
	.loc	3 223 29                        @ ../../../CORTEX_MPU_M3_NUCLEO_L152RE_GCC/Demo/TaskNotifyArray.c:223:29
	ldr	r0, [sp, #32]
.Ltmp78:
	.loc	3 223 5                         @ ../../../CORTEX_MPU_M3_NUCLEO_L152RE_GCC/Demo/TaskNotifyArray.c:223:5
	cmp	r0, #2
	bhi	.LBB7_28
	b	.LBB7_2
.LBB7_2:                                @   in Loop: Header=BB7_1 Depth=1
	.loc	3 0 5                           @ ../../../CORTEX_MPU_M3_NUCLEO_L152RE_GCC/Demo/TaskNotifyArray.c:0:5
	movs	r0, #0
.Ltmp79:
	.loc	3 228 29 is_stmt 1              @ ../../../CORTEX_MPU_M3_NUCLEO_L152RE_GCC/Demo/TaskNotifyArray.c:228:29
	str	r0, [sp, #28]
	.loc	3 228 14 is_stmt 0              @ ../../../CORTEX_MPU_M3_NUCLEO_L152RE_GCC/Demo/TaskNotifyArray.c:228:14
	b	.LBB7_3
.LBB7_3:                                @   Parent Loop BB7_1 Depth=1
                                        @ =>  This Inner Loop Header: Depth=2
.Ltmp80:
	.loc	3 228 34                        @ ../../../CORTEX_MPU_M3_NUCLEO_L152RE_GCC/Demo/TaskNotifyArray.c:228:34
	ldr	r0, [sp, #28]
.Ltmp81:
	.loc	3 228 9                         @ ../../../CORTEX_MPU_M3_NUCLEO_L152RE_GCC/Demo/TaskNotifyArray.c:228:9
	cmp	r0, #2
	bhi	.LBB7_8
	b	.LBB7_4
.LBB7_4:                                @   in Loop: Header=BB7_3 Depth=2
.Ltmp82:
	.loc	3 230 17 is_stmt 1              @ ../../../CORTEX_MPU_M3_NUCLEO_L152RE_GCC/Demo/TaskNotifyArray.c:230:17
	ldr	r0, [sp, #28]
	.loc	3 230 35 is_stmt 0              @ ../../../CORTEX_MPU_M3_NUCLEO_L152RE_GCC/Demo/TaskNotifyArray.c:230:35
	ldr	r1, [sp, #32]
.Ltmp83:
	.loc	3 230 17                        @ ../../../CORTEX_MPU_M3_NUCLEO_L152RE_GCC/Demo/TaskNotifyArray.c:230:17
	cmp	r0, r1
	beq	.LBB7_6
	b	.LBB7_5
.LBB7_5:                                @   in Loop: Header=BB7_3 Depth=2
.Ltmp84:
	.loc	3 232 17 is_stmt 1              @ ../../../CORTEX_MPU_M3_NUCLEO_L152RE_GCC/Demo/TaskNotifyArray.c:232:17
	movw	r0, :lower16:xTaskToNotify
	movt	r0, :upper16:xTaskToNotify
	ldr	r0, [r0]
	ldr	r1, [sp, #28]
	movs	r3, #0
	str	r3, [sp]
	mov	r2, r3
	bl	MPU_xTaskGenericNotify
	.loc	3 233 13                        @ ../../../CORTEX_MPU_M3_NUCLEO_L152RE_GCC/Demo/TaskNotifyArray.c:233:13
	b	.LBB7_6
.Ltmp85:
.LBB7_6:                                @   in Loop: Header=BB7_3 Depth=2
	.loc	3 234 9                         @ ../../../CORTEX_MPU_M3_NUCLEO_L152RE_GCC/Demo/TaskNotifyArray.c:234:9
	b	.LBB7_7
.Ltmp86:
.LBB7_7:                                @   in Loop: Header=BB7_3 Depth=2
	.loc	3 228 104                       @ ../../../CORTEX_MPU_M3_NUCLEO_L152RE_GCC/Demo/TaskNotifyArray.c:228:104
	ldr	r0, [sp, #28]
	adds	r0, r0, #1
	str	r0, [sp, #28]
	.loc	3 228 9 is_stmt 0               @ ../../../CORTEX_MPU_M3_NUCLEO_L152RE_GCC/Demo/TaskNotifyArray.c:228:9
	b	.LBB7_3
.Ltmp87:
.LBB7_8:                                @   in Loop: Header=BB7_1 Depth=1
	.loc	3 236 27 is_stmt 1              @ ../../../CORTEX_MPU_M3_NUCLEO_L152RE_GCC/Demo/TaskNotifyArray.c:236:27
	bl	MPU_xTaskGetTickCount
	.loc	3 236 25 is_stmt 0              @ ../../../CORTEX_MPU_M3_NUCLEO_L152RE_GCC/Demo/TaskNotifyArray.c:236:25
	str	r0, [sp, #64]
	.loc	3 237 21 is_stmt 1              @ ../../../CORTEX_MPU_M3_NUCLEO_L152RE_GCC/Demo/TaskNotifyArray.c:237:21
	ldr	r0, [sp, #32]
	movs	r1, #10
	str	r1, [sp]
	movs	r2, #0
	mvns	r1, r2
	add	r3, sp, #84
	bl	MPU_xTaskGenericNotifyWait
	.loc	3 237 19 is_stmt 0              @ ../../../CORTEX_MPU_M3_NUCLEO_L152RE_GCC/Demo/TaskNotifyArray.c:237:19
	str	r0, [sp, #88]
	.loc	3 241 20 is_stmt 1              @ ../../../CORTEX_MPU_M3_NUCLEO_L152RE_GCC/Demo/TaskNotifyArray.c:241:20
	bl	MPU_xTaskGetTickCount
	.loc	3 241 18 is_stmt 0              @ ../../../CORTEX_MPU_M3_NUCLEO_L152RE_GCC/Demo/TaskNotifyArray.c:241:18
	str	r0, [sp, #60]
	.loc	3 242 27 is_stmt 1              @ ../../../CORTEX_MPU_M3_NUCLEO_L152RE_GCC/Demo/TaskNotifyArray.c:242:27
	ldr	r0, [sp, #60]
	.loc	3 242 38 is_stmt 0              @ ../../../CORTEX_MPU_M3_NUCLEO_L152RE_GCC/Demo/TaskNotifyArray.c:242:38
	ldr	r1, [sp, #64]
	.loc	3 242 36                        @ ../../../CORTEX_MPU_M3_NUCLEO_L152RE_GCC/Demo/TaskNotifyArray.c:242:36
	subs	r0, r0, r1
	.loc	3 242 25                        @ ../../../CORTEX_MPU_M3_NUCLEO_L152RE_GCC/Demo/TaskNotifyArray.c:242:25
	str	r0, [sp, #56]
.Ltmp88:
	.loc	3 243 9 is_stmt 1               @ ../../../CORTEX_MPU_M3_NUCLEO_L152RE_GCC/Demo/TaskNotifyArray.c:243:9
	ldr	r0, [sp, #56]
.Ltmp89:
	.loc	3 243 9 is_stmt 0               @ ../../../CORTEX_MPU_M3_NUCLEO_L152RE_GCC/Demo/TaskNotifyArray.c:243:9
	cmp	r0, #9
	bhi	.LBB7_11
	b	.LBB7_9
.LBB7_9:
.Ltmp90:
	.loc	3 243 9                         @ ../../../CORTEX_MPU_M3_NUCLEO_L152RE_GCC/Demo/TaskNotifyArray.c:243:9
	@APP
	cpsid i
	@NO_APP
	b	.LBB7_10
.LBB7_10:                               @ =>This Inner Loop Header: Depth=1
.Ltmp91:
	.loc	3 243 9                         @ ../../../CORTEX_MPU_M3_NUCLEO_L152RE_GCC/Demo/TaskNotifyArray.c:243:9
	b	.LBB7_10
.Ltmp92:
.LBB7_11:                               @   in Loop: Header=BB7_1 Depth=1
	.loc	3 244 9 is_stmt 1               @ ../../../CORTEX_MPU_M3_NUCLEO_L152RE_GCC/Demo/TaskNotifyArray.c:244:9
	ldr	r0, [sp, #88]
.Ltmp93:
	.loc	3 244 9 is_stmt 0               @ ../../../CORTEX_MPU_M3_NUCLEO_L152RE_GCC/Demo/TaskNotifyArray.c:244:9
	cbz	r0, .LBB7_14
	b	.LBB7_12
.LBB7_12:
.Ltmp94:
	.loc	3 244 9                         @ ../../../CORTEX_MPU_M3_NUCLEO_L152RE_GCC/Demo/TaskNotifyArray.c:244:9
	@APP
	cpsid i
	@NO_APP
	b	.LBB7_13
.LBB7_13:                               @ =>This Inner Loop Header: Depth=1
.Ltmp95:
	.loc	3 244 9                         @ ../../../CORTEX_MPU_M3_NUCLEO_L152RE_GCC/Demo/TaskNotifyArray.c:244:9
	b	.LBB7_13
.Ltmp96:
.LBB7_14:                               @   in Loop: Header=BB7_1 Depth=1
	.loc	3 245 9 is_stmt 1               @ ../../../CORTEX_MPU_M3_NUCLEO_L152RE_GCC/Demo/TaskNotifyArray.c:245:9
	ldr	r0, [sp, #84]
.Ltmp97:
	.loc	3 245 9 is_stmt 0               @ ../../../CORTEX_MPU_M3_NUCLEO_L152RE_GCC/Demo/TaskNotifyArray.c:245:9
	cbz	r0, .LBB7_17
	b	.LBB7_15
.LBB7_15:
.Ltmp98:
	.loc	3 245 9                         @ ../../../CORTEX_MPU_M3_NUCLEO_L152RE_GCC/Demo/TaskNotifyArray.c:245:9
	@APP
	cpsid i
	@NO_APP
	b	.LBB7_16
.LBB7_16:                               @ =>This Inner Loop Header: Depth=1
.Ltmp99:
	.loc	3 245 9                         @ ../../../CORTEX_MPU_M3_NUCLEO_L152RE_GCC/Demo/TaskNotifyArray.c:245:9
	b	.LBB7_16
.Ltmp100:
.LBB7_17:                               @   in Loop: Header=BB7_1 Depth=1
	.loc	3 0 9                           @ ../../../CORTEX_MPU_M3_NUCLEO_L152RE_GCC/Demo/TaskNotifyArray.c:0:9
	movs	r0, #0
.Ltmp101:
	.loc	3 251 29 is_stmt 1              @ ../../../CORTEX_MPU_M3_NUCLEO_L152RE_GCC/Demo/TaskNotifyArray.c:251:29
	str	r0, [sp, #28]
	.loc	3 251 14 is_stmt 0              @ ../../../CORTEX_MPU_M3_NUCLEO_L152RE_GCC/Demo/TaskNotifyArray.c:251:14
	b	.LBB7_18
.LBB7_18:                               @   Parent Loop BB7_1 Depth=1
                                        @ =>  This Inner Loop Header: Depth=2
.Ltmp102:
	.loc	3 251 34                        @ ../../../CORTEX_MPU_M3_NUCLEO_L152RE_GCC/Demo/TaskNotifyArray.c:251:34
	ldr	r0, [sp, #28]
.Ltmp103:
	.loc	3 251 9                         @ ../../../CORTEX_MPU_M3_NUCLEO_L152RE_GCC/Demo/TaskNotifyArray.c:251:9
	cmp	r0, #2
	bhi	.LBB7_26
	b	.LBB7_19
.LBB7_19:                               @   in Loop: Header=BB7_18 Depth=2
.Ltmp104:
	.loc	3 253 17 is_stmt 1              @ ../../../CORTEX_MPU_M3_NUCLEO_L152RE_GCC/Demo/TaskNotifyArray.c:253:17
	ldr	r0, [sp, #28]
	.loc	3 253 35 is_stmt 0              @ ../../../CORTEX_MPU_M3_NUCLEO_L152RE_GCC/Demo/TaskNotifyArray.c:253:35
	ldr	r1, [sp, #32]
.Ltmp105:
	.loc	3 253 17                        @ ../../../CORTEX_MPU_M3_NUCLEO_L152RE_GCC/Demo/TaskNotifyArray.c:253:17
	cmp	r0, r1
	beq	.LBB7_24
	b	.LBB7_20
.LBB7_20:                               @   in Loop: Header=BB7_18 Depth=2
.Ltmp106:
	.loc	3 255 29 is_stmt 1              @ ../../../CORTEX_MPU_M3_NUCLEO_L152RE_GCC/Demo/TaskNotifyArray.c:255:29
	movw	r0, :lower16:xTaskToNotify
	movt	r0, :upper16:xTaskToNotify
	ldr	r0, [r0]
	ldr	r1, [sp, #28]
	bl	MPU_xTaskGenericNotifyStateClear
	.loc	3 255 27 is_stmt 0              @ ../../../CORTEX_MPU_M3_NUCLEO_L152RE_GCC/Demo/TaskNotifyArray.c:255:27
	str	r0, [sp, #88]
.Ltmp107:
	.loc	3 259 17 is_stmt 1              @ ../../../CORTEX_MPU_M3_NUCLEO_L152RE_GCC/Demo/TaskNotifyArray.c:259:17
	ldr	r0, [sp, #88]
.Ltmp108:
	.loc	3 259 17 is_stmt 0              @ ../../../CORTEX_MPU_M3_NUCLEO_L152RE_GCC/Demo/TaskNotifyArray.c:259:17
	cmp	r0, #1
	beq	.LBB7_23
	b	.LBB7_21
.LBB7_21:
.Ltmp109:
	.loc	3 259 17                        @ ../../../CORTEX_MPU_M3_NUCLEO_L152RE_GCC/Demo/TaskNotifyArray.c:259:17
	@APP
	cpsid i
	@NO_APP
	b	.LBB7_22
.LBB7_22:                               @ =>This Inner Loop Header: Depth=1
.Ltmp110:
	.loc	3 259 17                        @ ../../../CORTEX_MPU_M3_NUCLEO_L152RE_GCC/Demo/TaskNotifyArray.c:259:17
	b	.LBB7_22
.Ltmp111:
.LBB7_23:                               @   in Loop: Header=BB7_18 Depth=2
	.loc	3 261 13 is_stmt 1              @ ../../../CORTEX_MPU_M3_NUCLEO_L152RE_GCC/Demo/TaskNotifyArray.c:261:13
	b	.LBB7_24
.Ltmp112:
.LBB7_24:                               @   in Loop: Header=BB7_18 Depth=2
	.loc	3 262 9                         @ ../../../CORTEX_MPU_M3_NUCLEO_L152RE_GCC/Demo/TaskNotifyArray.c:262:9
	b	.LBB7_25
.Ltmp113:
.LBB7_25:                               @   in Loop: Header=BB7_18 Depth=2
	.loc	3 251 104                       @ ../../../CORTEX_MPU_M3_NUCLEO_L152RE_GCC/Demo/TaskNotifyArray.c:251:104
	ldr	r0, [sp, #28]
	adds	r0, r0, #1
	str	r0, [sp, #28]
	.loc	3 251 9 is_stmt 0               @ ../../../CORTEX_MPU_M3_NUCLEO_L152RE_GCC/Demo/TaskNotifyArray.c:251:9
	b	.LBB7_18
.Ltmp114:
.LBB7_26:                               @   in Loop: Header=BB7_1 Depth=1
	.loc	3 263 5 is_stmt 1               @ ../../../CORTEX_MPU_M3_NUCLEO_L152RE_GCC/Demo/TaskNotifyArray.c:263:5
	b	.LBB7_27
.Ltmp115:
.LBB7_27:                               @   in Loop: Header=BB7_1 Depth=1
	.loc	3 223 97                        @ ../../../CORTEX_MPU_M3_NUCLEO_L152RE_GCC/Demo/TaskNotifyArray.c:223:97
	ldr	r0, [sp, #32]
	adds	r0, r0, #1
	str	r0, [sp, #32]
	.loc	3 223 5 is_stmt 0               @ ../../../CORTEX_MPU_M3_NUCLEO_L152RE_GCC/Demo/TaskNotifyArray.c:223:5
	b	.LBB7_1
.Ltmp116:
.LBB7_28:
	.loc	3 0 5                           @ ../../../CORTEX_MPU_M3_NUCLEO_L152RE_GCC/Demo/TaskNotifyArray.c:0:5
	movs	r0, #0
.Ltmp117:
	.loc	3 267 24 is_stmt 1              @ ../../../CORTEX_MPU_M3_NUCLEO_L152RE_GCC/Demo/TaskNotifyArray.c:267:24
	str	r0, [sp, #32]
	.loc	3 267 10 is_stmt 0              @ ../../../CORTEX_MPU_M3_NUCLEO_L152RE_GCC/Demo/TaskNotifyArray.c:267:10
	b	.LBB7_29
.LBB7_29:                               @ =>This Inner Loop Header: Depth=1
.Ltmp118:
	.loc	3 267 29                        @ ../../../CORTEX_MPU_M3_NUCLEO_L152RE_GCC/Demo/TaskNotifyArray.c:267:29
	ldr	r0, [sp, #32]
.Ltmp119:
	.loc	3 267 5                         @ ../../../CORTEX_MPU_M3_NUCLEO_L152RE_GCC/Demo/TaskNotifyArray.c:267:5
	cmp	r0, #2
	bhi	.LBB7_47
	b	.LBB7_30
.LBB7_30:                               @   in Loop: Header=BB7_29 Depth=1
.Ltmp120:
	.loc	3 272 21 is_stmt 1              @ ../../../CORTEX_MPU_M3_NUCLEO_L152RE_GCC/Demo/TaskNotifyArray.c:272:21
	movw	r0, :lower16:xTaskToNotify
	movt	r0, :upper16:xTaskToNotify
	ldr	r0, [r0]
	ldr	r1, [sp, #32]
	add	r2, sp, #72
	str	r2, [sp]
	movw	r2, #34465
	movt	r2, #1
	movs	r3, #4
	bl	MPU_xTaskGenericNotify
	.loc	3 272 19 is_stmt 0              @ ../../../CORTEX_MPU_M3_NUCLEO_L152RE_GCC/Demo/TaskNotifyArray.c:272:19
	str	r0, [sp, #88]
.Ltmp121:
	.loc	3 276 9 is_stmt 1               @ ../../../CORTEX_MPU_M3_NUCLEO_L152RE_GCC/Demo/TaskNotifyArray.c:276:9
	ldr	r0, [sp, #88]
.Ltmp122:
	.loc	3 276 9 is_stmt 0               @ ../../../CORTEX_MPU_M3_NUCLEO_L152RE_GCC/Demo/TaskNotifyArray.c:276:9
	cmp	r0, #1
	beq	.LBB7_33
	b	.LBB7_31
.LBB7_31:
.Ltmp123:
	.loc	3 276 9                         @ ../../../CORTEX_MPU_M3_NUCLEO_L152RE_GCC/Demo/TaskNotifyArray.c:276:9
	@APP
	cpsid i
	@NO_APP
	b	.LBB7_32
.LBB7_32:                               @ =>This Inner Loop Header: Depth=1
.Ltmp124:
	.loc	3 276 9                         @ ../../../CORTEX_MPU_M3_NUCLEO_L152RE_GCC/Demo/TaskNotifyArray.c:276:9
	b	.LBB7_32
.Ltmp125:
.LBB7_33:                               @   in Loop: Header=BB7_29 Depth=1
	.loc	3 280 9 is_stmt 1               @ ../../../CORTEX_MPU_M3_NUCLEO_L152RE_GCC/Demo/TaskNotifyArray.c:280:9
	ldr	r0, [sp, #72]
.Ltmp126:
	.loc	3 280 9 is_stmt 0               @ ../../../CORTEX_MPU_M3_NUCLEO_L152RE_GCC/Demo/TaskNotifyArray.c:280:9
	cbz	r0, .LBB7_36
	b	.LBB7_34
.LBB7_34:
.Ltmp127:
	.loc	3 280 9                         @ ../../../CORTEX_MPU_M3_NUCLEO_L152RE_GCC/Demo/TaskNotifyArray.c:280:9
	@APP
	cpsid i
	@NO_APP
	b	.LBB7_35
.LBB7_35:                               @ =>This Inner Loop Header: Depth=1
.Ltmp128:
	.loc	3 280 9                         @ ../../../CORTEX_MPU_M3_NUCLEO_L152RE_GCC/Demo/TaskNotifyArray.c:280:9
	b	.LBB7_35
.Ltmp129:
.LBB7_36:                               @   in Loop: Header=BB7_29 Depth=1
	.loc	3 286 27 is_stmt 1              @ ../../../CORTEX_MPU_M3_NUCLEO_L152RE_GCC/Demo/TaskNotifyArray.c:286:27
	bl	MPU_xTaskGetTickCount
	.loc	3 286 25 is_stmt 0              @ ../../../CORTEX_MPU_M3_NUCLEO_L152RE_GCC/Demo/TaskNotifyArray.c:286:25
	str	r0, [sp, #64]
	.loc	3 287 21 is_stmt 1              @ ../../../CORTEX_MPU_M3_NUCLEO_L152RE_GCC/Demo/TaskNotifyArray.c:287:21
	ldr	r0, [sp, #32]
	movs	r1, #10
	str	r1, [sp]
	movs	r2, #0
	mvns	r1, r2
	add	r3, sp, #84
	bl	MPU_xTaskGenericNotifyWait
	.loc	3 287 19 is_stmt 0              @ ../../../CORTEX_MPU_M3_NUCLEO_L152RE_GCC/Demo/TaskNotifyArray.c:287:19
	str	r0, [sp, #88]
	.loc	3 288 20 is_stmt 1              @ ../../../CORTEX_MPU_M3_NUCLEO_L152RE_GCC/Demo/TaskNotifyArray.c:288:20
	bl	MPU_xTaskGetTickCount
	.loc	3 288 18 is_stmt 0              @ ../../../CORTEX_MPU_M3_NUCLEO_L152RE_GCC/Demo/TaskNotifyArray.c:288:18
	str	r0, [sp, #60]
	.loc	3 289 27 is_stmt 1              @ ../../../CORTEX_MPU_M3_NUCLEO_L152RE_GCC/Demo/TaskNotifyArray.c:289:27
	ldr	r0, [sp, #60]
	.loc	3 289 38 is_stmt 0              @ ../../../CORTEX_MPU_M3_NUCLEO_L152RE_GCC/Demo/TaskNotifyArray.c:289:38
	ldr	r1, [sp, #64]
	.loc	3 289 36                        @ ../../../CORTEX_MPU_M3_NUCLEO_L152RE_GCC/Demo/TaskNotifyArray.c:289:36
	subs	r0, r0, r1
	.loc	3 289 25                        @ ../../../CORTEX_MPU_M3_NUCLEO_L152RE_GCC/Demo/TaskNotifyArray.c:289:25
	str	r0, [sp, #56]
.Ltmp130:
	.loc	3 290 9 is_stmt 1               @ ../../../CORTEX_MPU_M3_NUCLEO_L152RE_GCC/Demo/TaskNotifyArray.c:290:9
	ldr	r0, [sp, #56]
.Ltmp131:
	.loc	3 290 9 is_stmt 0               @ ../../../CORTEX_MPU_M3_NUCLEO_L152RE_GCC/Demo/TaskNotifyArray.c:290:9
	cmp	r0, #10
	blo	.LBB7_39
	b	.LBB7_37
.LBB7_37:
.Ltmp132:
	.loc	3 290 9                         @ ../../../CORTEX_MPU_M3_NUCLEO_L152RE_GCC/Demo/TaskNotifyArray.c:290:9
	@APP
	cpsid i
	@NO_APP
	b	.LBB7_38
.LBB7_38:                               @ =>This Inner Loop Header: Depth=1
.Ltmp133:
	.loc	3 290 9                         @ ../../../CORTEX_MPU_M3_NUCLEO_L152RE_GCC/Demo/TaskNotifyArray.c:290:9
	b	.LBB7_38
.Ltmp134:
.LBB7_39:                               @   in Loop: Header=BB7_29 Depth=1
	.loc	3 294 9 is_stmt 1               @ ../../../CORTEX_MPU_M3_NUCLEO_L152RE_GCC/Demo/TaskNotifyArray.c:294:9
	ldr	r0, [sp, #88]
.Ltmp135:
	.loc	3 294 9 is_stmt 0               @ ../../../CORTEX_MPU_M3_NUCLEO_L152RE_GCC/Demo/TaskNotifyArray.c:294:9
	cmp	r0, #1
	beq	.LBB7_42
	b	.LBB7_40
.LBB7_40:
.Ltmp136:
	.loc	3 294 9                         @ ../../../CORTEX_MPU_M3_NUCLEO_L152RE_GCC/Demo/TaskNotifyArray.c:294:9
	@APP
	cpsid i
	@NO_APP
	b	.LBB7_41
.LBB7_41:                               @ =>This Inner Loop Header: Depth=1
.Ltmp137:
	.loc	3 294 9                         @ ../../../CORTEX_MPU_M3_NUCLEO_L152RE_GCC/Demo/TaskNotifyArray.c:294:9
	b	.LBB7_41
.Ltmp138:
.LBB7_42:                               @   in Loop: Header=BB7_29 Depth=1
	.loc	3 295 9 is_stmt 1               @ ../../../CORTEX_MPU_M3_NUCLEO_L152RE_GCC/Demo/TaskNotifyArray.c:295:9
	ldr	r0, [sp, #84]
	movw	r1, #34465
	movt	r1, #1
.Ltmp139:
	.loc	3 295 9 is_stmt 0               @ ../../../CORTEX_MPU_M3_NUCLEO_L152RE_GCC/Demo/TaskNotifyArray.c:295:9
	cmp	r0, r1
	beq	.LBB7_45
	b	.LBB7_43
.LBB7_43:
.Ltmp140:
	.loc	3 295 9                         @ ../../../CORTEX_MPU_M3_NUCLEO_L152RE_GCC/Demo/TaskNotifyArray.c:295:9
	@APP
	cpsid i
	@NO_APP
	b	.LBB7_44
.LBB7_44:                               @ =>This Inner Loop Header: Depth=1
.Ltmp141:
	.loc	3 295 9                         @ ../../../CORTEX_MPU_M3_NUCLEO_L152RE_GCC/Demo/TaskNotifyArray.c:295:9
	b	.LBB7_44
.Ltmp142:
.LBB7_45:                               @   in Loop: Header=BB7_29 Depth=1
	.loc	3 298 5 is_stmt 1               @ ../../../CORTEX_MPU_M3_NUCLEO_L152RE_GCC/Demo/TaskNotifyArray.c:298:5
	b	.LBB7_46
.Ltmp143:
.LBB7_46:                               @   in Loop: Header=BB7_29 Depth=1
	.loc	3 267 97                        @ ../../../CORTEX_MPU_M3_NUCLEO_L152RE_GCC/Demo/TaskNotifyArray.c:267:97
	ldr	r0, [sp, #32]
	adds	r0, r0, #1
	str	r0, [sp, #32]
	.loc	3 267 5 is_stmt 0               @ ../../../CORTEX_MPU_M3_NUCLEO_L152RE_GCC/Demo/TaskNotifyArray.c:267:5
	b	.LBB7_29
.Ltmp144:
.LBB7_47:
	.loc	3 0 5                           @ ../../../CORTEX_MPU_M3_NUCLEO_L152RE_GCC/Demo/TaskNotifyArray.c:0:5
	movs	r0, #0
.Ltmp145:
	.loc	3 302 24 is_stmt 1              @ ../../../CORTEX_MPU_M3_NUCLEO_L152RE_GCC/Demo/TaskNotifyArray.c:302:24
	str	r0, [sp, #32]
	.loc	3 302 10 is_stmt 0              @ ../../../CORTEX_MPU_M3_NUCLEO_L152RE_GCC/Demo/TaskNotifyArray.c:302:10
	b	.LBB7_48
.LBB7_48:                               @ =>This Loop Header: Depth=1
                                        @     Child Loop BB7_50 Depth 2
                                        @     Child Loop BB7_71 Depth 2
.Ltmp146:
	.loc	3 302 29                        @ ../../../CORTEX_MPU_M3_NUCLEO_L152RE_GCC/Demo/TaskNotifyArray.c:302:29
	ldr	r0, [sp, #32]
.Ltmp147:
	.loc	3 302 5                         @ ../../../CORTEX_MPU_M3_NUCLEO_L152RE_GCC/Demo/TaskNotifyArray.c:302:5
	cmp	r0, #2
	bls	.LBB7_49
	b	.LBB7_84
.LBB7_49:                               @   in Loop: Header=BB7_48 Depth=1
	.loc	3 0 5                           @ ../../../CORTEX_MPU_M3_NUCLEO_L152RE_GCC/Demo/TaskNotifyArray.c:0:5
	movs	r0, #0
.Ltmp148:
	.loc	3 306 29 is_stmt 1              @ ../../../CORTEX_MPU_M3_NUCLEO_L152RE_GCC/Demo/TaskNotifyArray.c:306:29
	str	r0, [sp, #28]
	.loc	3 306 14 is_stmt 0              @ ../../../CORTEX_MPU_M3_NUCLEO_L152RE_GCC/Demo/TaskNotifyArray.c:306:14
	b	.LBB7_50
.LBB7_50:                               @   Parent Loop BB7_48 Depth=1
                                        @ =>  This Inner Loop Header: Depth=2
.Ltmp149:
	.loc	3 306 34                        @ ../../../CORTEX_MPU_M3_NUCLEO_L152RE_GCC/Demo/TaskNotifyArray.c:306:34
	ldr	r0, [sp, #28]
.Ltmp150:
	.loc	3 306 9                         @ ../../../CORTEX_MPU_M3_NUCLEO_L152RE_GCC/Demo/TaskNotifyArray.c:306:9
	cmp	r0, #2
	bhi	.LBB7_58
	b	.LBB7_51
.LBB7_51:                               @   in Loop: Header=BB7_50 Depth=2
.Ltmp151:
	.loc	3 308 17 is_stmt 1              @ ../../../CORTEX_MPU_M3_NUCLEO_L152RE_GCC/Demo/TaskNotifyArray.c:308:17
	ldr	r0, [sp, #28]
	.loc	3 308 35 is_stmt 0              @ ../../../CORTEX_MPU_M3_NUCLEO_L152RE_GCC/Demo/TaskNotifyArray.c:308:35
	ldr	r1, [sp, #32]
.Ltmp152:
	.loc	3 308 17                        @ ../../../CORTEX_MPU_M3_NUCLEO_L152RE_GCC/Demo/TaskNotifyArray.c:308:17
	cmp	r0, r1
	beq	.LBB7_56
	b	.LBB7_52
.LBB7_52:                               @   in Loop: Header=BB7_50 Depth=2
.Ltmp153:
	.loc	3 310 29 is_stmt 1              @ ../../../CORTEX_MPU_M3_NUCLEO_L152RE_GCC/Demo/TaskNotifyArray.c:310:29
	movw	r0, :lower16:xTaskToNotify
	movt	r0, :upper16:xTaskToNotify
	ldr	r0, [r0]
	ldr	r1, [sp, #28]
	movs	r2, #0
	str	r2, [sp]
	movw	r2, #34465
	movt	r2, #1
	movs	r3, #3
	bl	MPU_xTaskGenericNotify
	.loc	3 310 27 is_stmt 0              @ ../../../CORTEX_MPU_M3_NUCLEO_L152RE_GCC/Demo/TaskNotifyArray.c:310:27
	str	r0, [sp, #88]
.Ltmp154:
	.loc	3 311 17 is_stmt 1              @ ../../../CORTEX_MPU_M3_NUCLEO_L152RE_GCC/Demo/TaskNotifyArray.c:311:17
	ldr	r0, [sp, #88]
.Ltmp155:
	.loc	3 311 17 is_stmt 0              @ ../../../CORTEX_MPU_M3_NUCLEO_L152RE_GCC/Demo/TaskNotifyArray.c:311:17
	cmp	r0, #1
	beq	.LBB7_55
	b	.LBB7_53
.LBB7_53:
.Ltmp156:
	.loc	3 311 17                        @ ../../../CORTEX_MPU_M3_NUCLEO_L152RE_GCC/Demo/TaskNotifyArray.c:311:17
	@APP
	cpsid i
	@NO_APP
	b	.LBB7_54
.LBB7_54:                               @ =>This Inner Loop Header: Depth=1
.Ltmp157:
	.loc	3 311 17                        @ ../../../CORTEX_MPU_M3_NUCLEO_L152RE_GCC/Demo/TaskNotifyArray.c:311:17
	b	.LBB7_54
.Ltmp158:
.LBB7_55:                               @   in Loop: Header=BB7_50 Depth=2
	.loc	3 313 13 is_stmt 1              @ ../../../CORTEX_MPU_M3_NUCLEO_L152RE_GCC/Demo/TaskNotifyArray.c:313:13
	b	.LBB7_56
.Ltmp159:
.LBB7_56:                               @   in Loop: Header=BB7_50 Depth=2
	.loc	3 314 9                         @ ../../../CORTEX_MPU_M3_NUCLEO_L152RE_GCC/Demo/TaskNotifyArray.c:314:9
	b	.LBB7_57
.Ltmp160:
.LBB7_57:                               @   in Loop: Header=BB7_50 Depth=2
	.loc	3 306 104                       @ ../../../CORTEX_MPU_M3_NUCLEO_L152RE_GCC/Demo/TaskNotifyArray.c:306:104
	ldr	r0, [sp, #28]
	adds	r0, r0, #1
	str	r0, [sp, #28]
	.loc	3 306 9 is_stmt 0               @ ../../../CORTEX_MPU_M3_NUCLEO_L152RE_GCC/Demo/TaskNotifyArray.c:306:9
	b	.LBB7_50
.Ltmp161:
.LBB7_58:                               @   in Loop: Header=BB7_48 Depth=1
	.loc	3 321 21 is_stmt 1              @ ../../../CORTEX_MPU_M3_NUCLEO_L152RE_GCC/Demo/TaskNotifyArray.c:321:21
	movw	r0, :lower16:xTaskToNotify
	movt	r0, :upper16:xTaskToNotify
	ldr	r0, [r0]
	ldr	r1, [sp, #32]
	movs	r2, #0
	str	r2, [sp]
	movw	r2, #34465
	movt	r2, #1
	movs	r3, #4
	bl	MPU_xTaskGenericNotify
	.loc	3 321 19 is_stmt 0              @ ../../../CORTEX_MPU_M3_NUCLEO_L152RE_GCC/Demo/TaskNotifyArray.c:321:19
	str	r0, [sp, #88]
.Ltmp162:
	.loc	3 322 9 is_stmt 1               @ ../../../CORTEX_MPU_M3_NUCLEO_L152RE_GCC/Demo/TaskNotifyArray.c:322:9
	ldr	r0, [sp, #88]
.Ltmp163:
	.loc	3 322 9 is_stmt 0               @ ../../../CORTEX_MPU_M3_NUCLEO_L152RE_GCC/Demo/TaskNotifyArray.c:322:9
	cmp	r0, #1
	beq	.LBB7_61
	b	.LBB7_59
.LBB7_59:
.Ltmp164:
	.loc	3 322 9                         @ ../../../CORTEX_MPU_M3_NUCLEO_L152RE_GCC/Demo/TaskNotifyArray.c:322:9
	@APP
	cpsid i
	@NO_APP
	b	.LBB7_60
.LBB7_60:                               @ =>This Inner Loop Header: Depth=1
.Ltmp165:
	.loc	3 322 9                         @ ../../../CORTEX_MPU_M3_NUCLEO_L152RE_GCC/Demo/TaskNotifyArray.c:322:9
	b	.LBB7_60
.Ltmp166:
.LBB7_61:                               @   in Loop: Header=BB7_48 Depth=1
	.loc	3 325 21 is_stmt 1              @ ../../../CORTEX_MPU_M3_NUCLEO_L152RE_GCC/Demo/TaskNotifyArray.c:325:21
	movw	r0, :lower16:xTaskToNotify
	movt	r0, :upper16:xTaskToNotify
	ldr	r0, [r0]
	ldr	r1, [sp, #32]
	movs	r2, #0
	str	r2, [sp]
	movw	r2, #5555
	movs	r3, #4
	bl	MPU_xTaskGenericNotify
	.loc	3 325 19 is_stmt 0              @ ../../../CORTEX_MPU_M3_NUCLEO_L152RE_GCC/Demo/TaskNotifyArray.c:325:19
	str	r0, [sp, #88]
.Ltmp167:
	.loc	3 326 9 is_stmt 1               @ ../../../CORTEX_MPU_M3_NUCLEO_L152RE_GCC/Demo/TaskNotifyArray.c:326:9
	ldr	r0, [sp, #88]
.Ltmp168:
	.loc	3 326 9 is_stmt 0               @ ../../../CORTEX_MPU_M3_NUCLEO_L152RE_GCC/Demo/TaskNotifyArray.c:326:9
	cbz	r0, .LBB7_64
	b	.LBB7_62
.LBB7_62:
.Ltmp169:
	.loc	3 326 9                         @ ../../../CORTEX_MPU_M3_NUCLEO_L152RE_GCC/Demo/TaskNotifyArray.c:326:9
	@APP
	cpsid i
	@NO_APP
	b	.LBB7_63
.LBB7_63:                               @ =>This Inner Loop Header: Depth=1
.Ltmp170:
	.loc	3 326 9                         @ ../../../CORTEX_MPU_M3_NUCLEO_L152RE_GCC/Demo/TaskNotifyArray.c:326:9
	b	.LBB7_63
.Ltmp171:
.LBB7_64:                               @   in Loop: Header=BB7_48 Depth=1
	.loc	3 331 21 is_stmt 1              @ ../../../CORTEX_MPU_M3_NUCLEO_L152RE_GCC/Demo/TaskNotifyArray.c:331:21
	ldr	r0, [sp, #32]
	movs	r2, #0
	str	r2, [sp]
	mvns	r1, r2
	add	r3, sp, #84
	bl	MPU_xTaskGenericNotifyWait
	.loc	3 331 19 is_stmt 0              @ ../../../CORTEX_MPU_M3_NUCLEO_L152RE_GCC/Demo/TaskNotifyArray.c:331:19
	str	r0, [sp, #88]
.Ltmp172:
	.loc	3 333 9 is_stmt 1               @ ../../../CORTEX_MPU_M3_NUCLEO_L152RE_GCC/Demo/TaskNotifyArray.c:333:9
	ldr	r0, [sp, #88]
.Ltmp173:
	.loc	3 333 9 is_stmt 0               @ ../../../CORTEX_MPU_M3_NUCLEO_L152RE_GCC/Demo/TaskNotifyArray.c:333:9
	cmp	r0, #1
	beq	.LBB7_67
	b	.LBB7_65
.LBB7_65:
.Ltmp174:
	.loc	3 333 9                         @ ../../../CORTEX_MPU_M3_NUCLEO_L152RE_GCC/Demo/TaskNotifyArray.c:333:9
	@APP
	cpsid i
	@NO_APP
	b	.LBB7_66
.LBB7_66:                               @ =>This Inner Loop Header: Depth=1
.Ltmp175:
	.loc	3 333 9                         @ ../../../CORTEX_MPU_M3_NUCLEO_L152RE_GCC/Demo/TaskNotifyArray.c:333:9
	b	.LBB7_66
.Ltmp176:
.LBB7_67:                               @   in Loop: Header=BB7_48 Depth=1
	.loc	3 334 9 is_stmt 1               @ ../../../CORTEX_MPU_M3_NUCLEO_L152RE_GCC/Demo/TaskNotifyArray.c:334:9
	ldr	r0, [sp, #84]
	movw	r1, #34465
	movt	r1, #1
.Ltmp177:
	.loc	3 334 9 is_stmt 0               @ ../../../CORTEX_MPU_M3_NUCLEO_L152RE_GCC/Demo/TaskNotifyArray.c:334:9
	cmp	r0, r1
	beq	.LBB7_70
	b	.LBB7_68
.LBB7_68:
.Ltmp178:
	.loc	3 334 9                         @ ../../../CORTEX_MPU_M3_NUCLEO_L152RE_GCC/Demo/TaskNotifyArray.c:334:9
	@APP
	cpsid i
	@NO_APP
	b	.LBB7_69
.LBB7_69:                               @ =>This Inner Loop Header: Depth=1
.Ltmp179:
	.loc	3 334 9                         @ ../../../CORTEX_MPU_M3_NUCLEO_L152RE_GCC/Demo/TaskNotifyArray.c:334:9
	b	.LBB7_69
.Ltmp180:
.LBB7_70:                               @   in Loop: Header=BB7_48 Depth=1
	.loc	3 0 9                           @ ../../../CORTEX_MPU_M3_NUCLEO_L152RE_GCC/Demo/TaskNotifyArray.c:0:9
	movs	r0, #0
.Ltmp181:
	.loc	3 340 29 is_stmt 1              @ ../../../CORTEX_MPU_M3_NUCLEO_L152RE_GCC/Demo/TaskNotifyArray.c:340:29
	str	r0, [sp, #28]
	.loc	3 340 14 is_stmt 0              @ ../../../CORTEX_MPU_M3_NUCLEO_L152RE_GCC/Demo/TaskNotifyArray.c:340:14
	b	.LBB7_71
.LBB7_71:                               @   Parent Loop BB7_48 Depth=1
                                        @ =>  This Inner Loop Header: Depth=2
.Ltmp182:
	.loc	3 340 34                        @ ../../../CORTEX_MPU_M3_NUCLEO_L152RE_GCC/Demo/TaskNotifyArray.c:340:34
	ldr	r0, [sp, #28]
.Ltmp183:
	.loc	3 340 9                         @ ../../../CORTEX_MPU_M3_NUCLEO_L152RE_GCC/Demo/TaskNotifyArray.c:340:9
	cmp	r0, #2
	bhi	.LBB7_82
	b	.LBB7_72
.LBB7_72:                               @   in Loop: Header=BB7_71 Depth=2
.Ltmp184:
	.loc	3 342 17 is_stmt 1              @ ../../../CORTEX_MPU_M3_NUCLEO_L152RE_GCC/Demo/TaskNotifyArray.c:342:17
	ldr	r0, [sp, #28]
	.loc	3 342 35 is_stmt 0              @ ../../../CORTEX_MPU_M3_NUCLEO_L152RE_GCC/Demo/TaskNotifyArray.c:342:35
	ldr	r1, [sp, #32]
.Ltmp185:
	.loc	3 342 17                        @ ../../../CORTEX_MPU_M3_NUCLEO_L152RE_GCC/Demo/TaskNotifyArray.c:342:17
	cmp	r0, r1
	beq	.LBB7_80
	b	.LBB7_73
.LBB7_73:                               @   in Loop: Header=BB7_71 Depth=2
.Ltmp186:
	.loc	3 344 29 is_stmt 1              @ ../../../CORTEX_MPU_M3_NUCLEO_L152RE_GCC/Demo/TaskNotifyArray.c:344:29
	movw	r0, :lower16:xTaskToNotify
	movt	r0, :upper16:xTaskToNotify
	ldr	r0, [r0]
	ldr	r1, [sp, #28]
	bl	MPU_xTaskGenericNotifyStateClear
	.loc	3 344 27 is_stmt 0              @ ../../../CORTEX_MPU_M3_NUCLEO_L152RE_GCC/Demo/TaskNotifyArray.c:344:27
	str	r0, [sp, #88]
.Ltmp187:
	.loc	3 345 17 is_stmt 1              @ ../../../CORTEX_MPU_M3_NUCLEO_L152RE_GCC/Demo/TaskNotifyArray.c:345:17
	ldr	r0, [sp, #88]
.Ltmp188:
	.loc	3 345 17 is_stmt 0              @ ../../../CORTEX_MPU_M3_NUCLEO_L152RE_GCC/Demo/TaskNotifyArray.c:345:17
	cmp	r0, #1
	beq	.LBB7_76
	b	.LBB7_74
.LBB7_74:
.Ltmp189:
	.loc	3 345 17                        @ ../../../CORTEX_MPU_M3_NUCLEO_L152RE_GCC/Demo/TaskNotifyArray.c:345:17
	@APP
	cpsid i
	@NO_APP
	b	.LBB7_75
.LBB7_75:                               @ =>This Inner Loop Header: Depth=1
.Ltmp190:
	.loc	3 345 17                        @ ../../../CORTEX_MPU_M3_NUCLEO_L152RE_GCC/Demo/TaskNotifyArray.c:345:17
	b	.LBB7_75
.Ltmp191:
.LBB7_76:                               @   in Loop: Header=BB7_71 Depth=2
	.loc	3 348 35 is_stmt 1              @ ../../../CORTEX_MPU_M3_NUCLEO_L152RE_GCC/Demo/TaskNotifyArray.c:348:35
	movw	r0, :lower16:xTaskToNotify
	movt	r0, :upper16:xTaskToNotify
	ldr	r0, [r0]
	ldr	r1, [sp, #28]
	movs	r2, #0
	mvns	r2, r2
	bl	MPU_ulTaskGenericNotifyValueClear
	.loc	3 348 33 is_stmt 0              @ ../../../CORTEX_MPU_M3_NUCLEO_L152RE_GCC/Demo/TaskNotifyArray.c:348:33
	str	r0, [sp, #84]
.Ltmp192:
	.loc	3 352 17 is_stmt 1              @ ../../../CORTEX_MPU_M3_NUCLEO_L152RE_GCC/Demo/TaskNotifyArray.c:352:17
	ldr	r0, [sp, #84]
	movw	r1, #34465
	movt	r1, #1
.Ltmp193:
	.loc	3 352 17 is_stmt 0              @ ../../../CORTEX_MPU_M3_NUCLEO_L152RE_GCC/Demo/TaskNotifyArray.c:352:17
	cmp	r0, r1
	beq	.LBB7_79
	b	.LBB7_77
.LBB7_77:
.Ltmp194:
	.loc	3 352 17                        @ ../../../CORTEX_MPU_M3_NUCLEO_L152RE_GCC/Demo/TaskNotifyArray.c:352:17
	@APP
	cpsid i
	@NO_APP
	b	.LBB7_78
.LBB7_78:                               @ =>This Inner Loop Header: Depth=1
.Ltmp195:
	.loc	3 352 17                        @ ../../../CORTEX_MPU_M3_NUCLEO_L152RE_GCC/Demo/TaskNotifyArray.c:352:17
	b	.LBB7_78
.Ltmp196:
.LBB7_79:                               @   in Loop: Header=BB7_71 Depth=2
	.loc	3 354 13 is_stmt 1              @ ../../../CORTEX_MPU_M3_NUCLEO_L152RE_GCC/Demo/TaskNotifyArray.c:354:13
	b	.LBB7_80
.Ltmp197:
.LBB7_80:                               @   in Loop: Header=BB7_71 Depth=2
	.loc	3 355 9                         @ ../../../CORTEX_MPU_M3_NUCLEO_L152RE_GCC/Demo/TaskNotifyArray.c:355:9
	b	.LBB7_81
.Ltmp198:
.LBB7_81:                               @   in Loop: Header=BB7_71 Depth=2
	.loc	3 340 104                       @ ../../../CORTEX_MPU_M3_NUCLEO_L152RE_GCC/Demo/TaskNotifyArray.c:340:104
	ldr	r0, [sp, #28]
	adds	r0, r0, #1
	str	r0, [sp, #28]
	.loc	3 340 9 is_stmt 0               @ ../../../CORTEX_MPU_M3_NUCLEO_L152RE_GCC/Demo/TaskNotifyArray.c:340:9
	b	.LBB7_71
.Ltmp199:
.LBB7_82:                               @   in Loop: Header=BB7_48 Depth=1
	.loc	3 356 5 is_stmt 1               @ ../../../CORTEX_MPU_M3_NUCLEO_L152RE_GCC/Demo/TaskNotifyArray.c:356:5
	b	.LBB7_83
.Ltmp200:
.LBB7_83:                               @   in Loop: Header=BB7_48 Depth=1
	.loc	3 302 97                        @ ../../../CORTEX_MPU_M3_NUCLEO_L152RE_GCC/Demo/TaskNotifyArray.c:302:97
	ldr	r0, [sp, #32]
	adds	r0, r0, #1
	str	r0, [sp, #32]
	.loc	3 302 5 is_stmt 0               @ ../../../CORTEX_MPU_M3_NUCLEO_L152RE_GCC/Demo/TaskNotifyArray.c:302:5
	b	.LBB7_48
.Ltmp201:
.LBB7_84:
	.loc	3 0 5                           @ ../../../CORTEX_MPU_M3_NUCLEO_L152RE_GCC/Demo/TaskNotifyArray.c:0:5
	movs	r0, #0
.Ltmp202:
	.loc	3 363 24 is_stmt 1              @ ../../../CORTEX_MPU_M3_NUCLEO_L152RE_GCC/Demo/TaskNotifyArray.c:363:24
	str	r0, [sp, #32]
	.loc	3 363 10 is_stmt 0              @ ../../../CORTEX_MPU_M3_NUCLEO_L152RE_GCC/Demo/TaskNotifyArray.c:363:10
	b	.LBB7_85
.LBB7_85:                               @ =>This Loop Header: Depth=1
                                        @     Child Loop BB7_87 Depth 2
                                        @     Child Loop BB7_105 Depth 2
.Ltmp203:
	.loc	3 363 29                        @ ../../../CORTEX_MPU_M3_NUCLEO_L152RE_GCC/Demo/TaskNotifyArray.c:363:29
	ldr	r0, [sp, #32]
.Ltmp204:
	.loc	3 363 5                         @ ../../../CORTEX_MPU_M3_NUCLEO_L152RE_GCC/Demo/TaskNotifyArray.c:363:5
	cmp	r0, #2
	bls	.LBB7_86
	b	.LBB7_118
.LBB7_86:                               @   in Loop: Header=BB7_85 Depth=1
	.loc	3 0 5                           @ ../../../CORTEX_MPU_M3_NUCLEO_L152RE_GCC/Demo/TaskNotifyArray.c:0:5
	movs	r0, #0
.Ltmp205:
	.loc	3 365 29 is_stmt 1              @ ../../../CORTEX_MPU_M3_NUCLEO_L152RE_GCC/Demo/TaskNotifyArray.c:365:29
	str	r0, [sp, #28]
	.loc	3 365 14 is_stmt 0              @ ../../../CORTEX_MPU_M3_NUCLEO_L152RE_GCC/Demo/TaskNotifyArray.c:365:14
	b	.LBB7_87
.LBB7_87:                               @   Parent Loop BB7_85 Depth=1
                                        @ =>  This Inner Loop Header: Depth=2
.Ltmp206:
	.loc	3 365 34                        @ ../../../CORTEX_MPU_M3_NUCLEO_L152RE_GCC/Demo/TaskNotifyArray.c:365:34
	ldr	r0, [sp, #28]
.Ltmp207:
	.loc	3 365 9                         @ ../../../CORTEX_MPU_M3_NUCLEO_L152RE_GCC/Demo/TaskNotifyArray.c:365:9
	cmp	r0, #2
	bhi	.LBB7_92
	b	.LBB7_88
.LBB7_88:                               @   in Loop: Header=BB7_87 Depth=2
.Ltmp208:
	.loc	3 367 17 is_stmt 1              @ ../../../CORTEX_MPU_M3_NUCLEO_L152RE_GCC/Demo/TaskNotifyArray.c:367:17
	ldr	r0, [sp, #28]
	.loc	3 367 35 is_stmt 0              @ ../../../CORTEX_MPU_M3_NUCLEO_L152RE_GCC/Demo/TaskNotifyArray.c:367:35
	ldr	r1, [sp, #32]
.Ltmp209:
	.loc	3 367 17                        @ ../../../CORTEX_MPU_M3_NUCLEO_L152RE_GCC/Demo/TaskNotifyArray.c:367:17
	cmp	r0, r1
	beq	.LBB7_90
	b	.LBB7_89
.LBB7_89:                               @   in Loop: Header=BB7_87 Depth=2
.Ltmp210:
	.loc	3 369 17 is_stmt 1              @ ../../../CORTEX_MPU_M3_NUCLEO_L152RE_GCC/Demo/TaskNotifyArray.c:369:17
	movw	r0, :lower16:xTaskToNotify
	movt	r0, :upper16:xTaskToNotify
	ldr	r0, [r0]
	ldr	r1, [sp, #28]
	movs	r2, #0
	str	r2, [sp]
	movw	r2, #34465
	movt	r2, #1
	movs	r3, #3
	bl	MPU_xTaskGenericNotify
	.loc	3 370 13                        @ ../../../CORTEX_MPU_M3_NUCLEO_L152RE_GCC/Demo/TaskNotifyArray.c:370:13
	b	.LBB7_90
.Ltmp211:
.LBB7_90:                               @   in Loop: Header=BB7_87 Depth=2
	.loc	3 371 9                         @ ../../../CORTEX_MPU_M3_NUCLEO_L152RE_GCC/Demo/TaskNotifyArray.c:371:9
	b	.LBB7_91
.Ltmp212:
.LBB7_91:                               @   in Loop: Header=BB7_87 Depth=2
	.loc	3 365 104                       @ ../../../CORTEX_MPU_M3_NUCLEO_L152RE_GCC/Demo/TaskNotifyArray.c:365:104
	ldr	r0, [sp, #28]
	adds	r0, r0, #1
	str	r0, [sp, #28]
	.loc	3 365 9 is_stmt 0               @ ../../../CORTEX_MPU_M3_NUCLEO_L152RE_GCC/Demo/TaskNotifyArray.c:365:9
	b	.LBB7_87
.Ltmp213:
.LBB7_92:                               @   in Loop: Header=BB7_85 Depth=1
	.loc	3 373 21 is_stmt 1              @ ../../../CORTEX_MPU_M3_NUCLEO_L152RE_GCC/Demo/TaskNotifyArray.c:373:21
	movw	r0, :lower16:xTaskToNotify
	movt	r0, :upper16:xTaskToNotify
	ldr	r0, [r0]
	ldr	r1, [sp, #32]
	movs	r2, #0
	str	r2, [sp]
	movw	r2, #34465
	movt	r2, #1
	movs	r3, #3
	bl	MPU_xTaskGenericNotify
	.loc	3 373 19 is_stmt 0              @ ../../../CORTEX_MPU_M3_NUCLEO_L152RE_GCC/Demo/TaskNotifyArray.c:373:19
	str	r0, [sp, #88]
.Ltmp214:
	.loc	3 374 9 is_stmt 1               @ ../../../CORTEX_MPU_M3_NUCLEO_L152RE_GCC/Demo/TaskNotifyArray.c:374:9
	ldr	r0, [sp, #88]
.Ltmp215:
	.loc	3 374 9 is_stmt 0               @ ../../../CORTEX_MPU_M3_NUCLEO_L152RE_GCC/Demo/TaskNotifyArray.c:374:9
	cmp	r0, #1
	beq	.LBB7_95
	b	.LBB7_93
.LBB7_93:
.Ltmp216:
	.loc	3 374 9                         @ ../../../CORTEX_MPU_M3_NUCLEO_L152RE_GCC/Demo/TaskNotifyArray.c:374:9
	@APP
	cpsid i
	@NO_APP
	b	.LBB7_94
.LBB7_94:                               @ =>This Inner Loop Header: Depth=1
.Ltmp217:
	.loc	3 374 9                         @ ../../../CORTEX_MPU_M3_NUCLEO_L152RE_GCC/Demo/TaskNotifyArray.c:374:9
	b	.LBB7_94
.Ltmp218:
.LBB7_95:                               @   in Loop: Header=BB7_85 Depth=1
	.loc	3 376 21 is_stmt 1              @ ../../../CORTEX_MPU_M3_NUCLEO_L152RE_GCC/Demo/TaskNotifyArray.c:376:21
	movw	r0, :lower16:xTaskToNotify
	movt	r0, :upper16:xTaskToNotify
	ldr	r0, [r0]
	ldr	r1, [sp, #32]
	movs	r2, #0
	str	r2, [sp]
	movw	r2, #5555
	movs	r3, #3
	bl	MPU_xTaskGenericNotify
	.loc	3 376 19 is_stmt 0              @ ../../../CORTEX_MPU_M3_NUCLEO_L152RE_GCC/Demo/TaskNotifyArray.c:376:19
	str	r0, [sp, #88]
.Ltmp219:
	.loc	3 377 9 is_stmt 1               @ ../../../CORTEX_MPU_M3_NUCLEO_L152RE_GCC/Demo/TaskNotifyArray.c:377:9
	ldr	r0, [sp, #88]
.Ltmp220:
	.loc	3 377 9 is_stmt 0               @ ../../../CORTEX_MPU_M3_NUCLEO_L152RE_GCC/Demo/TaskNotifyArray.c:377:9
	cmp	r0, #1
	beq	.LBB7_98
	b	.LBB7_96
.LBB7_96:
.Ltmp221:
	.loc	3 377 9                         @ ../../../CORTEX_MPU_M3_NUCLEO_L152RE_GCC/Demo/TaskNotifyArray.c:377:9
	@APP
	cpsid i
	@NO_APP
	b	.LBB7_97
.LBB7_97:                               @ =>This Inner Loop Header: Depth=1
.Ltmp222:
	.loc	3 377 9                         @ ../../../CORTEX_MPU_M3_NUCLEO_L152RE_GCC/Demo/TaskNotifyArray.c:377:9
	b	.LBB7_97
.Ltmp223:
.LBB7_98:                               @   in Loop: Header=BB7_85 Depth=1
	.loc	3 379 21 is_stmt 1              @ ../../../CORTEX_MPU_M3_NUCLEO_L152RE_GCC/Demo/TaskNotifyArray.c:379:21
	ldr	r0, [sp, #32]
	movs	r1, #0
	str	r1, [sp]
	mvns	r2, r1
	add	r3, sp, #84
	bl	MPU_xTaskGenericNotifyWait
	.loc	3 379 19 is_stmt 0              @ ../../../CORTEX_MPU_M3_NUCLEO_L152RE_GCC/Demo/TaskNotifyArray.c:379:19
	str	r0, [sp, #88]
.Ltmp224:
	.loc	3 380 9 is_stmt 1               @ ../../../CORTEX_MPU_M3_NUCLEO_L152RE_GCC/Demo/TaskNotifyArray.c:380:9
	ldr	r0, [sp, #88]
.Ltmp225:
	.loc	3 380 9 is_stmt 0               @ ../../../CORTEX_MPU_M3_NUCLEO_L152RE_GCC/Demo/TaskNotifyArray.c:380:9
	cmp	r0, #1
	beq	.LBB7_101
	b	.LBB7_99
.LBB7_99:
.Ltmp226:
	.loc	3 380 9                         @ ../../../CORTEX_MPU_M3_NUCLEO_L152RE_GCC/Demo/TaskNotifyArray.c:380:9
	@APP
	cpsid i
	@NO_APP
	b	.LBB7_100
.LBB7_100:                              @ =>This Inner Loop Header: Depth=1
.Ltmp227:
	.loc	3 380 9                         @ ../../../CORTEX_MPU_M3_NUCLEO_L152RE_GCC/Demo/TaskNotifyArray.c:380:9
	b	.LBB7_100
.Ltmp228:
.LBB7_101:                              @   in Loop: Header=BB7_85 Depth=1
	.loc	3 382 9 is_stmt 1               @ ../../../CORTEX_MPU_M3_NUCLEO_L152RE_GCC/Demo/TaskNotifyArray.c:382:9
	ldr	r0, [sp, #84]
	movw	r1, #5555
.Ltmp229:
	.loc	3 382 9 is_stmt 0               @ ../../../CORTEX_MPU_M3_NUCLEO_L152RE_GCC/Demo/TaskNotifyArray.c:382:9
	cmp	r0, r1
	beq	.LBB7_104
	b	.LBB7_102
.LBB7_102:
.Ltmp230:
	.loc	3 382 9                         @ ../../../CORTEX_MPU_M3_NUCLEO_L152RE_GCC/Demo/TaskNotifyArray.c:382:9
	@APP
	cpsid i
	@NO_APP
	b	.LBB7_103
.LBB7_103:                              @ =>This Inner Loop Header: Depth=1
.Ltmp231:
	.loc	3 382 9                         @ ../../../CORTEX_MPU_M3_NUCLEO_L152RE_GCC/Demo/TaskNotifyArray.c:382:9
	b	.LBB7_103
.Ltmp232:
.LBB7_104:                              @   in Loop: Header=BB7_85 Depth=1
	.loc	3 0 9                           @ ../../../CORTEX_MPU_M3_NUCLEO_L152RE_GCC/Demo/TaskNotifyArray.c:0:9
	movs	r0, #0
.Ltmp233:
	.loc	3 385 29 is_stmt 1              @ ../../../CORTEX_MPU_M3_NUCLEO_L152RE_GCC/Demo/TaskNotifyArray.c:385:29
	str	r0, [sp, #28]
	.loc	3 385 14 is_stmt 0              @ ../../../CORTEX_MPU_M3_NUCLEO_L152RE_GCC/Demo/TaskNotifyArray.c:385:14
	b	.LBB7_105
.LBB7_105:                              @   Parent Loop BB7_85 Depth=1
                                        @ =>  This Inner Loop Header: Depth=2
.Ltmp234:
	.loc	3 385 34                        @ ../../../CORTEX_MPU_M3_NUCLEO_L152RE_GCC/Demo/TaskNotifyArray.c:385:34
	ldr	r0, [sp, #28]
.Ltmp235:
	.loc	3 385 9                         @ ../../../CORTEX_MPU_M3_NUCLEO_L152RE_GCC/Demo/TaskNotifyArray.c:385:9
	cmp	r0, #2
	bhi	.LBB7_116
	b	.LBB7_106
.LBB7_106:                              @   in Loop: Header=BB7_105 Depth=2
.Ltmp236:
	.loc	3 387 17 is_stmt 1              @ ../../../CORTEX_MPU_M3_NUCLEO_L152RE_GCC/Demo/TaskNotifyArray.c:387:17
	ldr	r0, [sp, #28]
	.loc	3 387 35 is_stmt 0              @ ../../../CORTEX_MPU_M3_NUCLEO_L152RE_GCC/Demo/TaskNotifyArray.c:387:35
	ldr	r1, [sp, #32]
.Ltmp237:
	.loc	3 387 17                        @ ../../../CORTEX_MPU_M3_NUCLEO_L152RE_GCC/Demo/TaskNotifyArray.c:387:17
	cmp	r0, r1
	beq	.LBB7_114
	b	.LBB7_107
.LBB7_107:                              @   in Loop: Header=BB7_105 Depth=2
.Ltmp238:
	.loc	3 389 29 is_stmt 1              @ ../../../CORTEX_MPU_M3_NUCLEO_L152RE_GCC/Demo/TaskNotifyArray.c:389:29
	movw	r0, :lower16:xTaskToNotify
	movt	r0, :upper16:xTaskToNotify
	ldr	r0, [r0]
	ldr	r1, [sp, #28]
	bl	MPU_xTaskGenericNotifyStateClear
	.loc	3 389 27 is_stmt 0              @ ../../../CORTEX_MPU_M3_NUCLEO_L152RE_GCC/Demo/TaskNotifyArray.c:389:27
	str	r0, [sp, #88]
.Ltmp239:
	.loc	3 390 17 is_stmt 1              @ ../../../CORTEX_MPU_M3_NUCLEO_L152RE_GCC/Demo/TaskNotifyArray.c:390:17
	ldr	r0, [sp, #88]
.Ltmp240:
	.loc	3 390 17 is_stmt 0              @ ../../../CORTEX_MPU_M3_NUCLEO_L152RE_GCC/Demo/TaskNotifyArray.c:390:17
	cmp	r0, #1
	beq	.LBB7_110
	b	.LBB7_108
.LBB7_108:
.Ltmp241:
	.loc	3 390 17                        @ ../../../CORTEX_MPU_M3_NUCLEO_L152RE_GCC/Demo/TaskNotifyArray.c:390:17
	@APP
	cpsid i
	@NO_APP
	b	.LBB7_109
.LBB7_109:                              @ =>This Inner Loop Header: Depth=1
.Ltmp242:
	.loc	3 390 17                        @ ../../../CORTEX_MPU_M3_NUCLEO_L152RE_GCC/Demo/TaskNotifyArray.c:390:17
	b	.LBB7_109
.Ltmp243:
.LBB7_110:                              @   in Loop: Header=BB7_105 Depth=2
	.loc	3 392 35 is_stmt 1              @ ../../../CORTEX_MPU_M3_NUCLEO_L152RE_GCC/Demo/TaskNotifyArray.c:392:35
	movw	r0, :lower16:xTaskToNotify
	movt	r0, :upper16:xTaskToNotify
	ldr	r0, [r0]
	ldr	r1, [sp, #28]
	movs	r2, #0
	mvns	r2, r2
	bl	MPU_ulTaskGenericNotifyValueClear
	.loc	3 392 33 is_stmt 0              @ ../../../CORTEX_MPU_M3_NUCLEO_L152RE_GCC/Demo/TaskNotifyArray.c:392:33
	str	r0, [sp, #84]
.Ltmp244:
	.loc	3 393 17 is_stmt 1              @ ../../../CORTEX_MPU_M3_NUCLEO_L152RE_GCC/Demo/TaskNotifyArray.c:393:17
	ldr	r0, [sp, #84]
	movw	r1, #34465
	movt	r1, #1
.Ltmp245:
	.loc	3 393 17 is_stmt 0              @ ../../../CORTEX_MPU_M3_NUCLEO_L152RE_GCC/Demo/TaskNotifyArray.c:393:17
	cmp	r0, r1
	beq	.LBB7_113
	b	.LBB7_111
.LBB7_111:
.Ltmp246:
	.loc	3 393 17                        @ ../../../CORTEX_MPU_M3_NUCLEO_L152RE_GCC/Demo/TaskNotifyArray.c:393:17
	@APP
	cpsid i
	@NO_APP
	b	.LBB7_112
.LBB7_112:                              @ =>This Inner Loop Header: Depth=1
.Ltmp247:
	.loc	3 393 17                        @ ../../../CORTEX_MPU_M3_NUCLEO_L152RE_GCC/Demo/TaskNotifyArray.c:393:17
	b	.LBB7_112
.Ltmp248:
.LBB7_113:                              @   in Loop: Header=BB7_105 Depth=2
	.loc	3 395 13 is_stmt 1              @ ../../../CORTEX_MPU_M3_NUCLEO_L152RE_GCC/Demo/TaskNotifyArray.c:395:13
	b	.LBB7_114
.Ltmp249:
.LBB7_114:                              @   in Loop: Header=BB7_105 Depth=2
	.loc	3 396 9                         @ ../../../CORTEX_MPU_M3_NUCLEO_L152RE_GCC/Demo/TaskNotifyArray.c:396:9
	b	.LBB7_115
.Ltmp250:
.LBB7_115:                              @   in Loop: Header=BB7_105 Depth=2
	.loc	3 385 104                       @ ../../../CORTEX_MPU_M3_NUCLEO_L152RE_GCC/Demo/TaskNotifyArray.c:385:104
	ldr	r0, [sp, #28]
	adds	r0, r0, #1
	str	r0, [sp, #28]
	.loc	3 385 9 is_stmt 0               @ ../../../CORTEX_MPU_M3_NUCLEO_L152RE_GCC/Demo/TaskNotifyArray.c:385:9
	b	.LBB7_105
.Ltmp251:
.LBB7_116:                              @   in Loop: Header=BB7_85 Depth=1
	.loc	3 397 5 is_stmt 1               @ ../../../CORTEX_MPU_M3_NUCLEO_L152RE_GCC/Demo/TaskNotifyArray.c:397:5
	b	.LBB7_117
.Ltmp252:
.LBB7_117:                              @   in Loop: Header=BB7_85 Depth=1
	.loc	3 363 97                        @ ../../../CORTEX_MPU_M3_NUCLEO_L152RE_GCC/Demo/TaskNotifyArray.c:363:97
	ldr	r0, [sp, #32]
	adds	r0, r0, #1
	str	r0, [sp, #32]
	.loc	3 363 5 is_stmt 0               @ ../../../CORTEX_MPU_M3_NUCLEO_L152RE_GCC/Demo/TaskNotifyArray.c:363:5
	b	.LBB7_85
.Ltmp253:
.LBB7_118:
	.loc	3 0 5                           @ ../../../CORTEX_MPU_M3_NUCLEO_L152RE_GCC/Demo/TaskNotifyArray.c:0:5
	movs	r0, #0
.Ltmp254:
	.loc	3 402 24 is_stmt 1              @ ../../../CORTEX_MPU_M3_NUCLEO_L152RE_GCC/Demo/TaskNotifyArray.c:402:24
	str	r0, [sp, #32]
	.loc	3 402 10 is_stmt 0              @ ../../../CORTEX_MPU_M3_NUCLEO_L152RE_GCC/Demo/TaskNotifyArray.c:402:10
	b	.LBB7_119
.LBB7_119:                              @ =>This Loop Header: Depth=1
                                        @     Child Loop BB7_127 Depth 2
                                        @     Child Loop BB7_134 Depth 2
.Ltmp255:
	.loc	3 402 29                        @ ../../../CORTEX_MPU_M3_NUCLEO_L152RE_GCC/Demo/TaskNotifyArray.c:402:29
	ldr	r0, [sp, #32]
.Ltmp256:
	.loc	3 402 5                         @ ../../../CORTEX_MPU_M3_NUCLEO_L152RE_GCC/Demo/TaskNotifyArray.c:402:5
	cmp	r0, #2
	bhi	.LBB7_142
	b	.LBB7_120
.LBB7_120:                              @   in Loop: Header=BB7_119 Depth=1
.Ltmp257:
	.loc	3 407 21 is_stmt 1              @ ../../../CORTEX_MPU_M3_NUCLEO_L152RE_GCC/Demo/TaskNotifyArray.c:407:21
	movw	r0, :lower16:xTaskToNotify
	movt	r0, :upper16:xTaskToNotify
	ldr	r0, [r0]
	ldr	r1, [sp, #32]
	movs	r2, #0
	str	r2, [sp]
	movw	r2, #5555
	movs	r3, #3
	bl	MPU_xTaskGenericNotify
	.loc	3 407 19 is_stmt 0              @ ../../../CORTEX_MPU_M3_NUCLEO_L152RE_GCC/Demo/TaskNotifyArray.c:407:19
	str	r0, [sp, #88]
.Ltmp258:
	.loc	3 408 9 is_stmt 1               @ ../../../CORTEX_MPU_M3_NUCLEO_L152RE_GCC/Demo/TaskNotifyArray.c:408:9
	ldr	r0, [sp, #88]
.Ltmp259:
	.loc	3 408 9 is_stmt 0               @ ../../../CORTEX_MPU_M3_NUCLEO_L152RE_GCC/Demo/TaskNotifyArray.c:408:9
	cmp	r0, #1
	beq	.LBB7_123
	b	.LBB7_121
.LBB7_121:
.Ltmp260:
	.loc	3 408 9                         @ ../../../CORTEX_MPU_M3_NUCLEO_L152RE_GCC/Demo/TaskNotifyArray.c:408:9
	@APP
	cpsid i
	@NO_APP
	b	.LBB7_122
.LBB7_122:                              @ =>This Inner Loop Header: Depth=1
.Ltmp261:
	.loc	3 408 9                         @ ../../../CORTEX_MPU_M3_NUCLEO_L152RE_GCC/Demo/TaskNotifyArray.c:408:9
	b	.LBB7_122
.Ltmp262:
.LBB7_123:                              @   in Loop: Header=BB7_119 Depth=1
	.loc	3 414 21 is_stmt 1              @ ../../../CORTEX_MPU_M3_NUCLEO_L152RE_GCC/Demo/TaskNotifyArray.c:414:21
	movw	r0, :lower16:xTaskToNotify
	movt	r0, :upper16:xTaskToNotify
	ldr	r0, [r0]
	ldr	r1, [sp, #32]
	movs	r3, #0
	str	r3, [sp]
	movw	r2, #34465
	movt	r2, #1
	bl	MPU_xTaskGenericNotify
	.loc	3 414 19 is_stmt 0              @ ../../../CORTEX_MPU_M3_NUCLEO_L152RE_GCC/Demo/TaskNotifyArray.c:414:19
	str	r0, [sp, #88]
.Ltmp263:
	.loc	3 415 9 is_stmt 1               @ ../../../CORTEX_MPU_M3_NUCLEO_L152RE_GCC/Demo/TaskNotifyArray.c:415:9
	ldr	r0, [sp, #88]
.Ltmp264:
	.loc	3 415 9 is_stmt 0               @ ../../../CORTEX_MPU_M3_NUCLEO_L152RE_GCC/Demo/TaskNotifyArray.c:415:9
	cmp	r0, #1
	beq	.LBB7_126
	b	.LBB7_124
.LBB7_124:
.Ltmp265:
	.loc	3 415 9                         @ ../../../CORTEX_MPU_M3_NUCLEO_L152RE_GCC/Demo/TaskNotifyArray.c:415:9
	@APP
	cpsid i
	@NO_APP
	b	.LBB7_125
.LBB7_125:                              @ =>This Inner Loop Header: Depth=1
.Ltmp266:
	.loc	3 415 9                         @ ../../../CORTEX_MPU_M3_NUCLEO_L152RE_GCC/Demo/TaskNotifyArray.c:415:9
	b	.LBB7_125
.Ltmp267:
.LBB7_126:                              @   in Loop: Header=BB7_119 Depth=1
	.loc	3 0 9                           @ ../../../CORTEX_MPU_M3_NUCLEO_L152RE_GCC/Demo/TaskNotifyArray.c:0:9
	movs	r0, #0
.Ltmp268:
	.loc	3 420 29 is_stmt 1              @ ../../../CORTEX_MPU_M3_NUCLEO_L152RE_GCC/Demo/TaskNotifyArray.c:420:29
	str	r0, [sp, #28]
	.loc	3 420 14 is_stmt 0              @ ../../../CORTEX_MPU_M3_NUCLEO_L152RE_GCC/Demo/TaskNotifyArray.c:420:14
	b	.LBB7_127
.LBB7_127:                              @   Parent Loop BB7_119 Depth=1
                                        @ =>  This Inner Loop Header: Depth=2
.Ltmp269:
	.loc	3 420 34                        @ ../../../CORTEX_MPU_M3_NUCLEO_L152RE_GCC/Demo/TaskNotifyArray.c:420:34
	ldr	r0, [sp, #28]
	.loc	3 420 52                        @ ../../../CORTEX_MPU_M3_NUCLEO_L152RE_GCC/Demo/TaskNotifyArray.c:420:52
	ldr	r1, [sp, #32]
.Ltmp270:
	.loc	3 420 9                         @ ../../../CORTEX_MPU_M3_NUCLEO_L152RE_GCC/Demo/TaskNotifyArray.c:420:9
	cmp	r0, r1
	bhi	.LBB7_133
	b	.LBB7_128
.LBB7_128:                              @   in Loop: Header=BB7_127 Depth=2
.Ltmp271:
	.loc	3 424 25 is_stmt 1              @ ../../../CORTEX_MPU_M3_NUCLEO_L152RE_GCC/Demo/TaskNotifyArray.c:424:25
	ldr	r0, [sp, #28]
	movs	r2, #0
	str	r2, [sp]
	add	r3, sp, #84
	mov	r1, r2
	bl	MPU_xTaskGenericNotifyWait
	.loc	3 424 23 is_stmt 0              @ ../../../CORTEX_MPU_M3_NUCLEO_L152RE_GCC/Demo/TaskNotifyArray.c:424:23
	str	r0, [sp, #88]
.Ltmp272:
	.loc	3 425 13 is_stmt 1              @ ../../../CORTEX_MPU_M3_NUCLEO_L152RE_GCC/Demo/TaskNotifyArray.c:425:13
	ldr	r0, [sp, #84]
	movw	r1, #5555
.Ltmp273:
	.loc	3 425 13 is_stmt 0              @ ../../../CORTEX_MPU_M3_NUCLEO_L152RE_GCC/Demo/TaskNotifyArray.c:425:13
	cmp	r0, r1
	beq	.LBB7_131
	b	.LBB7_129
.LBB7_129:
.Ltmp274:
	.loc	3 425 13                        @ ../../../CORTEX_MPU_M3_NUCLEO_L152RE_GCC/Demo/TaskNotifyArray.c:425:13
	@APP
	cpsid i
	@NO_APP
	b	.LBB7_130
.LBB7_130:                              @ =>This Inner Loop Header: Depth=1
.Ltmp275:
	.loc	3 425 13                        @ ../../../CORTEX_MPU_M3_NUCLEO_L152RE_GCC/Demo/TaskNotifyArray.c:425:13
	b	.LBB7_130
.Ltmp276:
.LBB7_131:                              @   in Loop: Header=BB7_127 Depth=2
	.loc	3 427 9 is_stmt 1               @ ../../../CORTEX_MPU_M3_NUCLEO_L152RE_GCC/Demo/TaskNotifyArray.c:427:9
	b	.LBB7_132
.Ltmp277:
.LBB7_132:                              @   in Loop: Header=BB7_127 Depth=2
	.loc	3 420 81                        @ ../../../CORTEX_MPU_M3_NUCLEO_L152RE_GCC/Demo/TaskNotifyArray.c:420:81
	ldr	r0, [sp, #28]
	adds	r0, r0, #1
	str	r0, [sp, #28]
	.loc	3 420 9 is_stmt 0               @ ../../../CORTEX_MPU_M3_NUCLEO_L152RE_GCC/Demo/TaskNotifyArray.c:420:9
	b	.LBB7_127
.Ltmp278:
.LBB7_133:                              @   in Loop: Header=BB7_119 Depth=1
	.loc	3 433 31 is_stmt 1              @ ../../../CORTEX_MPU_M3_NUCLEO_L152RE_GCC/Demo/TaskNotifyArray.c:433:31
	ldr	r0, [sp, #32]
	.loc	3 433 45 is_stmt 0              @ ../../../CORTEX_MPU_M3_NUCLEO_L152RE_GCC/Demo/TaskNotifyArray.c:433:45
	adds	r0, r0, #1
	.loc	3 433 29                        @ ../../../CORTEX_MPU_M3_NUCLEO_L152RE_GCC/Demo/TaskNotifyArray.c:433:29
	str	r0, [sp, #28]
	.loc	3 433 14                        @ ../../../CORTEX_MPU_M3_NUCLEO_L152RE_GCC/Demo/TaskNotifyArray.c:433:14
	b	.LBB7_134
.LBB7_134:                              @   Parent Loop BB7_119 Depth=1
                                        @ =>  This Inner Loop Header: Depth=2
.Ltmp279:
	.loc	3 433 50                        @ ../../../CORTEX_MPU_M3_NUCLEO_L152RE_GCC/Demo/TaskNotifyArray.c:433:50
	ldr	r0, [sp, #28]
.Ltmp280:
	.loc	3 433 9                         @ ../../../CORTEX_MPU_M3_NUCLEO_L152RE_GCC/Demo/TaskNotifyArray.c:433:9
	cmp	r0, #2
	bhi	.LBB7_140
	b	.LBB7_135
.LBB7_135:                              @   in Loop: Header=BB7_134 Depth=2
.Ltmp281:
	.loc	3 436 31 is_stmt 1              @ ../../../CORTEX_MPU_M3_NUCLEO_L152RE_GCC/Demo/TaskNotifyArray.c:436:31
	ldr	r1, [sp, #28]
	movs	r2, #0
	mov	r0, r2
	bl	MPU_ulTaskGenericNotifyValueClear
	.loc	3 436 29 is_stmt 0              @ ../../../CORTEX_MPU_M3_NUCLEO_L152RE_GCC/Demo/TaskNotifyArray.c:436:29
	str	r0, [sp, #84]
.Ltmp282:
	.loc	3 437 13 is_stmt 1              @ ../../../CORTEX_MPU_M3_NUCLEO_L152RE_GCC/Demo/TaskNotifyArray.c:437:13
	ldr	r0, [sp, #84]
.Ltmp283:
	.loc	3 437 13 is_stmt 0              @ ../../../CORTEX_MPU_M3_NUCLEO_L152RE_GCC/Demo/TaskNotifyArray.c:437:13
	cbz	r0, .LBB7_138
	b	.LBB7_136
.LBB7_136:
.Ltmp284:
	.loc	3 437 13                        @ ../../../CORTEX_MPU_M3_NUCLEO_L152RE_GCC/Demo/TaskNotifyArray.c:437:13
	@APP
	cpsid i
	@NO_APP
	b	.LBB7_137
.LBB7_137:                              @ =>This Inner Loop Header: Depth=1
.Ltmp285:
	.loc	3 437 13                        @ ../../../CORTEX_MPU_M3_NUCLEO_L152RE_GCC/Demo/TaskNotifyArray.c:437:13
	b	.LBB7_137
.Ltmp286:
.LBB7_138:                              @   in Loop: Header=BB7_134 Depth=2
	.loc	3 439 9 is_stmt 1               @ ../../../CORTEX_MPU_M3_NUCLEO_L152RE_GCC/Demo/TaskNotifyArray.c:439:9
	b	.LBB7_139
.Ltmp287:
.LBB7_139:                              @   in Loop: Header=BB7_134 Depth=2
	.loc	3 433 120                       @ ../../../CORTEX_MPU_M3_NUCLEO_L152RE_GCC/Demo/TaskNotifyArray.c:433:120
	ldr	r0, [sp, #28]
	adds	r0, r0, #1
	str	r0, [sp, #28]
	.loc	3 433 9 is_stmt 0               @ ../../../CORTEX_MPU_M3_NUCLEO_L152RE_GCC/Demo/TaskNotifyArray.c:433:9
	b	.LBB7_134
.Ltmp288:
.LBB7_140:                              @   in Loop: Header=BB7_119 Depth=1
	.loc	3 440 5 is_stmt 1               @ ../../../CORTEX_MPU_M3_NUCLEO_L152RE_GCC/Demo/TaskNotifyArray.c:440:5
	b	.LBB7_141
.Ltmp289:
.LBB7_141:                              @   in Loop: Header=BB7_119 Depth=1
	.loc	3 402 97                        @ ../../../CORTEX_MPU_M3_NUCLEO_L152RE_GCC/Demo/TaskNotifyArray.c:402:97
	ldr	r0, [sp, #32]
	adds	r0, r0, #1
	str	r0, [sp, #32]
	.loc	3 402 5 is_stmt 0               @ ../../../CORTEX_MPU_M3_NUCLEO_L152RE_GCC/Demo/TaskNotifyArray.c:402:5
	b	.LBB7_119
.Ltmp290:
.LBB7_142:
	.loc	3 0 5                           @ ../../../CORTEX_MPU_M3_NUCLEO_L152RE_GCC/Demo/TaskNotifyArray.c:0:5
	movs	r0, #0
.Ltmp291:
	.loc	3 447 24 is_stmt 1              @ ../../../CORTEX_MPU_M3_NUCLEO_L152RE_GCC/Demo/TaskNotifyArray.c:447:24
	str	r0, [sp, #32]
	.loc	3 447 10 is_stmt 0              @ ../../../CORTEX_MPU_M3_NUCLEO_L152RE_GCC/Demo/TaskNotifyArray.c:447:10
	b	.LBB7_143
.LBB7_143:                              @ =>This Loop Header: Depth=1
                                        @     Child Loop BB7_145 Depth 2
                                        @     Child Loop BB7_152 Depth 2
                                        @     Child Loop BB7_162 Depth 2
.Ltmp292:
	.loc	3 447 29                        @ ../../../CORTEX_MPU_M3_NUCLEO_L152RE_GCC/Demo/TaskNotifyArray.c:447:29
	ldr	r0, [sp, #32]
.Ltmp293:
	.loc	3 447 5                         @ ../../../CORTEX_MPU_M3_NUCLEO_L152RE_GCC/Demo/TaskNotifyArray.c:447:5
	cmp	r0, #2
	bhi	.LBB7_170
	b	.LBB7_144
.LBB7_144:                              @   in Loop: Header=BB7_143 Depth=1
	.loc	3 0 5                           @ ../../../CORTEX_MPU_M3_NUCLEO_L152RE_GCC/Demo/TaskNotifyArray.c:0:5
	movs	r0, #0
.Ltmp294:
	.loc	3 449 21 is_stmt 1              @ ../../../CORTEX_MPU_M3_NUCLEO_L152RE_GCC/Demo/TaskNotifyArray.c:449:21
	str	r0, [sp, #80]
	.loc	3 449 14 is_stmt 0              @ ../../../CORTEX_MPU_M3_NUCLEO_L152RE_GCC/Demo/TaskNotifyArray.c:449:14
	b	.LBB7_145
.LBB7_145:                              @   Parent Loop BB7_143 Depth=1
                                        @ =>  This Inner Loop Header: Depth=2
.Ltmp295:
	.loc	3 449 26                        @ ../../../CORTEX_MPU_M3_NUCLEO_L152RE_GCC/Demo/TaskNotifyArray.c:449:26
	ldr	r0, [sp, #80]
.Ltmp296:
	.loc	3 449 9                         @ ../../../CORTEX_MPU_M3_NUCLEO_L152RE_GCC/Demo/TaskNotifyArray.c:449:9
	cmp	r0, #4
	bhi	.LBB7_151
	b	.LBB7_146
.LBB7_146:                              @   in Loop: Header=BB7_145 Depth=2
.Ltmp297:
	.loc	3 453 25 is_stmt 1              @ ../../../CORTEX_MPU_M3_NUCLEO_L152RE_GCC/Demo/TaskNotifyArray.c:453:25
	movw	r0, :lower16:xTaskToNotify
	movt	r0, :upper16:xTaskToNotify
	ldr	r0, [r0]
	ldr	r1, [sp, #32]
	movs	r2, #0
	str	r2, [sp]
	movs	r3, #2
	bl	MPU_xTaskGenericNotify
	.loc	3 453 23 is_stmt 0              @ ../../../CORTEX_MPU_M3_NUCLEO_L152RE_GCC/Demo/TaskNotifyArray.c:453:23
	str	r0, [sp, #88]
.Ltmp298:
	.loc	3 454 13 is_stmt 1              @ ../../../CORTEX_MPU_M3_NUCLEO_L152RE_GCC/Demo/TaskNotifyArray.c:454:13
	ldr	r0, [sp, #88]
.Ltmp299:
	.loc	3 454 13 is_stmt 0              @ ../../../CORTEX_MPU_M3_NUCLEO_L152RE_GCC/Demo/TaskNotifyArray.c:454:13
	cmp	r0, #1
	beq	.LBB7_149
	b	.LBB7_147
.LBB7_147:
.Ltmp300:
	.loc	3 454 13                        @ ../../../CORTEX_MPU_M3_NUCLEO_L152RE_GCC/Demo/TaskNotifyArray.c:454:13
	@APP
	cpsid i
	@NO_APP
	b	.LBB7_148
.LBB7_148:                              @ =>This Inner Loop Header: Depth=1
.Ltmp301:
	.loc	3 454 13                        @ ../../../CORTEX_MPU_M3_NUCLEO_L152RE_GCC/Demo/TaskNotifyArray.c:454:13
	b	.LBB7_148
.Ltmp302:
.LBB7_149:                              @   in Loop: Header=BB7_145 Depth=2
	.loc	3 456 9 is_stmt 1               @ ../../../CORTEX_MPU_M3_NUCLEO_L152RE_GCC/Demo/TaskNotifyArray.c:456:9
	b	.LBB7_150
.Ltmp303:
.LBB7_150:                              @   in Loop: Header=BB7_145 Depth=2
	.loc	3 449 53                        @ ../../../CORTEX_MPU_M3_NUCLEO_L152RE_GCC/Demo/TaskNotifyArray.c:449:53
	ldr	r0, [sp, #80]
	adds	r0, r0, #1
	str	r0, [sp, #80]
	.loc	3 449 9 is_stmt 0               @ ../../../CORTEX_MPU_M3_NUCLEO_L152RE_GCC/Demo/TaskNotifyArray.c:449:9
	b	.LBB7_145
.Ltmp304:
.LBB7_151:                              @   in Loop: Header=BB7_143 Depth=1
	.loc	3 0 9                           @ ../../../CORTEX_MPU_M3_NUCLEO_L152RE_GCC/Demo/TaskNotifyArray.c:0:9
	movs	r0, #0
.Ltmp305:
	.loc	3 460 29 is_stmt 1              @ ../../../CORTEX_MPU_M3_NUCLEO_L152RE_GCC/Demo/TaskNotifyArray.c:460:29
	str	r0, [sp, #28]
	.loc	3 460 14 is_stmt 0              @ ../../../CORTEX_MPU_M3_NUCLEO_L152RE_GCC/Demo/TaskNotifyArray.c:460:14
	b	.LBB7_152
.LBB7_152:                              @   Parent Loop BB7_143 Depth=1
                                        @ =>  This Inner Loop Header: Depth=2
.Ltmp306:
	.loc	3 460 34                        @ ../../../CORTEX_MPU_M3_NUCLEO_L152RE_GCC/Demo/TaskNotifyArray.c:460:34
	ldr	r0, [sp, #28]
	.loc	3 460 52                        @ ../../../CORTEX_MPU_M3_NUCLEO_L152RE_GCC/Demo/TaskNotifyArray.c:460:52
	ldr	r1, [sp, #32]
.Ltmp307:
	.loc	3 460 9                         @ ../../../CORTEX_MPU_M3_NUCLEO_L152RE_GCC/Demo/TaskNotifyArray.c:460:9
	cmp	r0, r1
	bhi	.LBB7_158
	b	.LBB7_153
.LBB7_153:                              @   in Loop: Header=BB7_152 Depth=2
.Ltmp308:
	.loc	3 464 25 is_stmt 1              @ ../../../CORTEX_MPU_M3_NUCLEO_L152RE_GCC/Demo/TaskNotifyArray.c:464:25
	ldr	r0, [sp, #28]
	movs	r2, #0
	str	r2, [sp]
	add	r3, sp, #84
	mov	r1, r2
	bl	MPU_xTaskGenericNotifyWait
	.loc	3 464 23 is_stmt 0              @ ../../../CORTEX_MPU_M3_NUCLEO_L152RE_GCC/Demo/TaskNotifyArray.c:464:23
	str	r0, [sp, #88]
.Ltmp309:
	.loc	3 465 13 is_stmt 1              @ ../../../CORTEX_MPU_M3_NUCLEO_L152RE_GCC/Demo/TaskNotifyArray.c:465:13
	ldr	r0, [sp, #84]
	movw	r1, #5560
.Ltmp310:
	.loc	3 465 13 is_stmt 0              @ ../../../CORTEX_MPU_M3_NUCLEO_L152RE_GCC/Demo/TaskNotifyArray.c:465:13
	cmp	r0, r1
	beq	.LBB7_156
	b	.LBB7_154
.LBB7_154:
.Ltmp311:
	.loc	3 465 13                        @ ../../../CORTEX_MPU_M3_NUCLEO_L152RE_GCC/Demo/TaskNotifyArray.c:465:13
	@APP
	cpsid i
	@NO_APP
	b	.LBB7_155
.LBB7_155:                              @ =>This Inner Loop Header: Depth=1
.Ltmp312:
	.loc	3 465 13                        @ ../../../CORTEX_MPU_M3_NUCLEO_L152RE_GCC/Demo/TaskNotifyArray.c:465:13
	b	.LBB7_155
.Ltmp313:
.LBB7_156:                              @   in Loop: Header=BB7_152 Depth=2
	.loc	3 467 9 is_stmt 1               @ ../../../CORTEX_MPU_M3_NUCLEO_L152RE_GCC/Demo/TaskNotifyArray.c:467:9
	b	.LBB7_157
.Ltmp314:
.LBB7_157:                              @   in Loop: Header=BB7_152 Depth=2
	.loc	3 460 81                        @ ../../../CORTEX_MPU_M3_NUCLEO_L152RE_GCC/Demo/TaskNotifyArray.c:460:81
	ldr	r0, [sp, #28]
	adds	r0, r0, #1
	str	r0, [sp, #28]
	.loc	3 460 9 is_stmt 0               @ ../../../CORTEX_MPU_M3_NUCLEO_L152RE_GCC/Demo/TaskNotifyArray.c:460:9
	b	.LBB7_152
.Ltmp315:
.LBB7_158:                              @   in Loop: Header=BB7_143 Depth=1
	.loc	3 470 21 is_stmt 1              @ ../../../CORTEX_MPU_M3_NUCLEO_L152RE_GCC/Demo/TaskNotifyArray.c:470:21
	ldr	r0, [sp, #32]
	movs	r2, #0
	str	r2, [sp]
	add	r3, sp, #84
	mov	r1, r2
	bl	MPU_xTaskGenericNotifyWait
	.loc	3 470 19 is_stmt 0              @ ../../../CORTEX_MPU_M3_NUCLEO_L152RE_GCC/Demo/TaskNotifyArray.c:470:19
	str	r0, [sp, #88]
.Ltmp316:
	.loc	3 471 9 is_stmt 1               @ ../../../CORTEX_MPU_M3_NUCLEO_L152RE_GCC/Demo/TaskNotifyArray.c:471:9
	ldr	r0, [sp, #88]
.Ltmp317:
	.loc	3 471 9 is_stmt 0               @ ../../../CORTEX_MPU_M3_NUCLEO_L152RE_GCC/Demo/TaskNotifyArray.c:471:9
	cbz	r0, .LBB7_161
	b	.LBB7_159
.LBB7_159:
.Ltmp318:
	.loc	3 471 9                         @ ../../../CORTEX_MPU_M3_NUCLEO_L152RE_GCC/Demo/TaskNotifyArray.c:471:9
	@APP
	cpsid i
	@NO_APP
	b	.LBB7_160
.LBB7_160:                              @ =>This Inner Loop Header: Depth=1
.Ltmp319:
	.loc	3 471 9                         @ ../../../CORTEX_MPU_M3_NUCLEO_L152RE_GCC/Demo/TaskNotifyArray.c:471:9
	b	.LBB7_160
.Ltmp320:
.LBB7_161:                              @   in Loop: Header=BB7_143 Depth=1
	.loc	3 480 31 is_stmt 1              @ ../../../CORTEX_MPU_M3_NUCLEO_L152RE_GCC/Demo/TaskNotifyArray.c:480:31
	ldr	r0, [sp, #32]
	.loc	3 480 45 is_stmt 0              @ ../../../CORTEX_MPU_M3_NUCLEO_L152RE_GCC/Demo/TaskNotifyArray.c:480:45
	adds	r0, r0, #1
	.loc	3 480 29                        @ ../../../CORTEX_MPU_M3_NUCLEO_L152RE_GCC/Demo/TaskNotifyArray.c:480:29
	str	r0, [sp, #28]
	.loc	3 480 14                        @ ../../../CORTEX_MPU_M3_NUCLEO_L152RE_GCC/Demo/TaskNotifyArray.c:480:14
	b	.LBB7_162
.LBB7_162:                              @   Parent Loop BB7_143 Depth=1
                                        @ =>  This Inner Loop Header: Depth=2
.Ltmp321:
	.loc	3 480 50                        @ ../../../CORTEX_MPU_M3_NUCLEO_L152RE_GCC/Demo/TaskNotifyArray.c:480:50
	ldr	r0, [sp, #28]
.Ltmp322:
	.loc	3 480 9                         @ ../../../CORTEX_MPU_M3_NUCLEO_L152RE_GCC/Demo/TaskNotifyArray.c:480:9
	cmp	r0, #2
	bhi	.LBB7_168
	b	.LBB7_163
.LBB7_163:                              @   in Loop: Header=BB7_162 Depth=2
.Ltmp323:
	.loc	3 483 31 is_stmt 1              @ ../../../CORTEX_MPU_M3_NUCLEO_L152RE_GCC/Demo/TaskNotifyArray.c:483:31
	ldr	r1, [sp, #28]
	movs	r2, #0
	mov	r0, r2
	bl	MPU_ulTaskGenericNotifyValueClear
	.loc	3 483 29 is_stmt 0              @ ../../../CORTEX_MPU_M3_NUCLEO_L152RE_GCC/Demo/TaskNotifyArray.c:483:29
	str	r0, [sp, #84]
.Ltmp324:
	.loc	3 484 13 is_stmt 1              @ ../../../CORTEX_MPU_M3_NUCLEO_L152RE_GCC/Demo/TaskNotifyArray.c:484:13
	ldr	r0, [sp, #84]
	movw	r1, #5555
.Ltmp325:
	.loc	3 484 13 is_stmt 0              @ ../../../CORTEX_MPU_M3_NUCLEO_L152RE_GCC/Demo/TaskNotifyArray.c:484:13
	cmp	r0, r1
	beq	.LBB7_166
	b	.LBB7_164
.LBB7_164:
.Ltmp326:
	.loc	3 484 13                        @ ../../../CORTEX_MPU_M3_NUCLEO_L152RE_GCC/Demo/TaskNotifyArray.c:484:13
	@APP
	cpsid i
	@NO_APP
	b	.LBB7_165
.LBB7_165:                              @ =>This Inner Loop Header: Depth=1
.Ltmp327:
	.loc	3 484 13                        @ ../../../CORTEX_MPU_M3_NUCLEO_L152RE_GCC/Demo/TaskNotifyArray.c:484:13
	b	.LBB7_165
.Ltmp328:
.LBB7_166:                              @   in Loop: Header=BB7_162 Depth=2
	.loc	3 486 9 is_stmt 1               @ ../../../CORTEX_MPU_M3_NUCLEO_L152RE_GCC/Demo/TaskNotifyArray.c:486:9
	b	.LBB7_167
.Ltmp329:
.LBB7_167:                              @   in Loop: Header=BB7_162 Depth=2
	.loc	3 480 120                       @ ../../../CORTEX_MPU_M3_NUCLEO_L152RE_GCC/Demo/TaskNotifyArray.c:480:120
	ldr	r0, [sp, #28]
	adds	r0, r0, #1
	str	r0, [sp, #28]
	.loc	3 480 9 is_stmt 0               @ ../../../CORTEX_MPU_M3_NUCLEO_L152RE_GCC/Demo/TaskNotifyArray.c:480:9
	b	.LBB7_162
.Ltmp330:
.LBB7_168:                              @   in Loop: Header=BB7_143 Depth=1
	.loc	3 487 5 is_stmt 1               @ ../../../CORTEX_MPU_M3_NUCLEO_L152RE_GCC/Demo/TaskNotifyArray.c:487:5
	b	.LBB7_169
.Ltmp331:
.LBB7_169:                              @   in Loop: Header=BB7_143 Depth=1
	.loc	3 447 97                        @ ../../../CORTEX_MPU_M3_NUCLEO_L152RE_GCC/Demo/TaskNotifyArray.c:447:97
	ldr	r0, [sp, #32]
	adds	r0, r0, #1
	str	r0, [sp, #32]
	.loc	3 447 5 is_stmt 0               @ ../../../CORTEX_MPU_M3_NUCLEO_L152RE_GCC/Demo/TaskNotifyArray.c:447:5
	b	.LBB7_143
.Ltmp332:
.LBB7_170:
	.loc	3 0 5                           @ ../../../CORTEX_MPU_M3_NUCLEO_L152RE_GCC/Demo/TaskNotifyArray.c:0:5
	movs	r0, #0
.Ltmp333:
	.loc	3 490 24 is_stmt 1              @ ../../../CORTEX_MPU_M3_NUCLEO_L152RE_GCC/Demo/TaskNotifyArray.c:490:24
	str	r0, [sp, #32]
	.loc	3 490 10 is_stmt 0              @ ../../../CORTEX_MPU_M3_NUCLEO_L152RE_GCC/Demo/TaskNotifyArray.c:490:10
	b	.LBB7_171
.LBB7_171:                              @ =>This Inner Loop Header: Depth=1
.Ltmp334:
	.loc	3 490 29                        @ ../../../CORTEX_MPU_M3_NUCLEO_L152RE_GCC/Demo/TaskNotifyArray.c:490:29
	ldr	r0, [sp, #32]
.Ltmp335:
	.loc	3 490 5                         @ ../../../CORTEX_MPU_M3_NUCLEO_L152RE_GCC/Demo/TaskNotifyArray.c:490:5
	cmp	r0, #2
	bhi	.LBB7_174
	b	.LBB7_172
.LBB7_172:                              @   in Loop: Header=BB7_171 Depth=1
.Ltmp336:
	.loc	3 493 9 is_stmt 1               @ ../../../CORTEX_MPU_M3_NUCLEO_L152RE_GCC/Demo/TaskNotifyArray.c:493:9
	ldr	r1, [sp, #32]
	movs	r0, #0
	mvns	r2, r0
	bl	MPU_ulTaskGenericNotifyValueClear
	.loc	3 494 5                         @ ../../../CORTEX_MPU_M3_NUCLEO_L152RE_GCC/Demo/TaskNotifyArray.c:494:5
	b	.LBB7_173
.Ltmp337:
.LBB7_173:                              @   in Loop: Header=BB7_171 Depth=1
	.loc	3 490 97                        @ ../../../CORTEX_MPU_M3_NUCLEO_L152RE_GCC/Demo/TaskNotifyArray.c:490:97
	ldr	r0, [sp, #32]
	adds	r0, r0, #1
	str	r0, [sp, #32]
	.loc	3 490 5 is_stmt 0               @ ../../../CORTEX_MPU_M3_NUCLEO_L152RE_GCC/Demo/TaskNotifyArray.c:490:5
	b	.LBB7_171
.Ltmp338:
.LBB7_174:
	.loc	3 0 5                           @ ../../../CORTEX_MPU_M3_NUCLEO_L152RE_GCC/Demo/TaskNotifyArray.c:0:5
	movs	r0, #0
.Ltmp339:
	.loc	3 502 24 is_stmt 1              @ ../../../CORTEX_MPU_M3_NUCLEO_L152RE_GCC/Demo/TaskNotifyArray.c:502:24
	str	r0, [sp, #32]
	.loc	3 502 10 is_stmt 0              @ ../../../CORTEX_MPU_M3_NUCLEO_L152RE_GCC/Demo/TaskNotifyArray.c:502:10
	b	.LBB7_175
.LBB7_175:                              @ =>This Loop Header: Depth=1
                                        @     Child Loop BB7_177 Depth 2
                                        @     Child Loop BB7_186 Depth 2
                                        @     Child Loop BB7_193 Depth 2
.Ltmp340:
	.loc	3 502 29                        @ ../../../CORTEX_MPU_M3_NUCLEO_L152RE_GCC/Demo/TaskNotifyArray.c:502:29
	ldr	r0, [sp, #32]
.Ltmp341:
	.loc	3 502 5                         @ ../../../CORTEX_MPU_M3_NUCLEO_L152RE_GCC/Demo/TaskNotifyArray.c:502:5
	cmp	r0, #2
	bhi	.LBB7_201
	b	.LBB7_176
.LBB7_176:                              @   in Loop: Header=BB7_175 Depth=1
	.loc	3 0 5                           @ ../../../CORTEX_MPU_M3_NUCLEO_L152RE_GCC/Demo/TaskNotifyArray.c:0:5
	movs	r0, #1
.Ltmp342:
	.loc	3 504 26 is_stmt 1              @ ../../../CORTEX_MPU_M3_NUCLEO_L152RE_GCC/Demo/TaskNotifyArray.c:504:26
	str	r0, [sp, #76]
	movs	r0, #0
	.loc	3 505 16                        @ ../../../CORTEX_MPU_M3_NUCLEO_L152RE_GCC/Demo/TaskNotifyArray.c:505:16
	str	r0, [sp, #80]
	.loc	3 507 9                         @ ../../../CORTEX_MPU_M3_NUCLEO_L152RE_GCC/Demo/TaskNotifyArray.c:507:9
	b	.LBB7_177
.LBB7_177:                              @   Parent Loop BB7_175 Depth=1
                                        @ =>  This Inner Loop Header: Depth=2
.Ltmp343:
	.loc	3 511 13                        @ ../../../CORTEX_MPU_M3_NUCLEO_L152RE_GCC/Demo/TaskNotifyArray.c:511:13
	movw	r0, :lower16:xTaskToNotify
	movt	r0, :upper16:xTaskToNotify
	ldr	r0, [r0]
	ldr	r1, [sp, #32]
	ldr	r2, [sp, #76]
	movs	r3, #0
	str	r3, [sp, #24]                   @ 4-byte Spill
	str	r3, [sp]
	movs	r3, #1
	bl	MPU_xTaskGenericNotify
	ldr	r2, [sp, #24]                   @ 4-byte Reload
	.loc	3 516 25                        @ ../../../CORTEX_MPU_M3_NUCLEO_L152RE_GCC/Demo/TaskNotifyArray.c:516:25
	ldr	r0, [sp, #32]
	str	r2, [sp]
	add	r3, sp, #84
	mov	r1, r2
	bl	MPU_xTaskGenericNotifyWait
	.loc	3 516 23 is_stmt 0              @ ../../../CORTEX_MPU_M3_NUCLEO_L152RE_GCC/Demo/TaskNotifyArray.c:516:23
	str	r0, [sp, #88]
.Ltmp344:
	.loc	3 517 13 is_stmt 1              @ ../../../CORTEX_MPU_M3_NUCLEO_L152RE_GCC/Demo/TaskNotifyArray.c:517:13
	ldr	r0, [sp, #88]
.Ltmp345:
	.loc	3 517 13 is_stmt 0              @ ../../../CORTEX_MPU_M3_NUCLEO_L152RE_GCC/Demo/TaskNotifyArray.c:517:13
	cmp	r0, #1
	beq	.LBB7_180
	b	.LBB7_178
.LBB7_178:
.Ltmp346:
	.loc	3 517 13                        @ ../../../CORTEX_MPU_M3_NUCLEO_L152RE_GCC/Demo/TaskNotifyArray.c:517:13
	@APP
	cpsid i
	@NO_APP
	b	.LBB7_179
.LBB7_179:                              @ =>This Inner Loop Header: Depth=1
.Ltmp347:
	.loc	3 517 13                        @ ../../../CORTEX_MPU_M3_NUCLEO_L152RE_GCC/Demo/TaskNotifyArray.c:517:13
	b	.LBB7_179
.Ltmp348:
.LBB7_180:                              @   in Loop: Header=BB7_177 Depth=2
	.loc	3 520 19 is_stmt 1              @ ../../../CORTEX_MPU_M3_NUCLEO_L152RE_GCC/Demo/TaskNotifyArray.c:520:19
	ldr	r0, [sp, #80]
	adds	r0, r0, #1
	str	r0, [sp, #80]
	.loc	3 523 30                        @ ../../../CORTEX_MPU_M3_NUCLEO_L152RE_GCC/Demo/TaskNotifyArray.c:523:30
	ldr	r0, [sp, #76]
	lsls	r0, r0, #1
	str	r0, [sp, #76]
	.loc	3 524 9                         @ ../../../CORTEX_MPU_M3_NUCLEO_L152RE_GCC/Demo/TaskNotifyArray.c:524:9
	b	.LBB7_181
.Ltmp349:
.LBB7_181:                              @   in Loop: Header=BB7_177 Depth=2
	.loc	3 524 18 is_stmt 0              @ ../../../CORTEX_MPU_M3_NUCLEO_L152RE_GCC/Demo/TaskNotifyArray.c:524:18
	ldr	r0, [sp, #84]
.Ltmp350:
	.loc	3 524 9                         @ ../../../CORTEX_MPU_M3_NUCLEO_L152RE_GCC/Demo/TaskNotifyArray.c:524:9
	adds	r0, r0, #1
	cmp	r0, #0
	bne	.LBB7_177
	b	.LBB7_182
.Ltmp351:
.LBB7_182:                              @   in Loop: Header=BB7_175 Depth=1
	.loc	3 528 9 is_stmt 1               @ ../../../CORTEX_MPU_M3_NUCLEO_L152RE_GCC/Demo/TaskNotifyArray.c:528:9
	ldr	r0, [sp, #80]
.Ltmp352:
	.loc	3 528 9 is_stmt 0               @ ../../../CORTEX_MPU_M3_NUCLEO_L152RE_GCC/Demo/TaskNotifyArray.c:528:9
	cmp	r0, #32
	beq	.LBB7_185
	b	.LBB7_183
.LBB7_183:
.Ltmp353:
	.loc	3 528 9                         @ ../../../CORTEX_MPU_M3_NUCLEO_L152RE_GCC/Demo/TaskNotifyArray.c:528:9
	@APP
	cpsid i
	@NO_APP
	b	.LBB7_184
.LBB7_184:                              @ =>This Inner Loop Header: Depth=1
.Ltmp354:
	.loc	3 528 9                         @ ../../../CORTEX_MPU_M3_NUCLEO_L152RE_GCC/Demo/TaskNotifyArray.c:528:9
	b	.LBB7_184
.Ltmp355:
.LBB7_185:                              @   in Loop: Header=BB7_175 Depth=1
	.loc	3 0 9                           @ ../../../CORTEX_MPU_M3_NUCLEO_L152RE_GCC/Demo/TaskNotifyArray.c:0:9
	movs	r0, #0
.Ltmp356:
	.loc	3 533 29 is_stmt 1              @ ../../../CORTEX_MPU_M3_NUCLEO_L152RE_GCC/Demo/TaskNotifyArray.c:533:29
	str	r0, [sp, #28]
	.loc	3 533 14 is_stmt 0              @ ../../../CORTEX_MPU_M3_NUCLEO_L152RE_GCC/Demo/TaskNotifyArray.c:533:14
	b	.LBB7_186
.LBB7_186:                              @   Parent Loop BB7_175 Depth=1
                                        @ =>  This Inner Loop Header: Depth=2
.Ltmp357:
	.loc	3 533 34                        @ ../../../CORTEX_MPU_M3_NUCLEO_L152RE_GCC/Demo/TaskNotifyArray.c:533:34
	ldr	r0, [sp, #28]
	.loc	3 533 52                        @ ../../../CORTEX_MPU_M3_NUCLEO_L152RE_GCC/Demo/TaskNotifyArray.c:533:52
	ldr	r1, [sp, #32]
.Ltmp358:
	.loc	3 533 9                         @ ../../../CORTEX_MPU_M3_NUCLEO_L152RE_GCC/Demo/TaskNotifyArray.c:533:9
	cmp	r0, r1
	bhi	.LBB7_192
	b	.LBB7_187
.LBB7_187:                              @   in Loop: Header=BB7_186 Depth=2
.Ltmp359:
	.loc	3 537 25 is_stmt 1              @ ../../../CORTEX_MPU_M3_NUCLEO_L152RE_GCC/Demo/TaskNotifyArray.c:537:25
	ldr	r0, [sp, #28]
	movs	r2, #0
	str	r2, [sp]
	add	r3, sp, #84
	mov	r1, r2
	bl	MPU_xTaskGenericNotifyWait
	.loc	3 537 23 is_stmt 0              @ ../../../CORTEX_MPU_M3_NUCLEO_L152RE_GCC/Demo/TaskNotifyArray.c:537:23
	str	r0, [sp, #88]
.Ltmp360:
	.loc	3 538 13 is_stmt 1              @ ../../../CORTEX_MPU_M3_NUCLEO_L152RE_GCC/Demo/TaskNotifyArray.c:538:13
	ldr	r0, [sp, #84]
.Ltmp361:
	.loc	3 538 13 is_stmt 0              @ ../../../CORTEX_MPU_M3_NUCLEO_L152RE_GCC/Demo/TaskNotifyArray.c:538:13
	adds	r0, r0, #1
	cbz	r0, .LBB7_190
	b	.LBB7_188
.LBB7_188:
.Ltmp362:
	.loc	3 538 13                        @ ../../../CORTEX_MPU_M3_NUCLEO_L152RE_GCC/Demo/TaskNotifyArray.c:538:13
	@APP
	cpsid i
	@NO_APP
	b	.LBB7_189
.LBB7_189:                              @ =>This Inner Loop Header: Depth=1
.Ltmp363:
	.loc	3 538 13                        @ ../../../CORTEX_MPU_M3_NUCLEO_L152RE_GCC/Demo/TaskNotifyArray.c:538:13
	b	.LBB7_189
.Ltmp364:
.LBB7_190:                              @   in Loop: Header=BB7_186 Depth=2
	.loc	3 540 9 is_stmt 1               @ ../../../CORTEX_MPU_M3_NUCLEO_L152RE_GCC/Demo/TaskNotifyArray.c:540:9
	b	.LBB7_191
.Ltmp365:
.LBB7_191:                              @   in Loop: Header=BB7_186 Depth=2
	.loc	3 533 81                        @ ../../../CORTEX_MPU_M3_NUCLEO_L152RE_GCC/Demo/TaskNotifyArray.c:533:81
	ldr	r0, [sp, #28]
	adds	r0, r0, #1
	str	r0, [sp, #28]
	.loc	3 533 9 is_stmt 0               @ ../../../CORTEX_MPU_M3_NUCLEO_L152RE_GCC/Demo/TaskNotifyArray.c:533:9
	b	.LBB7_186
.Ltmp366:
.LBB7_192:                              @   in Loop: Header=BB7_175 Depth=1
	.loc	3 546 31 is_stmt 1              @ ../../../CORTEX_MPU_M3_NUCLEO_L152RE_GCC/Demo/TaskNotifyArray.c:546:31
	ldr	r0, [sp, #32]
	.loc	3 546 45 is_stmt 0              @ ../../../CORTEX_MPU_M3_NUCLEO_L152RE_GCC/Demo/TaskNotifyArray.c:546:45
	adds	r0, r0, #1
	.loc	3 546 29                        @ ../../../CORTEX_MPU_M3_NUCLEO_L152RE_GCC/Demo/TaskNotifyArray.c:546:29
	str	r0, [sp, #28]
	.loc	3 546 14                        @ ../../../CORTEX_MPU_M3_NUCLEO_L152RE_GCC/Demo/TaskNotifyArray.c:546:14
	b	.LBB7_193
.LBB7_193:                              @   Parent Loop BB7_175 Depth=1
                                        @ =>  This Inner Loop Header: Depth=2
.Ltmp367:
	.loc	3 546 50                        @ ../../../CORTEX_MPU_M3_NUCLEO_L152RE_GCC/Demo/TaskNotifyArray.c:546:50
	ldr	r0, [sp, #28]
.Ltmp368:
	.loc	3 546 9                         @ ../../../CORTEX_MPU_M3_NUCLEO_L152RE_GCC/Demo/TaskNotifyArray.c:546:9
	cmp	r0, #2
	bhi	.LBB7_199
	b	.LBB7_194
.LBB7_194:                              @   in Loop: Header=BB7_193 Depth=2
.Ltmp369:
	.loc	3 549 31 is_stmt 1              @ ../../../CORTEX_MPU_M3_NUCLEO_L152RE_GCC/Demo/TaskNotifyArray.c:549:31
	ldr	r1, [sp, #28]
	movs	r2, #0
	mov	r0, r2
	bl	MPU_ulTaskGenericNotifyValueClear
	.loc	3 549 29 is_stmt 0              @ ../../../CORTEX_MPU_M3_NUCLEO_L152RE_GCC/Demo/TaskNotifyArray.c:549:29
	str	r0, [sp, #84]
.Ltmp370:
	.loc	3 550 13 is_stmt 1              @ ../../../CORTEX_MPU_M3_NUCLEO_L152RE_GCC/Demo/TaskNotifyArray.c:550:13
	ldr	r0, [sp, #84]
.Ltmp371:
	.loc	3 550 13 is_stmt 0              @ ../../../CORTEX_MPU_M3_NUCLEO_L152RE_GCC/Demo/TaskNotifyArray.c:550:13
	cbz	r0, .LBB7_197
	b	.LBB7_195
.LBB7_195:
.Ltmp372:
	.loc	3 550 13                        @ ../../../CORTEX_MPU_M3_NUCLEO_L152RE_GCC/Demo/TaskNotifyArray.c:550:13
	@APP
	cpsid i
	@NO_APP
	b	.LBB7_196
.LBB7_196:                              @ =>This Inner Loop Header: Depth=1
.Ltmp373:
	.loc	3 550 13                        @ ../../../CORTEX_MPU_M3_NUCLEO_L152RE_GCC/Demo/TaskNotifyArray.c:550:13
	b	.LBB7_196
.Ltmp374:
.LBB7_197:                              @   in Loop: Header=BB7_193 Depth=2
	.loc	3 552 9 is_stmt 1               @ ../../../CORTEX_MPU_M3_NUCLEO_L152RE_GCC/Demo/TaskNotifyArray.c:552:9
	b	.LBB7_198
.Ltmp375:
.LBB7_198:                              @   in Loop: Header=BB7_193 Depth=2
	.loc	3 546 120                       @ ../../../CORTEX_MPU_M3_NUCLEO_L152RE_GCC/Demo/TaskNotifyArray.c:546:120
	ldr	r0, [sp, #28]
	adds	r0, r0, #1
	str	r0, [sp, #28]
	.loc	3 546 9 is_stmt 0               @ ../../../CORTEX_MPU_M3_NUCLEO_L152RE_GCC/Demo/TaskNotifyArray.c:546:9
	b	.LBB7_193
.Ltmp376:
.LBB7_199:                              @   in Loop: Header=BB7_175 Depth=1
	.loc	3 553 5 is_stmt 1               @ ../../../CORTEX_MPU_M3_NUCLEO_L152RE_GCC/Demo/TaskNotifyArray.c:553:5
	b	.LBB7_200
.Ltmp377:
.LBB7_200:                              @   in Loop: Header=BB7_175 Depth=1
	.loc	3 502 97                        @ ../../../CORTEX_MPU_M3_NUCLEO_L152RE_GCC/Demo/TaskNotifyArray.c:502:97
	ldr	r0, [sp, #32]
	adds	r0, r0, #1
	str	r0, [sp, #32]
	.loc	3 502 5 is_stmt 0               @ ../../../CORTEX_MPU_M3_NUCLEO_L152RE_GCC/Demo/TaskNotifyArray.c:502:5
	b	.LBB7_175
.Ltmp378:
.LBB7_201:
	.loc	3 0 5                           @ ../../../CORTEX_MPU_M3_NUCLEO_L152RE_GCC/Demo/TaskNotifyArray.c:0:5
	movs	r0, #0
.Ltmp379:
	.loc	3 559 24 is_stmt 1              @ ../../../CORTEX_MPU_M3_NUCLEO_L152RE_GCC/Demo/TaskNotifyArray.c:559:24
	str	r0, [sp, #32]
	.loc	3 559 10 is_stmt 0              @ ../../../CORTEX_MPU_M3_NUCLEO_L152RE_GCC/Demo/TaskNotifyArray.c:559:10
	b	.LBB7_202
.LBB7_202:                              @ =>This Loop Header: Depth=1
                                        @     Child Loop BB7_207 Depth 2
                                        @     Child Loop BB7_223 Depth 2
.Ltmp380:
	.loc	3 559 29                        @ ../../../CORTEX_MPU_M3_NUCLEO_L152RE_GCC/Demo/TaskNotifyArray.c:559:29
	ldr	r0, [sp, #32]
.Ltmp381:
	.loc	3 559 5                         @ ../../../CORTEX_MPU_M3_NUCLEO_L152RE_GCC/Demo/TaskNotifyArray.c:559:5
	cmp	r0, #2
	bhi	.LBB7_231
	b	.LBB7_203
.LBB7_203:                              @   in Loop: Header=BB7_202 Depth=1
.Ltmp382:
	.loc	3 565 21 is_stmt 1              @ ../../../CORTEX_MPU_M3_NUCLEO_L152RE_GCC/Demo/TaskNotifyArray.c:565:21
	ldr	r0, [sp, #32]
	movs	r1, #10
	str	r1, [sp]
	movs	r1, #1
	movs	r2, #2
	add	r3, sp, #84
	bl	MPU_xTaskGenericNotifyWait
	.loc	3 565 19 is_stmt 0              @ ../../../CORTEX_MPU_M3_NUCLEO_L152RE_GCC/Demo/TaskNotifyArray.c:565:19
	str	r0, [sp, #88]
.Ltmp383:
	.loc	3 566 9 is_stmt 1               @ ../../../CORTEX_MPU_M3_NUCLEO_L152RE_GCC/Demo/TaskNotifyArray.c:566:9
	ldr	r0, [sp, #88]
.Ltmp384:
	.loc	3 566 9 is_stmt 0               @ ../../../CORTEX_MPU_M3_NUCLEO_L152RE_GCC/Demo/TaskNotifyArray.c:566:9
	cbz	r0, .LBB7_206
	b	.LBB7_204
.LBB7_204:
.Ltmp385:
	.loc	3 566 9                         @ ../../../CORTEX_MPU_M3_NUCLEO_L152RE_GCC/Demo/TaskNotifyArray.c:566:9
	@APP
	cpsid i
	@NO_APP
	b	.LBB7_205
.LBB7_205:                              @ =>This Inner Loop Header: Depth=1
.Ltmp386:
	.loc	3 566 9                         @ ../../../CORTEX_MPU_M3_NUCLEO_L152RE_GCC/Demo/TaskNotifyArray.c:566:9
	b	.LBB7_205
.Ltmp387:
.LBB7_206:                              @   in Loop: Header=BB7_202 Depth=1
	.loc	3 573 9 is_stmt 1               @ ../../../CORTEX_MPU_M3_NUCLEO_L152RE_GCC/Demo/TaskNotifyArray.c:573:9
	movw	r0, :lower16:xTaskToNotify
	movt	r0, :upper16:xTaskToNotify
	ldr	r0, [r0]
	ldr	r1, [sp, #32]
	movs	r3, #0
	str	r3, [sp, #20]                   @ 4-byte Spill
	str	r3, [sp]
	mvns	r2, r3
	bl	MPU_xTaskGenericNotify
                                        @ kill: def $r1 killed $r0
.Ltmp388:
	.loc	3 577 29                        @ ../../../CORTEX_MPU_M3_NUCLEO_L152RE_GCC/Demo/TaskNotifyArray.c:577:29
	ldr	r0, [sp, #20]                   @ 4-byte Reload
	str	r0, [sp, #28]
	.loc	3 577 14 is_stmt 0              @ ../../../CORTEX_MPU_M3_NUCLEO_L152RE_GCC/Demo/TaskNotifyArray.c:577:14
	b	.LBB7_207
.LBB7_207:                              @   Parent Loop BB7_202 Depth=1
                                        @ =>  This Inner Loop Header: Depth=2
.Ltmp389:
	.loc	3 577 34                        @ ../../../CORTEX_MPU_M3_NUCLEO_L152RE_GCC/Demo/TaskNotifyArray.c:577:34
	ldr	r0, [sp, #28]
	.loc	3 577 52                        @ ../../../CORTEX_MPU_M3_NUCLEO_L152RE_GCC/Demo/TaskNotifyArray.c:577:52
	ldr	r1, [sp, #32]
.Ltmp390:
	.loc	3 577 9                         @ ../../../CORTEX_MPU_M3_NUCLEO_L152RE_GCC/Demo/TaskNotifyArray.c:577:9
	cmp	r0, r1
	bhi	.LBB7_222
	b	.LBB7_208
.LBB7_208:                              @   in Loop: Header=BB7_207 Depth=2
.Ltmp391:
	.loc	3 582 25 is_stmt 1              @ ../../../CORTEX_MPU_M3_NUCLEO_L152RE_GCC/Demo/TaskNotifyArray.c:582:25
	ldr	r0, [sp, #28]
	movs	r2, #0
	str	r2, [sp]
	add	r3, sp, #84
	mov	r1, r2
	bl	MPU_xTaskGenericNotifyWait
	.loc	3 582 23 is_stmt 0              @ ../../../CORTEX_MPU_M3_NUCLEO_L152RE_GCC/Demo/TaskNotifyArray.c:582:23
	str	r0, [sp, #88]
.Ltmp392:
	.loc	3 584 17 is_stmt 1              @ ../../../CORTEX_MPU_M3_NUCLEO_L152RE_GCC/Demo/TaskNotifyArray.c:584:17
	ldr	r0, [sp, #28]
	.loc	3 584 35 is_stmt 0              @ ../../../CORTEX_MPU_M3_NUCLEO_L152RE_GCC/Demo/TaskNotifyArray.c:584:35
	ldr	r1, [sp, #32]
.Ltmp393:
	.loc	3 584 17                        @ ../../../CORTEX_MPU_M3_NUCLEO_L152RE_GCC/Demo/TaskNotifyArray.c:584:17
	cmp	r0, r1
	bne	.LBB7_213
	b	.LBB7_209
.LBB7_209:                              @   in Loop: Header=BB7_207 Depth=2
.Ltmp394:
	.loc	3 588 17 is_stmt 1              @ ../../../CORTEX_MPU_M3_NUCLEO_L152RE_GCC/Demo/TaskNotifyArray.c:588:17
	ldr	r0, [sp, #88]
.Ltmp395:
	.loc	3 588 17 is_stmt 0              @ ../../../CORTEX_MPU_M3_NUCLEO_L152RE_GCC/Demo/TaskNotifyArray.c:588:17
	cmp	r0, #1
	beq	.LBB7_212
	b	.LBB7_210
.LBB7_210:
.Ltmp396:
	.loc	3 588 17                        @ ../../../CORTEX_MPU_M3_NUCLEO_L152RE_GCC/Demo/TaskNotifyArray.c:588:17
	@APP
	cpsid i
	@NO_APP
	b	.LBB7_211
.LBB7_211:                              @ =>This Inner Loop Header: Depth=1
.Ltmp397:
	.loc	3 588 17                        @ ../../../CORTEX_MPU_M3_NUCLEO_L152RE_GCC/Demo/TaskNotifyArray.c:588:17
	b	.LBB7_211
.Ltmp398:
.LBB7_212:                              @   in Loop: Header=BB7_207 Depth=2
	.loc	3 589 13 is_stmt 1              @ ../../../CORTEX_MPU_M3_NUCLEO_L152RE_GCC/Demo/TaskNotifyArray.c:589:13
	b	.LBB7_217
.Ltmp399:
.LBB7_213:                              @   in Loop: Header=BB7_207 Depth=2
	.loc	3 593 17                        @ ../../../CORTEX_MPU_M3_NUCLEO_L152RE_GCC/Demo/TaskNotifyArray.c:593:17
	ldr	r0, [sp, #88]
.Ltmp400:
	.loc	3 593 17 is_stmt 0              @ ../../../CORTEX_MPU_M3_NUCLEO_L152RE_GCC/Demo/TaskNotifyArray.c:593:17
	cbz	r0, .LBB7_216
	b	.LBB7_214
.LBB7_214:
.Ltmp401:
	.loc	3 593 17                        @ ../../../CORTEX_MPU_M3_NUCLEO_L152RE_GCC/Demo/TaskNotifyArray.c:593:17
	@APP
	cpsid i
	@NO_APP
	b	.LBB7_215
.LBB7_215:                              @ =>This Inner Loop Header: Depth=1
.Ltmp402:
	.loc	3 593 17                        @ ../../../CORTEX_MPU_M3_NUCLEO_L152RE_GCC/Demo/TaskNotifyArray.c:593:17
	b	.LBB7_215
.Ltmp403:
.LBB7_216:                              @   in Loop: Header=BB7_207 Depth=2
	.loc	3 0 17                          @ ../../../CORTEX_MPU_M3_NUCLEO_L152RE_GCC/Demo/TaskNotifyArray.c:0:17
	b	.LBB7_217
.LBB7_217:                              @   in Loop: Header=BB7_207 Depth=2
.Ltmp404:
	.loc	3 596 13 is_stmt 1              @ ../../../CORTEX_MPU_M3_NUCLEO_L152RE_GCC/Demo/TaskNotifyArray.c:596:13
	ldr	r0, [sp, #84]
.Ltmp405:
	.loc	3 596 13 is_stmt 0              @ ../../../CORTEX_MPU_M3_NUCLEO_L152RE_GCC/Demo/TaskNotifyArray.c:596:13
	adds	r0, r0, #2
	cbz	r0, .LBB7_220
	b	.LBB7_218
.LBB7_218:
.Ltmp406:
	.loc	3 596 13                        @ ../../../CORTEX_MPU_M3_NUCLEO_L152RE_GCC/Demo/TaskNotifyArray.c:596:13
	@APP
	cpsid i
	@NO_APP
	b	.LBB7_219
.LBB7_219:                              @ =>This Inner Loop Header: Depth=1
.Ltmp407:
	.loc	3 596 13                        @ ../../../CORTEX_MPU_M3_NUCLEO_L152RE_GCC/Demo/TaskNotifyArray.c:596:13
	b	.LBB7_219
.Ltmp408:
.LBB7_220:                              @   in Loop: Header=BB7_207 Depth=2
	.loc	3 598 9 is_stmt 1               @ ../../../CORTEX_MPU_M3_NUCLEO_L152RE_GCC/Demo/TaskNotifyArray.c:598:9
	b	.LBB7_221
.Ltmp409:
.LBB7_221:                              @   in Loop: Header=BB7_207 Depth=2
	.loc	3 577 81                        @ ../../../CORTEX_MPU_M3_NUCLEO_L152RE_GCC/Demo/TaskNotifyArray.c:577:81
	ldr	r0, [sp, #28]
	adds	r0, r0, #1
	str	r0, [sp, #28]
	.loc	3 577 9 is_stmt 0               @ ../../../CORTEX_MPU_M3_NUCLEO_L152RE_GCC/Demo/TaskNotifyArray.c:577:9
	b	.LBB7_207
.Ltmp410:
.LBB7_222:                              @   in Loop: Header=BB7_202 Depth=1
	.loc	3 603 31 is_stmt 1              @ ../../../CORTEX_MPU_M3_NUCLEO_L152RE_GCC/Demo/TaskNotifyArray.c:603:31
	ldr	r0, [sp, #32]
	.loc	3 603 45 is_stmt 0              @ ../../../CORTEX_MPU_M3_NUCLEO_L152RE_GCC/Demo/TaskNotifyArray.c:603:45
	adds	r0, r0, #1
	.loc	3 603 29                        @ ../../../CORTEX_MPU_M3_NUCLEO_L152RE_GCC/Demo/TaskNotifyArray.c:603:29
	str	r0, [sp, #28]
	.loc	3 603 14                        @ ../../../CORTEX_MPU_M3_NUCLEO_L152RE_GCC/Demo/TaskNotifyArray.c:603:14
	b	.LBB7_223
.LBB7_223:                              @   Parent Loop BB7_202 Depth=1
                                        @ =>  This Inner Loop Header: Depth=2
.Ltmp411:
	.loc	3 603 50                        @ ../../../CORTEX_MPU_M3_NUCLEO_L152RE_GCC/Demo/TaskNotifyArray.c:603:50
	ldr	r0, [sp, #28]
.Ltmp412:
	.loc	3 603 9                         @ ../../../CORTEX_MPU_M3_NUCLEO_L152RE_GCC/Demo/TaskNotifyArray.c:603:9
	cmp	r0, #2
	bhi	.LBB7_229
	b	.LBB7_224
.LBB7_224:                              @   in Loop: Header=BB7_223 Depth=2
.Ltmp413:
	.loc	3 606 31 is_stmt 1              @ ../../../CORTEX_MPU_M3_NUCLEO_L152RE_GCC/Demo/TaskNotifyArray.c:606:31
	ldr	r1, [sp, #28]
	movs	r2, #0
	mov	r0, r2
	bl	MPU_ulTaskGenericNotifyValueClear
	.loc	3 606 29 is_stmt 0              @ ../../../CORTEX_MPU_M3_NUCLEO_L152RE_GCC/Demo/TaskNotifyArray.c:606:29
	str	r0, [sp, #84]
.Ltmp414:
	.loc	3 607 13 is_stmt 1              @ ../../../CORTEX_MPU_M3_NUCLEO_L152RE_GCC/Demo/TaskNotifyArray.c:607:13
	ldr	r0, [sp, #84]
.Ltmp415:
	.loc	3 607 13 is_stmt 0              @ ../../../CORTEX_MPU_M3_NUCLEO_L152RE_GCC/Demo/TaskNotifyArray.c:607:13
	adds	r0, r0, #1
	cbz	r0, .LBB7_227
	b	.LBB7_225
.LBB7_225:
.Ltmp416:
	.loc	3 607 13                        @ ../../../CORTEX_MPU_M3_NUCLEO_L152RE_GCC/Demo/TaskNotifyArray.c:607:13
	@APP
	cpsid i
	@NO_APP
	b	.LBB7_226
.LBB7_226:                              @ =>This Inner Loop Header: Depth=1
.Ltmp417:
	.loc	3 607 13                        @ ../../../CORTEX_MPU_M3_NUCLEO_L152RE_GCC/Demo/TaskNotifyArray.c:607:13
	b	.LBB7_226
.Ltmp418:
.LBB7_227:                              @   in Loop: Header=BB7_223 Depth=2
	.loc	3 609 9 is_stmt 1               @ ../../../CORTEX_MPU_M3_NUCLEO_L152RE_GCC/Demo/TaskNotifyArray.c:609:9
	b	.LBB7_228
.Ltmp419:
.LBB7_228:                              @   in Loop: Header=BB7_223 Depth=2
	.loc	3 603 120                       @ ../../../CORTEX_MPU_M3_NUCLEO_L152RE_GCC/Demo/TaskNotifyArray.c:603:120
	ldr	r0, [sp, #28]
	adds	r0, r0, #1
	str	r0, [sp, #28]
	.loc	3 603 9 is_stmt 0               @ ../../../CORTEX_MPU_M3_NUCLEO_L152RE_GCC/Demo/TaskNotifyArray.c:603:9
	b	.LBB7_223
.Ltmp420:
.LBB7_229:                              @   in Loop: Header=BB7_202 Depth=1
	.loc	3 610 5 is_stmt 1               @ ../../../CORTEX_MPU_M3_NUCLEO_L152RE_GCC/Demo/TaskNotifyArray.c:610:5
	b	.LBB7_230
.Ltmp421:
.LBB7_230:                              @   in Loop: Header=BB7_202 Depth=1
	.loc	3 559 97                        @ ../../../CORTEX_MPU_M3_NUCLEO_L152RE_GCC/Demo/TaskNotifyArray.c:559:97
	ldr	r0, [sp, #32]
	adds	r0, r0, #1
	str	r0, [sp, #32]
	.loc	3 559 5 is_stmt 0               @ ../../../CORTEX_MPU_M3_NUCLEO_L152RE_GCC/Demo/TaskNotifyArray.c:559:5
	b	.LBB7_202
.Ltmp422:
.LBB7_231:
	.loc	3 0 5                           @ ../../../CORTEX_MPU_M3_NUCLEO_L152RE_GCC/Demo/TaskNotifyArray.c:0:5
	movs	r0, #0
.Ltmp423:
	.loc	3 614 24 is_stmt 1              @ ../../../CORTEX_MPU_M3_NUCLEO_L152RE_GCC/Demo/TaskNotifyArray.c:614:24
	str	r0, [sp, #32]
	.loc	3 614 10 is_stmt 0              @ ../../../CORTEX_MPU_M3_NUCLEO_L152RE_GCC/Demo/TaskNotifyArray.c:614:10
	b	.LBB7_232
.LBB7_232:                              @ =>This Loop Header: Depth=1
                                        @     Child Loop BB7_243 Depth 2
.Ltmp424:
	.loc	3 614 29                        @ ../../../CORTEX_MPU_M3_NUCLEO_L152RE_GCC/Demo/TaskNotifyArray.c:614:29
	ldr	r0, [sp, #32]
.Ltmp425:
	.loc	3 614 5                         @ ../../../CORTEX_MPU_M3_NUCLEO_L152RE_GCC/Demo/TaskNotifyArray.c:614:5
	cmp	r0, #2
	bhi	.LBB7_253
	b	.LBB7_233
.LBB7_233:                              @   in Loop: Header=BB7_232 Depth=1
.Ltmp426:
	.loc	3 618 9 is_stmt 1               @ ../../../CORTEX_MPU_M3_NUCLEO_L152RE_GCC/Demo/TaskNotifyArray.c:618:9
	movw	r0, :lower16:xTaskToNotify
	movt	r0, :upper16:xTaskToNotify
	ldr	r0, [r0]
	ldr	r1, [sp, #32]
	movs	r3, #0
	str	r3, [sp, #16]                   @ 4-byte Spill
	str	r3, [sp]
	mov	r2, r3
	bl	MPU_xTaskGenericNotify
	ldr	r1, [sp, #16]                   @ 4-byte Reload
	.loc	3 619 9                         @ ../../../CORTEX_MPU_M3_NUCLEO_L152RE_GCC/Demo/TaskNotifyArray.c:619:9
	ldr	r0, [sp, #32]
	str	r1, [sp]
	movs	r2, #2
	add	r3, sp, #84
	bl	MPU_xTaskGenericNotifyWait
.Ltmp427:
	.loc	3 624 9                         @ ../../../CORTEX_MPU_M3_NUCLEO_L152RE_GCC/Demo/TaskNotifyArray.c:624:9
	ldr	r0, [sp, #84]
.Ltmp428:
	.loc	3 624 9 is_stmt 0               @ ../../../CORTEX_MPU_M3_NUCLEO_L152RE_GCC/Demo/TaskNotifyArray.c:624:9
	adds	r0, r0, #2
	cbz	r0, .LBB7_236
	b	.LBB7_234
.LBB7_234:
.Ltmp429:
	.loc	3 624 9                         @ ../../../CORTEX_MPU_M3_NUCLEO_L152RE_GCC/Demo/TaskNotifyArray.c:624:9
	@APP
	cpsid i
	@NO_APP
	b	.LBB7_235
.LBB7_235:                              @ =>This Inner Loop Header: Depth=1
.Ltmp430:
	.loc	3 624 9                         @ ../../../CORTEX_MPU_M3_NUCLEO_L152RE_GCC/Demo/TaskNotifyArray.c:624:9
	b	.LBB7_235
.Ltmp431:
.LBB7_236:                              @   in Loop: Header=BB7_232 Depth=1
	.loc	3 629 21 is_stmt 1              @ ../../../CORTEX_MPU_M3_NUCLEO_L152RE_GCC/Demo/TaskNotifyArray.c:629:21
	ldr	r0, [sp, #32]
	movs	r2, #0
	str	r2, [sp]
	add	r3, sp, #84
	mov	r1, r2
	bl	MPU_xTaskGenericNotifyWait
	.loc	3 629 19 is_stmt 0              @ ../../../CORTEX_MPU_M3_NUCLEO_L152RE_GCC/Demo/TaskNotifyArray.c:629:19
	str	r0, [sp, #88]
.Ltmp432:
	.loc	3 630 9 is_stmt 1               @ ../../../CORTEX_MPU_M3_NUCLEO_L152RE_GCC/Demo/TaskNotifyArray.c:630:9
	ldr	r0, [sp, #88]
.Ltmp433:
	.loc	3 630 9 is_stmt 0               @ ../../../CORTEX_MPU_M3_NUCLEO_L152RE_GCC/Demo/TaskNotifyArray.c:630:9
	cbz	r0, .LBB7_239
	b	.LBB7_237
.LBB7_237:
.Ltmp434:
	.loc	3 630 9                         @ ../../../CORTEX_MPU_M3_NUCLEO_L152RE_GCC/Demo/TaskNotifyArray.c:630:9
	@APP
	cpsid i
	@NO_APP
	b	.LBB7_238
.LBB7_238:                              @ =>This Inner Loop Header: Depth=1
.Ltmp435:
	.loc	3 630 9                         @ ../../../CORTEX_MPU_M3_NUCLEO_L152RE_GCC/Demo/TaskNotifyArray.c:630:9
	b	.LBB7_238
.Ltmp436:
.LBB7_239:                              @   in Loop: Header=BB7_232 Depth=1
	.loc	3 631 9 is_stmt 1               @ ../../../CORTEX_MPU_M3_NUCLEO_L152RE_GCC/Demo/TaskNotifyArray.c:631:9
	ldr	r0, [sp, #84]
.Ltmp437:
	.loc	3 631 9 is_stmt 0               @ ../../../CORTEX_MPU_M3_NUCLEO_L152RE_GCC/Demo/TaskNotifyArray.c:631:9
	adds	r0, r0, #4
	cbz	r0, .LBB7_242
	b	.LBB7_240
.LBB7_240:
.Ltmp438:
	.loc	3 631 9                         @ ../../../CORTEX_MPU_M3_NUCLEO_L152RE_GCC/Demo/TaskNotifyArray.c:631:9
	@APP
	cpsid i
	@NO_APP
	b	.LBB7_241
.LBB7_241:                              @ =>This Inner Loop Header: Depth=1
.Ltmp439:
	.loc	3 631 9                         @ ../../../CORTEX_MPU_M3_NUCLEO_L152RE_GCC/Demo/TaskNotifyArray.c:631:9
	b	.LBB7_241
.Ltmp440:
.LBB7_242:                              @   in Loop: Header=BB7_232 Depth=1
	.loc	3 0 9                           @ ../../../CORTEX_MPU_M3_NUCLEO_L152RE_GCC/Demo/TaskNotifyArray.c:0:9
	movs	r0, #0
.Ltmp441:
	.loc	3 635 29 is_stmt 1              @ ../../../CORTEX_MPU_M3_NUCLEO_L152RE_GCC/Demo/TaskNotifyArray.c:635:29
	str	r0, [sp, #28]
	.loc	3 635 14 is_stmt 0              @ ../../../CORTEX_MPU_M3_NUCLEO_L152RE_GCC/Demo/TaskNotifyArray.c:635:14
	b	.LBB7_243
.LBB7_243:                              @   Parent Loop BB7_232 Depth=1
                                        @ =>  This Inner Loop Header: Depth=2
.Ltmp442:
	.loc	3 635 34                        @ ../../../CORTEX_MPU_M3_NUCLEO_L152RE_GCC/Demo/TaskNotifyArray.c:635:34
	ldr	r0, [sp, #28]
.Ltmp443:
	.loc	3 635 9                         @ ../../../CORTEX_MPU_M3_NUCLEO_L152RE_GCC/Demo/TaskNotifyArray.c:635:9
	cmp	r0, #2
	bhi	.LBB7_251
	b	.LBB7_244
.LBB7_244:                              @   in Loop: Header=BB7_243 Depth=2
.Ltmp444:
	.loc	3 637 17 is_stmt 1              @ ../../../CORTEX_MPU_M3_NUCLEO_L152RE_GCC/Demo/TaskNotifyArray.c:637:17
	ldr	r0, [sp, #28]
	.loc	3 637 35 is_stmt 0              @ ../../../CORTEX_MPU_M3_NUCLEO_L152RE_GCC/Demo/TaskNotifyArray.c:637:35
	ldr	r1, [sp, #32]
.Ltmp445:
	.loc	3 637 17                        @ ../../../CORTEX_MPU_M3_NUCLEO_L152RE_GCC/Demo/TaskNotifyArray.c:637:17
	cmp	r0, r1
	beq	.LBB7_249
	b	.LBB7_245
.LBB7_245:                              @   in Loop: Header=BB7_243 Depth=2
.Ltmp446:
	.loc	3 639 29 is_stmt 1              @ ../../../CORTEX_MPU_M3_NUCLEO_L152RE_GCC/Demo/TaskNotifyArray.c:639:29
	ldr	r0, [sp, #28]
	movs	r2, #0
	str	r2, [sp]
	add	r3, sp, #84
	mov	r1, r2
	bl	MPU_xTaskGenericNotifyWait
	.loc	3 639 27 is_stmt 0              @ ../../../CORTEX_MPU_M3_NUCLEO_L152RE_GCC/Demo/TaskNotifyArray.c:639:27
	str	r0, [sp, #88]
.Ltmp447:
	.loc	3 640 17 is_stmt 1              @ ../../../CORTEX_MPU_M3_NUCLEO_L152RE_GCC/Demo/TaskNotifyArray.c:640:17
	ldr	r0, [sp, #88]
.Ltmp448:
	.loc	3 640 17 is_stmt 0              @ ../../../CORTEX_MPU_M3_NUCLEO_L152RE_GCC/Demo/TaskNotifyArray.c:640:17
	cbz	r0, .LBB7_248
	b	.LBB7_246
.LBB7_246:
.Ltmp449:
	.loc	3 640 17                        @ ../../../CORTEX_MPU_M3_NUCLEO_L152RE_GCC/Demo/TaskNotifyArray.c:640:17
	@APP
	cpsid i
	@NO_APP
	b	.LBB7_247
.LBB7_247:                              @ =>This Inner Loop Header: Depth=1
.Ltmp450:
	.loc	3 640 17                        @ ../../../CORTEX_MPU_M3_NUCLEO_L152RE_GCC/Demo/TaskNotifyArray.c:640:17
	b	.LBB7_247
.Ltmp451:
.LBB7_248:                              @   in Loop: Header=BB7_243 Depth=2
	.loc	3 642 13 is_stmt 1              @ ../../../CORTEX_MPU_M3_NUCLEO_L152RE_GCC/Demo/TaskNotifyArray.c:642:13
	b	.LBB7_249
.Ltmp452:
.LBB7_249:                              @   in Loop: Header=BB7_243 Depth=2
	.loc	3 643 9                         @ ../../../CORTEX_MPU_M3_NUCLEO_L152RE_GCC/Demo/TaskNotifyArray.c:643:9
	b	.LBB7_250
.Ltmp453:
.LBB7_250:                              @   in Loop: Header=BB7_243 Depth=2
	.loc	3 635 104                       @ ../../../CORTEX_MPU_M3_NUCLEO_L152RE_GCC/Demo/TaskNotifyArray.c:635:104
	ldr	r0, [sp, #28]
	adds	r0, r0, #1
	str	r0, [sp, #28]
	.loc	3 635 9 is_stmt 0               @ ../../../CORTEX_MPU_M3_NUCLEO_L152RE_GCC/Demo/TaskNotifyArray.c:635:9
	b	.LBB7_243
.Ltmp454:
.LBB7_251:                              @   in Loop: Header=BB7_232 Depth=1
	.loc	3 644 5 is_stmt 1               @ ../../../CORTEX_MPU_M3_NUCLEO_L152RE_GCC/Demo/TaskNotifyArray.c:644:5
	b	.LBB7_252
.Ltmp455:
.LBB7_252:                              @   in Loop: Header=BB7_232 Depth=1
	.loc	3 614 97                        @ ../../../CORTEX_MPU_M3_NUCLEO_L152RE_GCC/Demo/TaskNotifyArray.c:614:97
	ldr	r0, [sp, #32]
	adds	r0, r0, #1
	str	r0, [sp, #32]
	.loc	3 614 5 is_stmt 0               @ ../../../CORTEX_MPU_M3_NUCLEO_L152RE_GCC/Demo/TaskNotifyArray.c:614:5
	b	.LBB7_232
.Ltmp456:
.LBB7_253:
	.loc	3 0 5                           @ ../../../CORTEX_MPU_M3_NUCLEO_L152RE_GCC/Demo/TaskNotifyArray.c:0:5
	movs	r0, #0
.Ltmp457:
	.loc	3 649 24 is_stmt 1              @ ../../../CORTEX_MPU_M3_NUCLEO_L152RE_GCC/Demo/TaskNotifyArray.c:649:24
	str	r0, [sp, #32]
	.loc	3 649 10 is_stmt 0              @ ../../../CORTEX_MPU_M3_NUCLEO_L152RE_GCC/Demo/TaskNotifyArray.c:649:10
	b	.LBB7_254
.LBB7_254:                              @ =>This Loop Header: Depth=1
                                        @     Child Loop BB7_262 Depth 2
.Ltmp458:
	.loc	3 649 29                        @ ../../../CORTEX_MPU_M3_NUCLEO_L152RE_GCC/Demo/TaskNotifyArray.c:649:29
	ldr	r0, [sp, #32]
.Ltmp459:
	.loc	3 649 5                         @ ../../../CORTEX_MPU_M3_NUCLEO_L152RE_GCC/Demo/TaskNotifyArray.c:649:5
	cmp	r0, #2
	bhi	.LBB7_270
	b	.LBB7_255
.LBB7_255:                              @   in Loop: Header=BB7_254 Depth=1
.Ltmp460:
	.loc	3 651 9 is_stmt 1               @ ../../../CORTEX_MPU_M3_NUCLEO_L152RE_GCC/Demo/TaskNotifyArray.c:651:9
	movw	r0, :lower16:xTaskToNotify
	movt	r0, :upper16:xTaskToNotify
	ldr	r0, [r0]
	ldr	r1, [sp, #32]
	add	r2, sp, #72
	str	r2, [sp]
	movs	r2, #0
	movs	r3, #1
	bl	MPU_xTaskGenericNotify
.Ltmp461:
	.loc	3 652 9                         @ ../../../CORTEX_MPU_M3_NUCLEO_L152RE_GCC/Demo/TaskNotifyArray.c:652:9
	ldr	r0, [sp, #84]
.Ltmp462:
	.loc	3 652 9 is_stmt 0               @ ../../../CORTEX_MPU_M3_NUCLEO_L152RE_GCC/Demo/TaskNotifyArray.c:652:9
	adds	r0, r0, #4
	cbz	r0, .LBB7_258
	b	.LBB7_256
.LBB7_256:
.Ltmp463:
	.loc	3 652 9                         @ ../../../CORTEX_MPU_M3_NUCLEO_L152RE_GCC/Demo/TaskNotifyArray.c:652:9
	@APP
	cpsid i
	@NO_APP
	b	.LBB7_257
.LBB7_257:                              @ =>This Inner Loop Header: Depth=1
.Ltmp464:
	.loc	3 652 9                         @ ../../../CORTEX_MPU_M3_NUCLEO_L152RE_GCC/Demo/TaskNotifyArray.c:652:9
	b	.LBB7_257
.Ltmp465:
.LBB7_258:                              @   in Loop: Header=BB7_254 Depth=1
	.loc	3 655 9 is_stmt 1               @ ../../../CORTEX_MPU_M3_NUCLEO_L152RE_GCC/Demo/TaskNotifyArray.c:655:9
	ldr	r0, [sp, #32]
	movs	r1, #0
	str	r1, [sp, #12]                   @ 4-byte Spill
	str	r1, [sp]
	mvns	r2, r1
	add	r3, sp, #84
	bl	MPU_xTaskGenericNotifyWait
	ldr	r2, [sp, #12]                   @ 4-byte Reload
	.loc	3 656 9                         @ ../../../CORTEX_MPU_M3_NUCLEO_L152RE_GCC/Demo/TaskNotifyArray.c:656:9
	movw	r0, :lower16:xTaskToNotify
	movt	r0, :upper16:xTaskToNotify
	ldr	r0, [r0]
	ldr	r1, [sp, #32]
	add	r3, sp, #72
	str	r3, [sp]
	movs	r3, #1
	bl	MPU_xTaskGenericNotify
.Ltmp466:
	.loc	3 657 9                         @ ../../../CORTEX_MPU_M3_NUCLEO_L152RE_GCC/Demo/TaskNotifyArray.c:657:9
	ldr	r0, [sp, #72]
.Ltmp467:
	.loc	3 657 9 is_stmt 0               @ ../../../CORTEX_MPU_M3_NUCLEO_L152RE_GCC/Demo/TaskNotifyArray.c:657:9
	cbz	r0, .LBB7_261
	b	.LBB7_259
.LBB7_259:
.Ltmp468:
	.loc	3 657 9                         @ ../../../CORTEX_MPU_M3_NUCLEO_L152RE_GCC/Demo/TaskNotifyArray.c:657:9
	@APP
	cpsid i
	@NO_APP
	b	.LBB7_260
.LBB7_260:                              @ =>This Inner Loop Header: Depth=1
.Ltmp469:
	.loc	3 657 9                         @ ../../../CORTEX_MPU_M3_NUCLEO_L152RE_GCC/Demo/TaskNotifyArray.c:657:9
	b	.LBB7_260
.Ltmp470:
.LBB7_261:                              @   in Loop: Header=BB7_254 Depth=1
	.loc	3 0 9                           @ ../../../CORTEX_MPU_M3_NUCLEO_L152RE_GCC/Demo/TaskNotifyArray.c:0:9
	movs	r0, #0
	.loc	3 659 25 is_stmt 1              @ ../../../CORTEX_MPU_M3_NUCLEO_L152RE_GCC/Demo/TaskNotifyArray.c:659:25
	str	r0, [sp, #68]
	movs	r0, #1
.Ltmp471:
	.loc	3 661 21                        @ ../../../CORTEX_MPU_M3_NUCLEO_L152RE_GCC/Demo/TaskNotifyArray.c:661:21
	str	r0, [sp, #80]
	.loc	3 661 14 is_stmt 0              @ ../../../CORTEX_MPU_M3_NUCLEO_L152RE_GCC/Demo/TaskNotifyArray.c:661:14
	b	.LBB7_262
.LBB7_262:                              @   Parent Loop BB7_254 Depth=1
                                        @ =>  This Inner Loop Header: Depth=2
.Ltmp472:
	.loc	3 661 29                        @ ../../../CORTEX_MPU_M3_NUCLEO_L152RE_GCC/Demo/TaskNotifyArray.c:661:29
	ldr	r0, [sp, #80]
.Ltmp473:
	.loc	3 661 9                         @ ../../../CORTEX_MPU_M3_NUCLEO_L152RE_GCC/Demo/TaskNotifyArray.c:661:9
	cmp	r0, #127
	bhi	.LBB7_268
	b	.LBB7_263
.LBB7_263:                              @   in Loop: Header=BB7_262 Depth=2
.Ltmp474:
	.loc	3 666 13 is_stmt 1              @ ../../../CORTEX_MPU_M3_NUCLEO_L152RE_GCC/Demo/TaskNotifyArray.c:666:13
	movw	r0, :lower16:xTaskToNotify
	movt	r0, :upper16:xTaskToNotify
	ldr	r0, [r0]
	ldr	r1, [sp, #32]
	ldr	r2, [sp, #80]
	add	r3, sp, #72
	str	r3, [sp]
	movs	r3, #1
	bl	MPU_xTaskGenericNotify
.Ltmp475:
	.loc	3 667 13                        @ ../../../CORTEX_MPU_M3_NUCLEO_L152RE_GCC/Demo/TaskNotifyArray.c:667:13
	ldr	r0, [sp, #68]
	ldr	r1, [sp, #72]
.Ltmp476:
	.loc	3 667 13 is_stmt 0              @ ../../../CORTEX_MPU_M3_NUCLEO_L152RE_GCC/Demo/TaskNotifyArray.c:667:13
	cmp	r0, r1
	beq	.LBB7_266
	b	.LBB7_264
.LBB7_264:
.Ltmp477:
	.loc	3 667 13                        @ ../../../CORTEX_MPU_M3_NUCLEO_L152RE_GCC/Demo/TaskNotifyArray.c:667:13
	@APP
	cpsid i
	@NO_APP
	b	.LBB7_265
.LBB7_265:                              @ =>This Inner Loop Header: Depth=1
.Ltmp478:
	.loc	3 667 13                        @ ../../../CORTEX_MPU_M3_NUCLEO_L152RE_GCC/Demo/TaskNotifyArray.c:667:13
	b	.LBB7_265
.Ltmp479:
.LBB7_266:                              @   in Loop: Header=BB7_262 Depth=2
	.loc	3 668 32 is_stmt 1              @ ../../../CORTEX_MPU_M3_NUCLEO_L152RE_GCC/Demo/TaskNotifyArray.c:668:32
	ldr	r1, [sp, #80]
	.loc	3 668 29 is_stmt 0              @ ../../../CORTEX_MPU_M3_NUCLEO_L152RE_GCC/Demo/TaskNotifyArray.c:668:29
	ldr	r0, [sp, #68]
	orrs	r0, r1
	str	r0, [sp, #68]
	.loc	3 669 9 is_stmt 1               @ ../../../CORTEX_MPU_M3_NUCLEO_L152RE_GCC/Demo/TaskNotifyArray.c:669:9
	b	.LBB7_267
.Ltmp480:
.LBB7_267:                              @   in Loop: Header=BB7_262 Depth=2
	.loc	3 661 53                        @ ../../../CORTEX_MPU_M3_NUCLEO_L152RE_GCC/Demo/TaskNotifyArray.c:661:53
	ldr	r0, [sp, #80]
	lsls	r0, r0, #1
	str	r0, [sp, #80]
	.loc	3 661 9 is_stmt 0               @ ../../../CORTEX_MPU_M3_NUCLEO_L152RE_GCC/Demo/TaskNotifyArray.c:661:9
	b	.LBB7_262
.Ltmp481:
.LBB7_268:                              @   in Loop: Header=BB7_254 Depth=1
	.loc	3 670 5 is_stmt 1               @ ../../../CORTEX_MPU_M3_NUCLEO_L152RE_GCC/Demo/TaskNotifyArray.c:670:5
	b	.LBB7_269
.Ltmp482:
.LBB7_269:                              @   in Loop: Header=BB7_254 Depth=1
	.loc	3 649 97                        @ ../../../CORTEX_MPU_M3_NUCLEO_L152RE_GCC/Demo/TaskNotifyArray.c:649:97
	ldr	r0, [sp, #32]
	adds	r0, r0, #1
	str	r0, [sp, #32]
	.loc	3 649 5 is_stmt 0               @ ../../../CORTEX_MPU_M3_NUCLEO_L152RE_GCC/Demo/TaskNotifyArray.c:649:5
	b	.LBB7_254
.Ltmp483:
.LBB7_270:
	.loc	3 0 5                           @ ../../../CORTEX_MPU_M3_NUCLEO_L152RE_GCC/Demo/TaskNotifyArray.c:0:5
	movs	r0, #0
.Ltmp484:
	.loc	3 673 24 is_stmt 1              @ ../../../CORTEX_MPU_M3_NUCLEO_L152RE_GCC/Demo/TaskNotifyArray.c:673:24
	str	r0, [sp, #32]
	.loc	3 673 10 is_stmt 0              @ ../../../CORTEX_MPU_M3_NUCLEO_L152RE_GCC/Demo/TaskNotifyArray.c:673:10
	b	.LBB7_271
.LBB7_271:                              @ =>This Inner Loop Header: Depth=1
.Ltmp485:
	.loc	3 673 29                        @ ../../../CORTEX_MPU_M3_NUCLEO_L152RE_GCC/Demo/TaskNotifyArray.c:673:29
	ldr	r0, [sp, #32]
.Ltmp486:
	.loc	3 673 5                         @ ../../../CORTEX_MPU_M3_NUCLEO_L152RE_GCC/Demo/TaskNotifyArray.c:673:5
	cmp	r0, #2
	bhi	.LBB7_274
	b	.LBB7_272
.LBB7_272:                              @   in Loop: Header=BB7_271 Depth=1
.Ltmp487:
	.loc	3 676 9 is_stmt 1               @ ../../../CORTEX_MPU_M3_NUCLEO_L152RE_GCC/Demo/TaskNotifyArray.c:676:9
	ldr	r0, [sp, #32]
	movs	r2, #0
	str	r2, [sp]
	mvns	r1, r2
	add	r3, sp, #84
	bl	MPU_xTaskGenericNotifyWait
	.loc	3 677 5                         @ ../../../CORTEX_MPU_M3_NUCLEO_L152RE_GCC/Demo/TaskNotifyArray.c:677:5
	b	.LBB7_273
.Ltmp488:
.LBB7_273:                              @   in Loop: Header=BB7_271 Depth=1
	.loc	3 673 97                        @ ../../../CORTEX_MPU_M3_NUCLEO_L152RE_GCC/Demo/TaskNotifyArray.c:673:97
	ldr	r0, [sp, #32]
	adds	r0, r0, #1
	str	r0, [sp, #32]
	.loc	3 673 5 is_stmt 0               @ ../../../CORTEX_MPU_M3_NUCLEO_L152RE_GCC/Demo/TaskNotifyArray.c:673:5
	b	.LBB7_271
.Ltmp489:
.LBB7_274:
	.loc	3 0 5                           @ ../../../CORTEX_MPU_M3_NUCLEO_L152RE_GCC/Demo/TaskNotifyArray.c:0:5
	movs	r0, #0
.Ltmp490:
	.loc	3 679 24 is_stmt 1              @ ../../../CORTEX_MPU_M3_NUCLEO_L152RE_GCC/Demo/TaskNotifyArray.c:679:24
	str	r0, [sp, #32]
	.loc	3 679 10 is_stmt 0              @ ../../../CORTEX_MPU_M3_NUCLEO_L152RE_GCC/Demo/TaskNotifyArray.c:679:10
	b	.LBB7_275
.LBB7_275:                              @ =>This Loop Header: Depth=1
                                        @     Child Loop BB7_277 Depth 2
                                        @     Child Loop BB7_284 Depth 2
.Ltmp491:
	.loc	3 679 29                        @ ../../../CORTEX_MPU_M3_NUCLEO_L152RE_GCC/Demo/TaskNotifyArray.c:679:29
	ldr	r0, [sp, #32]
.Ltmp492:
	.loc	3 679 5                         @ ../../../CORTEX_MPU_M3_NUCLEO_L152RE_GCC/Demo/TaskNotifyArray.c:679:5
	cmp	r0, #2
	bhi	.LBB7_297
	b	.LBB7_276
.LBB7_276:                              @   in Loop: Header=BB7_275 Depth=1
	.loc	3 0 5                           @ ../../../CORTEX_MPU_M3_NUCLEO_L152RE_GCC/Demo/TaskNotifyArray.c:0:5
	movs	r0, #0
.Ltmp493:
	.loc	3 684 29 is_stmt 1              @ ../../../CORTEX_MPU_M3_NUCLEO_L152RE_GCC/Demo/TaskNotifyArray.c:684:29
	str	r0, [sp, #28]
	.loc	3 684 14 is_stmt 0              @ ../../../CORTEX_MPU_M3_NUCLEO_L152RE_GCC/Demo/TaskNotifyArray.c:684:14
	b	.LBB7_277
.LBB7_277:                              @   Parent Loop BB7_275 Depth=1
                                        @ =>  This Inner Loop Header: Depth=2
.Ltmp494:
	.loc	3 684 34                        @ ../../../CORTEX_MPU_M3_NUCLEO_L152RE_GCC/Demo/TaskNotifyArray.c:684:34
	ldr	r0, [sp, #28]
.Ltmp495:
	.loc	3 684 9                         @ ../../../CORTEX_MPU_M3_NUCLEO_L152RE_GCC/Demo/TaskNotifyArray.c:684:9
	cmp	r0, #2
	bhi	.LBB7_283
	b	.LBB7_278
.LBB7_278:                              @   in Loop: Header=BB7_277 Depth=2
.Ltmp496:
	.loc	3 686 13 is_stmt 1              @ ../../../CORTEX_MPU_M3_NUCLEO_L152RE_GCC/Demo/TaskNotifyArray.c:686:13
	ldr	r1, [sp, #28]
	movs	r0, #0
	bl	MPU_xTaskGenericNotifyStateClear
.Ltmp497:
	.loc	3 686 13 is_stmt 0              @ ../../../CORTEX_MPU_M3_NUCLEO_L152RE_GCC/Demo/TaskNotifyArray.c:686:13
	cbz	r0, .LBB7_281
	b	.LBB7_279
.LBB7_279:
.Ltmp498:
	.loc	3 686 13                        @ ../../../CORTEX_MPU_M3_NUCLEO_L152RE_GCC/Demo/TaskNotifyArray.c:686:13
	@APP
	cpsid i
	@NO_APP
	b	.LBB7_280
.LBB7_280:                              @ =>This Inner Loop Header: Depth=1
.Ltmp499:
	.loc	3 686 13                        @ ../../../CORTEX_MPU_M3_NUCLEO_L152RE_GCC/Demo/TaskNotifyArray.c:686:13
	b	.LBB7_280
.Ltmp500:
.LBB7_281:                              @   in Loop: Header=BB7_277 Depth=2
	.loc	3 687 9 is_stmt 1               @ ../../../CORTEX_MPU_M3_NUCLEO_L152RE_GCC/Demo/TaskNotifyArray.c:687:9
	b	.LBB7_282
.Ltmp501:
.LBB7_282:                              @   in Loop: Header=BB7_277 Depth=2
	.loc	3 684 104                       @ ../../../CORTEX_MPU_M3_NUCLEO_L152RE_GCC/Demo/TaskNotifyArray.c:684:104
	ldr	r0, [sp, #28]
	adds	r0, r0, #1
	str	r0, [sp, #28]
	.loc	3 684 9 is_stmt 0               @ ../../../CORTEX_MPU_M3_NUCLEO_L152RE_GCC/Demo/TaskNotifyArray.c:684:9
	b	.LBB7_277
.Ltmp502:
.LBB7_283:                              @   in Loop: Header=BB7_275 Depth=1
	.loc	3 692 9 is_stmt 1               @ ../../../CORTEX_MPU_M3_NUCLEO_L152RE_GCC/Demo/TaskNotifyArray.c:692:9
	movw	r0, :lower16:xTaskToNotify
	movt	r0, :upper16:xTaskToNotify
	ldr	r0, [r0]
	ldr	r1, [sp, #32]
	add	r2, sp, #72
	str	r2, [sp]
	movw	r2, #34465
	movt	r2, #1
	movs	r3, #4
	bl	MPU_xTaskGenericNotify
	movs	r0, #0
.Ltmp503:
	.loc	3 698 29                        @ ../../../CORTEX_MPU_M3_NUCLEO_L152RE_GCC/Demo/TaskNotifyArray.c:698:29
	str	r0, [sp, #28]
	.loc	3 698 14 is_stmt 0              @ ../../../CORTEX_MPU_M3_NUCLEO_L152RE_GCC/Demo/TaskNotifyArray.c:698:14
	b	.LBB7_284
.LBB7_284:                              @   Parent Loop BB7_275 Depth=1
                                        @ =>  This Inner Loop Header: Depth=2
.Ltmp504:
	.loc	3 698 34                        @ ../../../CORTEX_MPU_M3_NUCLEO_L152RE_GCC/Demo/TaskNotifyArray.c:698:34
	ldr	r0, [sp, #28]
.Ltmp505:
	.loc	3 698 9                         @ ../../../CORTEX_MPU_M3_NUCLEO_L152RE_GCC/Demo/TaskNotifyArray.c:698:9
	cmp	r0, #2
	bhi	.LBB7_295
	b	.LBB7_285
.LBB7_285:                              @   in Loop: Header=BB7_284 Depth=2
.Ltmp506:
	.loc	3 700 17 is_stmt 1              @ ../../../CORTEX_MPU_M3_NUCLEO_L152RE_GCC/Demo/TaskNotifyArray.c:700:17
	ldr	r0, [sp, #28]
	.loc	3 700 35 is_stmt 0              @ ../../../CORTEX_MPU_M3_NUCLEO_L152RE_GCC/Demo/TaskNotifyArray.c:700:35
	ldr	r1, [sp, #32]
.Ltmp507:
	.loc	3 700 17                        @ ../../../CORTEX_MPU_M3_NUCLEO_L152RE_GCC/Demo/TaskNotifyArray.c:700:17
	cmp	r0, r1
	bne	.LBB7_290
	b	.LBB7_286
.LBB7_286:                              @   in Loop: Header=BB7_284 Depth=2
.Ltmp508:
	.loc	3 702 17 is_stmt 1              @ ../../../CORTEX_MPU_M3_NUCLEO_L152RE_GCC/Demo/TaskNotifyArray.c:702:17
	ldr	r1, [sp, #28]
	movs	r0, #0
	bl	MPU_xTaskGenericNotifyStateClear
.Ltmp509:
	.loc	3 702 17 is_stmt 0              @ ../../../CORTEX_MPU_M3_NUCLEO_L152RE_GCC/Demo/TaskNotifyArray.c:702:17
	cmp	r0, #1
	beq	.LBB7_289
	b	.LBB7_287
.LBB7_287:
.Ltmp510:
	.loc	3 702 17                        @ ../../../CORTEX_MPU_M3_NUCLEO_L152RE_GCC/Demo/TaskNotifyArray.c:702:17
	@APP
	cpsid i
	@NO_APP
	b	.LBB7_288
.LBB7_288:                              @ =>This Inner Loop Header: Depth=1
.Ltmp511:
	.loc	3 702 17                        @ ../../../CORTEX_MPU_M3_NUCLEO_L152RE_GCC/Demo/TaskNotifyArray.c:702:17
	b	.LBB7_288
.Ltmp512:
.LBB7_289:                              @   in Loop: Header=BB7_284 Depth=2
	.loc	3 703 13 is_stmt 1              @ ../../../CORTEX_MPU_M3_NUCLEO_L152RE_GCC/Demo/TaskNotifyArray.c:703:13
	b	.LBB7_290
.Ltmp513:
.LBB7_290:                              @   in Loop: Header=BB7_284 Depth=2
	.loc	3 705 13                        @ ../../../CORTEX_MPU_M3_NUCLEO_L152RE_GCC/Demo/TaskNotifyArray.c:705:13
	ldr	r1, [sp, #28]
	movs	r0, #0
	bl	MPU_xTaskGenericNotifyStateClear
.Ltmp514:
	.loc	3 705 13 is_stmt 0              @ ../../../CORTEX_MPU_M3_NUCLEO_L152RE_GCC/Demo/TaskNotifyArray.c:705:13
	cbz	r0, .LBB7_293
	b	.LBB7_291
.LBB7_291:
.Ltmp515:
	.loc	3 705 13                        @ ../../../CORTEX_MPU_M3_NUCLEO_L152RE_GCC/Demo/TaskNotifyArray.c:705:13
	@APP
	cpsid i
	@NO_APP
	b	.LBB7_292
.LBB7_292:                              @ =>This Inner Loop Header: Depth=1
.Ltmp516:
	.loc	3 705 13                        @ ../../../CORTEX_MPU_M3_NUCLEO_L152RE_GCC/Demo/TaskNotifyArray.c:705:13
	b	.LBB7_292
.Ltmp517:
.LBB7_293:                              @   in Loop: Header=BB7_284 Depth=2
	.loc	3 706 9 is_stmt 1               @ ../../../CORTEX_MPU_M3_NUCLEO_L152RE_GCC/Demo/TaskNotifyArray.c:706:9
	b	.LBB7_294
.Ltmp518:
.LBB7_294:                              @   in Loop: Header=BB7_284 Depth=2
	.loc	3 698 104                       @ ../../../CORTEX_MPU_M3_NUCLEO_L152RE_GCC/Demo/TaskNotifyArray.c:698:104
	ldr	r0, [sp, #28]
	adds	r0, r0, #1
	str	r0, [sp, #28]
	.loc	3 698 9 is_stmt 0               @ ../../../CORTEX_MPU_M3_NUCLEO_L152RE_GCC/Demo/TaskNotifyArray.c:698:9
	b	.LBB7_284
.Ltmp519:
.LBB7_295:                              @   in Loop: Header=BB7_275 Depth=1
	.loc	3 707 5 is_stmt 1               @ ../../../CORTEX_MPU_M3_NUCLEO_L152RE_GCC/Demo/TaskNotifyArray.c:707:5
	b	.LBB7_296
.Ltmp520:
.LBB7_296:                              @   in Loop: Header=BB7_275 Depth=1
	.loc	3 679 97                        @ ../../../CORTEX_MPU_M3_NUCLEO_L152RE_GCC/Demo/TaskNotifyArray.c:679:97
	ldr	r0, [sp, #32]
	adds	r0, r0, #1
	str	r0, [sp, #32]
	.loc	3 679 5 is_stmt 0               @ ../../../CORTEX_MPU_M3_NUCLEO_L152RE_GCC/Demo/TaskNotifyArray.c:679:5
	b	.LBB7_275
.Ltmp521:
.LBB7_297:
	.loc	3 0 5                           @ ../../../CORTEX_MPU_M3_NUCLEO_L152RE_GCC/Demo/TaskNotifyArray.c:0:5
	movs	r0, #0
.Ltmp522:
	.loc	3 712 24 is_stmt 1              @ ../../../CORTEX_MPU_M3_NUCLEO_L152RE_GCC/Demo/TaskNotifyArray.c:712:24
	str	r0, [sp, #32]
	.loc	3 712 10 is_stmt 0              @ ../../../CORTEX_MPU_M3_NUCLEO_L152RE_GCC/Demo/TaskNotifyArray.c:712:10
	b	.LBB7_298
.LBB7_298:                              @ =>This Inner Loop Header: Depth=1
.Ltmp523:
	.loc	3 712 29                        @ ../../../CORTEX_MPU_M3_NUCLEO_L152RE_GCC/Demo/TaskNotifyArray.c:712:29
	ldr	r0, [sp, #32]
.Ltmp524:
	.loc	3 712 5                         @ ../../../CORTEX_MPU_M3_NUCLEO_L152RE_GCC/Demo/TaskNotifyArray.c:712:5
	cmp	r0, #2
	bls	.LBB7_299
	b	.LBB7_325
.LBB7_299:                              @   in Loop: Header=BB7_298 Depth=1
.Ltmp525:
	.loc	3 717 9 is_stmt 1               @ ../../../CORTEX_MPU_M3_NUCLEO_L152RE_GCC/Demo/TaskNotifyArray.c:717:9
	movw	r0, :lower16:xTaskToNotify
	movt	r0, :upper16:xTaskToNotify
	str	r0, [sp, #8]                    @ 4-byte Spill
	ldr	r0, [r0]
	ldr	r1, [sp, #32]
	movs	r2, #0
	str	r2, [sp]
	mvns	r2, r2
	movs	r3, #1
	bl	MPU_xTaskGenericNotify
                                        @ kill: def $r1 killed $r0
.Ltmp526:
	.loc	3 721 9                         @ ../../../CORTEX_MPU_M3_NUCLEO_L152RE_GCC/Demo/TaskNotifyArray.c:721:9
	ldr	r0, [sp, #8]                    @ 4-byte Reload
	ldr	r0, [r0]
	ldr	r1, [sp, #32]
	movs	r2, #255
	lsls	r2, r2, #24
	bl	MPU_ulTaskGenericNotifyValueClear
.Ltmp527:
	.loc	3 721 9 is_stmt 0               @ ../../../CORTEX_MPU_M3_NUCLEO_L152RE_GCC/Demo/TaskNotifyArray.c:721:9
	adds	r0, r0, #1
	cbz	r0, .LBB7_302
	b	.LBB7_300
.LBB7_300:
.Ltmp528:
	.loc	3 721 9                         @ ../../../CORTEX_MPU_M3_NUCLEO_L152RE_GCC/Demo/TaskNotifyArray.c:721:9
	@APP
	cpsid i
	@NO_APP
	b	.LBB7_301
.LBB7_301:                              @ =>This Inner Loop Header: Depth=1
.Ltmp529:
	.loc	3 721 9                         @ ../../../CORTEX_MPU_M3_NUCLEO_L152RE_GCC/Demo/TaskNotifyArray.c:721:9
	b	.LBB7_301
.Ltmp530:
.LBB7_302:                              @   in Loop: Header=BB7_298 Depth=1
	.loc	3 726 9 is_stmt 1               @ ../../../CORTEX_MPU_M3_NUCLEO_L152RE_GCC/Demo/TaskNotifyArray.c:726:9
	movw	r0, :lower16:xTaskToNotify
	movt	r0, :upper16:xTaskToNotify
	ldr	r0, [r0]
	ldr	r1, [sp, #32]
	movs	r2, #255
	bl	MPU_ulTaskGenericNotifyValueClear
	movw	r1, #65535
	movt	r1, #255
.Ltmp531:
	.loc	3 726 9 is_stmt 0               @ ../../../CORTEX_MPU_M3_NUCLEO_L152RE_GCC/Demo/TaskNotifyArray.c:726:9
	cmp	r0, r1
	beq	.LBB7_305
	b	.LBB7_303
.LBB7_303:
.Ltmp532:
	.loc	3 726 9                         @ ../../../CORTEX_MPU_M3_NUCLEO_L152RE_GCC/Demo/TaskNotifyArray.c:726:9
	@APP
	cpsid i
	@NO_APP
	b	.LBB7_304
.LBB7_304:                              @ =>This Inner Loop Header: Depth=1
.Ltmp533:
	.loc	3 726 9                         @ ../../../CORTEX_MPU_M3_NUCLEO_L152RE_GCC/Demo/TaskNotifyArray.c:726:9
	b	.LBB7_304
.Ltmp534:
.LBB7_305:                              @   in Loop: Header=BB7_298 Depth=1
	.loc	3 730 9 is_stmt 1               @ ../../../CORTEX_MPU_M3_NUCLEO_L152RE_GCC/Demo/TaskNotifyArray.c:730:9
	movw	r0, :lower16:xTaskToNotify
	movt	r0, :upper16:xTaskToNotify
	ldr	r0, [r0]
	ldr	r1, [sp, #32]
	movs	r2, #0
	mvns	r2, r2
	bl	MPU_ulTaskGenericNotifyValueClear
	movw	r1, #65280
	movt	r1, #255
.Ltmp535:
	.loc	3 730 9 is_stmt 0               @ ../../../CORTEX_MPU_M3_NUCLEO_L152RE_GCC/Demo/TaskNotifyArray.c:730:9
	cmp	r0, r1
	beq	.LBB7_308
	b	.LBB7_306
.LBB7_306:
.Ltmp536:
	.loc	3 730 9                         @ ../../../CORTEX_MPU_M3_NUCLEO_L152RE_GCC/Demo/TaskNotifyArray.c:730:9
	@APP
	cpsid i
	@NO_APP
	b	.LBB7_307
.LBB7_307:                              @ =>This Inner Loop Header: Depth=1
.Ltmp537:
	.loc	3 730 9                         @ ../../../CORTEX_MPU_M3_NUCLEO_L152RE_GCC/Demo/TaskNotifyArray.c:730:9
	b	.LBB7_307
.Ltmp538:
.LBB7_308:                              @   in Loop: Header=BB7_298 Depth=1
	.loc	3 733 9 is_stmt 1               @ ../../../CORTEX_MPU_M3_NUCLEO_L152RE_GCC/Demo/TaskNotifyArray.c:733:9
	movw	r0, :lower16:xTaskToNotify
	movt	r0, :upper16:xTaskToNotify
	ldr	r0, [r0]
	ldr	r1, [sp, #32]
	movs	r2, #0
	mvns	r2, r2
	bl	MPU_ulTaskGenericNotifyValueClear
.Ltmp539:
	.loc	3 733 9 is_stmt 0               @ ../../../CORTEX_MPU_M3_NUCLEO_L152RE_GCC/Demo/TaskNotifyArray.c:733:9
	cbz	r0, .LBB7_311
	b	.LBB7_309
.LBB7_309:
.Ltmp540:
	.loc	3 733 9                         @ ../../../CORTEX_MPU_M3_NUCLEO_L152RE_GCC/Demo/TaskNotifyArray.c:733:9
	@APP
	cpsid i
	@NO_APP
	b	.LBB7_310
.LBB7_310:                              @ =>This Inner Loop Header: Depth=1
.Ltmp541:
	.loc	3 733 9                         @ ../../../CORTEX_MPU_M3_NUCLEO_L152RE_GCC/Demo/TaskNotifyArray.c:733:9
	b	.LBB7_310
.Ltmp542:
.LBB7_311:                              @   in Loop: Header=BB7_298 Depth=1
	.loc	3 734 9 is_stmt 1               @ ../../../CORTEX_MPU_M3_NUCLEO_L152RE_GCC/Demo/TaskNotifyArray.c:734:9
	movw	r0, :lower16:xTaskToNotify
	movt	r0, :upper16:xTaskToNotify
	ldr	r0, [r0]
	ldr	r1, [sp, #32]
	movs	r2, #0
	bl	MPU_ulTaskGenericNotifyValueClear
.Ltmp543:
	.loc	3 734 9 is_stmt 0               @ ../../../CORTEX_MPU_M3_NUCLEO_L152RE_GCC/Demo/TaskNotifyArray.c:734:9
	cbz	r0, .LBB7_314
	b	.LBB7_312
.LBB7_312:
.Ltmp544:
	.loc	3 734 9                         @ ../../../CORTEX_MPU_M3_NUCLEO_L152RE_GCC/Demo/TaskNotifyArray.c:734:9
	@APP
	cpsid i
	@NO_APP
	b	.LBB7_313
.LBB7_313:                              @ =>This Inner Loop Header: Depth=1
.Ltmp545:
	.loc	3 734 9                         @ ../../../CORTEX_MPU_M3_NUCLEO_L152RE_GCC/Demo/TaskNotifyArray.c:734:9
	b	.LBB7_313
.Ltmp546:
.LBB7_314:                              @   in Loop: Header=BB7_298 Depth=1
	.loc	3 735 9 is_stmt 1               @ ../../../CORTEX_MPU_M3_NUCLEO_L152RE_GCC/Demo/TaskNotifyArray.c:735:9
	movw	r0, :lower16:xTaskToNotify
	movt	r0, :upper16:xTaskToNotify
	ldr	r0, [r0]
	ldr	r1, [sp, #32]
	movs	r2, #0
	mvns	r2, r2
	bl	MPU_ulTaskGenericNotifyValueClear
.Ltmp547:
	.loc	3 735 9 is_stmt 0               @ ../../../CORTEX_MPU_M3_NUCLEO_L152RE_GCC/Demo/TaskNotifyArray.c:735:9
	cbz	r0, .LBB7_317
	b	.LBB7_315
.LBB7_315:
.Ltmp548:
	.loc	3 735 9                         @ ../../../CORTEX_MPU_M3_NUCLEO_L152RE_GCC/Demo/TaskNotifyArray.c:735:9
	@APP
	cpsid i
	@NO_APP
	b	.LBB7_316
.LBB7_316:                              @ =>This Inner Loop Header: Depth=1
.Ltmp549:
	.loc	3 735 9                         @ ../../../CORTEX_MPU_M3_NUCLEO_L152RE_GCC/Demo/TaskNotifyArray.c:735:9
	b	.LBB7_316
.Ltmp550:
.LBB7_317:                              @   in Loop: Header=BB7_298 Depth=1
	.loc	3 739 9 is_stmt 1               @ ../../../CORTEX_MPU_M3_NUCLEO_L152RE_GCC/Demo/TaskNotifyArray.c:739:9
	ldr	r1, [sp, #32]
	movs	r0, #0
	bl	MPU_xTaskGenericNotifyStateClear
.Ltmp551:
	.loc	3 739 9 is_stmt 0               @ ../../../CORTEX_MPU_M3_NUCLEO_L152RE_GCC/Demo/TaskNotifyArray.c:739:9
	cmp	r0, #1
	beq	.LBB7_320
	b	.LBB7_318
.LBB7_318:
.Ltmp552:
	.loc	3 739 9                         @ ../../../CORTEX_MPU_M3_NUCLEO_L152RE_GCC/Demo/TaskNotifyArray.c:739:9
	@APP
	cpsid i
	@NO_APP
	b	.LBB7_319
.LBB7_319:                              @ =>This Inner Loop Header: Depth=1
.Ltmp553:
	.loc	3 739 9                         @ ../../../CORTEX_MPU_M3_NUCLEO_L152RE_GCC/Demo/TaskNotifyArray.c:739:9
	b	.LBB7_319
.Ltmp554:
.LBB7_320:                              @   in Loop: Header=BB7_298 Depth=1
	.loc	3 740 9 is_stmt 1               @ ../../../CORTEX_MPU_M3_NUCLEO_L152RE_GCC/Demo/TaskNotifyArray.c:740:9
	ldr	r1, [sp, #32]
	movs	r0, #0
	bl	MPU_xTaskGenericNotifyStateClear
.Ltmp555:
	.loc	3 740 9 is_stmt 0               @ ../../../CORTEX_MPU_M3_NUCLEO_L152RE_GCC/Demo/TaskNotifyArray.c:740:9
	cbz	r0, .LBB7_323
	b	.LBB7_321
.LBB7_321:
.Ltmp556:
	.loc	3 740 9                         @ ../../../CORTEX_MPU_M3_NUCLEO_L152RE_GCC/Demo/TaskNotifyArray.c:740:9
	@APP
	cpsid i
	@NO_APP
	b	.LBB7_322
.LBB7_322:                              @ =>This Inner Loop Header: Depth=1
.Ltmp557:
	.loc	3 740 9                         @ ../../../CORTEX_MPU_M3_NUCLEO_L152RE_GCC/Demo/TaskNotifyArray.c:740:9
	b	.LBB7_322
.Ltmp558:
.LBB7_323:                              @   in Loop: Header=BB7_298 Depth=1
	.loc	3 741 5 is_stmt 1               @ ../../../CORTEX_MPU_M3_NUCLEO_L152RE_GCC/Demo/TaskNotifyArray.c:741:5
	b	.LBB7_324
.Ltmp559:
.LBB7_324:                              @   in Loop: Header=BB7_298 Depth=1
	.loc	3 712 97                        @ ../../../CORTEX_MPU_M3_NUCLEO_L152RE_GCC/Demo/TaskNotifyArray.c:712:97
	ldr	r0, [sp, #32]
	adds	r0, r0, #1
	str	r0, [sp, #32]
	.loc	3 712 5 is_stmt 0               @ ../../../CORTEX_MPU_M3_NUCLEO_L152RE_GCC/Demo/TaskNotifyArray.c:712:5
	b	.LBB7_298
.Ltmp560:
.LBB7_325:
	.loc	3 744 26 is_stmt 1              @ ../../../CORTEX_MPU_M3_NUCLEO_L152RE_GCC/Demo/TaskNotifyArray.c:744:26
	movw	r1, :lower16:ulFineCycleCount
	movt	r1, :upper16:ulFineCycleCount
	ldr	r0, [r1]
	adds	r0, r0, #1
	str	r0, [r1]
	movs	r0, #0
.Ltmp561:
	.loc	3 747 24                        @ ../../../CORTEX_MPU_M3_NUCLEO_L152RE_GCC/Demo/TaskNotifyArray.c:747:24
	str	r0, [sp, #32]
	.loc	3 747 10 is_stmt 0              @ ../../../CORTEX_MPU_M3_NUCLEO_L152RE_GCC/Demo/TaskNotifyArray.c:747:10
	b	.LBB7_326
.LBB7_326:                              @ =>This Inner Loop Header: Depth=1
.Ltmp562:
	.loc	3 747 29                        @ ../../../CORTEX_MPU_M3_NUCLEO_L152RE_GCC/Demo/TaskNotifyArray.c:747:29
	ldr	r0, [sp, #32]
.Ltmp563:
	.loc	3 747 5                         @ ../../../CORTEX_MPU_M3_NUCLEO_L152RE_GCC/Demo/TaskNotifyArray.c:747:5
	cmp	r0, #2
	bhi	.LBB7_329
	b	.LBB7_327
.LBB7_327:                              @   in Loop: Header=BB7_326 Depth=1
.Ltmp564:
	.loc	3 749 9 is_stmt 1               @ ../../../CORTEX_MPU_M3_NUCLEO_L152RE_GCC/Demo/TaskNotifyArray.c:749:9
	ldr	r0, [sp, #32]
	movs	r3, #0
	str	r3, [sp]
	mvns	r1, r3
	mov	r2, r3
	bl	MPU_xTaskGenericNotifyWait
	.loc	3 750 5                         @ ../../../CORTEX_MPU_M3_NUCLEO_L152RE_GCC/Demo/TaskNotifyArray.c:750:5
	b	.LBB7_328
.Ltmp565:
.LBB7_328:                              @   in Loop: Header=BB7_326 Depth=1
	.loc	3 747 97                        @ ../../../CORTEX_MPU_M3_NUCLEO_L152RE_GCC/Demo/TaskNotifyArray.c:747:97
	ldr	r0, [sp, #32]
	adds	r0, r0, #1
	str	r0, [sp, #32]
	.loc	3 747 5 is_stmt 0               @ ../../../CORTEX_MPU_M3_NUCLEO_L152RE_GCC/Demo/TaskNotifyArray.c:747:5
	b	.LBB7_326
.Ltmp566:
.LBB7_329:
	.loc	3 751 1 is_stmt 1               @ ../../../CORTEX_MPU_M3_NUCLEO_L152RE_GCC/Demo/TaskNotifyArray.c:751:1
	add	sp, #96
	pop	{r7, pc}
.Ltmp567:
.Lfunc_end7:
	.size	prvSingleTaskTests, .Lfunc_end7-prvSingleTaskTests
	.cfi_endproc
	.cantunwind
	.fnend
                                        @ -- End function
	.section	.text.prvTestNotifyTaskWhileSuspended,"ax",%progbits
	.p2align	1                               @ -- Begin function prvTestNotifyTaskWhileSuspended
	.type	prvTestNotifyTaskWhileSuspended,%function
	.code	16                              @ @prvTestNotifyTaskWhileSuspended
	.thumb_func
prvTestNotifyTaskWhileSuspended:
.Lfunc_begin8:
	.loc	3 825 0                         @ ../../../CORTEX_MPU_M3_NUCLEO_L152RE_GCC/Demo/TaskNotifyArray.c:825:0
	.fnstart
	.cfi_startproc
@ %bb.0:
	.save	{r7, lr}
	push	{r7, lr}
	.cfi_def_cfa_offset 8
	.cfi_offset lr, -4
	.cfi_offset r7, -8
	.pad	#56
	sub	sp, #56
	.cfi_def_cfa_offset 64
	movs	r0, #0
	str	r0, [sp, #36]                   @ 4-byte Spill
	movs	r1, #4
.Ltmp568:
	.loc	3 832 5 prologue_end            @ ../../../CORTEX_MPU_M3_NUCLEO_L152RE_GCC/Demo/TaskNotifyArray.c:832:5
	bl	MPU_vTaskPrioritySet
	ldr	r0, [sp, #36]                   @ 4-byte Reload
.Ltmp569:
	.loc	3 836 24                        @ ../../../CORTEX_MPU_M3_NUCLEO_L152RE_GCC/Demo/TaskNotifyArray.c:836:24
	str	r0, [sp, #52]
	.loc	3 836 10 is_stmt 0              @ ../../../CORTEX_MPU_M3_NUCLEO_L152RE_GCC/Demo/TaskNotifyArray.c:836:10
	b	.LBB8_1
.LBB8_1:                                @ =>This Loop Header: Depth=1
                                        @     Child Loop BB8_3 Depth 2
                                        @     Child Loop BB8_16 Depth 2
                                        @     Child Loop BB8_29 Depth 2
.Ltmp570:
	.loc	3 836 29                        @ ../../../CORTEX_MPU_M3_NUCLEO_L152RE_GCC/Demo/TaskNotifyArray.c:836:29
	ldr	r0, [sp, #52]
.Ltmp571:
	.loc	3 836 5                         @ ../../../CORTEX_MPU_M3_NUCLEO_L152RE_GCC/Demo/TaskNotifyArray.c:836:5
	cmp	r0, #2
	bls	.LBB8_2
	b	.LBB8_46
.LBB8_2:                                @   in Loop: Header=BB8_1 Depth=1
	.loc	3 0 5                           @ ../../../CORTEX_MPU_M3_NUCLEO_L152RE_GCC/Demo/TaskNotifyArray.c:0:5
	movs	r0, #0
.Ltmp572:
	.loc	3 840 29 is_stmt 1              @ ../../../CORTEX_MPU_M3_NUCLEO_L152RE_GCC/Demo/TaskNotifyArray.c:840:29
	str	r0, [sp, #48]
	.loc	3 840 14 is_stmt 0              @ ../../../CORTEX_MPU_M3_NUCLEO_L152RE_GCC/Demo/TaskNotifyArray.c:840:14
	b	.LBB8_3
.LBB8_3:                                @   Parent Loop BB8_1 Depth=1
                                        @ =>  This Inner Loop Header: Depth=2
.Ltmp573:
	.loc	3 840 34                        @ ../../../CORTEX_MPU_M3_NUCLEO_L152RE_GCC/Demo/TaskNotifyArray.c:840:34
	ldr	r0, [sp, #48]
.Ltmp574:
	.loc	3 840 9                         @ ../../../CORTEX_MPU_M3_NUCLEO_L152RE_GCC/Demo/TaskNotifyArray.c:840:9
	cmp	r0, #2
	bhi	.LBB8_9
	b	.LBB8_4
.LBB8_4:                                @   in Loop: Header=BB8_3 Depth=2
.Ltmp575:
	.loc	3 842 25 is_stmt 1              @ ../../../CORTEX_MPU_M3_NUCLEO_L152RE_GCC/Demo/TaskNotifyArray.c:842:25
	ldr	r0, [sp, #48]
	movs	r3, #0
	str	r3, [sp]
	mov	r1, r3
	mov	r2, r3
	bl	MPU_xTaskGenericNotifyWait
	.loc	3 842 23 is_stmt 0              @ ../../../CORTEX_MPU_M3_NUCLEO_L152RE_GCC/Demo/TaskNotifyArray.c:842:23
	str	r0, [sp, #44]
.Ltmp576:
	.loc	3 843 13 is_stmt 1              @ ../../../CORTEX_MPU_M3_NUCLEO_L152RE_GCC/Demo/TaskNotifyArray.c:843:13
	ldr	r0, [sp, #44]
.Ltmp577:
	.loc	3 843 13 is_stmt 0              @ ../../../CORTEX_MPU_M3_NUCLEO_L152RE_GCC/Demo/TaskNotifyArray.c:843:13
	cbz	r0, .LBB8_7
	b	.LBB8_5
.LBB8_5:
.Ltmp578:
	.loc	3 843 13                        @ ../../../CORTEX_MPU_M3_NUCLEO_L152RE_GCC/Demo/TaskNotifyArray.c:843:13
	@APP
	cpsid i
	@NO_APP
	b	.LBB8_6
.LBB8_6:                                @ =>This Inner Loop Header: Depth=1
.Ltmp579:
	.loc	3 843 13                        @ ../../../CORTEX_MPU_M3_NUCLEO_L152RE_GCC/Demo/TaskNotifyArray.c:843:13
	b	.LBB8_6
.Ltmp580:
.LBB8_7:                                @   in Loop: Header=BB8_3 Depth=2
	.loc	3 845 9 is_stmt 1               @ ../../../CORTEX_MPU_M3_NUCLEO_L152RE_GCC/Demo/TaskNotifyArray.c:845:9
	b	.LBB8_8
.Ltmp581:
.LBB8_8:                                @   in Loop: Header=BB8_3 Depth=2
	.loc	3 840 104                       @ ../../../CORTEX_MPU_M3_NUCLEO_L152RE_GCC/Demo/TaskNotifyArray.c:840:104
	ldr	r0, [sp, #48]
	adds	r0, r0, #1
	str	r0, [sp, #48]
	.loc	3 840 9 is_stmt 0               @ ../../../CORTEX_MPU_M3_NUCLEO_L152RE_GCC/Demo/TaskNotifyArray.c:840:9
	b	.LBB8_3
.Ltmp582:
.LBB8_9:                                @   in Loop: Header=BB8_1 Depth=1
	.loc	3 0 9                           @ ../../../CORTEX_MPU_M3_NUCLEO_L152RE_GCC/Demo/TaskNotifyArray.c:0:9
	movs	r0, #0
	.loc	3 851 25 is_stmt 1              @ ../../../CORTEX_MPU_M3_NUCLEO_L152RE_GCC/Demo/TaskNotifyArray.c:851:25
	str	r0, [sp, #32]                   @ 4-byte Spill
	str	r0, [sp, #40]
	.loc	3 852 9                         @ ../../../CORTEX_MPU_M3_NUCLEO_L152RE_GCC/Demo/TaskNotifyArray.c:852:9
	movw	r0, :lower16:xNotifyWhileSuspendedTimer
	movt	r0, :upper16:xNotifyWhileSuspendedTimer
	ldr	r0, [r0]
	str	r0, [sp, #24]                   @ 4-byte Spill
	bl	MPU_xTaskGetTickCount
	ldr	r3, [sp, #32]                   @ 4-byte Reload
	mov	r2, r0
	ldr	r0, [sp, #24]                   @ 4-byte Reload
	mvns	r1, r3
	str	r1, [sp, #28]                   @ 4-byte Spill
	str	r1, [sp]
	movs	r1, #1
	bl	MPU_xTimerGenericCommand
	ldr	r1, [sp, #28]                   @ 4-byte Reload
	ldr	r2, [sp, #32]                   @ 4-byte Reload
	.loc	3 856 21                        @ ../../../CORTEX_MPU_M3_NUCLEO_L152RE_GCC/Demo/TaskNotifyArray.c:856:21
	ldr	r0, [sp, #52]
	str	r1, [sp]
	add	r3, sp, #40
	mov	r1, r2
	bl	MPU_xTaskGenericNotifyWait
	.loc	3 856 19 is_stmt 0              @ ../../../CORTEX_MPU_M3_NUCLEO_L152RE_GCC/Demo/TaskNotifyArray.c:856:19
	str	r0, [sp, #44]
.Ltmp583:
	.loc	3 857 9 is_stmt 1               @ ../../../CORTEX_MPU_M3_NUCLEO_L152RE_GCC/Demo/TaskNotifyArray.c:857:9
	ldr	r0, [sp, #44]
.Ltmp584:
	.loc	3 857 9 is_stmt 0               @ ../../../CORTEX_MPU_M3_NUCLEO_L152RE_GCC/Demo/TaskNotifyArray.c:857:9
	cbz	r0, .LBB8_12
	b	.LBB8_10
.LBB8_10:
.Ltmp585:
	.loc	3 857 9                         @ ../../../CORTEX_MPU_M3_NUCLEO_L152RE_GCC/Demo/TaskNotifyArray.c:857:9
	@APP
	cpsid i
	@NO_APP
	b	.LBB8_11
.LBB8_11:                               @ =>This Inner Loop Header: Depth=1
.Ltmp586:
	.loc	3 857 9                         @ ../../../CORTEX_MPU_M3_NUCLEO_L152RE_GCC/Demo/TaskNotifyArray.c:857:9
	b	.LBB8_11
.Ltmp587:
.LBB8_12:                               @   in Loop: Header=BB8_1 Depth=1
	.loc	3 858 9 is_stmt 1               @ ../../../CORTEX_MPU_M3_NUCLEO_L152RE_GCC/Demo/TaskNotifyArray.c:858:9
	ldr	r0, [sp, #40]
.Ltmp588:
	.loc	3 858 9 is_stmt 0               @ ../../../CORTEX_MPU_M3_NUCLEO_L152RE_GCC/Demo/TaskNotifyArray.c:858:9
	cbz	r0, .LBB8_15
	b	.LBB8_13
.LBB8_13:
.Ltmp589:
	.loc	3 858 9                         @ ../../../CORTEX_MPU_M3_NUCLEO_L152RE_GCC/Demo/TaskNotifyArray.c:858:9
	@APP
	cpsid i
	@NO_APP
	b	.LBB8_14
.LBB8_14:                               @ =>This Inner Loop Header: Depth=1
.Ltmp590:
	.loc	3 858 9                         @ ../../../CORTEX_MPU_M3_NUCLEO_L152RE_GCC/Demo/TaskNotifyArray.c:858:9
	b	.LBB8_14
.Ltmp591:
.LBB8_15:                               @   in Loop: Header=BB8_1 Depth=1
	.loc	3 0 9                           @ ../../../CORTEX_MPU_M3_NUCLEO_L152RE_GCC/Demo/TaskNotifyArray.c:0:9
	movs	r0, #0
.Ltmp592:
	.loc	3 863 29 is_stmt 1              @ ../../../CORTEX_MPU_M3_NUCLEO_L152RE_GCC/Demo/TaskNotifyArray.c:863:29
	str	r0, [sp, #48]
	.loc	3 863 14 is_stmt 0              @ ../../../CORTEX_MPU_M3_NUCLEO_L152RE_GCC/Demo/TaskNotifyArray.c:863:14
	b	.LBB8_16
.LBB8_16:                               @   Parent Loop BB8_1 Depth=1
                                        @ =>  This Inner Loop Header: Depth=2
.Ltmp593:
	.loc	3 863 34                        @ ../../../CORTEX_MPU_M3_NUCLEO_L152RE_GCC/Demo/TaskNotifyArray.c:863:34
	ldr	r0, [sp, #48]
.Ltmp594:
	.loc	3 863 9                         @ ../../../CORTEX_MPU_M3_NUCLEO_L152RE_GCC/Demo/TaskNotifyArray.c:863:9
	cmp	r0, #2
	bhi	.LBB8_22
	b	.LBB8_17
.LBB8_17:                               @   in Loop: Header=BB8_16 Depth=2
.Ltmp595:
	.loc	3 865 25 is_stmt 1              @ ../../../CORTEX_MPU_M3_NUCLEO_L152RE_GCC/Demo/TaskNotifyArray.c:865:25
	ldr	r0, [sp, #48]
	movs	r2, #0
	str	r2, [sp]
	add	r3, sp, #40
	mov	r1, r2
	bl	MPU_xTaskGenericNotifyWait
	.loc	3 865 23 is_stmt 0              @ ../../../CORTEX_MPU_M3_NUCLEO_L152RE_GCC/Demo/TaskNotifyArray.c:865:23
	str	r0, [sp, #44]
.Ltmp596:
	.loc	3 866 13 is_stmt 1              @ ../../../CORTEX_MPU_M3_NUCLEO_L152RE_GCC/Demo/TaskNotifyArray.c:866:13
	ldr	r0, [sp, #44]
.Ltmp597:
	.loc	3 866 13 is_stmt 0              @ ../../../CORTEX_MPU_M3_NUCLEO_L152RE_GCC/Demo/TaskNotifyArray.c:866:13
	cbz	r0, .LBB8_20
	b	.LBB8_18
.LBB8_18:
.Ltmp598:
	.loc	3 866 13                        @ ../../../CORTEX_MPU_M3_NUCLEO_L152RE_GCC/Demo/TaskNotifyArray.c:866:13
	@APP
	cpsid i
	@NO_APP
	b	.LBB8_19
.LBB8_19:                               @ =>This Inner Loop Header: Depth=1
.Ltmp599:
	.loc	3 866 13                        @ ../../../CORTEX_MPU_M3_NUCLEO_L152RE_GCC/Demo/TaskNotifyArray.c:866:13
	b	.LBB8_19
.Ltmp600:
.LBB8_20:                               @   in Loop: Header=BB8_16 Depth=2
	.loc	3 868 9 is_stmt 1               @ ../../../CORTEX_MPU_M3_NUCLEO_L152RE_GCC/Demo/TaskNotifyArray.c:868:9
	b	.LBB8_21
.Ltmp601:
.LBB8_21:                               @   in Loop: Header=BB8_16 Depth=2
	.loc	3 863 104                       @ ../../../CORTEX_MPU_M3_NUCLEO_L152RE_GCC/Demo/TaskNotifyArray.c:863:104
	ldr	r0, [sp, #48]
	adds	r0, r0, #1
	str	r0, [sp, #48]
	.loc	3 863 9 is_stmt 0               @ ../../../CORTEX_MPU_M3_NUCLEO_L152RE_GCC/Demo/TaskNotifyArray.c:863:9
	b	.LBB8_16
.Ltmp602:
.LBB8_22:                               @   in Loop: Header=BB8_1 Depth=1
	.loc	3 875 9 is_stmt 1               @ ../../../CORTEX_MPU_M3_NUCLEO_L152RE_GCC/Demo/TaskNotifyArray.c:875:9
	movw	r0, :lower16:xNotifyWhileSuspendedTimer
	movt	r0, :upper16:xNotifyWhileSuspendedTimer
	ldr	r0, [r0]
	str	r0, [sp, #12]                   @ 4-byte Spill
	bl	MPU_xTaskGetTickCount
	mov	r2, r0
	ldr	r0, [sp, #12]                   @ 4-byte Reload
	movs	r3, #0
	str	r3, [sp, #20]                   @ 4-byte Spill
	mvns	r1, r3
	str	r1, [sp, #16]                   @ 4-byte Spill
	str	r1, [sp]
	movs	r1, #1
	bl	MPU_xTimerGenericCommand
	ldr	r1, [sp, #16]                   @ 4-byte Reload
	ldr	r2, [sp, #20]                   @ 4-byte Reload
	.loc	3 879 21                        @ ../../../CORTEX_MPU_M3_NUCLEO_L152RE_GCC/Demo/TaskNotifyArray.c:879:21
	ldr	r0, [sp, #52]
	str	r1, [sp]
	add	r3, sp, #40
	mov	r1, r2
	bl	MPU_xTaskGenericNotifyWait
	.loc	3 879 19 is_stmt 0              @ ../../../CORTEX_MPU_M3_NUCLEO_L152RE_GCC/Demo/TaskNotifyArray.c:879:19
	str	r0, [sp, #44]
.Ltmp603:
	.loc	3 880 9 is_stmt 1               @ ../../../CORTEX_MPU_M3_NUCLEO_L152RE_GCC/Demo/TaskNotifyArray.c:880:9
	ldr	r0, [sp, #44]
.Ltmp604:
	.loc	3 880 9 is_stmt 0               @ ../../../CORTEX_MPU_M3_NUCLEO_L152RE_GCC/Demo/TaskNotifyArray.c:880:9
	cmp	r0, #1
	beq	.LBB8_25
	b	.LBB8_23
.LBB8_23:
.Ltmp605:
	.loc	3 880 9                         @ ../../../CORTEX_MPU_M3_NUCLEO_L152RE_GCC/Demo/TaskNotifyArray.c:880:9
	@APP
	cpsid i
	@NO_APP
	b	.LBB8_24
.LBB8_24:                               @ =>This Inner Loop Header: Depth=1
.Ltmp606:
	.loc	3 880 9                         @ ../../../CORTEX_MPU_M3_NUCLEO_L152RE_GCC/Demo/TaskNotifyArray.c:880:9
	b	.LBB8_24
.Ltmp607:
.LBB8_25:                               @   in Loop: Header=BB8_1 Depth=1
	.loc	3 882 9 is_stmt 1               @ ../../../CORTEX_MPU_M3_NUCLEO_L152RE_GCC/Demo/TaskNotifyArray.c:882:9
	ldr	r0, [sp, #40]
.Ltmp608:
	.loc	3 882 9 is_stmt 0               @ ../../../CORTEX_MPU_M3_NUCLEO_L152RE_GCC/Demo/TaskNotifyArray.c:882:9
	cbnz	r0, .LBB8_28
	b	.LBB8_26
.LBB8_26:
.Ltmp609:
	.loc	3 882 9                         @ ../../../CORTEX_MPU_M3_NUCLEO_L152RE_GCC/Demo/TaskNotifyArray.c:882:9
	@APP
	cpsid i
	@NO_APP
	b	.LBB8_27
.LBB8_27:                               @ =>This Inner Loop Header: Depth=1
.Ltmp610:
	.loc	3 882 9                         @ ../../../CORTEX_MPU_M3_NUCLEO_L152RE_GCC/Demo/TaskNotifyArray.c:882:9
	b	.LBB8_27
.Ltmp611:
.LBB8_28:                               @   in Loop: Header=BB8_1 Depth=1
	.loc	3 0 9                           @ ../../../CORTEX_MPU_M3_NUCLEO_L152RE_GCC/Demo/TaskNotifyArray.c:0:9
	movs	r0, #0
.Ltmp612:
	.loc	3 888 29 is_stmt 1              @ ../../../CORTEX_MPU_M3_NUCLEO_L152RE_GCC/Demo/TaskNotifyArray.c:888:29
	str	r0, [sp, #48]
	.loc	3 888 14 is_stmt 0              @ ../../../CORTEX_MPU_M3_NUCLEO_L152RE_GCC/Demo/TaskNotifyArray.c:888:14
	b	.LBB8_29
.LBB8_29:                               @   Parent Loop BB8_1 Depth=1
                                        @ =>  This Inner Loop Header: Depth=2
.Ltmp613:
	.loc	3 888 34                        @ ../../../CORTEX_MPU_M3_NUCLEO_L152RE_GCC/Demo/TaskNotifyArray.c:888:34
	ldr	r0, [sp, #48]
.Ltmp614:
	.loc	3 888 9                         @ ../../../CORTEX_MPU_M3_NUCLEO_L152RE_GCC/Demo/TaskNotifyArray.c:888:9
	cmp	r0, #2
	bhi	.LBB8_44
	b	.LBB8_30
.LBB8_30:                               @   in Loop: Header=BB8_29 Depth=2
.Ltmp615:
	.loc	3 890 25 is_stmt 1              @ ../../../CORTEX_MPU_M3_NUCLEO_L152RE_GCC/Demo/TaskNotifyArray.c:890:25
	ldr	r0, [sp, #48]
	movs	r2, #0
	str	r2, [sp]
	add	r3, sp, #40
	mov	r1, r2
	bl	MPU_xTaskGenericNotifyWait
	.loc	3 890 23 is_stmt 0              @ ../../../CORTEX_MPU_M3_NUCLEO_L152RE_GCC/Demo/TaskNotifyArray.c:890:23
	str	r0, [sp, #44]
.Ltmp616:
	.loc	3 891 13 is_stmt 1              @ ../../../CORTEX_MPU_M3_NUCLEO_L152RE_GCC/Demo/TaskNotifyArray.c:891:13
	ldr	r0, [sp, #44]
.Ltmp617:
	.loc	3 891 13 is_stmt 0              @ ../../../CORTEX_MPU_M3_NUCLEO_L152RE_GCC/Demo/TaskNotifyArray.c:891:13
	cbz	r0, .LBB8_33
	b	.LBB8_31
.LBB8_31:
.Ltmp618:
	.loc	3 891 13                        @ ../../../CORTEX_MPU_M3_NUCLEO_L152RE_GCC/Demo/TaskNotifyArray.c:891:13
	@APP
	cpsid i
	@NO_APP
	b	.LBB8_32
.LBB8_32:                               @ =>This Inner Loop Header: Depth=1
.Ltmp619:
	.loc	3 891 13                        @ ../../../CORTEX_MPU_M3_NUCLEO_L152RE_GCC/Demo/TaskNotifyArray.c:891:13
	b	.LBB8_32
.Ltmp620:
.LBB8_33:                               @   in Loop: Header=BB8_29 Depth=2
	.loc	3 893 17 is_stmt 1              @ ../../../CORTEX_MPU_M3_NUCLEO_L152RE_GCC/Demo/TaskNotifyArray.c:893:17
	ldr	r0, [sp, #48]
	.loc	3 893 35 is_stmt 0              @ ../../../CORTEX_MPU_M3_NUCLEO_L152RE_GCC/Demo/TaskNotifyArray.c:893:35
	ldr	r1, [sp, #52]
.Ltmp621:
	.loc	3 893 17                        @ ../../../CORTEX_MPU_M3_NUCLEO_L152RE_GCC/Demo/TaskNotifyArray.c:893:17
	cmp	r0, r1
	bhi	.LBB8_38
	b	.LBB8_34
.LBB8_34:                               @   in Loop: Header=BB8_29 Depth=2
.Ltmp622:
	.loc	3 895 17 is_stmt 1              @ ../../../CORTEX_MPU_M3_NUCLEO_L152RE_GCC/Demo/TaskNotifyArray.c:895:17
	ldr	r0, [sp, #40]
.Ltmp623:
	.loc	3 895 17 is_stmt 0              @ ../../../CORTEX_MPU_M3_NUCLEO_L152RE_GCC/Demo/TaskNotifyArray.c:895:17
	cmp	r0, #1
	beq	.LBB8_37
	b	.LBB8_35
.LBB8_35:
.Ltmp624:
	.loc	3 895 17                        @ ../../../CORTEX_MPU_M3_NUCLEO_L152RE_GCC/Demo/TaskNotifyArray.c:895:17
	@APP
	cpsid i
	@NO_APP
	b	.LBB8_36
.LBB8_36:                               @ =>This Inner Loop Header: Depth=1
.Ltmp625:
	.loc	3 895 17                        @ ../../../CORTEX_MPU_M3_NUCLEO_L152RE_GCC/Demo/TaskNotifyArray.c:895:17
	b	.LBB8_36
.Ltmp626:
.LBB8_37:                               @   in Loop: Header=BB8_29 Depth=2
	.loc	3 896 13 is_stmt 1              @ ../../../CORTEX_MPU_M3_NUCLEO_L152RE_GCC/Demo/TaskNotifyArray.c:896:13
	b	.LBB8_42
.Ltmp627:
.LBB8_38:                               @   in Loop: Header=BB8_29 Depth=2
	.loc	3 899 17                        @ ../../../CORTEX_MPU_M3_NUCLEO_L152RE_GCC/Demo/TaskNotifyArray.c:899:17
	ldr	r0, [sp, #40]
.Ltmp628:
	.loc	3 899 17 is_stmt 0              @ ../../../CORTEX_MPU_M3_NUCLEO_L152RE_GCC/Demo/TaskNotifyArray.c:899:17
	cbz	r0, .LBB8_41
	b	.LBB8_39
.LBB8_39:
.Ltmp629:
	.loc	3 899 17                        @ ../../../CORTEX_MPU_M3_NUCLEO_L152RE_GCC/Demo/TaskNotifyArray.c:899:17
	@APP
	cpsid i
	@NO_APP
	b	.LBB8_40
.LBB8_40:                               @ =>This Inner Loop Header: Depth=1
.Ltmp630:
	.loc	3 899 17                        @ ../../../CORTEX_MPU_M3_NUCLEO_L152RE_GCC/Demo/TaskNotifyArray.c:899:17
	b	.LBB8_40
.Ltmp631:
.LBB8_41:                               @   in Loop: Header=BB8_29 Depth=2
	.loc	3 0 17                          @ ../../../CORTEX_MPU_M3_NUCLEO_L152RE_GCC/Demo/TaskNotifyArray.c:0:17
	b	.LBB8_42
.LBB8_42:                               @   in Loop: Header=BB8_29 Depth=2
	.loc	3 904 9 is_stmt 1               @ ../../../CORTEX_MPU_M3_NUCLEO_L152RE_GCC/Demo/TaskNotifyArray.c:904:9
	b	.LBB8_43
.Ltmp632:
.LBB8_43:                               @   in Loop: Header=BB8_29 Depth=2
	.loc	3 888 104                       @ ../../../CORTEX_MPU_M3_NUCLEO_L152RE_GCC/Demo/TaskNotifyArray.c:888:104
	ldr	r0, [sp, #48]
	adds	r0, r0, #1
	str	r0, [sp, #48]
	.loc	3 888 9 is_stmt 0               @ ../../../CORTEX_MPU_M3_NUCLEO_L152RE_GCC/Demo/TaskNotifyArray.c:888:9
	b	.LBB8_29
.Ltmp633:
.LBB8_44:                               @   in Loop: Header=BB8_1 Depth=1
	.loc	3 905 5 is_stmt 1               @ ../../../CORTEX_MPU_M3_NUCLEO_L152RE_GCC/Demo/TaskNotifyArray.c:905:5
	b	.LBB8_45
.Ltmp634:
.LBB8_45:                               @   in Loop: Header=BB8_1 Depth=1
	.loc	3 836 97                        @ ../../../CORTEX_MPU_M3_NUCLEO_L152RE_GCC/Demo/TaskNotifyArray.c:836:97
	ldr	r0, [sp, #52]
	adds	r0, r0, #1
	str	r0, [sp, #52]
	.loc	3 836 5 is_stmt 0               @ ../../../CORTEX_MPU_M3_NUCLEO_L152RE_GCC/Demo/TaskNotifyArray.c:836:5
	b	.LBB8_1
.Ltmp635:
.LBB8_46:
	.loc	3 0 5                           @ ../../../CORTEX_MPU_M3_NUCLEO_L152RE_GCC/Demo/TaskNotifyArray.c:0:5
	movs	r1, #0
	.loc	3 908 5 is_stmt 1               @ ../../../CORTEX_MPU_M3_NUCLEO_L152RE_GCC/Demo/TaskNotifyArray.c:908:5
	str	r1, [sp, #8]                    @ 4-byte Spill
	mov	r0, r1
	bl	MPU_vTaskPrioritySet
	ldr	r0, [sp, #8]                    @ 4-byte Reload
	.loc	3 911 26                        @ ../../../CORTEX_MPU_M3_NUCLEO_L152RE_GCC/Demo/TaskNotifyArray.c:911:26
	movw	r2, :lower16:ulFineCycleCount
	movt	r2, :upper16:ulFineCycleCount
	ldr	r1, [r2]
	adds	r1, r1, #1
	str	r1, [r2]
.Ltmp636:
	.loc	3 914 24                        @ ../../../CORTEX_MPU_M3_NUCLEO_L152RE_GCC/Demo/TaskNotifyArray.c:914:24
	str	r0, [sp, #52]
	.loc	3 914 10 is_stmt 0              @ ../../../CORTEX_MPU_M3_NUCLEO_L152RE_GCC/Demo/TaskNotifyArray.c:914:10
	b	.LBB8_47
.LBB8_47:                               @ =>This Inner Loop Header: Depth=1
.Ltmp637:
	.loc	3 914 29                        @ ../../../CORTEX_MPU_M3_NUCLEO_L152RE_GCC/Demo/TaskNotifyArray.c:914:29
	ldr	r0, [sp, #52]
.Ltmp638:
	.loc	3 914 5                         @ ../../../CORTEX_MPU_M3_NUCLEO_L152RE_GCC/Demo/TaskNotifyArray.c:914:5
	cmp	r0, #2
	bhi	.LBB8_50
	b	.LBB8_48
.LBB8_48:                               @   in Loop: Header=BB8_47 Depth=1
.Ltmp639:
	.loc	3 916 9 is_stmt 1               @ ../../../CORTEX_MPU_M3_NUCLEO_L152RE_GCC/Demo/TaskNotifyArray.c:916:9
	ldr	r0, [sp, #52]
	movs	r3, #0
	str	r3, [sp]
	mvns	r1, r3
	mov	r2, r3
	bl	MPU_xTaskGenericNotifyWait
	.loc	3 917 5                         @ ../../../CORTEX_MPU_M3_NUCLEO_L152RE_GCC/Demo/TaskNotifyArray.c:917:5
	b	.LBB8_49
.Ltmp640:
.LBB8_49:                               @   in Loop: Header=BB8_47 Depth=1
	.loc	3 914 97                        @ ../../../CORTEX_MPU_M3_NUCLEO_L152RE_GCC/Demo/TaskNotifyArray.c:914:97
	ldr	r0, [sp, #52]
	adds	r0, r0, #1
	str	r0, [sp, #52]
	.loc	3 914 5 is_stmt 0               @ ../../../CORTEX_MPU_M3_NUCLEO_L152RE_GCC/Demo/TaskNotifyArray.c:914:5
	b	.LBB8_47
.Ltmp641:
.LBB8_50:
	.loc	3 918 1 is_stmt 1               @ ../../../CORTEX_MPU_M3_NUCLEO_L152RE_GCC/Demo/TaskNotifyArray.c:918:1
	add	sp, #56
	pop	{r7, pc}
.Ltmp642:
.Lfunc_end8:
	.size	prvTestNotifyTaskWhileSuspended, .Lfunc_end8-prvTestNotifyTaskWhileSuspended
	.cfi_endproc
	.cantunwind
	.fnend
                                        @ -- End function
	.section	.text.prvBlockOnTheNotifiedIndexed,"ax",%progbits
	.p2align	1                               @ -- Begin function prvBlockOnTheNotifiedIndexed
	.type	prvBlockOnTheNotifiedIndexed,%function
	.code	16                              @ @prvBlockOnTheNotifiedIndexed
	.thumb_func
prvBlockOnTheNotifiedIndexed:
.Lfunc_begin9:
	.loc	3 922 0                         @ ../../../CORTEX_MPU_M3_NUCLEO_L152RE_GCC/Demo/TaskNotifyArray.c:922:0
	.fnstart
	.cfi_startproc
@ %bb.0:
	.save	{r7, lr}
	push	{r7, lr}
	.cfi_def_cfa_offset 8
	.cfi_offset lr, -4
	.cfi_offset r7, -8
	.pad	#56
	sub	sp, #56
	.cfi_def_cfa_offset 64
	movs	r0, #10
.Ltmp643:
	.loc	3 923 22 prologue_end           @ ../../../CORTEX_MPU_M3_NUCLEO_L152RE_GCC/Demo/TaskNotifyArray.c:923:22
	str	r0, [sp, #52]
	movs	r0, #5
	.loc	3 923 59 is_stmt 0              @ ../../../CORTEX_MPU_M3_NUCLEO_L152RE_GCC/Demo/TaskNotifyArray.c:923:59
	str	r0, [sp, #48]
	movs	r0, #0
	.loc	3 923 90                        @ ../../../CORTEX_MPU_M3_NUCLEO_L152RE_GCC/Demo/TaskNotifyArray.c:923:90
	str	r0, [sp, #44]
.Ltmp644:
	.loc	3 932 18 is_stmt 1              @ ../../../CORTEX_MPU_M3_NUCLEO_L152RE_GCC/Demo/TaskNotifyArray.c:932:18
	str	r0, [sp, #40]
	.loc	3 932 10 is_stmt 0              @ ../../../CORTEX_MPU_M3_NUCLEO_L152RE_GCC/Demo/TaskNotifyArray.c:932:10
	b	.LBB9_1
.LBB9_1:                                @ =>This Inner Loop Header: Depth=1
.Ltmp645:
	.loc	3 932 23                        @ ../../../CORTEX_MPU_M3_NUCLEO_L152RE_GCC/Demo/TaskNotifyArray.c:932:23
	ldr	r0, [sp, #40]
.Ltmp646:
	.loc	3 932 5                         @ ../../../CORTEX_MPU_M3_NUCLEO_L152RE_GCC/Demo/TaskNotifyArray.c:932:5
	cmp	r0, #2
	bhi	.LBB9_4
	b	.LBB9_2
.LBB9_2:                                @   in Loop: Header=BB9_1 Depth=1
.Ltmp647:
	.loc	3 934 9 is_stmt 1               @ ../../../CORTEX_MPU_M3_NUCLEO_L152RE_GCC/Demo/TaskNotifyArray.c:934:9
	movw	r0, :lower16:xTaskToNotify
	movt	r0, :upper16:xTaskToNotify
	str	r0, [sp, #24]                   @ 4-byte Spill
	ldr	r0, [r0]
	ldr	r1, [sp, #40]
	adds	r2, r1, #1
	movs	r3, #0
	str	r3, [sp]
	movs	r3, #3
	bl	MPU_xTaskGenericNotify
                                        @ kill: def $r1 killed $r0
	.loc	3 935 9                         @ ../../../CORTEX_MPU_M3_NUCLEO_L152RE_GCC/Demo/TaskNotifyArray.c:935:9
	ldr	r0, [sp, #24]                   @ 4-byte Reload
	ldr	r0, [r0]
	ldr	r1, [sp, #40]
	bl	MPU_xTaskGenericNotifyStateClear
	.loc	3 936 5                         @ ../../../CORTEX_MPU_M3_NUCLEO_L152RE_GCC/Demo/TaskNotifyArray.c:936:5
	b	.LBB9_3
.Ltmp648:
.LBB9_3:                                @   in Loop: Header=BB9_1 Depth=1
	.loc	3 932 79                        @ ../../../CORTEX_MPU_M3_NUCLEO_L152RE_GCC/Demo/TaskNotifyArray.c:932:79
	ldr	r0, [sp, #40]
	adds	r0, r0, #1
	str	r0, [sp, #40]
	.loc	3 932 5 is_stmt 0               @ ../../../CORTEX_MPU_M3_NUCLEO_L152RE_GCC/Demo/TaskNotifyArray.c:932:5
	b	.LBB9_1
.Ltmp649:
.LBB9_4:
	.loc	3 0 5                           @ ../../../CORTEX_MPU_M3_NUCLEO_L152RE_GCC/Demo/TaskNotifyArray.c:0:5
	movs	r0, #0
.Ltmp650:
	.loc	3 940 26 is_stmt 1              @ ../../../CORTEX_MPU_M3_NUCLEO_L152RE_GCC/Demo/TaskNotifyArray.c:940:26
	str	r0, [sp, #36]
	.loc	3 940 10 is_stmt 0              @ ../../../CORTEX_MPU_M3_NUCLEO_L152RE_GCC/Demo/TaskNotifyArray.c:940:10
	b	.LBB9_5
.LBB9_5:                                @ =>This Loop Header: Depth=1
                                        @     Child Loop BB9_10 Depth 2
.Ltmp651:
	.loc	3 940 31                        @ ../../../CORTEX_MPU_M3_NUCLEO_L152RE_GCC/Demo/TaskNotifyArray.c:940:31
	ldr	r0, [sp, #36]
.Ltmp652:
	.loc	3 940 5                         @ ../../../CORTEX_MPU_M3_NUCLEO_L152RE_GCC/Demo/TaskNotifyArray.c:940:5
	cmp	r0, #2
	bhi	.LBB9_23
	b	.LBB9_6
.LBB9_6:                                @   in Loop: Header=BB9_5 Depth=1
.Ltmp653:
	.loc	3 944 9 is_stmt 1               @ ../../../CORTEX_MPU_M3_NUCLEO_L152RE_GCC/Demo/TaskNotifyArray.c:944:9
	movw	r0, :lower16:xTaskToNotify
	movt	r0, :upper16:xTaskToNotify
	str	r0, [sp, #12]                   @ 4-byte Spill
	ldr	r0, [r0]
	ldr	r1, [sp, #36]
	movs	r2, #0
	str	r2, [sp, #20]                   @ 4-byte Spill
	str	r2, [sp]
	movs	r3, #3
	bl	MPU_xTaskGenericNotify
                                        @ kill: def $r1 killed $r0
	.loc	3 945 9                         @ ../../../CORTEX_MPU_M3_NUCLEO_L152RE_GCC/Demo/TaskNotifyArray.c:945:9
	ldr	r0, [sp, #12]                   @ 4-byte Reload
	ldr	r0, [r0]
	ldr	r1, [sp, #36]
	bl	MPU_xTaskGenericNotifyStateClear
	.loc	3 950 9                         @ ../../../CORTEX_MPU_M3_NUCLEO_L152RE_GCC/Demo/TaskNotifyArray.c:950:9
	movw	r0, :lower16:xIncrementingIndexTimer
	movt	r0, :upper16:xIncrementingIndexTimer
	ldr	r0, [r0]
	str	r0, [sp, #16]                   @ 4-byte Spill
	bl	MPU_xTaskGetTickCount
	ldr	r3, [sp, #20]                   @ 4-byte Reload
	mov	r2, r0
	ldr	r0, [sp, #16]                   @ 4-byte Reload
	mvns	r1, r3
	str	r1, [sp]
	movs	r1, #1
	bl	MPU_xTimerGenericCommand
	ldr	r1, [sp, #20]                   @ 4-byte Reload
	.loc	3 951 27                        @ ../../../CORTEX_MPU_M3_NUCLEO_L152RE_GCC/Demo/TaskNotifyArray.c:951:27
	ldr	r0, [sp, #36]
	movs	r2, #15
	bl	MPU_ulTaskGenericNotifyTake
	.loc	3 951 25 is_stmt 0              @ ../../../CORTEX_MPU_M3_NUCLEO_L152RE_GCC/Demo/TaskNotifyArray.c:951:25
	str	r0, [sp, #32]
.Ltmp654:
	.loc	3 957 9 is_stmt 1               @ ../../../CORTEX_MPU_M3_NUCLEO_L152RE_GCC/Demo/TaskNotifyArray.c:957:9
	ldr	r0, [sp, #32]
.Ltmp655:
	.loc	3 957 9 is_stmt 0               @ ../../../CORTEX_MPU_M3_NUCLEO_L152RE_GCC/Demo/TaskNotifyArray.c:957:9
	cmp	r0, #1
	beq	.LBB9_9
	b	.LBB9_7
.LBB9_7:
.Ltmp656:
	.loc	3 957 9                         @ ../../../CORTEX_MPU_M3_NUCLEO_L152RE_GCC/Demo/TaskNotifyArray.c:957:9
	@APP
	cpsid i
	@NO_APP
	b	.LBB9_8
.LBB9_8:                                @ =>This Inner Loop Header: Depth=1
.Ltmp657:
	.loc	3 957 9                         @ ../../../CORTEX_MPU_M3_NUCLEO_L152RE_GCC/Demo/TaskNotifyArray.c:957:9
	b	.LBB9_8
.Ltmp658:
.LBB9_9:                                @   in Loop: Header=BB9_5 Depth=1
	.loc	3 0 9                           @ ../../../CORTEX_MPU_M3_NUCLEO_L152RE_GCC/Demo/TaskNotifyArray.c:0:9
	movs	r0, #0
.Ltmp659:
	.loc	3 963 22 is_stmt 1              @ ../../../CORTEX_MPU_M3_NUCLEO_L152RE_GCC/Demo/TaskNotifyArray.c:963:22
	str	r0, [sp, #40]
	.loc	3 963 14 is_stmt 0              @ ../../../CORTEX_MPU_M3_NUCLEO_L152RE_GCC/Demo/TaskNotifyArray.c:963:14
	b	.LBB9_10
.LBB9_10:                               @   Parent Loop BB9_5 Depth=1
                                        @ =>  This Inner Loop Header: Depth=2
.Ltmp660:
	.loc	3 963 27                        @ ../../../CORTEX_MPU_M3_NUCLEO_L152RE_GCC/Demo/TaskNotifyArray.c:963:27
	ldr	r0, [sp, #40]
.Ltmp661:
	.loc	3 963 9                         @ ../../../CORTEX_MPU_M3_NUCLEO_L152RE_GCC/Demo/TaskNotifyArray.c:963:9
	cmp	r0, #2
	bhi	.LBB9_21
	b	.LBB9_11
.LBB9_11:                               @   in Loop: Header=BB9_10 Depth=2
.Ltmp662:
	.loc	3 965 17 is_stmt 1              @ ../../../CORTEX_MPU_M3_NUCLEO_L152RE_GCC/Demo/TaskNotifyArray.c:965:17
	ldr	r0, [sp, #40]
	.loc	3 965 28 is_stmt 0              @ ../../../CORTEX_MPU_M3_NUCLEO_L152RE_GCC/Demo/TaskNotifyArray.c:965:28
	ldr	r1, [sp, #36]
.Ltmp663:
	.loc	3 965 17                        @ ../../../CORTEX_MPU_M3_NUCLEO_L152RE_GCC/Demo/TaskNotifyArray.c:965:17
	cmp	r0, r1
	beq	.LBB9_19
	b	.LBB9_12
.LBB9_12:                               @   in Loop: Header=BB9_10 Depth=2
.Ltmp664:
	.loc	3 967 29 is_stmt 1              @ ../../../CORTEX_MPU_M3_NUCLEO_L152RE_GCC/Demo/TaskNotifyArray.c:967:29
	ldr	r0, [sp, #40]
	movs	r2, #0
	str	r2, [sp]
	add	r3, sp, #32
	mov	r1, r2
	bl	MPU_xTaskGenericNotifyWait
	.loc	3 967 27 is_stmt 0              @ ../../../CORTEX_MPU_M3_NUCLEO_L152RE_GCC/Demo/TaskNotifyArray.c:967:27
	str	r0, [sp, #28]
.Ltmp665:
	.loc	3 968 17 is_stmt 1              @ ../../../CORTEX_MPU_M3_NUCLEO_L152RE_GCC/Demo/TaskNotifyArray.c:968:17
	ldr	r0, [sp, #28]
.Ltmp666:
	.loc	3 968 17 is_stmt 0              @ ../../../CORTEX_MPU_M3_NUCLEO_L152RE_GCC/Demo/TaskNotifyArray.c:968:17
	cbz	r0, .LBB9_15
	b	.LBB9_13
.LBB9_13:
.Ltmp667:
	.loc	3 968 17                        @ ../../../CORTEX_MPU_M3_NUCLEO_L152RE_GCC/Demo/TaskNotifyArray.c:968:17
	@APP
	cpsid i
	@NO_APP
	b	.LBB9_14
.LBB9_14:                               @ =>This Inner Loop Header: Depth=1
.Ltmp668:
	.loc	3 968 17                        @ ../../../CORTEX_MPU_M3_NUCLEO_L152RE_GCC/Demo/TaskNotifyArray.c:968:17
	b	.LBB9_14
.Ltmp669:
.LBB9_15:                               @   in Loop: Header=BB9_10 Depth=2
	.loc	3 969 17 is_stmt 1              @ ../../../CORTEX_MPU_M3_NUCLEO_L152RE_GCC/Demo/TaskNotifyArray.c:969:17
	ldr	r0, [sp, #32]
	ldr	r1, [sp, #40]
	adds	r1, r1, #1
.Ltmp670:
	.loc	3 969 17 is_stmt 0              @ ../../../CORTEX_MPU_M3_NUCLEO_L152RE_GCC/Demo/TaskNotifyArray.c:969:17
	cmp	r0, r1
	beq	.LBB9_18
	b	.LBB9_16
.LBB9_16:
.Ltmp671:
	.loc	3 969 17                        @ ../../../CORTEX_MPU_M3_NUCLEO_L152RE_GCC/Demo/TaskNotifyArray.c:969:17
	@APP
	cpsid i
	@NO_APP
	b	.LBB9_17
.LBB9_17:                               @ =>This Inner Loop Header: Depth=1
.Ltmp672:
	.loc	3 969 17                        @ ../../../CORTEX_MPU_M3_NUCLEO_L152RE_GCC/Demo/TaskNotifyArray.c:969:17
	b	.LBB9_17
.Ltmp673:
.LBB9_18:                               @   in Loop: Header=BB9_10 Depth=2
	.loc	3 972 13 is_stmt 1              @ ../../../CORTEX_MPU_M3_NUCLEO_L152RE_GCC/Demo/TaskNotifyArray.c:972:13
	b	.LBB9_19
.Ltmp674:
.LBB9_19:                               @   in Loop: Header=BB9_10 Depth=2
	.loc	3 973 9                         @ ../../../CORTEX_MPU_M3_NUCLEO_L152RE_GCC/Demo/TaskNotifyArray.c:973:9
	b	.LBB9_20
.Ltmp675:
.LBB9_20:                               @   in Loop: Header=BB9_10 Depth=2
	.loc	3 963 83                        @ ../../../CORTEX_MPU_M3_NUCLEO_L152RE_GCC/Demo/TaskNotifyArray.c:963:83
	ldr	r0, [sp, #40]
	adds	r0, r0, #1
	str	r0, [sp, #40]
	.loc	3 963 9 is_stmt 0               @ ../../../CORTEX_MPU_M3_NUCLEO_L152RE_GCC/Demo/TaskNotifyArray.c:963:9
	b	.LBB9_10
.Ltmp676:
.LBB9_21:                               @   in Loop: Header=BB9_5 Depth=1
	.loc	3 977 9 is_stmt 1               @ ../../../CORTEX_MPU_M3_NUCLEO_L152RE_GCC/Demo/TaskNotifyArray.c:977:9
	movw	r0, :lower16:xTaskToNotify
	movt	r0, :upper16:xTaskToNotify
	str	r0, [sp, #8]                    @ 4-byte Spill
	ldr	r0, [r0]
	ldr	r1, [sp, #36]
	adds	r2, r1, #1
	movs	r3, #0
	str	r3, [sp]
	movs	r3, #3
	bl	MPU_xTaskGenericNotify
                                        @ kill: def $r1 killed $r0
	.loc	3 978 9                         @ ../../../CORTEX_MPU_M3_NUCLEO_L152RE_GCC/Demo/TaskNotifyArray.c:978:9
	ldr	r0, [sp, #8]                    @ 4-byte Reload
	ldr	r0, [r0]
	ldr	r1, [sp, #36]
	bl	MPU_xTaskGenericNotifyStateClear
	.loc	3 981 30                        @ ../../../CORTEX_MPU_M3_NUCLEO_L152RE_GCC/Demo/TaskNotifyArray.c:981:30
	movw	r1, :lower16:ulFineCycleCount
	movt	r1, :upper16:ulFineCycleCount
	ldr	r0, [r1]
	adds	r0, r0, #1
	str	r0, [r1]
	.loc	3 982 5                         @ ../../../CORTEX_MPU_M3_NUCLEO_L152RE_GCC/Demo/TaskNotifyArray.c:982:5
	b	.LBB9_22
.Ltmp677:
.LBB9_22:                               @   in Loop: Header=BB9_5 Depth=1
	.loc	3 940 103                       @ ../../../CORTEX_MPU_M3_NUCLEO_L152RE_GCC/Demo/TaskNotifyArray.c:940:103
	ldr	r0, [sp, #36]
	adds	r0, r0, #1
	str	r0, [sp, #36]
	.loc	3 940 5 is_stmt 0               @ ../../../CORTEX_MPU_M3_NUCLEO_L152RE_GCC/Demo/TaskNotifyArray.c:940:5
	b	.LBB9_5
.Ltmp678:
.LBB9_23:
	.loc	3 983 1 is_stmt 1               @ ../../../CORTEX_MPU_M3_NUCLEO_L152RE_GCC/Demo/TaskNotifyArray.c:983:1
	add	sp, #56
	pop	{r7, pc}
.Ltmp679:
.Lfunc_end9:
	.size	prvBlockOnTheNotifiedIndexed, .Lfunc_end9-prvBlockOnTheNotifiedIndexed
	.cfi_endproc
	.cantunwind
	.fnend
                                        @ -- End function
	.section	.text.prvBlockOnANonNotifiedIndexed,"ax",%progbits
	.p2align	1                               @ -- Begin function prvBlockOnANonNotifiedIndexed
	.type	prvBlockOnANonNotifiedIndexed,%function
	.code	16                              @ @prvBlockOnANonNotifiedIndexed
	.thumb_func
prvBlockOnANonNotifiedIndexed:
.Lfunc_begin10:
	.loc	3 987 0                         @ ../../../CORTEX_MPU_M3_NUCLEO_L152RE_GCC/Demo/TaskNotifyArray.c:987:0
	.fnstart
	.cfi_startproc
@ %bb.0:
	.save	{r7, lr}
	push	{r7, lr}
	.cfi_def_cfa_offset 8
	.cfi_offset lr, -4
	.cfi_offset r7, -8
	.pad	#48
	sub	sp, #48
	.cfi_def_cfa_offset 56
	movs	r0, #10
.Ltmp680:
	.loc	3 988 22 prologue_end           @ ../../../CORTEX_MPU_M3_NUCLEO_L152RE_GCC/Demo/TaskNotifyArray.c:988:22
	str	r0, [sp, #44]
	movs	r0, #5
	.loc	3 988 59 is_stmt 0              @ ../../../CORTEX_MPU_M3_NUCLEO_L152RE_GCC/Demo/TaskNotifyArray.c:988:59
	str	r0, [sp, #40]
	movs	r0, #0
	.loc	3 988 90                        @ ../../../CORTEX_MPU_M3_NUCLEO_L152RE_GCC/Demo/TaskNotifyArray.c:988:90
	str	r0, [sp, #36]
.Ltmp681:
	.loc	3 996 26 is_stmt 1              @ ../../../CORTEX_MPU_M3_NUCLEO_L152RE_GCC/Demo/TaskNotifyArray.c:996:26
	str	r0, [sp, #28]
	.loc	3 996 10 is_stmt 0              @ ../../../CORTEX_MPU_M3_NUCLEO_L152RE_GCC/Demo/TaskNotifyArray.c:996:10
	b	.LBB10_1
.LBB10_1:                               @ =>This Inner Loop Header: Depth=1
.Ltmp682:
	.loc	3 996 31                        @ ../../../CORTEX_MPU_M3_NUCLEO_L152RE_GCC/Demo/TaskNotifyArray.c:996:31
	ldr	r0, [sp, #28]
.Ltmp683:
	.loc	3 996 5                         @ ../../../CORTEX_MPU_M3_NUCLEO_L152RE_GCC/Demo/TaskNotifyArray.c:996:5
	cmp	r0, #2
	bhi	.LBB10_4
	b	.LBB10_2
.LBB10_2:                               @   in Loop: Header=BB10_1 Depth=1
.Ltmp684:
	.loc	3 998 9 is_stmt 1               @ ../../../CORTEX_MPU_M3_NUCLEO_L152RE_GCC/Demo/TaskNotifyArray.c:998:9
	movw	r0, :lower16:xTaskToNotify
	movt	r0, :upper16:xTaskToNotify
	ldr	r0, [r0]
	ldr	r1, [sp, #28]
	movs	r2, #0
	mvns	r2, r2
	bl	MPU_ulTaskGenericNotifyValueClear
	.loc	3 999 5                         @ ../../../CORTEX_MPU_M3_NUCLEO_L152RE_GCC/Demo/TaskNotifyArray.c:999:5
	b	.LBB10_3
.Ltmp685:
.LBB10_3:                               @   in Loop: Header=BB10_1 Depth=1
	.loc	3 996 103                       @ ../../../CORTEX_MPU_M3_NUCLEO_L152RE_GCC/Demo/TaskNotifyArray.c:996:103
	ldr	r0, [sp, #28]
	adds	r0, r0, #1
	str	r0, [sp, #28]
	.loc	3 996 5 is_stmt 0               @ ../../../CORTEX_MPU_M3_NUCLEO_L152RE_GCC/Demo/TaskNotifyArray.c:996:5
	b	.LBB10_1
.Ltmp686:
.LBB10_4:
	.loc	3 0 5                           @ ../../../CORTEX_MPU_M3_NUCLEO_L152RE_GCC/Demo/TaskNotifyArray.c:0:5
	movs	r0, #0
.Ltmp687:
	.loc	3 1003 26 is_stmt 1             @ ../../../CORTEX_MPU_M3_NUCLEO_L152RE_GCC/Demo/TaskNotifyArray.c:1003:26
	str	r0, [sp, #28]
	.loc	3 1003 10 is_stmt 0             @ ../../../CORTEX_MPU_M3_NUCLEO_L152RE_GCC/Demo/TaskNotifyArray.c:1003:10
	b	.LBB10_5
.LBB10_5:                               @ =>This Loop Header: Depth=1
                                        @     Child Loop BB10_16 Depth 2
.Ltmp688:
	.loc	3 1003 31                       @ ../../../CORTEX_MPU_M3_NUCLEO_L152RE_GCC/Demo/TaskNotifyArray.c:1003:31
	ldr	r0, [sp, #28]
.Ltmp689:
	.loc	3 1003 5                        @ ../../../CORTEX_MPU_M3_NUCLEO_L152RE_GCC/Demo/TaskNotifyArray.c:1003:5
	cmp	r0, #2
	bls	.LBB10_6
	b	.LBB10_36
.LBB10_6:                               @   in Loop: Header=BB10_5 Depth=1
.Ltmp690:
	.loc	3 1008 9 is_stmt 1              @ ../../../CORTEX_MPU_M3_NUCLEO_L152RE_GCC/Demo/TaskNotifyArray.c:1008:9
	movw	r0, :lower16:xIncrementingIndexTimer
	movt	r0, :upper16:xIncrementingIndexTimer
	ldr	r0, [r0]
	str	r0, [sp, #4]                    @ 4-byte Spill
	bl	MPU_xTaskGetTickCount
	mov	r2, r0
	ldr	r0, [sp, #4]                    @ 4-byte Reload
	movs	r3, #0
	mvns	r1, r3
	str	r1, [sp]
	movs	r1, #1
	bl	MPU_xTimerGenericCommand
	.loc	3 1009 31                       @ ../../../CORTEX_MPU_M3_NUCLEO_L152RE_GCC/Demo/TaskNotifyArray.c:1009:31
	bl	MPU_xTaskGetTickCount
	.loc	3 1009 29 is_stmt 0             @ ../../../CORTEX_MPU_M3_NUCLEO_L152RE_GCC/Demo/TaskNotifyArray.c:1009:29
	str	r0, [sp, #16]
.Ltmp691:
	.loc	3 1011 13 is_stmt 1             @ ../../../CORTEX_MPU_M3_NUCLEO_L152RE_GCC/Demo/TaskNotifyArray.c:1011:13
	ldr	r0, [sp, #28]
.Ltmp692:
	.loc	3 1011 13 is_stmt 0             @ ../../../CORTEX_MPU_M3_NUCLEO_L152RE_GCC/Demo/TaskNotifyArray.c:1011:13
	cmp	r0, #2
	bne	.LBB10_8
	b	.LBB10_7
.LBB10_7:                               @   in Loop: Header=BB10_5 Depth=1
	.loc	3 0 13                          @ ../../../CORTEX_MPU_M3_NUCLEO_L152RE_GCC/Demo/TaskNotifyArray.c:0:13
	movs	r0, #0
.Ltmp693:
	.loc	3 1015 21 is_stmt 1             @ ../../../CORTEX_MPU_M3_NUCLEO_L152RE_GCC/Demo/TaskNotifyArray.c:1015:21
	str	r0, [sp, #32]
	.loc	3 1016 9                        @ ../../../CORTEX_MPU_M3_NUCLEO_L152RE_GCC/Demo/TaskNotifyArray.c:1016:9
	b	.LBB10_9
.Ltmp694:
.LBB10_8:                               @   in Loop: Header=BB10_5 Depth=1
	.loc	3 1021 23                       @ ../../../CORTEX_MPU_M3_NUCLEO_L152RE_GCC/Demo/TaskNotifyArray.c:1021:23
	ldr	r0, [sp, #28]
	.loc	3 1021 39 is_stmt 0             @ ../../../CORTEX_MPU_M3_NUCLEO_L152RE_GCC/Demo/TaskNotifyArray.c:1021:39
	adds	r0, r0, #1
	.loc	3 1021 21                       @ ../../../CORTEX_MPU_M3_NUCLEO_L152RE_GCC/Demo/TaskNotifyArray.c:1021:21
	str	r0, [sp, #32]
	b	.LBB10_9
.Ltmp695:
.LBB10_9:                               @   in Loop: Header=BB10_5 Depth=1
	.loc	3 1024 21 is_stmt 1             @ ../../../CORTEX_MPU_M3_NUCLEO_L152RE_GCC/Demo/TaskNotifyArray.c:1024:21
	ldr	r0, [sp, #32]
	movs	r1, #15
	str	r1, [sp]
	movs	r2, #0
	add	r3, sp, #24
	mov	r1, r2
	bl	MPU_xTaskGenericNotifyWait
	.loc	3 1024 19 is_stmt 0             @ ../../../CORTEX_MPU_M3_NUCLEO_L152RE_GCC/Demo/TaskNotifyArray.c:1024:19
	str	r0, [sp, #20]
.Ltmp696:
	.loc	3 1030 9 is_stmt 1              @ ../../../CORTEX_MPU_M3_NUCLEO_L152RE_GCC/Demo/TaskNotifyArray.c:1030:9
	ldr	r0, [sp, #20]
.Ltmp697:
	.loc	3 1030 9 is_stmt 0              @ ../../../CORTEX_MPU_M3_NUCLEO_L152RE_GCC/Demo/TaskNotifyArray.c:1030:9
	cbz	r0, .LBB10_12
	b	.LBB10_10
.LBB10_10:
.Ltmp698:
	.loc	3 1030 9                        @ ../../../CORTEX_MPU_M3_NUCLEO_L152RE_GCC/Demo/TaskNotifyArray.c:1030:9
	@APP
	cpsid i
	@NO_APP
	b	.LBB10_11
.LBB10_11:                              @ =>This Inner Loop Header: Depth=1
.Ltmp699:
	.loc	3 1030 9                        @ ../../../CORTEX_MPU_M3_NUCLEO_L152RE_GCC/Demo/TaskNotifyArray.c:1030:9
	b	.LBB10_11
.Ltmp700:
.LBB10_12:                              @   in Loop: Header=BB10_5 Depth=1
	.loc	3 1031 20 is_stmt 1             @ ../../../CORTEX_MPU_M3_NUCLEO_L152RE_GCC/Demo/TaskNotifyArray.c:1031:20
	bl	MPU_xTaskGetTickCount
	.loc	3 1031 18 is_stmt 0             @ ../../../CORTEX_MPU_M3_NUCLEO_L152RE_GCC/Demo/TaskNotifyArray.c:1031:18
	str	r0, [sp, #12]
	.loc	3 1032 27 is_stmt 1             @ ../../../CORTEX_MPU_M3_NUCLEO_L152RE_GCC/Demo/TaskNotifyArray.c:1032:27
	ldr	r0, [sp, #12]
	.loc	3 1032 38 is_stmt 0             @ ../../../CORTEX_MPU_M3_NUCLEO_L152RE_GCC/Demo/TaskNotifyArray.c:1032:38
	ldr	r1, [sp, #16]
	.loc	3 1032 36                       @ ../../../CORTEX_MPU_M3_NUCLEO_L152RE_GCC/Demo/TaskNotifyArray.c:1032:36
	subs	r0, r0, r1
	.loc	3 1032 25                       @ ../../../CORTEX_MPU_M3_NUCLEO_L152RE_GCC/Demo/TaskNotifyArray.c:1032:25
	str	r0, [sp, #8]
.Ltmp701:
	.loc	3 1033 9 is_stmt 1              @ ../../../CORTEX_MPU_M3_NUCLEO_L152RE_GCC/Demo/TaskNotifyArray.c:1033:9
	ldr	r0, [sp, #8]
.Ltmp702:
	.loc	3 1033 9 is_stmt 0              @ ../../../CORTEX_MPU_M3_NUCLEO_L152RE_GCC/Demo/TaskNotifyArray.c:1033:9
	cmp	r0, #14
	bhi	.LBB10_15
	b	.LBB10_13
.LBB10_13:
.Ltmp703:
	.loc	3 1033 9                        @ ../../../CORTEX_MPU_M3_NUCLEO_L152RE_GCC/Demo/TaskNotifyArray.c:1033:9
	@APP
	cpsid i
	@NO_APP
	b	.LBB10_14
.LBB10_14:                              @ =>This Inner Loop Header: Depth=1
.Ltmp704:
	.loc	3 1033 9                        @ ../../../CORTEX_MPU_M3_NUCLEO_L152RE_GCC/Demo/TaskNotifyArray.c:1033:9
	b	.LBB10_14
.Ltmp705:
.LBB10_15:                              @   in Loop: Header=BB10_5 Depth=1
	.loc	3 0 9                           @ ../../../CORTEX_MPU_M3_NUCLEO_L152RE_GCC/Demo/TaskNotifyArray.c:0:9
	movs	r0, #0
.Ltmp706:
	.loc	3 1040 22 is_stmt 1             @ ../../../CORTEX_MPU_M3_NUCLEO_L152RE_GCC/Demo/TaskNotifyArray.c:1040:22
	str	r0, [sp, #32]
	.loc	3 1040 14 is_stmt 0             @ ../../../CORTEX_MPU_M3_NUCLEO_L152RE_GCC/Demo/TaskNotifyArray.c:1040:14
	b	.LBB10_16
.LBB10_16:                              @   Parent Loop BB10_5 Depth=1
                                        @ =>  This Inner Loop Header: Depth=2
.Ltmp707:
	.loc	3 1040 27                       @ ../../../CORTEX_MPU_M3_NUCLEO_L152RE_GCC/Demo/TaskNotifyArray.c:1040:27
	ldr	r0, [sp, #32]
.Ltmp708:
	.loc	3 1040 9                        @ ../../../CORTEX_MPU_M3_NUCLEO_L152RE_GCC/Demo/TaskNotifyArray.c:1040:9
	cmp	r0, #2
	bhi	.LBB10_34
	b	.LBB10_17
.LBB10_17:                              @   in Loop: Header=BB10_16 Depth=2
.Ltmp709:
	.loc	3 1042 25 is_stmt 1             @ ../../../CORTEX_MPU_M3_NUCLEO_L152RE_GCC/Demo/TaskNotifyArray.c:1042:25
	ldr	r0, [sp, #32]
	movs	r2, #0
	str	r2, [sp]
	add	r3, sp, #24
	mov	r1, r2
	bl	MPU_xTaskGenericNotifyWait
	.loc	3 1042 23 is_stmt 0             @ ../../../CORTEX_MPU_M3_NUCLEO_L152RE_GCC/Demo/TaskNotifyArray.c:1042:23
	str	r0, [sp, #20]
.Ltmp710:
	.loc	3 1044 17 is_stmt 1             @ ../../../CORTEX_MPU_M3_NUCLEO_L152RE_GCC/Demo/TaskNotifyArray.c:1044:17
	ldr	r0, [sp, #32]
	.loc	3 1044 28 is_stmt 0             @ ../../../CORTEX_MPU_M3_NUCLEO_L152RE_GCC/Demo/TaskNotifyArray.c:1044:28
	ldr	r1, [sp, #28]
.Ltmp711:
	.loc	3 1044 17                       @ ../../../CORTEX_MPU_M3_NUCLEO_L152RE_GCC/Demo/TaskNotifyArray.c:1044:17
	cmp	r0, r1
	bne	.LBB10_25
	b	.LBB10_18
.LBB10_18:                              @   in Loop: Header=BB10_16 Depth=2
.Ltmp712:
	.loc	3 1048 17 is_stmt 1             @ ../../../CORTEX_MPU_M3_NUCLEO_L152RE_GCC/Demo/TaskNotifyArray.c:1048:17
	ldr	r0, [sp, #20]
.Ltmp713:
	.loc	3 1048 17 is_stmt 0             @ ../../../CORTEX_MPU_M3_NUCLEO_L152RE_GCC/Demo/TaskNotifyArray.c:1048:17
	cmp	r0, #1
	beq	.LBB10_21
	b	.LBB10_19
.LBB10_19:
.Ltmp714:
	.loc	3 1048 17                       @ ../../../CORTEX_MPU_M3_NUCLEO_L152RE_GCC/Demo/TaskNotifyArray.c:1048:17
	@APP
	cpsid i
	@NO_APP
	b	.LBB10_20
.LBB10_20:                              @ =>This Inner Loop Header: Depth=1
.Ltmp715:
	.loc	3 1048 17                       @ ../../../CORTEX_MPU_M3_NUCLEO_L152RE_GCC/Demo/TaskNotifyArray.c:1048:17
	b	.LBB10_20
.Ltmp716:
.LBB10_21:                              @   in Loop: Header=BB10_16 Depth=2
	.loc	3 1049 17 is_stmt 1             @ ../../../CORTEX_MPU_M3_NUCLEO_L152RE_GCC/Demo/TaskNotifyArray.c:1049:17
	ldr	r0, [sp, #24]
.Ltmp717:
	.loc	3 1049 17 is_stmt 0             @ ../../../CORTEX_MPU_M3_NUCLEO_L152RE_GCC/Demo/TaskNotifyArray.c:1049:17
	cmp	r0, #1
	beq	.LBB10_24
	b	.LBB10_22
.LBB10_22:
.Ltmp718:
	.loc	3 1049 17                       @ ../../../CORTEX_MPU_M3_NUCLEO_L152RE_GCC/Demo/TaskNotifyArray.c:1049:17
	@APP
	cpsid i
	@NO_APP
	b	.LBB10_23
.LBB10_23:                              @ =>This Inner Loop Header: Depth=1
.Ltmp719:
	.loc	3 1049 17                       @ ../../../CORTEX_MPU_M3_NUCLEO_L152RE_GCC/Demo/TaskNotifyArray.c:1049:17
	b	.LBB10_23
.Ltmp720:
.LBB10_24:                              @   in Loop: Header=BB10_16 Depth=2
	.loc	3 1052 17 is_stmt 1             @ ../../../CORTEX_MPU_M3_NUCLEO_L152RE_GCC/Demo/TaskNotifyArray.c:1052:17
	movw	r0, :lower16:xTaskToNotify
	movt	r0, :upper16:xTaskToNotify
	ldr	r0, [r0]
	ldr	r1, [sp, #32]
	movs	r2, #0
	mvns	r2, r2
	bl	MPU_ulTaskGenericNotifyValueClear
	.loc	3 1053 13                       @ ../../../CORTEX_MPU_M3_NUCLEO_L152RE_GCC/Demo/TaskNotifyArray.c:1053:13
	b	.LBB10_32
.Ltmp721:
.LBB10_25:                              @   in Loop: Header=BB10_16 Depth=2
	.loc	3 1058 17                       @ ../../../CORTEX_MPU_M3_NUCLEO_L152RE_GCC/Demo/TaskNotifyArray.c:1058:17
	ldr	r0, [sp, #20]
.Ltmp722:
	.loc	3 1058 17 is_stmt 0             @ ../../../CORTEX_MPU_M3_NUCLEO_L152RE_GCC/Demo/TaskNotifyArray.c:1058:17
	cbz	r0, .LBB10_28
	b	.LBB10_26
.LBB10_26:
.Ltmp723:
	.loc	3 1058 17                       @ ../../../CORTEX_MPU_M3_NUCLEO_L152RE_GCC/Demo/TaskNotifyArray.c:1058:17
	@APP
	cpsid i
	@NO_APP
	b	.LBB10_27
.LBB10_27:                              @ =>This Inner Loop Header: Depth=1
.Ltmp724:
	.loc	3 1058 17                       @ ../../../CORTEX_MPU_M3_NUCLEO_L152RE_GCC/Demo/TaskNotifyArray.c:1058:17
	b	.LBB10_27
.Ltmp725:
.LBB10_28:                              @   in Loop: Header=BB10_16 Depth=2
	.loc	3 1059 17 is_stmt 1             @ ../../../CORTEX_MPU_M3_NUCLEO_L152RE_GCC/Demo/TaskNotifyArray.c:1059:17
	ldr	r0, [sp, #24]
.Ltmp726:
	.loc	3 1059 17 is_stmt 0             @ ../../../CORTEX_MPU_M3_NUCLEO_L152RE_GCC/Demo/TaskNotifyArray.c:1059:17
	cbz	r0, .LBB10_31
	b	.LBB10_29
.LBB10_29:
.Ltmp727:
	.loc	3 1059 17                       @ ../../../CORTEX_MPU_M3_NUCLEO_L152RE_GCC/Demo/TaskNotifyArray.c:1059:17
	@APP
	cpsid i
	@NO_APP
	b	.LBB10_30
.LBB10_30:                              @ =>This Inner Loop Header: Depth=1
.Ltmp728:
	.loc	3 1059 17                       @ ../../../CORTEX_MPU_M3_NUCLEO_L152RE_GCC/Demo/TaskNotifyArray.c:1059:17
	b	.LBB10_30
.Ltmp729:
.LBB10_31:                              @   in Loop: Header=BB10_16 Depth=2
	.loc	3 0 17                          @ ../../../CORTEX_MPU_M3_NUCLEO_L152RE_GCC/Demo/TaskNotifyArray.c:0:17
	b	.LBB10_32
.LBB10_32:                              @   in Loop: Header=BB10_16 Depth=2
	.loc	3 1061 9 is_stmt 1              @ ../../../CORTEX_MPU_M3_NUCLEO_L152RE_GCC/Demo/TaskNotifyArray.c:1061:9
	b	.LBB10_33
.Ltmp730:
.LBB10_33:                              @   in Loop: Header=BB10_16 Depth=2
	.loc	3 1040 83                       @ ../../../CORTEX_MPU_M3_NUCLEO_L152RE_GCC/Demo/TaskNotifyArray.c:1040:83
	ldr	r0, [sp, #32]
	adds	r0, r0, #1
	str	r0, [sp, #32]
	.loc	3 1040 9 is_stmt 0              @ ../../../CORTEX_MPU_M3_NUCLEO_L152RE_GCC/Demo/TaskNotifyArray.c:1040:9
	b	.LBB10_16
.Ltmp731:
.LBB10_34:                              @   in Loop: Header=BB10_5 Depth=1
	.loc	3 1064 30 is_stmt 1             @ ../../../CORTEX_MPU_M3_NUCLEO_L152RE_GCC/Demo/TaskNotifyArray.c:1064:30
	movw	r1, :lower16:ulFineCycleCount
	movt	r1, :upper16:ulFineCycleCount
	ldr	r0, [r1]
	adds	r0, r0, #1
	str	r0, [r1]
	.loc	3 1065 5                        @ ../../../CORTEX_MPU_M3_NUCLEO_L152RE_GCC/Demo/TaskNotifyArray.c:1065:5
	b	.LBB10_35
.Ltmp732:
.LBB10_35:                              @   in Loop: Header=BB10_5 Depth=1
	.loc	3 1003 103                      @ ../../../CORTEX_MPU_M3_NUCLEO_L152RE_GCC/Demo/TaskNotifyArray.c:1003:103
	ldr	r0, [sp, #28]
	adds	r0, r0, #1
	str	r0, [sp, #28]
	.loc	3 1003 5 is_stmt 0              @ ../../../CORTEX_MPU_M3_NUCLEO_L152RE_GCC/Demo/TaskNotifyArray.c:1003:5
	b	.LBB10_5
.Ltmp733:
.LBB10_36:
	.loc	3 1066 1 is_stmt 1              @ ../../../CORTEX_MPU_M3_NUCLEO_L152RE_GCC/Demo/TaskNotifyArray.c:1066:1
	add	sp, #48
	pop	{r7, pc}
.Ltmp734:
.Lfunc_end10:
	.size	prvBlockOnANonNotifiedIndexed, .Lfunc_end10-prvBlockOnANonNotifiedIndexed
	.cfi_endproc
	.cantunwind
	.fnend
                                        @ -- End function
	.section	.text.prvBlockOnNotificationsComingFromInterrupts,"ax",%progbits
	.p2align	1                               @ -- Begin function prvBlockOnNotificationsComingFromInterrupts
	.type	prvBlockOnNotificationsComingFromInterrupts,%function
	.code	16                              @ @prvBlockOnNotificationsComingFromInterrupts
	.thumb_func
prvBlockOnNotificationsComingFromInterrupts:
.Lfunc_begin11:
	.loc	3 1070 0                        @ ../../../CORTEX_MPU_M3_NUCLEO_L152RE_GCC/Demo/TaskNotifyArray.c:1070:0
	.fnstart
	.cfi_startproc
@ %bb.0:
	.save	{r7, lr}
	push	{r7, lr}
	.cfi_def_cfa_offset 8
	.cfi_offset lr, -4
	.cfi_offset r7, -8
	.pad	#40
	sub	sp, #40
	.cfi_def_cfa_offset 48
	movs	r0, #0
.Ltmp735:
	.loc	3 1074 22 prologue_end          @ ../../../CORTEX_MPU_M3_NUCLEO_L152RE_GCC/Demo/TaskNotifyArray.c:1074:22
	str	r0, [sp, #20]
.Ltmp736:
	.loc	3 1078 18                       @ ../../../CORTEX_MPU_M3_NUCLEO_L152RE_GCC/Demo/TaskNotifyArray.c:1078:18
	str	r0, [sp, #36]
	.loc	3 1078 10 is_stmt 0             @ ../../../CORTEX_MPU_M3_NUCLEO_L152RE_GCC/Demo/TaskNotifyArray.c:1078:10
	b	.LBB11_1
.LBB11_1:                               @ =>This Inner Loop Header: Depth=1
.Ltmp737:
	.loc	3 1078 23                       @ ../../../CORTEX_MPU_M3_NUCLEO_L152RE_GCC/Demo/TaskNotifyArray.c:1078:23
	ldr	r0, [sp, #36]
.Ltmp738:
	.loc	3 1078 5                        @ ../../../CORTEX_MPU_M3_NUCLEO_L152RE_GCC/Demo/TaskNotifyArray.c:1078:5
	cmp	r0, #2
	bhi	.LBB11_4
	b	.LBB11_2
.LBB11_2:                               @   in Loop: Header=BB11_1 Depth=1
.Ltmp739:
	.loc	3 1080 9 is_stmt 1              @ ../../../CORTEX_MPU_M3_NUCLEO_L152RE_GCC/Demo/TaskNotifyArray.c:1080:9
	movw	r0, :lower16:xTaskToNotify
	movt	r0, :upper16:xTaskToNotify
	str	r0, [sp, #16]                   @ 4-byte Spill
	ldr	r0, [r0]
	ldr	r1, [sp, #36]
	movs	r2, #0
	str	r2, [sp]
	movs	r3, #3
	bl	MPU_xTaskGenericNotify
                                        @ kill: def $r1 killed $r0
	.loc	3 1081 9                        @ ../../../CORTEX_MPU_M3_NUCLEO_L152RE_GCC/Demo/TaskNotifyArray.c:1081:9
	ldr	r0, [sp, #16]                   @ 4-byte Reload
	ldr	r0, [r0]
	ldr	r1, [sp, #36]
	bl	MPU_xTaskGenericNotifyStateClear
	.loc	3 1082 5                        @ ../../../CORTEX_MPU_M3_NUCLEO_L152RE_GCC/Demo/TaskNotifyArray.c:1082:5
	b	.LBB11_3
.Ltmp740:
.LBB11_3:                               @   in Loop: Header=BB11_1 Depth=1
	.loc	3 1078 79                       @ ../../../CORTEX_MPU_M3_NUCLEO_L152RE_GCC/Demo/TaskNotifyArray.c:1078:79
	ldr	r0, [sp, #36]
	adds	r0, r0, #1
	str	r0, [sp, #36]
	.loc	3 1078 5 is_stmt 0              @ ../../../CORTEX_MPU_M3_NUCLEO_L152RE_GCC/Demo/TaskNotifyArray.c:1078:5
	b	.LBB11_1
.Ltmp741:
.LBB11_4:
	.loc	3 0 5                           @ ../../../CORTEX_MPU_M3_NUCLEO_L152RE_GCC/Demo/TaskNotifyArray.c:0:5
	movs	r0, #0
.Ltmp742:
	.loc	3 1086 26 is_stmt 1             @ ../../../CORTEX_MPU_M3_NUCLEO_L152RE_GCC/Demo/TaskNotifyArray.c:1086:26
	str	r0, [sp, #32]
	.loc	3 1086 10 is_stmt 0             @ ../../../CORTEX_MPU_M3_NUCLEO_L152RE_GCC/Demo/TaskNotifyArray.c:1086:10
	b	.LBB11_5
.LBB11_5:                               @ =>This Loop Header: Depth=1
                                        @     Child Loop BB11_16 Depth 2
.Ltmp743:
	.loc	3 1086 31                       @ ../../../CORTEX_MPU_M3_NUCLEO_L152RE_GCC/Demo/TaskNotifyArray.c:1086:31
	ldr	r0, [sp, #32]
.Ltmp744:
	.loc	3 1086 5                        @ ../../../CORTEX_MPU_M3_NUCLEO_L152RE_GCC/Demo/TaskNotifyArray.c:1086:5
	cmp	r0, #2
	bhi	.LBB11_27
	b	.LBB11_6
.LBB11_6:                               @   in Loop: Header=BB11_5 Depth=1
.Ltmp745:
	.loc	3 1089 9 is_stmt 1              @ ../../../CORTEX_MPU_M3_NUCLEO_L152RE_GCC/Demo/TaskNotifyArray.c:1089:9
	bl	vPortEnterCritical
.Ltmp746:
	.loc	3 1094 13                       @ ../../../CORTEX_MPU_M3_NUCLEO_L152RE_GCC/Demo/TaskNotifyArray.c:1094:13
	movw	r0, :lower16:xSendNotificationFromISR
	movt	r0, :upper16:xSendNotificationFromISR
	ldr	r0, [r0]
.Ltmp747:
	.loc	3 1094 13 is_stmt 0             @ ../../../CORTEX_MPU_M3_NUCLEO_L152RE_GCC/Demo/TaskNotifyArray.c:1094:13
	cbz	r0, .LBB11_9
	b	.LBB11_7
.LBB11_7:
.Ltmp748:
	.loc	3 1094 13                       @ ../../../CORTEX_MPU_M3_NUCLEO_L152RE_GCC/Demo/TaskNotifyArray.c:1094:13
	@APP
	cpsid i
	@NO_APP
	b	.LBB11_8
.LBB11_8:                               @ =>This Inner Loop Header: Depth=1
.Ltmp749:
	.loc	3 1094 13                       @ ../../../CORTEX_MPU_M3_NUCLEO_L152RE_GCC/Demo/TaskNotifyArray.c:1094:13
	b	.LBB11_8
.Ltmp750:
.LBB11_9:                               @   in Loop: Header=BB11_5 Depth=1
	.loc	3 1095 43 is_stmt 1             @ ../../../CORTEX_MPU_M3_NUCLEO_L152RE_GCC/Demo/TaskNotifyArray.c:1095:43
	movw	r1, :lower16:xSendNotificationFromISR
	movt	r1, :upper16:xSendNotificationFromISR
	str	r1, [sp, #12]                   @ 4-byte Spill
	movs	r0, #1
	str	r0, [sp, #8]                    @ 4-byte Spill
	str	r0, [r1]
.Ltmp751:
	.loc	3 1097 9                        @ ../../../CORTEX_MPU_M3_NUCLEO_L152RE_GCC/Demo/TaskNotifyArray.c:1097:9
	bl	vPortExitCritical
	ldr	r1, [sp, #8]                    @ 4-byte Reload
	.loc	3 1101 27                       @ ../../../CORTEX_MPU_M3_NUCLEO_L152RE_GCC/Demo/TaskNotifyArray.c:1101:27
	ldr	r0, [sp, #32]
	movs	r2, #0
	mvns	r2, r2
	bl	MPU_ulTaskGenericNotifyTake
	mov	r1, r0
	.loc	3 1101 25 is_stmt 0             @ ../../../CORTEX_MPU_M3_NUCLEO_L152RE_GCC/Demo/TaskNotifyArray.c:1101:25
	ldr	r0, [sp, #12]                   @ 4-byte Reload
	str	r1, [sp, #28]
.Ltmp752:
	.loc	3 1105 9 is_stmt 1              @ ../../../CORTEX_MPU_M3_NUCLEO_L152RE_GCC/Demo/TaskNotifyArray.c:1105:9
	ldr	r0, [r0]
.Ltmp753:
	.loc	3 1105 9 is_stmt 0              @ ../../../CORTEX_MPU_M3_NUCLEO_L152RE_GCC/Demo/TaskNotifyArray.c:1105:9
	cbz	r0, .LBB11_12
	b	.LBB11_10
.LBB11_10:
.Ltmp754:
	.loc	3 1105 9                        @ ../../../CORTEX_MPU_M3_NUCLEO_L152RE_GCC/Demo/TaskNotifyArray.c:1105:9
	@APP
	cpsid i
	@NO_APP
	b	.LBB11_11
.LBB11_11:                              @ =>This Inner Loop Header: Depth=1
.Ltmp755:
	.loc	3 1105 9                        @ ../../../CORTEX_MPU_M3_NUCLEO_L152RE_GCC/Demo/TaskNotifyArray.c:1105:9
	b	.LBB11_11
.Ltmp756:
.LBB11_12:                              @   in Loop: Header=BB11_5 Depth=1
	.loc	3 1109 9 is_stmt 1              @ ../../../CORTEX_MPU_M3_NUCLEO_L152RE_GCC/Demo/TaskNotifyArray.c:1109:9
	ldr	r0, [sp, #28]
.Ltmp757:
	.loc	3 1109 9 is_stmt 0              @ ../../../CORTEX_MPU_M3_NUCLEO_L152RE_GCC/Demo/TaskNotifyArray.c:1109:9
	cmp	r0, #1
	beq	.LBB11_15
	b	.LBB11_13
.LBB11_13:
.Ltmp758:
	.loc	3 1109 9                        @ ../../../CORTEX_MPU_M3_NUCLEO_L152RE_GCC/Demo/TaskNotifyArray.c:1109:9
	@APP
	cpsid i
	@NO_APP
	b	.LBB11_14
.LBB11_14:                              @ =>This Inner Loop Header: Depth=1
.Ltmp759:
	.loc	3 1109 9                        @ ../../../CORTEX_MPU_M3_NUCLEO_L152RE_GCC/Demo/TaskNotifyArray.c:1109:9
	b	.LBB11_14
.Ltmp760:
.LBB11_15:                              @   in Loop: Header=BB11_5 Depth=1
	.loc	3 0 9                           @ ../../../CORTEX_MPU_M3_NUCLEO_L152RE_GCC/Demo/TaskNotifyArray.c:0:9
	movs	r0, #0
.Ltmp761:
	.loc	3 1116 22 is_stmt 1             @ ../../../CORTEX_MPU_M3_NUCLEO_L152RE_GCC/Demo/TaskNotifyArray.c:1116:22
	str	r0, [sp, #36]
	.loc	3 1116 14 is_stmt 0             @ ../../../CORTEX_MPU_M3_NUCLEO_L152RE_GCC/Demo/TaskNotifyArray.c:1116:14
	b	.LBB11_16
.LBB11_16:                              @   Parent Loop BB11_5 Depth=1
                                        @ =>  This Inner Loop Header: Depth=2
.Ltmp762:
	.loc	3 1116 27                       @ ../../../CORTEX_MPU_M3_NUCLEO_L152RE_GCC/Demo/TaskNotifyArray.c:1116:27
	ldr	r0, [sp, #36]
.Ltmp763:
	.loc	3 1116 9                        @ ../../../CORTEX_MPU_M3_NUCLEO_L152RE_GCC/Demo/TaskNotifyArray.c:1116:9
	cmp	r0, #2
	bhi	.LBB11_25
	b	.LBB11_17
.LBB11_17:                              @   in Loop: Header=BB11_16 Depth=2
.Ltmp764:
	.loc	3 1118 25 is_stmt 1             @ ../../../CORTEX_MPU_M3_NUCLEO_L152RE_GCC/Demo/TaskNotifyArray.c:1118:25
	ldr	r0, [sp, #32]
	movs	r2, #0
	str	r2, [sp]
	add	r3, sp, #28
	mov	r1, r2
	bl	MPU_xTaskGenericNotifyWait
	.loc	3 1118 23 is_stmt 0             @ ../../../CORTEX_MPU_M3_NUCLEO_L152RE_GCC/Demo/TaskNotifyArray.c:1118:23
	str	r0, [sp, #24]
.Ltmp765:
	.loc	3 1119 13 is_stmt 1             @ ../../../CORTEX_MPU_M3_NUCLEO_L152RE_GCC/Demo/TaskNotifyArray.c:1119:13
	ldr	r0, [sp, #24]
.Ltmp766:
	.loc	3 1119 13 is_stmt 0             @ ../../../CORTEX_MPU_M3_NUCLEO_L152RE_GCC/Demo/TaskNotifyArray.c:1119:13
	cbz	r0, .LBB11_20
	b	.LBB11_18
.LBB11_18:
.Ltmp767:
	.loc	3 1119 13                       @ ../../../CORTEX_MPU_M3_NUCLEO_L152RE_GCC/Demo/TaskNotifyArray.c:1119:13
	@APP
	cpsid i
	@NO_APP
	b	.LBB11_19
.LBB11_19:                              @ =>This Inner Loop Header: Depth=1
.Ltmp768:
	.loc	3 1119 13                       @ ../../../CORTEX_MPU_M3_NUCLEO_L152RE_GCC/Demo/TaskNotifyArray.c:1119:13
	b	.LBB11_19
.Ltmp769:
.LBB11_20:                              @   in Loop: Header=BB11_16 Depth=2
	.loc	3 1120 13 is_stmt 1             @ ../../../CORTEX_MPU_M3_NUCLEO_L152RE_GCC/Demo/TaskNotifyArray.c:1120:13
	ldr	r0, [sp, #28]
.Ltmp770:
	.loc	3 1120 13 is_stmt 0             @ ../../../CORTEX_MPU_M3_NUCLEO_L152RE_GCC/Demo/TaskNotifyArray.c:1120:13
	cbz	r0, .LBB11_23
	b	.LBB11_21
.LBB11_21:
.Ltmp771:
	.loc	3 1120 13                       @ ../../../CORTEX_MPU_M3_NUCLEO_L152RE_GCC/Demo/TaskNotifyArray.c:1120:13
	@APP
	cpsid i
	@NO_APP
	b	.LBB11_22
.LBB11_22:                              @ =>This Inner Loop Header: Depth=1
.Ltmp772:
	.loc	3 1120 13                       @ ../../../CORTEX_MPU_M3_NUCLEO_L152RE_GCC/Demo/TaskNotifyArray.c:1120:13
	b	.LBB11_22
.Ltmp773:
.LBB11_23:                              @   in Loop: Header=BB11_16 Depth=2
	.loc	3 1123 9 is_stmt 1              @ ../../../CORTEX_MPU_M3_NUCLEO_L152RE_GCC/Demo/TaskNotifyArray.c:1123:9
	b	.LBB11_24
.Ltmp774:
.LBB11_24:                              @   in Loop: Header=BB11_16 Depth=2
	.loc	3 1116 83                       @ ../../../CORTEX_MPU_M3_NUCLEO_L152RE_GCC/Demo/TaskNotifyArray.c:1116:83
	ldr	r0, [sp, #36]
	adds	r0, r0, #1
	str	r0, [sp, #36]
	.loc	3 1116 9 is_stmt 0              @ ../../../CORTEX_MPU_M3_NUCLEO_L152RE_GCC/Demo/TaskNotifyArray.c:1116:9
	b	.LBB11_16
.Ltmp775:
.LBB11_25:                              @   in Loop: Header=BB11_5 Depth=1
	.loc	3 1126 30 is_stmt 1             @ ../../../CORTEX_MPU_M3_NUCLEO_L152RE_GCC/Demo/TaskNotifyArray.c:1126:30
	movw	r1, :lower16:ulFineCycleCount
	movt	r1, :upper16:ulFineCycleCount
	ldr	r0, [r1]
	adds	r0, r0, #1
	str	r0, [r1]
	.loc	3 1127 5                        @ ../../../CORTEX_MPU_M3_NUCLEO_L152RE_GCC/Demo/TaskNotifyArray.c:1127:5
	b	.LBB11_26
.Ltmp776:
.LBB11_26:                              @   in Loop: Header=BB11_5 Depth=1
	.loc	3 1086 103                      @ ../../../CORTEX_MPU_M3_NUCLEO_L152RE_GCC/Demo/TaskNotifyArray.c:1086:103
	ldr	r0, [sp, #32]
	adds	r0, r0, #1
	str	r0, [sp, #32]
	.loc	3 1086 5 is_stmt 0              @ ../../../CORTEX_MPU_M3_NUCLEO_L152RE_GCC/Demo/TaskNotifyArray.c:1086:5
	b	.LBB11_5
.Ltmp777:
.LBB11_27:
	.loc	3 1128 1 is_stmt 1              @ ../../../CORTEX_MPU_M3_NUCLEO_L152RE_GCC/Demo/TaskNotifyArray.c:1128:1
	add	sp, #40
	pop	{r7, pc}
.Ltmp778:
.Lfunc_end11:
	.size	prvBlockOnNotificationsComingFromInterrupts, .Lfunc_end11-prvBlockOnNotificationsComingFromInterrupts
	.cfi_endproc
	.cantunwind
	.fnend
                                        @ -- End function
	.type	vStartTaskNotifyArrayTask.xNotifiedTaskStack,%object @ @vStartTaskNotifyArrayTask.xNotifiedTaskStack
	.section	.bss.vStartTaskNotifyArrayTask.xNotifiedTaskStack,"aw",%nobits
	.p2align	9, 0x0
vStartTaskNotifyArrayTask.xNotifiedTaskStack:
	.zero	512
	.size	vStartTaskNotifyArrayTask.xNotifiedTaskStack, 512

	.type	.L.str,%object                  @ @.str
	.section	.rodata.str1.1,"aMS",%progbits,1
.L.str:
	.asciz	"SingleNotify"
	.size	.L.str, 13

	.type	xNotifyWhileSuspendedTimer,%object @ @xNotifyWhileSuspendedTimer
	.section	.bss.xNotifyWhileSuspendedTimer,"aw",%nobits
	.p2align	5, 0x0
xNotifyWhileSuspendedTimer:
	.zero	32
	.size	xNotifyWhileSuspendedTimer, 32

	.type	.L.str.1,%object                @ @.str.1
	.section	.rodata.str1.1,"aMS",%progbits,1
.L.str.1:
	.asciz	"Notifier"
	.size	.L.str.1, 9

	.type	xIncrementingIndexTimer,%object @ @xIncrementingIndexTimer
	.section	.bss.xIncrementingIndexTimer,"aw",%nobits
	.p2align	5, 0x0
xIncrementingIndexTimer:
	.zero	32
	.size	xIncrementingIndexTimer, 32

	.type	.L.str.2,%object                @ @.str.2
	.section	.rodata.str1.1,"aMS",%progbits,1
.L.str.2:
	.asciz	"ArrayNotified"
	.size	.L.str.2, 14

	.type	.L__const.vStartTaskNotifyArrayTask.xNotifiedTask,%object @ @__const.vStartTaskNotifyArrayTask.xNotifiedTask
	.section	.rodata..L__const.vStartTaskNotifyArrayTask.xNotifiedTask,"a",%progbits
	.p2align	2, 0x0
.L__const.vStartTaskNotifyArrayTask.xNotifiedTask:
	.long	prvNotifiedTask
	.long	.L.str.2
	.short	128                             @ 0x80
	.zero	2
	.long	0
	.long	2147483648                      @ 0x80000000
	.long	vStartTaskNotifyArrayTask.xNotifiedTaskStack
	.zero	36
	.long	0
	.size	.L__const.vStartTaskNotifyArrayTask.xNotifiedTask, 64

	.type	xTaskToNotify,%object           @ @xTaskToNotify
	.section	.bss.xTaskToNotify,"aw",%nobits
	.p2align	5, 0x0
xTaskToNotify:
	.zero	32
	.size	xTaskToNotify, 32

	.type	uxNextRand,%object              @ @uxNextRand
	.section	.bss.uxNextRand,"aw",%nobits
	.p2align	5, 0x0
uxNextRand:
	.zero	32
	.size	uxNextRand, 32

	.type	xNotifyArrayTaskFromISR.xAPIToUse,%object @ @xNotifyArrayTaskFromISR.xAPIToUse
	.section	.bss.xNotifyArrayTaskFromISR.xAPIToUse,"aw",%nobits
	.p2align	2, 0x0
xNotifyArrayTaskFromISR.xAPIToUse:
	.long	0                               @ 0x0
	.size	xNotifyArrayTaskFromISR.xAPIToUse, 4

	.type	xNotifyArrayTaskFromISR.uxIndexToNotify,%object @ @xNotifyArrayTaskFromISR.uxIndexToNotify
	.section	.bss.xNotifyArrayTaskFromISR.uxIndexToNotify,"aw",%nobits
	.p2align	2, 0x0
xNotifyArrayTaskFromISR.uxIndexToNotify:
	.long	0                               @ 0x0
	.size	xNotifyArrayTaskFromISR.uxIndexToNotify, 4

	.type	xSendNotificationFromISR,%object @ @xSendNotificationFromISR
	.section	.bss.xSendNotificationFromISR,"aw",%nobits
	.p2align	5, 0x0
xSendNotificationFromISR:
	.zero	32
	.size	xSendNotificationFromISR, 32

	.type	xAreTaskNotificationArrayTasksStillRunning.ulLastFineCycleCount,%object @ @xAreTaskNotificationArrayTasksStillRunning.ulLastFineCycleCount
	.section	.bss.xAreTaskNotificationArrayTasksStillRunning.ulLastFineCycleCount,"aw",%nobits
	.p2align	2, 0x0
xAreTaskNotificationArrayTasksStillRunning.ulLastFineCycleCount:
	.long	0                               @ 0x0
	.size	xAreTaskNotificationArrayTasksStillRunning.ulLastFineCycleCount, 4

	.type	xAreTaskNotificationArrayTasksStillRunning.ulLastCourseCycleCount,%object @ @xAreTaskNotificationArrayTasksStillRunning.ulLastCourseCycleCount
	.section	.bss.xAreTaskNotificationArrayTasksStillRunning.ulLastCourseCycleCount,"aw",%nobits
	.p2align	2, 0x0
xAreTaskNotificationArrayTasksStillRunning.ulLastCourseCycleCount:
	.long	0                               @ 0x0
	.size	xAreTaskNotificationArrayTasksStillRunning.ulLastCourseCycleCount, 4

	.type	xAreTaskNotificationArrayTasksStillRunning.ulCallCount,%object @ @xAreTaskNotificationArrayTasksStillRunning.ulCallCount
	.section	.bss.xAreTaskNotificationArrayTasksStillRunning.ulCallCount,"aw",%nobits
	.p2align	2, 0x0
xAreTaskNotificationArrayTasksStillRunning.ulCallCount:
	.long	0                               @ 0x0
	.size	xAreTaskNotificationArrayTasksStillRunning.ulCallCount, 4

	.type	xAreTaskNotificationArrayTasksStillRunning.xErrorStatus,%object @ @xAreTaskNotificationArrayTasksStillRunning.xErrorStatus
	.section	.data.xAreTaskNotificationArrayTasksStillRunning.xErrorStatus,"aw",%progbits
	.p2align	2, 0x0
xAreTaskNotificationArrayTasksStillRunning.xErrorStatus:
	.long	1                               @ 0x1
	.size	xAreTaskNotificationArrayTasksStillRunning.xErrorStatus, 4

	.type	ulFineCycleCount,%object        @ @ulFineCycleCount
	.section	.bss.ulFineCycleCount,"aw",%nobits
	.p2align	5, 0x0
ulFineCycleCount:
	.zero	32
	.size	ulFineCycleCount, 32

	.type	ulCourseCycleCounter,%object    @ @ulCourseCycleCounter
	.section	.bss.ulCourseCycleCounter,"aw",%nobits
	.p2align	5, 0x0
ulCourseCycleCounter:
	.zero	32
	.size	ulCourseCycleCounter, 32

	.type	prvSuspendedTaskTimerTestCallback.ulCallCount,%object @ @prvSuspendedTaskTimerTestCallback.ulCallCount
	.section	.bss.prvSuspendedTaskTimerTestCallback.ulCallCount,"aw",%nobits
	.p2align	2, 0x0
prvSuspendedTaskTimerTestCallback.ulCallCount:
	.long	0                               @ 0x0
	.size	prvSuspendedTaskTimerTestCallback.ulCallCount, 4

	.type	prvSuspendedTaskTimerTestCallback.uxIndexToNotify,%object @ @prvSuspendedTaskTimerTestCallback.uxIndexToNotify
	.section	.bss.prvSuspendedTaskTimerTestCallback.uxIndexToNotify,"aw",%nobits
	.p2align	2, 0x0
prvSuspendedTaskTimerTestCallback.uxIndexToNotify:
	.long	0                               @ 0x0
	.size	prvSuspendedTaskTimerTestCallback.uxIndexToNotify, 4

	.type	prvNotifyingTimerCallback.uxIndexToNotify,%object @ @prvNotifyingTimerCallback.uxIndexToNotify
	.section	.bss.prvNotifyingTimerCallback.uxIndexToNotify,"aw",%nobits
	.p2align	2, 0x0
prvNotifyingTimerCallback.uxIndexToNotify:
	.long	0                               @ 0x0
	.size	prvNotifyingTimerCallback.uxIndexToNotify, 4

	.file	7 "C:\\Users\\karahulx\\Downloads\\Kernel\\FreeRTOS\\FreeRTOS\\Demo\\CORTEX_MPU_M23_Nuvoton_NuMaker_PFM_M2351_IAR_GCC\\Projects_NTZ\\Keil" "../../../../Source/include/projdefs.h"
	.file	8 "C:\\Users\\karahulx\\Downloads\\Kernel\\FreeRTOS\\FreeRTOS\\Demo\\CORTEX_MPU_M23_Nuvoton_NuMaker_PFM_M2351_IAR_GCC\\Projects_NTZ\\Keil" "../../../../Source/include\\FreeRTOS.h"
	.section	".note.GNU-stack","",%progbits
	.eabi_attribute	30, 6	@ Tag_ABI_optimization_goals
	.ARM_attribute	16, 1	@ Tag_AV_eba