	.text
	.syntax unified
	.eabi_attribute	67, "2.09"	@ Tag_conformance
	.eabi_attribute	6, 16	@ Tag_CPU_arch
	.eabi_attribute	7, 77	@ Tag_CPU_arch_profile
	.eabi_attribute	8, 0	@ Tag_ARM_ISA_use
	.eabi_attribute	9, 3	@ Tag_THUMB_ISA_use
	.eabi_attribute	34, 0	@ Tag_CPU_unaligned_access
	.eabi_attribute	17, 1	@ Tag_ABI_PCS_GOT_use
	.eabi_attribute	20, 2	@ Tag_ABI_FP_denormal
	.eabi_attribute	21, 0	@ Tag_ABI_FP_exceptions
	.eabi_attribute	23, 1	@ Tag_ABI_FP_number_model
	.eabi_attribute	24, 1	@ Tag_ABI_align_needed
	.eabi_attribute	25, 1	@ Tag_ABI_align_preserved
	.eabi_attribute	38, 1	@ Tag_ABI_FP_16bit_format
	.eabi_attribute	18, 4	@ Tag_ABI_PCS_wchar_t
	.eabi_attribute	26, 2	@ Tag_ABI_enum_size
	.eabi_attribute	14, 0	@ Tag_ABI_PCS_R9_use
	.file	"tasks.c"
	.file	1 "C:\\Keil_v5\\ARM\\ARMCLANG\\Bin\\..\\include" "stdint.h"
	.file	2 "C:\\Users\\karahulx\\Downloads\\Kernel\\FreeRTOS\\FreeRTOS\\Demo\\CORTEX_MPU_M23_Nuvoton_NuMaker_PFM_M2351_IAR_GCC\\Projects_NTZ\\Keil" "../../../../Source/portable/GCC/ARM_CM23_NTZ/non_secure/portmacrocommon.h"
	.file	3 "C:\\Users\\karahulx\\Downloads\\Kernel\\FreeRTOS\\FreeRTOS\\Demo\\CORTEX_MPU_M23_Nuvoton_NuMaker_PFM_M2351_IAR_GCC\\Projects_NTZ\\Keil" "../../../../Source/tasks.c"
	.file	4 "C:\\Users\\karahulx\\Downloads\\Kernel\\FreeRTOS\\FreeRTOS\\Demo\\CORTEX_MPU_M23_Nuvoton_NuMaker_PFM_M2351_IAR_GCC\\Projects_NTZ\\Keil" "../../../../Source/include/list.h"
	.file	5 "C:\\Users\\karahulx\\Downloads\\Kernel\\FreeRTOS\\FreeRTOS\\Demo\\CORTEX_MPU_M23_Nuvoton_NuMaker_PFM_M2351_IAR_GCC\\Projects_NTZ\\Keil" "../../../../Source/include/task.h"
	.file	6 "C:\\Keil_v5\\ARM\\ARMCLANG\\Bin\\..\\include" "stdlib.h"
	.file	7 "C:\\Users\\karahulx\\Downloads\\Kernel\\FreeRTOS\\FreeRTOS\\Demo\\CORTEX_MPU_M23_Nuvoton_NuMaker_PFM_M2351_IAR_GCC\\Projects_NTZ\\Keil" "../../../../Source/include\\FreeRTOS.h"
	.section	privileged_functions,"ax",%progbits
	.hidden	xTaskCreateStatic               @ -- Begin function xTaskCreateStatic
	.globl	xTaskCreateStatic
	.p2align	1
	.type	xTaskCreateStatic,%function
	.code	16                              @ @xTaskCreateStatic
	.thumb_func
xTaskCreateStatic:
.Lfunc_begin0:
	.loc	3 575 0                         @ ../../../../Source/tasks.c:575:0
	.fnstart
	.cfi_sections .debug_frame
	.cfi_startproc
@ %bb.0:
	.save	{r4, r5, r6, lr}
	push	{r4, r5, r6, lr}
	.cfi_def_cfa_offset 16
	.cfi_offset lr, -4
	.cfi_offset r6, -8
	.cfi_offset r5, -12
	.cfi_offset r4, -16
	.pad	#48
	sub	sp, #48
	.cfi_def_cfa_offset 64
	ldr	r4, [sp, #72]
	ldr	r4, [sp, #68]
	ldr	r4, [sp, #64]
	str	r0, [sp, #44]
	str	r1, [sp, #40]
	str	r2, [sp, #36]
	str	r3, [sp, #32]
.Ltmp0:
	.loc	3 579 9 prologue_end            @ ../../../../Source/tasks.c:579:9
	ldr	r0, [sp, #68]
.Ltmp1:
	.loc	3 579 9 is_stmt 0               @ ../../../../Source/tasks.c:579:9
	cbnz	r0, .LBB0_3
	b	.LBB0_1
.LBB0_1:
.Ltmp2:
	.loc	3 579 9                         @ ../../../../Source/tasks.c:579:9
	@APP
	cpsid i
	@NO_APP
	b	.LBB0_2
.LBB0_2:                                @ =>This Inner Loop Header: Depth=1
.Ltmp3:
	.loc	3 579 9                         @ ../../../../Source/tasks.c:579:9
	b	.LBB0_2
.Ltmp4:
.LBB0_3:
	.loc	3 580 9 is_stmt 1               @ ../../../../Source/tasks.c:580:9
	ldr	r0, [sp, #72]
.Ltmp5:
	.loc	3 580 9 is_stmt 0               @ ../../../../Source/tasks.c:580:9
	cbnz	r0, .LBB0_6
	b	.LBB0_4
.LBB0_4:
.Ltmp6:
	.loc	3 580 9                         @ ../../../../Source/tasks.c:580:9
	@APP
	cpsid i
	@NO_APP
	b	.LBB0_5
.LBB0_5:                                @ =>This Inner Loop Header: Depth=1
.Ltmp7:
	.loc	3 580 9                         @ ../../../../Source/tasks.c:580:9
	b	.LBB0_5
.Ltmp8:
.LBB0_6:
	.loc	3 0 9                           @ ../../../../Source/tasks.c:0:9
	movs	r0, #220
.Ltmp9:
	.loc	3 587 29 is_stmt 1              @ ../../../../Source/tasks.c:587:29
	str	r0, [sp, #20]
.Ltmp10:
	.loc	3 588 13                        @ ../../../../Source/tasks.c:588:13
	ldr	r0, [sp, #20]
.Ltmp11:
	.loc	3 588 13 is_stmt 0              @ ../../../../Source/tasks.c:588:13
	cmp	r0, #220
	beq	.LBB0_9
	b	.LBB0_7
.LBB0_7:
.Ltmp12:
	.loc	3 588 13                        @ ../../../../Source/tasks.c:588:13
	@APP
	cpsid i
	@NO_APP
	b	.LBB0_8
.LBB0_8:                                @ =>This Inner Loop Header: Depth=1
.Ltmp13:
	.loc	3 588 13                        @ ../../../../Source/tasks.c:588:13
	b	.LBB0_8
.Ltmp14:
.LBB0_9:
	.loc	3 589 22 is_stmt 1              @ ../../../../Source/tasks.c:589:22
	ldr	r0, [sp, #20]
.Ltmp15:
	.loc	3 593 15                        @ ../../../../Source/tasks.c:593:15
	ldr	r0, [sp, #72]
	.loc	3 593 38 is_stmt 0              @ ../../../../Source/tasks.c:593:38
	cbz	r0, .LBB0_12
	b	.LBB0_10
.LBB0_10:
	.loc	3 593 43                        @ ../../../../Source/tasks.c:593:43
	ldr	r0, [sp, #68]
.Ltmp16:
	.loc	3 593 13                        @ ../../../../Source/tasks.c:593:13
	cbz	r0, .LBB0_12
	b	.LBB0_11
.LBB0_11:
.Ltmp17:
	.loc	3 597 36 is_stmt 1              @ ../../../../Source/tasks.c:597:36
	ldr	r0, [sp, #72]
	.loc	3 597 22 is_stmt 0              @ ../../../../Source/tasks.c:597:22
	str	r0, [sp, #28]
	.loc	3 598 32 is_stmt 1              @ ../../../../Source/tasks.c:598:32
	ldr	r0, [sp, #28]
	movs	r1, #220
	.loc	3 598 13 is_stmt 0              @ ../../../../Source/tasks.c:598:13
	bl	__aeabi_memclr
	.loc	3 599 51 is_stmt 1              @ ../../../../Source/tasks.c:599:51
	ldr	r0, [sp, #68]
	.loc	3 599 13 is_stmt 0              @ ../../../../Source/tasks.c:599:13
	ldr	r1, [sp, #28]
	movs	r2, #168
	.loc	3 599 31                        @ ../../../../Source/tasks.c:599:31
	str	r0, [r1, r2]
.Ltmp18:
	.loc	3 605 17 is_stmt 1              @ ../../../../Source/tasks.c:605:17
	ldr	r1, [sp, #28]
	movs	r2, #215
	movs	r0, #2
	.loc	3 605 49 is_stmt 0              @ ../../../../Source/tasks.c:605:49
	strb	r0, [r1, r2]
.Ltmp19:
	.loc	3 609 35 is_stmt 1              @ ../../../../Source/tasks.c:609:35
	ldr	r0, [sp, #44]
	.loc	3 609 47 is_stmt 0              @ ../../../../Source/tasks.c:609:47
	ldr	r1, [sp, #40]
	.loc	3 609 55                        @ ../../../../Source/tasks.c:609:55
	ldr	r2, [sp, #36]
	.loc	3 609 69                        @ ../../../../Source/tasks.c:609:69
	ldr	r3, [sp, #32]
	.loc	3 609 83                        @ ../../../../Source/tasks.c:609:83
	ldr	r4, [sp, #64]
	.loc	3 609 105                       @ ../../../../Source/tasks.c:609:105
	ldr	r5, [sp, #28]
	movs	r6, #0
	.loc	3 609 13                        @ ../../../../Source/tasks.c:609:13
	str	r6, [sp, #12]
	str	r5, [sp, #8]
	add	r5, sp, #24
	str	r5, [sp, #4]
	str	r4, [sp]
	bl	prvInitialiseNewTask
	.loc	3 610 39 is_stmt 1              @ ../../../../Source/tasks.c:610:39
	ldr	r0, [sp, #28]
	.loc	3 610 13 is_stmt 0              @ ../../../../Source/tasks.c:610:13
	bl	prvAddNewTaskToReadyList
	.loc	3 611 9 is_stmt 1               @ ../../../../Source/tasks.c:611:9
	b	.LBB0_13
.Ltmp20:
.LBB0_12:
	.loc	3 0 9 is_stmt 0                 @ ../../../../Source/tasks.c:0:9
	movs	r0, #0
.Ltmp21:
	.loc	3 614 21 is_stmt 1              @ ../../../../Source/tasks.c:614:21
	str	r0, [sp, #24]
	b	.LBB0_13
.Ltmp22:
.LBB0_13:
	.loc	3 617 16                        @ ../../../../Source/tasks.c:617:16
	ldr	r0, [sp, #24]
	.loc	3 617 9 is_stmt 0               @ ../../../../Source/tasks.c:617:9
	add	sp, #48
	pop	{r4, r5, r6, pc}
.Ltmp23:
.Lfunc_end0:
	.size	xTaskCreateStatic, .Lfunc_end0-xTaskCreateStatic
	.cfi_endproc
	.cantunwind
	.fnend
                                        @ -- End function
	.p2align	1                               @ -- Begin function prvInitialiseNewTask
	.type	prvInitialiseNewTask,%function
	.code	16                              @ @prvInitialiseNewTask
	.thumb_func
prvInitialiseNewTask:
.Lfunc_begin1:
	.loc	3 828 0 is_stmt 1               @ ../../../../Source/tasks.c:828:0
	.fnstart
	.cfi_startproc
@ %bb.0:
	.save	{r4, r5, r7, lr}
	push	{r4, r5, r7, lr}
	.cfi_def_cfa_offset 16
	.cfi_offset lr, -4
	.cfi_offset r7, -8
	.cfi_offset r5, -12
	.cfi_offset r4, -16
	.pad	#48
	sub	sp, #48
	.cfi_def_cfa_offset 64
	ldr	r4, [sp, #76]
	ldr	r4, [sp, #72]
	ldr	r4, [sp, #68]
	ldr	r4, [sp, #64]
	str	r0, [sp, #44]
	str	r1, [sp, #40]
	str	r2, [sp, #36]
	str	r3, [sp, #32]
	add	r0, sp, #64
.Ltmp24:
	.loc	3 836 13 prologue_end           @ ../../../../Source/tasks.c:836:13
	ldrb	r0, [r0, #3]
	lsls	r0, r0, #24
	cmp	r0, #0
	bpl	.LBB1_2
	b	.LBB1_1
.LBB1_1:
	.loc	3 0 13 is_stmt 0                @ ../../../../Source/tasks.c:0:13
	movs	r0, #1
.Ltmp25:
	.loc	3 838 28 is_stmt 1              @ ../../../../Source/tasks.c:838:28
	str	r0, [sp, #20]
	.loc	3 839 9                         @ ../../../../Source/tasks.c:839:9
	b	.LBB1_3
.Ltmp26:
.LBB1_2:
	.loc	3 0 9 is_stmt 0                 @ ../../../../Source/tasks.c:0:9
	movs	r0, #0
.Ltmp27:
	.loc	3 842 28 is_stmt 1              @ ../../../../Source/tasks.c:842:28
	str	r0, [sp, #20]
	b	.LBB1_3
.Ltmp28:
.LBB1_3:
	.loc	3 844 20                        @ ../../../../Source/tasks.c:844:20
	ldr	r0, [sp, #64]
	movw	r1, #65535
	movt	r1, #32767
	ands	r0, r1
	str	r0, [sp, #64]
.Ltmp29:
	.loc	3 851 26                        @ ../../../../Source/tasks.c:851:26
	ldr	r0, [sp, #72]
	movs	r1, #168
	.loc	3 851 36 is_stmt 0              @ ../../../../Source/tasks.c:851:36
	str	r1, [sp, #16]                   @ 4-byte Spill
	ldr	r0, [r0, r1]
	.loc	3 851 84                        @ ../../../../Source/tasks.c:851:84
	ldr	r1, [sp, #36]
	.loc	3 851 97                        @ ../../../../Source/tasks.c:851:97
	lsls	r1, r1, #2
	movs	r2, #165
	.loc	3 851 18                        @ ../../../../Source/tasks.c:851:18
	bl	__aeabi_memset4
	ldr	r1, [sp, #16]                   @ 4-byte Reload
.Ltmp30:
	.loc	3 861 27 is_stmt 1              @ ../../../../Source/tasks.c:861:27
	ldr	r0, [sp, #72]
	.loc	3 861 37 is_stmt 0              @ ../../../../Source/tasks.c:861:37
	ldr	r1, [r0, r1]
	.loc	3 861 46                        @ ../../../../Source/tasks.c:861:46
	ldr	r0, [sp, #36]
	.loc	3 861 59                        @ ../../../../Source/tasks.c:861:59
	lsls	r0, r0, #2
	.loc	3 861 27                        @ ../../../../Source/tasks.c:861:27
	adds	r0, r0, r1
	subs	r0, r0, #4
	.loc	3 861 22                        @ ../../../../Source/tasks.c:861:22
	str	r0, [sp, #28]
	.loc	3 862 72 is_stmt 1              @ ../../../../Source/tasks.c:862:72
	ldr	r0, [sp, #28]
	movs	r1, #7
	.loc	3 862 87 is_stmt 0              @ ../../../../Source/tasks.c:862:87
	bics	r0, r1
	.loc	3 862 22                        @ ../../../../Source/tasks.c:862:22
	str	r0, [sp, #28]
	add	r0, sp, #28
.Ltmp31:
	.loc	3 865 9 is_stmt 1               @ ../../../../Source/tasks.c:865:9
	ldrb	r0, [r0]
.Ltmp32:
	.loc	3 865 9 is_stmt 0               @ ../../../../Source/tasks.c:865:9
	lsls	r0, r0, #29
	cbz	r0, .LBB1_6
	b	.LBB1_4
.LBB1_4:
.Ltmp33:
	.loc	3 865 9                         @ ../../../../Source/tasks.c:865:9
	@APP
	cpsid i
	@NO_APP
	b	.LBB1_5
.LBB1_5:                                @ =>This Inner Loop Header: Depth=1
.Ltmp34:
	.loc	3 865 9                         @ ../../../../Source/tasks.c:865:9
	b	.LBB1_5
.Ltmp35:
.LBB1_6:
	.loc	3 889 9 is_stmt 1               @ ../../../../Source/tasks.c:889:9
	ldr	r0, [sp, #40]
.Ltmp36:
	.loc	3 889 9 is_stmt 0               @ ../../../../Source/tasks.c:889:9
	cbz	r0, .LBB1_15
	b	.LBB1_7
.LBB1_7:
	.loc	3 0 9                           @ ../../../../Source/tasks.c:0:9
	movs	r0, #0
.Ltmp37:
	.loc	3 891 16 is_stmt 1              @ ../../../../Source/tasks.c:891:16
	str	r0, [sp, #24]
	.loc	3 891 14 is_stmt 0              @ ../../../../Source/tasks.c:891:14
	b	.LBB1_8
.LBB1_8:                                @ =>This Inner Loop Header: Depth=1
.Ltmp38:
	.loc	3 891 37                        @ ../../../../Source/tasks.c:891:37
	ldr	r0, [sp, #24]
.Ltmp39:
	.loc	3 891 9                         @ ../../../../Source/tasks.c:891:9
	cmp	r0, #11
	bhi	.LBB1_14
	b	.LBB1_9
.LBB1_9:                                @   in Loop: Header=BB1_8 Depth=1
.Ltmp40:
	.loc	3 893 41 is_stmt 1              @ ../../../../Source/tasks.c:893:41
	ldr	r0, [sp, #40]
	.loc	3 893 49 is_stmt 0              @ ../../../../Source/tasks.c:893:49
	ldr	r2, [sp, #24]
	.loc	3 893 41                        @ ../../../../Source/tasks.c:893:41
	ldrb	r0, [r0, r2]
	.loc	3 893 13                        @ ../../../../Source/tasks.c:893:13
	ldr	r1, [sp, #72]
	.loc	3 893 23                        @ ../../../../Source/tasks.c:893:23
	adds	r1, r1, r2
	movs	r2, #172
	.loc	3 893 39                        @ ../../../../Source/tasks.c:893:39
	strb	r0, [r1, r2]
.Ltmp41:
	.loc	3 898 17 is_stmt 1              @ ../../../../Source/tasks.c:898:17
	ldr	r0, [sp, #40]
	.loc	3 898 25 is_stmt 0              @ ../../../../Source/tasks.c:898:25
	ldr	r1, [sp, #24]
	.loc	3 898 17                        @ ../../../../Source/tasks.c:898:17
	ldrb	r0, [r0, r1]
.Ltmp42:
	.loc	3 898 17                        @ ../../../../Source/tasks.c:898:17
	cbnz	r0, .LBB1_11
	b	.LBB1_10
.LBB1_10:
.Ltmp43:
	.loc	3 900 17 is_stmt 1              @ ../../../../Source/tasks.c:900:17
	b	.LBB1_14
.Ltmp44:
.LBB1_11:                               @   in Loop: Header=BB1_8 Depth=1
	.loc	3 0 17 is_stmt 0                @ ../../../../Source/tasks.c:0:17
	b	.LBB1_12
.LBB1_12:                               @   in Loop: Header=BB1_8 Depth=1
	.loc	3 906 9 is_stmt 1               @ ../../../../Source/tasks.c:906:9
	b	.LBB1_13
.Ltmp45:
.LBB1_13:                               @   in Loop: Header=BB1_8 Depth=1
	.loc	3 891 83                        @ ../../../../Source/tasks.c:891:83
	ldr	r0, [sp, #24]
	adds	r0, r0, #1
	str	r0, [sp, #24]
	.loc	3 891 9 is_stmt 0               @ ../../../../Source/tasks.c:891:9
	b	.LBB1_8
.Ltmp46:
.LBB1_14:
	.loc	3 910 9 is_stmt 1               @ ../../../../Source/tasks.c:910:9
	ldr	r1, [sp, #72]
	movs	r2, #183
	movs	r0, #0
	.loc	3 910 61 is_stmt 0              @ ../../../../Source/tasks.c:910:61
	strb	r0, [r1, r2]
	.loc	3 911 5 is_stmt 1               @ ../../../../Source/tasks.c:911:5
	b	.LBB1_16
.Ltmp47:
.LBB1_15:
	.loc	3 0 5 is_stmt 0                 @ ../../../../Source/tasks.c:0:5
	b	.LBB1_16
.LBB1_16:
.Ltmp48:
	.loc	3 918 5 is_stmt 1               @ ../../../../Source/tasks.c:918:5
	ldr	r0, [sp, #64]
.Ltmp49:
	.loc	3 918 5 is_stmt 0               @ ../../../../Source/tasks.c:918:5
	cmp	r0, #5
	blo	.LBB1_19
	b	.LBB1_17
.LBB1_17:
.Ltmp50:
	.loc	3 918 5                         @ ../../../../Source/tasks.c:918:5
	@APP
	cpsid i
	@NO_APP
	b	.LBB1_18
.LBB1_18:                               @ =>This Inner Loop Header: Depth=1
.Ltmp51:
	.loc	3 918 5                         @ ../../../../Source/tasks.c:918:5
	b	.LBB1_18
.Ltmp52:
.LBB1_19:
	.loc	3 920 9 is_stmt 1               @ ../../../../Source/tasks.c:920:9
	ldr	r0, [sp, #64]
.Ltmp53:
	.loc	3 920 9 is_stmt 0               @ ../../../../Source/tasks.c:920:9
	cmp	r0, #5
	blo	.LBB1_21
	b	.LBB1_20
.LBB1_20:
	.loc	3 0 9                           @ ../../../../Source/tasks.c:0:9
	movs	r0, #4
.Ltmp54:
	.loc	3 922 20 is_stmt 1              @ ../../../../Source/tasks.c:922:20
	str	r0, [sp, #64]
	.loc	3 923 5                         @ ../../../../Source/tasks.c:923:5
	b	.LBB1_22
.Ltmp55:
.LBB1_21:
	.loc	3 0 5 is_stmt 0                 @ ../../../../Source/tasks.c:0:5
	b	.LBB1_22
.LBB1_22:
	.loc	3 929 28 is_stmt 1              @ ../../../../Source/tasks.c:929:28
	ldr	r0, [sp, #64]
	.loc	3 929 5 is_stmt 0               @ ../../../../Source/tasks.c:929:5
	ldr	r1, [sp, #72]
	movs	r2, #164
	.loc	3 929 26                        @ ../../../../Source/tasks.c:929:26
	str	r0, [r1, r2]
.Ltmp56:
	.loc	3 932 36 is_stmt 1              @ ../../../../Source/tasks.c:932:36
	ldr	r0, [sp, #64]
	.loc	3 932 9 is_stmt 0               @ ../../../../Source/tasks.c:932:9
	ldr	r1, [sp, #72]
	movs	r2, #192
	.loc	3 932 34                        @ ../../../../Source/tasks.c:932:34
	str	r0, [r1, r2]
.Ltmp57:
	.loc	3 936 29 is_stmt 1              @ ../../../../Source/tasks.c:936:29
	ldr	r0, [sp, #72]
	.loc	3 936 39 is_stmt 0              @ ../../../../Source/tasks.c:936:39
	adds	r0, #124
	.loc	3 936 5                         @ ../../../../Source/tasks.c:936:5
	bl	vListInitialiseItem
	.loc	3 937 29 is_stmt 1              @ ../../../../Source/tasks.c:937:29
	ldr	r0, [sp, #72]
	.loc	3 937 39 is_stmt 0              @ ../../../../Source/tasks.c:937:39
	adds	r0, #144
	.loc	3 937 5                         @ ../../../../Source/tasks.c:937:5
	bl	vListInitialiseItem
	.loc	3 941 5 is_stmt 1               @ ../../../../Source/tasks.c:941:5
	ldr	r0, [sp, #72]
	movs	r1, #136
	str	r0, [r0, r1]
	.loc	3 944 5                         @ ../../../../Source/tasks.c:944:5
	ldr	r1, [sp, #64]
	movs	r0, #5
	subs	r0, r0, r1
	ldr	r1, [sp, #72]
	movs	r2, #144
	str	r0, [r1, r2]
	.loc	3 945 5                         @ ../../../../Source/tasks.c:945:5
	ldr	r0, [sp, #72]
	movs	r1, #156
	str	r0, [r0, r1]
.Ltmp58:
	.loc	3 949 39                        @ ../../../../Source/tasks.c:949:39
	ldr	r2, [sp, #72]
	.loc	3 949 49 is_stmt 0              @ ../../../../Source/tasks.c:949:49
	adds	r0, r2, #4
	.loc	3 949 65                        @ ../../../../Source/tasks.c:949:65
	ldr	r1, [sp, #76]
	movs	r3, #168
	.loc	3 949 85                        @ ../../../../Source/tasks.c:949:85
	str	r3, [sp, #12]                   @ 4-byte Spill
	ldr	r2, [r2, r3]
	.loc	3 949 94                        @ ../../../../Source/tasks.c:949:94
	ldr	r3, [sp, #36]
	.loc	3 949 9                         @ ../../../../Source/tasks.c:949:9
	bl	vPortStoreTaskMPUSettings
	ldr	r1, [sp, #12]                   @ 4-byte Reload
.Ltmp59:
	.loc	3 978 65 is_stmt 1              @ ../../../../Source/tasks.c:978:65
	ldr	r0, [sp, #28]
	.loc	3 978 79 is_stmt 0              @ ../../../../Source/tasks.c:978:79
	ldr	r5, [sp, #72]
	.loc	3 978 89                        @ ../../../../Source/tasks.c:978:89
	ldr	r1, [r5, r1]
	.loc	3 978 98                        @ ../../../../Source/tasks.c:978:98
	ldr	r2, [sp, #44]
	.loc	3 978 110                       @ ../../../../Source/tasks.c:978:110
	ldr	r3, [sp, #32]
	.loc	3 978 124                       @ ../../../../Source/tasks.c:978:124
	ldr	r4, [sp, #20]
	.loc	3 978 153                       @ ../../../../Source/tasks.c:978:153
	adds	r5, r5, #4
	.loc	3 978 42                        @ ../../../../Source/tasks.c:978:42
	str	r5, [sp, #4]
	str	r4, [sp]
	bl	pxPortInitialiseStack
	.loc	3 978 17                        @ ../../../../Source/tasks.c:978:17
	ldr	r1, [sp, #72]
	.loc	3 978 40                        @ ../../../../Source/tasks.c:978:40
	str	r0, [r1]
.Ltmp60:
	.loc	3 1017 9 is_stmt 1              @ ../../../../Source/tasks.c:1017:9
	ldr	r0, [sp, #68]
.Ltmp61:
	.loc	3 1017 9 is_stmt 0              @ ../../../../Source/tasks.c:1017:9
	cbz	r0, .LBB1_24
	b	.LBB1_23
.LBB1_23:
.Ltmp62:
	.loc	3 1021 43 is_stmt 1             @ ../../../../Source/tasks.c:1021:43
	ldr	r0, [sp, #72]
	.loc	3 1021 10 is_stmt 0             @ ../../../../Source/tasks.c:1021:10
	ldr	r1, [sp, #68]
	.loc	3 1021 24                       @ ../../../../Source/tasks.c:1021:24
	str	r0, [r1]
	.loc	3 1022 5 is_stmt 1              @ ../../../../Source/tasks.c:1022:5
	b	.LBB1_25
.Ltmp63:
.LBB1_24:
	.loc	3 0 5 is_stmt 0                 @ ../../../../Source/tasks.c:0:5
	b	.LBB1_25
.LBB1_25:
	.loc	3 1027 1 is_stmt 1              @ ../../../../Source/tasks.c:1027:1
	add	sp, #48
	pop	{r4, r5, r7, pc}
.Ltmp64:
.Lfunc_end1:
	.size	prvInitialiseNewTask, .Lfunc_end1-prvInitialiseNewTask
	.cfi_endproc
	.cantunwind
	.fnend
                                        @ -- End function
	.p2align	1                               @ -- Begin function prvAddNewTaskToReadyList
	.type	prvAddNewTaskToReadyList,%function
	.code	16                              @ @prvAddNewTaskToReadyList
	.thumb_func
prvAddNewTaskToReadyList:
.Lfunc_begin2:
	.loc	3 1031 0                        @ ../../../../Source/tasks.c:1031:0
	.fnstart
	.cfi_startproc
@ %bb.0:
	.save	{r4, r5, r7, lr}
	push	{r4, r5, r7, lr}
	.cfi_def_cfa_offset 16
	.cfi_offset lr, -4
	.cfi_offset r7, -8
	.cfi_offset r5, -12
	.cfi_offset r4, -16
	.pad	#8
	sub	sp, #8
	.cfi_def_cfa_offset 24
	str	r0, [sp, #4]
.Ltmp65:
	.loc	3 1034 5 prologue_end           @ ../../../../Source/tasks.c:1034:5
	bl	vPortEnterCritical
.Ltmp66:
	.loc	3 1036 31                       @ ../../../../Source/tasks.c:1036:31
	movw	r1, :lower16:uxCurrentNumberOfTasks
	movt	r1, :upper16:uxCurrentNumberOfTasks
	ldr	r0, [r1]
	adds	r0, r0, #1
	str	r0, [r1]
.Ltmp67:
	.loc	3 1038 13                       @ ../../../../Source/tasks.c:1038:13
	movw	r0, :lower16:pxCurrentTCB
	movt	r0, :upper16:pxCurrentTCB
	ldr	r0, [r0]
.Ltmp68:
	.loc	3 1038 13 is_stmt 0             @ ../../../../Source/tasks.c:1038:13
	cbnz	r0, .LBB2_5
	b	.LBB2_1
.LBB2_1:
.Ltmp69:
	.loc	3 1042 28 is_stmt 1             @ ../../../../Source/tasks.c:1042:28
	ldr	r0, [sp, #4]
	.loc	3 1042 26 is_stmt 0             @ ../../../../Source/tasks.c:1042:26
	movw	r1, :lower16:pxCurrentTCB
	movt	r1, :upper16:pxCurrentTCB
	str	r0, [r1]
.Ltmp70:
	.loc	3 1044 17 is_stmt 1             @ ../../../../Source/tasks.c:1044:17
	movw	r0, :lower16:uxCurrentNumberOfTasks
	movt	r0, :upper16:uxCurrentNumberOfTasks
	ldr	r0, [r0]
.Ltmp71:
	.loc	3 1044 17 is_stmt 0             @ ../../../../Source/tasks.c:1044:17
	cmp	r0, #1
	bne	.LBB2_3
	b	.LBB2_2
.LBB2_2:
.Ltmp72:
	.loc	3 1049 17 is_stmt 1             @ ../../../../Source/tasks.c:1049:17
	bl	prvInitialiseTaskLists
	.loc	3 1050 13                       @ ../../../../Source/tasks.c:1050:13
	b	.LBB2_4
.Ltmp73:
.LBB2_3:
	.loc	3 0 13 is_stmt 0                @ ../../../../Source/tasks.c:0:13
	b	.LBB2_4
.LBB2_4:
	.loc	3 1055 9 is_stmt 1              @ ../../../../Source/tasks.c:1055:9
	b	.LBB2_12
.Ltmp74:
.LBB2_5:
	.loc	3 1061 17                       @ ../../../../Source/tasks.c:1061:17
	movw	r0, :lower16:xSchedulerRunning
	movt	r0, :upper16:xSchedulerRunning
	ldr	r0, [r0]
.Ltmp75:
	.loc	3 1061 17 is_stmt 0             @ ../../../../Source/tasks.c:1061:17
	cbnz	r0, .LBB2_10
	b	.LBB2_6
.LBB2_6:
.Ltmp76:
	.loc	3 1063 21 is_stmt 1             @ ../../../../Source/tasks.c:1063:21
	movw	r0, :lower16:pxCurrentTCB
	movt	r0, :upper16:pxCurrentTCB
	ldr	r0, [r0]
	movs	r2, #164
	.loc	3 1063 35 is_stmt 0             @ ../../../../Source/tasks.c:1063:35
	ldr	r0, [r0, r2]
	.loc	3 1063 49                       @ ../../../../Source/tasks.c:1063:49
	ldr	r1, [sp, #4]
	.loc	3 1063 59                       @ ../../../../Source/tasks.c:1063:59
	ldr	r1, [r1, r2]
.Ltmp77:
	.loc	3 1063 21                       @ ../../../../Source/tasks.c:1063:21
	cmp	r0, r1
	bhi	.LBB2_8
	b	.LBB2_7
.LBB2_7:
.Ltmp78:
	.loc	3 1065 36 is_stmt 1             @ ../../../../Source/tasks.c:1065:36
	ldr	r0, [sp, #4]
	.loc	3 1065 34 is_stmt 0             @ ../../../../Source/tasks.c:1065:34
	movw	r1, :lower16:pxCurrentTCB
	movt	r1, :upper16:pxCurrentTCB
	str	r0, [r1]
	.loc	3 1066 17 is_stmt 1             @ ../../../../Source/tasks.c:1066:17
	b	.LBB2_9
.Ltmp79:
.LBB2_8:
	.loc	3 0 17 is_stmt 0                @ ../../../../Source/tasks.c:0:17
	b	.LBB2_9
.LBB2_9:
	.loc	3 1071 13 is_stmt 1             @ ../../../../Source/tasks.c:1071:13
	b	.LBB2_11
.Ltmp80:
.LBB2_10:
	.loc	3 0 13 is_stmt 0                @ ../../../../Source/tasks.c:0:13
	b	.LBB2_11
.LBB2_11:
	b	.LBB2_12
.LBB2_12:
	.loc	3 1078 21 is_stmt 1             @ ../../../../Source/tasks.c:1078:21
	movw	r0, :lower16:uxTaskNumber
	movt	r0, :upper16:uxTaskNumber
	ldr	r1, [r0]
	adds	r1, r1, #1
	str	r1, [r0]
.Ltmp81:
	.loc	3 1083 37                       @ ../../../../Source/tasks.c:1083:37
	ldr	r0, [r0]
	.loc	3 1083 13 is_stmt 0             @ ../../../../Source/tasks.c:1083:13
	ldr	r1, [sp, #4]
	movs	r2, #184
	.loc	3 1083 35                       @ ../../../../Source/tasks.c:1083:35
	str	r0, [r1, r2]
.Ltmp82:
	.loc	3 1088 9 is_stmt 1              @ ../../../../Source/tasks.c:1088:9
	b	.LBB2_13
.LBB2_13:
.Ltmp83:
	.loc	3 1088 9 is_stmt 0              @ ../../../../Source/tasks.c:1088:9
	ldr	r0, [sp, #4]
	movs	r1, #164
	ldr	r0, [r0, r1]
	movw	r1, :lower16:uxTopReadyPriority
	movt	r1, :upper16:uxTopReadyPriority
	ldr	r1, [r1]
.Ltmp84:
	.loc	3 1088 9                        @ ../../../../Source/tasks.c:1088:9
	cmp	r0, r1
	bls	.LBB2_15
	b	.LBB2_14
.LBB2_14:
.Ltmp85:
	.loc	3 1088 9                        @ ../../../../Source/tasks.c:1088:9
	ldr	r0, [sp, #4]
	movs	r1, #164
	ldr	r0, [r0, r1]
	movw	r1, :lower16:uxTopReadyPriority
	movt	r1, :upper16:uxTopReadyPriority
	str	r0, [r1]
	b	.LBB2_15
.Ltmp86:
.LBB2_15:
	.loc	3 1088 9                        @ ../../../../Source/tasks.c:1088:9
	b	.LBB2_16
.LBB2_16:
.Ltmp87:
	.loc	3 1088 9                        @ ../../../../Source/tasks.c:1088:9
	ldr	r0, [sp, #4]
	movs	r3, #164
	ldr	r1, [r0, r3]
	movs	r2, #20
	mov	r0, r2
	muls	r0, r1, r0
	movw	r1, :lower16:pxReadyTasksLists
	movt	r1, :upper16:pxReadyTasksLists
	adds	r0, r1, r0
	ldr	r0, [r0, #4]
	str	r0, [sp]
	ldr	r0, [sp]
	ldr	r4, [sp, #4]
	movs	r5, #128
	str	r0, [r4, r5]
	ldr	r0, [sp]
	ldr	r0, [r0, #8]
	ldr	r4, [sp, #4]
	movs	r5, #132
	str	r0, [r4, r5]
	ldr	r0, [sp, #4]
	adds	r0, #124
	ldr	r4, [sp]
	ldr	r4, [r4, #8]
	str	r0, [r4, #4]
	ldr	r0, [sp, #4]
	adds	r0, #124
	ldr	r4, [sp]
	str	r0, [r4, #8]
	ldr	r4, [sp, #4]
	ldr	r5, [r4, r3]
	mov	r0, r2
	muls	r0, r5, r0
	adds	r0, r1, r0
	movs	r5, #140
	str	r0, [r4, r5]
	ldr	r0, [sp, #4]
	ldr	r0, [r0, r3]
	muls	r2, r0, r2
	ldr	r0, [r1, r2]
	adds	r0, r0, #1
	str	r0, [r1, r2]
	b	.LBB2_17
.Ltmp88:
.LBB2_17:
	.loc	3 1088 9                        @ ../../../../Source/tasks.c:1088:9
	b	.LBB2_18
.Ltmp89:
.LBB2_18:
	.loc	3 1092 5 is_stmt 1              @ ../../../../Source/tasks.c:1092:5
	bl	vPortExitCritical
.Ltmp90:
	.loc	3 1094 9                        @ ../../../../Source/tasks.c:1094:9
	movw	r0, :lower16:xSchedulerRunning
	movt	r0, :upper16:xSchedulerRunning
	ldr	r0, [r0]
.Ltmp91:
	.loc	3 1094 9 is_stmt 0              @ ../../../../Source/tasks.c:1094:9
	cbz	r0, .LBB2_23
	b	.LBB2_19
.LBB2_19:
.Ltmp92:
	.loc	3 1098 13 is_stmt 1             @ ../../../../Source/tasks.c:1098:13
	movw	r0, :lower16:pxCurrentTCB
	movt	r0, :upper16:pxCurrentTCB
	ldr	r0, [r0]
	movs	r2, #164
	.loc	3 1098 27 is_stmt 0             @ ../../../../Source/tasks.c:1098:27
	ldr	r0, [r0, r2]
	.loc	3 1098 40                       @ ../../../../Source/tasks.c:1098:40
	ldr	r1, [sp, #4]
	.loc	3 1098 50                       @ ../../../../Source/tasks.c:1098:50
	ldr	r1, [r1, r2]
.Ltmp93:
	.loc	3 1098 13                       @ ../../../../Source/tasks.c:1098:13
	cmp	r0, r1
	bhs	.LBB2_21
	b	.LBB2_20
.LBB2_20:
.Ltmp94:
	.loc	3 1100 13 is_stmt 1             @ ../../../../Source/tasks.c:1100:13
	bl	vPortYield
	.loc	3 1101 9                        @ ../../../../Source/tasks.c:1101:9
	b	.LBB2_22
.Ltmp95:
.LBB2_21:
	.loc	3 0 9 is_stmt 0                 @ ../../../../Source/tasks.c:0:9
	b	.LBB2_22
.LBB2_22:
	.loc	3 1106 5 is_stmt 1              @ ../../../../Source/tasks.c:1106:5
	b	.LBB2_24
.Ltmp96:
.LBB2_23:
	.loc	3 0 5 is_stmt 0                 @ ../../../../Source/tasks.c:0:5
	b	.LBB2_24
.LBB2_24:
	.loc	3 1111 1 is_stmt 1              @ ../../../../Source/tasks.c:1111:1
	add	sp, #8
	pop	{r4, r5, r7, pc}
.Ltmp97:
.Lfunc_end2:
	.size	prvAddNewTaskToReadyList, .Lfunc_end2-prvAddNewTaskToReadyList
	.cfi_endproc
	.cantunwind
	.fnend
                                        @ -- End function
	.hidden	xTaskCreateRestrictedStatic     @ -- Begin function xTaskCreateRestrictedStatic
	.globl	xTaskCreateRestrictedStatic
	.p2align	1
	.type	xTaskCreateRestrictedStatic,%function
	.code	16                              @ @xTaskCreateRestrictedStatic
	.thumb_func
xTaskCreateRestrictedStatic:
.Lfunc_begin3:
	.loc	3 627 0                         @ ../../../../Source/tasks.c:627:0
	.fnstart
	.cfi_startproc
@ %bb.0:
	.save	{r4, r5, r6, r7, lr}
	push	{r4, r5, r6, r7, lr}
	.cfi_def_cfa_offset 20
	.cfi_offset lr, -4
	.cfi_offset r7, -8
	.cfi_offset r6, -12
	.cfi_offset r5, -16
	.cfi_offset r4, -20
	.pad	#36
	sub	sp, #36
	.cfi_def_cfa_offset 56
	str	r0, [sp, #32]
	str	r1, [sp, #28]
	movs	r0, #0
	mvns	r0, r0
.Ltmp98:
	.loc	3 629 20 prologue_end           @ ../../../../Source/tasks.c:629:20
	str	r0, [sp, #20]
.Ltmp99:
	.loc	3 631 9                         @ ../../../../Source/tasks.c:631:9
	ldr	r0, [sp, #32]
	ldr	r0, [r0, #20]
.Ltmp100:
	.loc	3 631 9 is_stmt 0               @ ../../../../Source/tasks.c:631:9
	cbnz	r0, .LBB3_3
	b	.LBB3_1
.LBB3_1:
.Ltmp101:
	.loc	3 631 9                         @ ../../../../Source/tasks.c:631:9
	@APP
	cpsid i
	@NO_APP
	b	.LBB3_2
.LBB3_2:                                @ =>This Inner Loop Header: Depth=1
.Ltmp102:
	.loc	3 631 9                         @ ../../../../Source/tasks.c:631:9
	b	.LBB3_2
.Ltmp103:
.LBB3_3:
	.loc	3 632 9 is_stmt 1               @ ../../../../Source/tasks.c:632:9
	ldr	r0, [sp, #32]
	ldr	r0, [r0, #60]
.Ltmp104:
	.loc	3 632 9 is_stmt 0               @ ../../../../Source/tasks.c:632:9
	cbnz	r0, .LBB3_6
	b	.LBB3_4
.LBB3_4:
.Ltmp105:
	.loc	3 632 9                         @ ../../../../Source/tasks.c:632:9
	@APP
	cpsid i
	@NO_APP
	b	.LBB3_5
.LBB3_5:                                @ =>This Inner Loop Header: Depth=1
.Ltmp106:
	.loc	3 632 9                         @ ../../../../Source/tasks.c:632:9
	b	.LBB3_5
.Ltmp107:
.LBB3_6:
	.loc	3 634 15 is_stmt 1              @ ../../../../Source/tasks.c:634:15
	ldr	r0, [sp, #32]
	.loc	3 634 33 is_stmt 0              @ ../../../../Source/tasks.c:634:33
	ldr	r0, [r0, #20]
	.loc	3 634 58                        @ ../../../../Source/tasks.c:634:58
	cbz	r0, .LBB3_9
	b	.LBB3_7
.LBB3_7:
	.loc	3 634 63                        @ ../../../../Source/tasks.c:634:63
	ldr	r0, [sp, #32]
	.loc	3 634 81                        @ ../../../../Source/tasks.c:634:81
	ldr	r0, [r0, #60]
.Ltmp108:
	.loc	3 634 13                        @ ../../../../Source/tasks.c:634:13
	cbz	r0, .LBB3_9
	b	.LBB3_8
.LBB3_8:
.Ltmp109:
	.loc	3 639 36 is_stmt 1              @ ../../../../Source/tasks.c:639:36
	ldr	r0, [sp, #32]
	.loc	3 639 54 is_stmt 0              @ ../../../../Source/tasks.c:639:54
	ldr	r0, [r0, #60]
	.loc	3 639 22                        @ ../../../../Source/tasks.c:639:22
	str	r0, [sp, #24]
	.loc	3 640 32 is_stmt 1              @ ../../../../Source/tasks.c:640:32
	ldr	r0, [sp, #24]
	movs	r1, #220
	.loc	3 640 13 is_stmt 0              @ ../../../../Source/tasks.c:640:13
	bl	__aeabi_memclr
	.loc	3 643 33 is_stmt 1              @ ../../../../Source/tasks.c:643:33
	ldr	r0, [sp, #32]
	.loc	3 643 51 is_stmt 0              @ ../../../../Source/tasks.c:643:51
	ldr	r0, [r0, #20]
	.loc	3 643 13                        @ ../../../../Source/tasks.c:643:13
	ldr	r1, [sp, #24]
	movs	r2, #168
	.loc	3 643 31                        @ ../../../../Source/tasks.c:643:31
	str	r0, [r1, r2]
.Ltmp110:
	.loc	3 649 17 is_stmt 1              @ ../../../../Source/tasks.c:649:17
	ldr	r1, [sp, #24]
	movs	r2, #215
	movs	r0, #2
	.loc	3 649 49 is_stmt 0              @ ../../../../Source/tasks.c:649:49
	strb	r0, [r1, r2]
.Ltmp111:
	.loc	3 653 35 is_stmt 1              @ ../../../../Source/tasks.c:653:35
	ldr	r7, [sp, #32]
	.loc	3 653 53 is_stmt 0              @ ../../../../Source/tasks.c:653:53
	ldr	r0, [r7]
	.loc	3 654 53 is_stmt 1              @ ../../../../Source/tasks.c:654:53
	ldr	r1, [r7, #4]
	.loc	3 655 66                        @ ../../../../Source/tasks.c:655:66
	ldrh	r2, [r7, #8]
	.loc	3 656 53                        @ ../../../../Source/tasks.c:656:53
	ldr	r3, [r7, #12]
	.loc	3 657 53                        @ ../../../../Source/tasks.c:657:53
	ldr	r4, [r7, #16]
	.loc	3 658 35                        @ ../../../../Source/tasks.c:658:35
	ldr	r5, [sp, #28]
	.loc	3 658 50 is_stmt 0              @ ../../../../Source/tasks.c:658:50
	ldr	r6, [sp, #24]
	.loc	3 659 53 is_stmt 1              @ ../../../../Source/tasks.c:659:53
	adds	r7, #24
	.loc	3 653 13                        @ ../../../../Source/tasks.c:653:13
	str	r7, [sp, #12]
	str	r6, [sp, #8]
	str	r5, [sp, #4]
	str	r4, [sp]
	bl	prvInitialiseNewTask
	.loc	3 661 39                        @ ../../../../Source/tasks.c:661:39
	ldr	r0, [sp, #24]
	.loc	3 661 13 is_stmt 0              @ ../../../../Source/tasks.c:661:13
	bl	prvAddNewTaskToReadyList
	movs	r0, #1
	.loc	3 662 21 is_stmt 1              @ ../../../../Source/tasks.c:662:21
	str	r0, [sp, #20]
	.loc	3 663 9                         @ ../../../../Source/tasks.c:663:9
	b	.LBB3_9
.Ltmp112:
.LBB3_9:
	.loc	3 665 16                        @ ../../../../Source/tasks.c:665:16
	ldr	r0, [sp, #20]
	.loc	3 665 9 is_stmt 0               @ ../../../../Source/tasks.c:665:9
	add	sp, #36
	pop	{r4, r5, r6, r7, pc}
.Ltmp113:
.Lfunc_end3:
	.size	xTaskCreateRestrictedStatic, .Lfunc_end3-xTaskCreateRestrictedStatic
	.cfi_endproc
	.cantunwind
	.fnend
                                        @ -- End function
	.hidden	xTaskCreateRestricted           @ -- Begin function xTaskCreateRestricted
	.globl	xTaskCreateRestricted
	.p2align	1
	.type	xTaskCreateRestricted,%function
	.code	16                              @ @xTaskCreateRestricted
	.thumb_func
xTaskCreateRestricted:
.Lfunc_begin4:
	.loc	3 675 0 is_stmt 1               @ ../../../../Source/tasks.c:675:0
	.fnstart
	.cfi_startproc
@ %bb.0:
	.save	{r4, r5, r6, r7, lr}
	push	{r4, r5, r6, r7, lr}
	.cfi_def_cfa_offset 20
	.cfi_offset lr, -4
	.cfi_offset r7, -8
	.cfi_offset r6, -12
	.cfi_offset r5, -16
	.cfi_offset r4, -20
	.pad	#36
	sub	sp, #36
	.cfi_def_cfa_offset 56
	str	r0, [sp, #32]
	str	r1, [sp, #28]
	movs	r0, #0
	mvns	r0, r0
.Ltmp114:
	.loc	3 677 20 prologue_end           @ ../../../../Source/tasks.c:677:20
	str	r0, [sp, #20]
.Ltmp115:
	.loc	3 679 9                         @ ../../../../Source/tasks.c:679:9
	ldr	r0, [sp, #32]
	ldr	r0, [r0, #20]
.Ltmp116:
	.loc	3 679 9 is_stmt 0               @ ../../../../Source/tasks.c:679:9
	cbnz	r0, .LBB4_3
	b	.LBB4_1
.LBB4_1:
.Ltmp117:
	.loc	3 679 9                         @ ../../../../Source/tasks.c:679:9
	@APP
	cpsid i
	@NO_APP
	b	.LBB4_2
.LBB4_2:                                @ =>This Inner Loop Header: Depth=1
.Ltmp118:
	.loc	3 679 9                         @ ../../../../Source/tasks.c:679:9
	b	.LBB4_2
.Ltmp119:
.LBB4_3:
	.loc	3 681 13 is_stmt 1              @ ../../../../Source/tasks.c:681:13
	ldr	r0, [sp, #32]
	.loc	3 681 31 is_stmt 0              @ ../../../../Source/tasks.c:681:31
	ldr	r0, [r0, #20]
.Ltmp120:
	.loc	3 681 13                        @ ../../../../Source/tasks.c:681:13
	cbz	r0, .LBB4_7
	b	.LBB4_4
.LBB4_4:
	.loc	3 0 13                          @ ../../../../Source/tasks.c:0:13
	movs	r0, #220
.Ltmp121:
	.loc	3 686 36 is_stmt 1              @ ../../../../Source/tasks.c:686:36
	bl	pvPortMalloc
	.loc	3 686 22 is_stmt 0              @ ../../../../Source/tasks.c:686:22
	str	r0, [sp, #24]
.Ltmp122:
	.loc	3 688 17 is_stmt 1              @ ../../../../Source/tasks.c:688:17
	ldr	r0, [sp, #24]
.Ltmp123:
	.loc	3 688 17 is_stmt 0              @ ../../../../Source/tasks.c:688:17
	cbz	r0, .LBB4_6
	b	.LBB4_5
.LBB4_5:
.Ltmp124:
	.loc	3 690 36 is_stmt 1              @ ../../../../Source/tasks.c:690:36
	ldr	r0, [sp, #24]
	movs	r1, #220
	.loc	3 690 17 is_stmt 0              @ ../../../../Source/tasks.c:690:17
	bl	__aeabi_memclr
	.loc	3 693 37 is_stmt 1              @ ../../../../Source/tasks.c:693:37
	ldr	r0, [sp, #32]
	.loc	3 693 55 is_stmt 0              @ ../../../../Source/tasks.c:693:55
	ldr	r0, [r0, #20]
	.loc	3 693 17                        @ ../../../../Source/tasks.c:693:17
	ldr	r1, [sp, #24]
	movs	r2, #168
	.loc	3 693 35                        @ ../../../../Source/tasks.c:693:35
	str	r0, [r1, r2]
.Ltmp125:
	.loc	3 700 21 is_stmt 1              @ ../../../../Source/tasks.c:700:21
	ldr	r1, [sp, #24]
	movs	r2, #215
	movs	r0, #1
	.loc	3 700 53 is_stmt 0              @ ../../../../Source/tasks.c:700:53
	str	r0, [sp, #16]                   @ 4-byte Spill
	strb	r0, [r1, r2]
.Ltmp126:
	.loc	3 704 39 is_stmt 1              @ ../../../../Source/tasks.c:704:39
	ldr	r7, [sp, #32]
	.loc	3 704 57 is_stmt 0              @ ../../../../Source/tasks.c:704:57
	ldr	r0, [r7]
	.loc	3 705 57 is_stmt 1              @ ../../../../Source/tasks.c:705:57
	ldr	r1, [r7, #4]
	.loc	3 706 70                        @ ../../../../Source/tasks.c:706:70
	ldrh	r2, [r7, #8]
	.loc	3 707 57                        @ ../../../../Source/tasks.c:707:57
	ldr	r3, [r7, #12]
	.loc	3 708 57                        @ ../../../../Source/tasks.c:708:57
	ldr	r4, [r7, #16]
	.loc	3 709 39                        @ ../../../../Source/tasks.c:709:39
	ldr	r5, [sp, #28]
	.loc	3 709 54 is_stmt 0              @ ../../../../Source/tasks.c:709:54
	ldr	r6, [sp, #24]
	.loc	3 710 57 is_stmt 1              @ ../../../../Source/tasks.c:710:57
	adds	r7, #24
	.loc	3 704 17                        @ ../../../../Source/tasks.c:704:17
	str	r7, [sp, #12]
	str	r6, [sp, #8]
	str	r5, [sp, #4]
	str	r4, [sp]
	bl	prvInitialiseNewTask
	.loc	3 712 43                        @ ../../../../Source/tasks.c:712:43
	ldr	r0, [sp, #24]
	.loc	3 712 17 is_stmt 0              @ ../../../../Source/tasks.c:712:17
	bl	prvAddNewTaskToReadyList
	ldr	r0, [sp, #16]                   @ 4-byte Reload
	.loc	3 713 25 is_stmt 1              @ ../../../../Source/tasks.c:713:25
	str	r0, [sp, #20]
	.loc	3 714 13                        @ ../../../../Source/tasks.c:714:13
	b	.LBB4_6
.Ltmp127:
.LBB4_6:
	.loc	3 715 9                         @ ../../../../Source/tasks.c:715:9
	b	.LBB4_7
.Ltmp128:
.LBB4_7:
	.loc	3 717 16                        @ ../../../../Source/tasks.c:717:16
	ldr	r0, [sp, #20]
	.loc	3 717 9 is_stmt 0               @ ../../../../Source/tasks.c:717:9
	add	sp, #36
	pop	{r4, r5, r6, r7, pc}
.Ltmp129:
.Lfunc_end4:
	.size	xTaskCreateRestricted, .Lfunc_end4-xTaskCreateRestricted
	.cfi_endproc
	.cantunwind
	.fnend
                                        @ -- End function
	.hidden	xTaskCreate                     @ -- Begin function xTaskCreate
	.globl	xTaskCreate
	.p2align	1
	.type	xTaskCreate,%function
	.code	16                              @ @xTaskCreate
	.thumb_func
xTaskCreate:
.Lfunc_begin5:
	.loc	3 731 0 is_stmt 1               @ ../../../../Source/tasks.c:731:0
	.fnstart
	.cfi_startproc
@ %bb.0:
	.save	{r4, r5, r6, r7, lr}
	push	{r4, r5, r6, r7, lr}
	.cfi_def_cfa_offset 20
	.cfi_offset lr, -4
	.cfi_offset r7, -8
	.cfi_offset r6, -12
	.cfi_offset r5, -16
	.cfi_offset r4, -20
	.pad	#44
	sub	sp, #44
	.cfi_def_cfa_offset 64
	ldr	r4, [sp, #68]
	ldr	r4, [sp, #64]
                                        @ kill: def $r4 killed $r2
	str	r0, [sp, #40]
	str	r1, [sp, #36]
	add	r0, sp, #32
	strh	r2, [r0]
	str	r3, [sp, #28]
.Ltmp130:
	.loc	3 767 57 prologue_end           @ ../../../../Source/tasks.c:767:57
	ldrh	r0, [r0]
	.loc	3 767 72 is_stmt 0              @ ../../../../Source/tasks.c:767:72
	lsls	r0, r0, #2
	.loc	3 767 23                        @ ../../../../Source/tasks.c:767:23
	bl	pvPortMalloc
	.loc	3 767 21                        @ ../../../../Source/tasks.c:767:21
	str	r0, [sp, #16]
.Ltmp131:
	.loc	3 769 17 is_stmt 1              @ ../../../../Source/tasks.c:769:17
	ldr	r0, [sp, #16]
.Ltmp132:
	.loc	3 769 17 is_stmt 0              @ ../../../../Source/tasks.c:769:17
	cbz	r0, .LBB5_5
	b	.LBB5_1
.LBB5_1:
	.loc	3 0 17                          @ ../../../../Source/tasks.c:0:17
	movs	r0, #220
.Ltmp133:
	.loc	3 772 40 is_stmt 1              @ ../../../../Source/tasks.c:772:40
	bl	pvPortMalloc
	.loc	3 772 26 is_stmt 0              @ ../../../../Source/tasks.c:772:26
	str	r0, [sp, #24]
.Ltmp134:
	.loc	3 774 21 is_stmt 1              @ ../../../../Source/tasks.c:774:21
	ldr	r0, [sp, #24]
.Ltmp135:
	.loc	3 774 21 is_stmt 0              @ ../../../../Source/tasks.c:774:21
	cbz	r0, .LBB5_3
	b	.LBB5_2
.LBB5_2:
.Ltmp136:
	.loc	3 776 40 is_stmt 1              @ ../../../../Source/tasks.c:776:40
	ldr	r0, [sp, #24]
	movs	r1, #220
	.loc	3 776 21 is_stmt 0              @ ../../../../Source/tasks.c:776:21
	bl	__aeabi_memclr
	.loc	3 779 41 is_stmt 1              @ ../../../../Source/tasks.c:779:41
	ldr	r0, [sp, #16]
	.loc	3 779 21 is_stmt 0              @ ../../../../Source/tasks.c:779:21
	ldr	r1, [sp, #24]
	movs	r2, #168
	.loc	3 779 39                        @ ../../../../Source/tasks.c:779:39
	str	r0, [r1, r2]
	.loc	3 780 17 is_stmt 1              @ ../../../../Source/tasks.c:780:17
	b	.LBB5_4
.Ltmp137:
.LBB5_3:
	.loc	3 785 37                        @ ../../../../Source/tasks.c:785:37
	ldr	r0, [sp, #16]
	.loc	3 785 21 is_stmt 0              @ ../../../../Source/tasks.c:785:21
	bl	vPortFree
	b	.LBB5_4
.Ltmp138:
.LBB5_4:
	.loc	3 787 13 is_stmt 1              @ ../../../../Source/tasks.c:787:13
	b	.LBB5_6
.Ltmp139:
.LBB5_5:
	.loc	3 0 13 is_stmt 0                @ ../../../../Source/tasks.c:0:13
	movs	r0, #0
.Ltmp140:
	.loc	3 790 26 is_stmt 1              @ ../../../../Source/tasks.c:790:26
	str	r0, [sp, #24]
	b	.LBB5_6
.Ltmp141:
.LBB5_6:
	.loc	3 795 13                        @ ../../../../Source/tasks.c:795:13
	ldr	r0, [sp, #24]
.Ltmp142:
	.loc	3 795 13 is_stmt 0              @ ../../../../Source/tasks.c:795:13
	cbz	r0, .LBB5_8
	b	.LBB5_7
.LBB5_7:
.Ltmp143:
	.loc	3 801 17 is_stmt 1              @ ../../../../Source/tasks.c:801:17
	ldr	r0, [sp, #24]
	movs	r1, #215
	movs	r7, #0
	.loc	3 801 49 is_stmt 0              @ ../../../../Source/tasks.c:801:49
	strb	r7, [r0, r1]
.Ltmp144:
	.loc	3 805 35 is_stmt 1              @ ../../../../Source/tasks.c:805:35
	ldr	r0, [sp, #40]
	.loc	3 805 47 is_stmt 0              @ ../../../../Source/tasks.c:805:47
	ldr	r1, [sp, #36]
	add	r2, sp, #32
	.loc	3 805 68                        @ ../../../../Source/tasks.c:805:68
	ldrh	r2, [r2]
	.loc	3 805 82                        @ ../../../../Source/tasks.c:805:82
	ldr	r3, [sp, #28]
	.loc	3 805 96                        @ ../../../../Source/tasks.c:805:96
	ldr	r4, [sp, #64]
	.loc	3 805 108                       @ ../../../../Source/tasks.c:805:108
	ldr	r5, [sp, #68]
	.loc	3 805 123                       @ ../../../../Source/tasks.c:805:123
	ldr	r6, [sp, #24]
	.loc	3 805 13                        @ ../../../../Source/tasks.c:805:13
	str	r7, [sp, #12]
	str	r6, [sp, #8]
	str	r5, [sp, #4]
	str	r4, [sp]
	bl	prvInitialiseNewTask
	.loc	3 806 39 is_stmt 1              @ ../../../../Source/tasks.c:806:39
	ldr	r0, [sp, #24]
	.loc	3 806 13 is_stmt 0              @ ../../../../Source/tasks.c:806:13
	bl	prvAddNewTaskToReadyList
	movs	r0, #1
	.loc	3 807 21 is_stmt 1              @ ../../../../Source/tasks.c:807:21
	str	r0, [sp, #20]
	.loc	3 808 9                         @ ../../../../Source/tasks.c:808:9
	b	.LBB5_9
.Ltmp145:
.LBB5_8:
	.loc	3 0 9 is_stmt 0                 @ ../../../../Source/tasks.c:0:9
	movs	r0, #0
	mvns	r0, r0
.Ltmp146:
	.loc	3 811 21 is_stmt 1              @ ../../../../Source/tasks.c:811:21
	str	r0, [sp, #20]
	b	.LBB5_9
.Ltmp147:
.LBB5_9:
	.loc	3 814 16                        @ ../../../../Source/tasks.c:814:16
	ldr	r0, [sp, #20]
	.loc	3 814 9 is_stmt 0               @ ../../../../Source/tasks.c:814:9
	add	sp, #44
	pop	{r4, r5, r6, r7, pc}
.Ltmp148:
.Lfunc_end5:
	.size	xTaskCreate, .Lfunc_end5-xTaskCreate
	.cfi_endproc
	.cantunwind
	.fnend
                                        @ -- End function
	.hidden	vTaskDelete                     @ -- Begin function vTaskDelete
	.globl	vTaskDelete
	.p2align	1
	.type	vTaskDelete,%function
	.code	16                              @ @vTaskDelete
	.thumb_func
vTaskDelete:
.Lfunc_begin6:
	.loc	3 1117 0 is_stmt 1              @ ../../../../Source/tasks.c:1117:0
	.fnstart
	.cfi_startproc
@ %bb.0:
	.save	{r7, lr}
	push	{r7, lr}
	.cfi_def_cfa_offset 8
	.cfi_offset lr, -4
	.cfi_offset r7, -8
	.pad	#16
	sub	sp, #16
	.cfi_def_cfa_offset 24
	str	r0, [sp, #12]
.Ltmp149:
	.loc	3 1120 9 prologue_end           @ ../../../../Source/tasks.c:1120:9
	bl	vPortEnterCritical
.Ltmp150:
	.loc	3 1124 21                       @ ../../../../Source/tasks.c:1124:21
	ldr	r0, [sp, #12]
	cbnz	r0, .LBB6_2
	b	.LBB6_1
.LBB6_1:
	movw	r0, :lower16:pxCurrentTCB
	movt	r0, :upper16:pxCurrentTCB
	ldr	r0, [r0]
	str	r0, [sp, #4]                    @ 4-byte Spill
	b	.LBB6_3
.LBB6_2:
	ldr	r0, [sp, #12]
	str	r0, [sp, #4]                    @ 4-byte Spill
	b	.LBB6_3
.LBB6_3:
	ldr	r0, [sp, #4]                    @ 4-byte Reload
	.loc	3 1124 19 is_stmt 0             @ ../../../../Source/tasks.c:1124:19
	str	r0, [sp, #8]
.Ltmp151:
	.loc	3 1127 34 is_stmt 1             @ ../../../../Source/tasks.c:1127:34
	ldr	r0, [sp, #8]
	.loc	3 1127 41 is_stmt 0             @ ../../../../Source/tasks.c:1127:41
	adds	r0, #124
	.loc	3 1127 17                       @ ../../../../Source/tasks.c:1127:17
	bl	uxListRemove
.Ltmp152:
	.loc	3 1127 17                       @ ../../../../Source/tasks.c:1127:17
	cbnz	r0, .LBB6_5
	b	.LBB6_4
.LBB6_4:
.Ltmp153:
	.loc	3 1130 13 is_stmt 1             @ ../../../../Source/tasks.c:1130:13
	b	.LBB6_6
.Ltmp154:
.LBB6_5:
	.loc	3 0 13 is_stmt 0                @ ../../../../Source/tasks.c:0:13
	b	.LBB6_6
.LBB6_6:
.Ltmp155:
	.loc	3 1137 17 is_stmt 1             @ ../../../../Source/tasks.c:1137:17
	ldr	r0, [sp, #8]
	movs	r1, #160
	ldr	r0, [r0, r1]
.Ltmp156:
	.loc	3 1137 17 is_stmt 0             @ ../../../../Source/tasks.c:1137:17
	cbz	r0, .LBB6_8
	b	.LBB6_7
.LBB6_7:
.Ltmp157:
	.loc	3 1139 43 is_stmt 1             @ ../../../../Source/tasks.c:1139:43
	ldr	r0, [sp, #8]
	.loc	3 1139 50 is_stmt 0             @ ../../../../Source/tasks.c:1139:50
	adds	r0, #144
	.loc	3 1139 26                       @ ../../../../Source/tasks.c:1139:26
	bl	uxListRemove
	.loc	3 1140 13 is_stmt 1             @ ../../../../Source/tasks.c:1140:13
	b	.LBB6_9
.Ltmp158:
.LBB6_8:
	.loc	3 0 13 is_stmt 0                @ ../../../../Source/tasks.c:0:13
	b	.LBB6_9
.LBB6_9:
	.loc	3 1150 25 is_stmt 1             @ ../../../../Source/tasks.c:1150:25
	movw	r1, :lower16:uxTaskNumber
	movt	r1, :upper16:uxTaskNumber
	ldr	r0, [r1]
	adds	r0, r0, #1
	str	r0, [r1]
.Ltmp159:
	.loc	3 1152 17                       @ ../../../../Source/tasks.c:1152:17
	ldr	r0, [sp, #8]
	.loc	3 1152 26 is_stmt 0             @ ../../../../Source/tasks.c:1152:26
	movw	r1, :lower16:pxCurrentTCB
	movt	r1, :upper16:pxCurrentTCB
	ldr	r1, [r1]
.Ltmp160:
	.loc	3 1152 17                       @ ../../../../Source/tasks.c:1152:17
	cmp	r0, r1
	bne	.LBB6_11
	b	.LBB6_10
.LBB6_10:
.Ltmp161:
	.loc	3 1159 63 is_stmt 1             @ ../../../../Source/tasks.c:1159:63
	ldr	r1, [sp, #8]
	.loc	3 1159 70 is_stmt 0             @ ../../../../Source/tasks.c:1159:70
	adds	r1, #124
	.loc	3 1159 17                       @ ../../../../Source/tasks.c:1159:17
	movw	r0, :lower16:xTasksWaitingTermination
	movt	r0, :upper16:xTasksWaitingTermination
	bl	vListInsertEnd
	.loc	3 1164 17 is_stmt 1             @ ../../../../Source/tasks.c:1164:17
	movw	r1, :lower16:uxDeletedTasksWaitingCleanUp
	movt	r1, :upper16:uxDeletedTasksWaitingCleanUp
	ldr	r0, [r1]
	adds	r0, r0, #1
	str	r0, [r1]
	.loc	3 1176 13                       @ ../../../../Source/tasks.c:1176:13
	b	.LBB6_12
.Ltmp162:
.LBB6_11:
	.loc	3 1179 17                       @ ../../../../Source/tasks.c:1179:17
	movw	r1, :lower16:uxCurrentNumberOfTasks
	movt	r1, :upper16:uxCurrentNumberOfTasks
	ldr	r0, [r1]
	subs	r0, r0, #1
	str	r0, [r1]
	.loc	3 1184 17                       @ ../../../../Source/tasks.c:1184:17
	bl	prvResetNextTaskUnblockTime
	b	.LBB6_12
.Ltmp163:
.LBB6_12:
	.loc	3 1187 9                        @ ../../../../Source/tasks.c:1187:9
	bl	vPortExitCritical
.Ltmp164:
	.loc	3 1192 13                       @ ../../../../Source/tasks.c:1192:13
	ldr	r0, [sp, #8]
	.loc	3 1192 22 is_stmt 0             @ ../../../../Source/tasks.c:1192:22
	movw	r1, :lower16:pxCurrentTCB
	movt	r1, :upper16:pxCurrentTCB
	ldr	r1, [r1]
.Ltmp165:
	.loc	3 1192 13                       @ ../../../../Source/tasks.c:1192:13
	cmp	r0, r1
	beq	.LBB6_14
	b	.LBB6_13
.LBB6_13:
.Ltmp166:
	.loc	3 1194 27 is_stmt 1             @ ../../../../Source/tasks.c:1194:27
	ldr	r0, [sp, #8]
	.loc	3 1194 13 is_stmt 0             @ ../../../../Source/tasks.c:1194:13
	bl	prvDeleteTCB
	.loc	3 1195 9 is_stmt 1              @ ../../../../Source/tasks.c:1195:9
	b	.LBB6_14
.Ltmp167:
.LBB6_14:
	.loc	3 1199 13                       @ ../../../../Source/tasks.c:1199:13
	movw	r0, :lower16:xSchedulerRunning
	movt	r0, :upper16:xSchedulerRunning
	ldr	r0, [r0]
.Ltmp168:
	.loc	3 1199 13 is_stmt 0             @ ../../../../Source/tasks.c:1199:13
	cbz	r0, .LBB6_22
	b	.LBB6_15
.LBB6_15:
.Ltmp169:
	.loc	3 1201 17 is_stmt 1             @ ../../../../Source/tasks.c:1201:17
	ldr	r0, [sp, #8]
	.loc	3 1201 26 is_stmt 0             @ ../../../../Source/tasks.c:1201:26
	movw	r1, :lower16:pxCurrentTCB
	movt	r1, :upper16:pxCurrentTCB
	ldr	r1, [r1]
.Ltmp170:
	.loc	3 1201 17                       @ ../../../../Source/tasks.c:1201:17
	cmp	r0, r1
	bne	.LBB6_20
	b	.LBB6_16
.LBB6_16:
.Ltmp171:
	.loc	3 1203 17 is_stmt 1             @ ../../../../Source/tasks.c:1203:17
	movw	r0, :lower16:uxSchedulerSuspended
	movt	r0, :upper16:uxSchedulerSuspended
	ldr	r0, [r0]
.Ltmp172:
	.loc	3 1203 17 is_stmt 0             @ ../../../../Source/tasks.c:1203:17
	cbz	r0, .LBB6_19
	b	.LBB6_17
.LBB6_17:
.Ltmp173:
	.loc	3 1203 17                       @ ../../../../Source/tasks.c:1203:17
	@APP
	cpsid i
	@NO_APP
	b	.LBB6_18
.LBB6_18:                               @ =>This Inner Loop Header: Depth=1
.Ltmp174:
	.loc	3 1203 17                       @ ../../../../Source/tasks.c:1203:17
	b	.LBB6_18
.Ltmp175:
.LBB6_19:
	.loc	3 1204 17 is_stmt 1             @ ../../../../Source/tasks.c:1204:17
	bl	vPortYield
	.loc	3 1205 13                       @ ../../../../Source/tasks.c:1205:13
	b	.LBB6_21
.Ltmp176:
.LBB6_20:
	.loc	3 0 13 is_stmt 0                @ ../../../../Source/tasks.c:0:13
	b	.LBB6_21
.LBB6_21:
	.loc	3 1210 9 is_stmt 1              @ ../../../../Source/tasks.c:1210:9
	b	.LBB6_22
.Ltmp177:
.LBB6_22:
	.loc	3 1211 5                        @ ../../../../Source/tasks.c:1211:5
	add	sp, #16
	pop	{r7, pc}
.Ltmp178:
.Lfunc_end6:
	.size	vTaskDelete, .Lfunc_end6-vTaskDelete
	.cfi_endproc
	.cantunwind
	.fnend
                                        @ -- End function
	.p2align	1                               @ -- Begin function prvResetNextTaskUnblockTime
	.type	prvResetNextTaskUnblockTime,%function
	.code	16                              @ @prvResetNextTaskUnblockTime
	.thumb_func
prvResetNextTaskUnblockTime:
.Lfunc_begin7:
	.loc	3 4056 0                        @ ../../../../Source/tasks.c:4056:0
	.fnstart
	.cfi_startproc
@ %bb.0:
	.loc	3 4057 9 prologue_end           @ ../../../../Source/tasks.c:4057:9
	movw	r0, :lower16:pxDelayedTaskList
	movt	r0, :upper16:pxDelayedTaskList
	ldr	r0, [r0]
	ldr	r0, [r0]
.Ltmp179:
	.loc	3 4057 9 is_stmt 0              @ ../../../../Source/tasks.c:4057:9
	cbnz	r0, .LBB7_2
	b	.LBB7_1
.LBB7_1:
.Ltmp180:
	.loc	3 4063 30 is_stmt 1             @ ../../../../Source/tasks.c:4063:30
	movw	r1, :lower16:xNextTaskUnblockTime
	movt	r1, :upper16:xNextTaskUnblockTime
	movs	r0, #0
	mvns	r0, r0
	str	r0, [r1]
	.loc	3 4064 5                        @ ../../../../Source/tasks.c:4064:5
	b	.LBB7_3
.Ltmp181:
.LBB7_2:
	.loc	3 4071 32                       @ ../../../../Source/tasks.c:4071:32
	movw	r0, :lower16:pxDelayedTaskList
	movt	r0, :upper16:pxDelayedTaskList
	ldr	r0, [r0]
	ldr	r0, [r0, #12]
	ldr	r0, [r0]
	.loc	3 4071 30 is_stmt 0             @ ../../../../Source/tasks.c:4071:30
	movw	r1, :lower16:xNextTaskUnblockTime
	movt	r1, :upper16:xNextTaskUnblockTime
	str	r0, [r1]
	b	.LBB7_3
.Ltmp182:
.LBB7_3:
	.loc	3 4073 1 is_stmt 1              @ ../../../../Source/tasks.c:4073:1
	bx	lr
.Ltmp183:
.Lfunc_end7:
	.size	prvResetNextTaskUnblockTime, .Lfunc_end7-prvResetNextTaskUnblockTime
	.cfi_endproc
	.cantunwind
	.fnend
                                        @ -- End function
	.p2align	1                               @ -- Begin function prvDeleteTCB
	.type	prvDeleteTCB,%function
	.code	16                              @ @prvDeleteTCB
	.thumb_func
prvDeleteTCB:
.Lfunc_begin8:
	.loc	3 4003 0                        @ ../../../../Source/tasks.c:4003:0
	.fnstart
	.cfi_startproc
@ %bb.0:
	.save	{r7, lr}
	push	{r7, lr}
	.cfi_def_cfa_offset 8
	.cfi_offset lr, -4
	.cfi_offset r7, -8
	.pad	#8
	sub	sp, #8
	.cfi_def_cfa_offset 16
	str	r0, [sp, #4]
.Ltmp184:
	.loc	3 4007 9 prologue_end           @ ../../../../Source/tasks.c:4007:9
	ldr	r0, [sp, #4]
	movs	r1, #215
.Ltmp185:
	.loc	3 4028 24                       @ ../../../../Source/tasks.c:4028:24
	ldrb	r0, [r0, r1]
.Ltmp186:
	.loc	3 4028 17 is_stmt 0             @ ../../../../Source/tasks.c:4028:17
	cbnz	r0, .LBB8_2
	b	.LBB8_1
.LBB8_1:
.Ltmp187:
	.loc	3 4032 33 is_stmt 1             @ ../../../../Source/tasks.c:4032:33
	ldr	r0, [sp, #4]
	movs	r1, #168
	.loc	3 4032 40 is_stmt 0             @ ../../../../Source/tasks.c:4032:40
	ldr	r0, [r0, r1]
	.loc	3 4032 17                       @ ../../../../Source/tasks.c:4032:17
	bl	vPortFree
	.loc	3 4033 28 is_stmt 1             @ ../../../../Source/tasks.c:4033:28
	ldr	r0, [sp, #4]
	.loc	3 4033 17 is_stmt 0             @ ../../../../Source/tasks.c:4033:17
	bl	vPortFree
	.loc	3 4034 13 is_stmt 1             @ ../../../../Source/tasks.c:4034:13
	b	.LBB8_9
.Ltmp188:
.LBB8_2:
	.loc	3 4035 22                       @ ../../../../Source/tasks.c:4035:22
	ldr	r0, [sp, #4]
	movs	r1, #215
	.loc	3 4035 29 is_stmt 0             @ ../../../../Source/tasks.c:4035:29
	ldrb	r0, [r0, r1]
.Ltmp189:
	.loc	3 4035 22                       @ ../../../../Source/tasks.c:4035:22
	cmp	r0, #1
	bne	.LBB8_4
	b	.LBB8_3
.LBB8_3:
.Ltmp190:
	.loc	3 4039 28 is_stmt 1             @ ../../../../Source/tasks.c:4039:28
	ldr	r0, [sp, #4]
	.loc	3 4039 17 is_stmt 0             @ ../../../../Source/tasks.c:4039:17
	bl	vPortFree
	.loc	3 4040 13 is_stmt 1             @ ../../../../Source/tasks.c:4040:13
	b	.LBB8_8
.Ltmp191:
.LBB8_4:
	.loc	3 4045 17                       @ ../../../../Source/tasks.c:4045:17
	ldr	r0, [sp, #4]
	movs	r1, #215
	ldrb	r0, [r0, r1]
.Ltmp192:
	.loc	3 4045 17 is_stmt 0             @ ../../../../Source/tasks.c:4045:17
	cmp	r0, #2
	beq	.LBB8_7
	b	.LBB8_5
.LBB8_5:
.Ltmp193:
	.loc	3 4045 17                       @ ../../../../Source/tasks.c:4045:17
	@APP
	cpsid i
	@NO_APP
	b	.LBB8_6
.LBB8_6:                                @ =>This Inner Loop Header: Depth=1
.Ltmp194:
	.loc	3 4045 17                       @ ../../../../Source/tasks.c:4045:17
	b	.LBB8_6
.Ltmp195:
.LBB8_7:
	.loc	3 0 17                          @ ../../../../Source/tasks.c:0:17
	b	.LBB8_8
.LBB8_8:
	b	.LBB8_9
.LBB8_9:
	.loc	3 4050 5 is_stmt 1              @ ../../../../Source/tasks.c:4050:5
	add	sp, #8
	pop	{r7, pc}
.Ltmp196:
.Lfunc_end8:
	.size	prvDeleteTCB, .Lfunc_end8-prvDeleteTCB
	.cfi_endproc
	.cantunwind
	.fnend
                                        @ -- End function
	.hidden	xTaskDelayUntil                 @ -- Begin function xTaskDelayUntil
	.globl	xTaskDelayUntil
	.p2align	1
	.type	xTaskDelayUntil,%function
	.code	16                              @ @xTaskDelayUntil
	.thumb_func
xTaskDelayUntil:
.Lfunc_begin9:
	.loc	3 1220 0                        @ ../../../../Source/tasks.c:1220:0
	.fnstart
	.cfi_startproc
@ %bb.0:
	.save	{r7, lr}
	push	{r7, lr}
	.cfi_def_cfa_offset 8
	.cfi_offset lr, -4
	.cfi_offset r7, -8
	.pad	#24
	sub	sp, #24
	.cfi_def_cfa_offset 32
	str	r0, [sp, #20]
	str	r1, [sp, #16]
	movs	r0, #0
.Ltmp197:
	.loc	3 1222 37 prologue_end          @ ../../../../Source/tasks.c:1222:37
	str	r0, [sp, #4]
.Ltmp198:
	.loc	3 1224 9                        @ ../../../../Source/tasks.c:1224:9
	ldr	r0, [sp, #20]
.Ltmp199:
	.loc	3 1224 9 is_stmt 0              @ ../../../../Source/tasks.c:1224:9
	cbnz	r0, .LBB9_3
	b	.LBB9_1
.LBB9_1:
.Ltmp200:
	.loc	3 1224 9                        @ ../../../../Source/tasks.c:1224:9
	@APP
	cpsid i
	@NO_APP
	b	.LBB9_2
.LBB9_2:                                @ =>This Inner Loop Header: Depth=1
.Ltmp201:
	.loc	3 1224 9                        @ ../../../../Source/tasks.c:1224:9
	b	.LBB9_2
.Ltmp202:
.LBB9_3:
	.loc	3 1225 9 is_stmt 1              @ ../../../../Source/tasks.c:1225:9
	ldr	r0, [sp, #16]
.Ltmp203:
	.loc	3 1225 9 is_stmt 0              @ ../../../../Source/tasks.c:1225:9
	cbnz	r0, .LBB9_6
	b	.LBB9_4
.LBB9_4:
.Ltmp204:
	.loc	3 1225 9                        @ ../../../../Source/tasks.c:1225:9
	@APP
	cpsid i
	@NO_APP
	b	.LBB9_5
.LBB9_5:                                @ =>This Inner Loop Header: Depth=1
.Ltmp205:
	.loc	3 1225 9                        @ ../../../../Source/tasks.c:1225:9
	b	.LBB9_5
.Ltmp206:
.LBB9_6:
	.loc	3 1226 9 is_stmt 1              @ ../../../../Source/tasks.c:1226:9
	movw	r0, :lower16:uxSchedulerSuspended
	movt	r0, :upper16:uxSchedulerSuspended
	ldr	r0, [r0]
.Ltmp207:
	.loc	3 1226 9 is_stmt 0              @ ../../../../Source/tasks.c:1226:9
	cbz	r0, .LBB9_9
	b	.LBB9_7
.LBB9_7:
.Ltmp208:
	.loc	3 1226 9                        @ ../../../../Source/tasks.c:1226:9
	@APP
	cpsid i
	@NO_APP
	b	.LBB9_8
.LBB9_8:                                @ =>This Inner Loop Header: Depth=1
.Ltmp209:
	.loc	3 1226 9                        @ ../../../../Source/tasks.c:1226:9
	b	.LBB9_8
.Ltmp210:
.LBB9_9:
	.loc	3 1228 9 is_stmt 1              @ ../../../../Source/tasks.c:1228:9
	bl	vTaskSuspendAll
.Ltmp211:
	.loc	3 1232 48                       @ ../../../../Source/tasks.c:1232:48
	movw	r0, :lower16:xTickCount
	movt	r0, :upper16:xTickCount
	ldr	r0, [r0]
	.loc	3 1232 30 is_stmt 0             @ ../../../../Source/tasks.c:1232:30
	str	r0, [sp]
	.loc	3 1235 28 is_stmt 1             @ ../../../../Source/tasks.c:1235:28
	ldr	r0, [sp, #20]
	.loc	3 1235 27 is_stmt 0             @ ../../../../Source/tasks.c:1235:27
	ldr	r0, [r0]
	.loc	3 1235 49                       @ ../../../../Source/tasks.c:1235:49
	ldr	r1, [sp, #16]
	.loc	3 1235 47                       @ ../../../../Source/tasks.c:1235:47
	adds	r0, r0, r1
	.loc	3 1235 25                       @ ../../../../Source/tasks.c:1235:25
	str	r0, [sp, #12]
.Ltmp212:
	.loc	3 1237 17 is_stmt 1             @ ../../../../Source/tasks.c:1237:17
	ldr	r0, [sp]
	.loc	3 1237 36 is_stmt 0             @ ../../../../Source/tasks.c:1237:36
	ldr	r1, [sp, #20]
	.loc	3 1237 35                       @ ../../../../Source/tasks.c:1237:35
	ldr	r1, [r1]
.Ltmp213:
	.loc	3 1237 17                       @ ../../../../Source/tasks.c:1237:17
	cmp	r0, r1
	bhs	.LBB9_15
	b	.LBB9_10
.LBB9_10:
.Ltmp214:
	.loc	3 1244 23 is_stmt 1             @ ../../../../Source/tasks.c:1244:23
	ldr	r0, [sp, #12]
	.loc	3 1244 38 is_stmt 0             @ ../../../../Source/tasks.c:1244:38
	ldr	r1, [sp, #20]
	.loc	3 1244 37                       @ ../../../../Source/tasks.c:1244:37
	ldr	r1, [r1]
	.loc	3 1244 59                       @ ../../../../Source/tasks.c:1244:59
	cmp	r0, r1
	bhs	.LBB9_13
	b	.LBB9_11
.LBB9_11:
	.loc	3 1244 64                       @ ../../../../Source/tasks.c:1244:64
	ldr	r0, [sp, #12]
	.loc	3 1244 78                       @ ../../../../Source/tasks.c:1244:78
	ldr	r1, [sp]
.Ltmp215:
	.loc	3 1244 21                       @ ../../../../Source/tasks.c:1244:21
	cmp	r0, r1
	bls	.LBB9_13
	b	.LBB9_12
.LBB9_12:
	.loc	3 0 21                          @ ../../../../Source/tasks.c:0:21
	movs	r0, #1
.Ltmp216:
	.loc	3 1246 34 is_stmt 1             @ ../../../../Source/tasks.c:1246:34
	str	r0, [sp, #4]
	.loc	3 1247 17                       @ ../../../../Source/tasks.c:1247:17
	b	.LBB9_14
.Ltmp217:
.LBB9_13:
	.loc	3 0 17 is_stmt 0                @ ../../../../Source/tasks.c:0:17
	b	.LBB9_14
.LBB9_14:
	.loc	3 1252 13 is_stmt 1             @ ../../../../Source/tasks.c:1252:13
	b	.LBB9_20
.Ltmp218:
.LBB9_15:
	.loc	3 1258 23                       @ ../../../../Source/tasks.c:1258:23
	ldr	r0, [sp, #12]
	.loc	3 1258 38 is_stmt 0             @ ../../../../Source/tasks.c:1258:38
	ldr	r1, [sp, #20]
	.loc	3 1258 37                       @ ../../../../Source/tasks.c:1258:37
	ldr	r1, [r1]
	.loc	3 1258 59                       @ ../../../../Source/tasks.c:1258:59
	cmp	r0, r1
	blo	.LBB9_17
	b	.LBB9_16
.LBB9_16:
	.loc	3 1258 64                       @ ../../../../Source/tasks.c:1258:64
	ldr	r0, [sp, #12]
	.loc	3 1258 78                       @ ../../../../Source/tasks.c:1258:78
	ldr	r1, [sp]
.Ltmp219:
	.loc	3 1258 21                       @ ../../../../Source/tasks.c:1258:21
	cmp	r0, r1
	bls	.LBB9_18
	b	.LBB9_17
.LBB9_17:
	.loc	3 0 21                          @ ../../../../Source/tasks.c:0:21
	movs	r0, #1
.Ltmp220:
	.loc	3 1260 34 is_stmt 1             @ ../../../../Source/tasks.c:1260:34
	str	r0, [sp, #4]
	.loc	3 1261 17                       @ ../../../../Source/tasks.c:1261:17
	b	.LBB9_19
.Ltmp221:
.LBB9_18:
	.loc	3 0 17 is_stmt 0                @ ../../../../Source/tasks.c:0:17
	b	.LBB9_19
.LBB9_19:
	b	.LBB9_20
.LBB9_20:
	.loc	3 1269 35 is_stmt 1             @ ../../../../Source/tasks.c:1269:35
	ldr	r0, [sp, #12]
	.loc	3 1269 14 is_stmt 0             @ ../../../../Source/tasks.c:1269:14
	ldr	r1, [sp, #20]
	.loc	3 1269 33                       @ ../../../../Source/tasks.c:1269:33
	str	r0, [r1]
.Ltmp222:
	.loc	3 1271 17 is_stmt 1             @ ../../../../Source/tasks.c:1271:17
	ldr	r0, [sp, #4]
.Ltmp223:
	.loc	3 1271 17 is_stmt 0             @ ../../../../Source/tasks.c:1271:17
	cbz	r0, .LBB9_22
	b	.LBB9_21
.LBB9_21:
.Ltmp224:
	.loc	3 1277 49 is_stmt 1             @ ../../../../Source/tasks.c:1277:49
	ldr	r0, [sp, #12]
	.loc	3 1277 63 is_stmt 0             @ ../../../../Source/tasks.c:1277:63
	ldr	r1, [sp]
	.loc	3 1277 61                       @ ../../../../Source/tasks.c:1277:61
	subs	r0, r0, r1
	movs	r1, #0
	.loc	3 1277 17                       @ ../../../../Source/tasks.c:1277:17
	bl	prvAddCurrentTaskToDelayedList
	.loc	3 1278 13 is_stmt 1             @ ../../../../Source/tasks.c:1278:13
	b	.LBB9_23
.Ltmp225:
.LBB9_22:
	.loc	3 0 13 is_stmt 0                @ ../../../../Source/tasks.c:0:13
	b	.LBB9_23
.LBB9_23:
	.loc	3 1284 27 is_stmt 1             @ ../../../../Source/tasks.c:1284:27
	bl	xTaskResumeAll
	.loc	3 1284 25 is_stmt 0             @ ../../../../Source/tasks.c:1284:25
	str	r0, [sp, #8]
.Ltmp226:
	.loc	3 1288 13 is_stmt 1             @ ../../../../Source/tasks.c:1288:13
	ldr	r0, [sp, #8]
.Ltmp227:
	.loc	3 1288 13 is_stmt 0             @ ../../../../Source/tasks.c:1288:13
	cbnz	r0, .LBB9_25
	b	.LBB9_24
.LBB9_24:
.Ltmp228:
	.loc	3 1290 13 is_stmt 1             @ ../../../../Source/tasks.c:1290:13
	bl	vPortYield
	.loc	3 1291 9                        @ ../../../../Source/tasks.c:1291:9
	b	.LBB9_26
.Ltmp229:
.LBB9_25:
	.loc	3 0 9 is_stmt 0                 @ ../../../../Source/tasks.c:0:9
	b	.LBB9_26
.LBB9_26:
	.loc	3 1297 16 is_stmt 1             @ ../../../../Source/tasks.c:1297:16
	ldr	r0, [sp, #4]
	.loc	3 1297 9 is_stmt 0              @ ../../../../Source/tasks.c:1297:9
	add	sp, #24
	pop	{r7, pc}
.Ltmp230:
.Lfunc_end9:
	.size	xTaskDelayUntil, .Lfunc_end9-xTaskDelayUntil
	.cfi_endproc
	.cantunwind
	.fnend
                                        @ -- End function
	.hidden	vTaskSuspendAll                 @ -- Begin function vTaskSuspendAll
	.globl	vTaskSuspendAll
	.p2align	1
	.type	vTaskSuspendAll,%function
	.code	16                              @ @vTaskSuspendAll
	.thumb_func
vTaskSuspendAll:
.Lfunc_begin10:
	.loc	3 2105 0 is_stmt 1              @ ../../../../Source/tasks.c:2105:0
	.fnstart
	.cfi_startproc
@ %bb.0:
	.loc	3 2117 5 prologue_end           @ ../../../../Source/tasks.c:2117:5
	movw	r1, :lower16:uxSchedulerSuspended
	movt	r1, :upper16:uxSchedulerSuspended
	ldr	r0, [r1]
	adds	r0, r0, #1
	str	r0, [r1]
	.loc	3 2121 5                        @ ../../../../Source/tasks.c:2121:5
	@APP
	@NO_APP
	.loc	3 2122 1                        @ ../../../../Source/tasks.c:2122:1
	bx	lr
.Ltmp231:
.Lfunc_end10:
	.size	vTaskSuspendAll, .Lfunc_end10-vTaskSuspendAll
	.cfi_endproc
	.cantunwind
	.fnend
                                        @ -- End function
	.p2align	1                               @ -- Begin function prvAddCurrentTaskToDelayedList
	.type	prvAddCurrentTaskToDelayedList,%function
	.code	16                              @ @prvAddCurrentTaskToDelayedList
	.thumb_func
prvAddCurrentTaskToDelayedList:
.Lfunc_begin11:
	.loc	3 5375 0                        @ ../../../../Source/tasks.c:5375:0
	.fnstart
	.cfi_startproc
@ %bb.0:
	.save	{r4, lr}
	push	{r4, lr}
	.cfi_def_cfa_offset 8
	.cfi_offset lr, -4
	.cfi_offset r4, -8
	.pad	#24
	sub	sp, #24
	.cfi_def_cfa_offset 32
	str	r0, [sp, #20]
	str	r1, [sp, #16]
.Ltmp232:
	.loc	3 5377 40 prologue_end          @ ../../../../Source/tasks.c:5377:40
	movw	r0, :lower16:xTickCount
	movt	r0, :upper16:xTickCount
	ldr	r0, [r0]
	.loc	3 5377 22 is_stmt 0             @ ../../../../Source/tasks.c:5377:22
	str	r0, [sp, #8]
.Ltmp233:
	.loc	3 5384 9 is_stmt 1              @ ../../../../Source/tasks.c:5384:9
	movw	r0, :lower16:pxCurrentTCB
	movt	r0, :upper16:pxCurrentTCB
	ldr	r2, [r0]
	movs	r3, #216
	movs	r1, #0
	.loc	3 5384 38 is_stmt 0             @ ../../../../Source/tasks.c:5384:38
	strb	r1, [r2, r3]
.Ltmp234:
	.loc	3 5390 26 is_stmt 1             @ ../../../../Source/tasks.c:5390:26
	ldr	r0, [r0]
	.loc	3 5390 40 is_stmt 0             @ ../../../../Source/tasks.c:5390:40
	adds	r0, #124
	.loc	3 5390 9                        @ ../../../../Source/tasks.c:5390:9
	bl	uxListRemove
.Ltmp235:
	.loc	3 5390 9                        @ ../../../../Source/tasks.c:5390:9
	cbnz	r0, .LBB11_2
	b	.LBB11_1
.LBB11_1:
.Ltmp236:
	.loc	3 5395 5 is_stmt 1              @ ../../../../Source/tasks.c:5395:5
	b	.LBB11_3
.Ltmp237:
.LBB11_2:
	.loc	3 0 5 is_stmt 0                 @ ../../../../Source/tasks.c:0:5
	b	.LBB11_3
.LBB11_3:
.Ltmp238:
	.loc	3 5403 15 is_stmt 1             @ ../../../../Source/tasks.c:5403:15
	ldr	r0, [sp, #20]
	.loc	3 5403 47 is_stmt 0             @ ../../../../Source/tasks.c:5403:47
	adds	r0, r0, #1
	cbnz	r0, .LBB11_8
	b	.LBB11_4
.LBB11_4:
	.loc	3 5403 52                       @ ../../../../Source/tasks.c:5403:52
	ldr	r0, [sp, #16]
.Ltmp239:
	.loc	3 5403 13                       @ ../../../../Source/tasks.c:5403:13
	cbz	r0, .LBB11_8
	b	.LBB11_5
.LBB11_5:
.Ltmp240:
	.loc	3 5408 13 is_stmt 1             @ ../../../../Source/tasks.c:5408:13
	b	.LBB11_6
.LBB11_6:
.Ltmp241:
	.loc	3 5408 13 is_stmt 0             @ ../../../../Source/tasks.c:5408:13
	movw	r1, :lower16:xSuspendedTaskList
	movt	r1, :upper16:xSuspendedTaskList
	ldr	r0, [r1, #4]
	str	r0, [sp, #4]
	ldr	r2, [sp, #4]
	movw	r0, :lower16:pxCurrentTCB
	movt	r0, :upper16:pxCurrentTCB
	ldr	r3, [r0]
	movs	r4, #128
	str	r2, [r3, r4]
	ldr	r2, [sp, #4]
	ldr	r2, [r2, #8]
	ldr	r3, [r0]
	movs	r4, #132
	str	r2, [r3, r4]
	ldr	r2, [r0]
	adds	r2, #124
	ldr	r3, [sp, #4]
	ldr	r3, [r3, #8]
	str	r2, [r3, #4]
	ldr	r2, [r0]
	adds	r2, #124
	ldr	r3, [sp, #4]
	str	r2, [r3, #8]
	ldr	r0, [r0]
	movs	r2, #140
	str	r1, [r0, r2]
	ldr	r0, [r1]
	adds	r0, r0, #1
	str	r0, [r1]
	b	.LBB11_7
.Ltmp242:
.LBB11_7:
	.loc	3 5409 9 is_stmt 1              @ ../../../../Source/tasks.c:5409:9
	b	.LBB11_15
.Ltmp243:
.LBB11_8:
	.loc	3 5415 27                       @ ../../../../Source/tasks.c:5415:27
	ldr	r0, [sp, #8]
	.loc	3 5415 45 is_stmt 0             @ ../../../../Source/tasks.c:5415:45
	ldr	r1, [sp, #20]
	.loc	3 5415 43                       @ ../../../../Source/tasks.c:5415:43
	adds	r0, r0, r1
	.loc	3 5415 25                       @ ../../../../Source/tasks.c:5415:25
	str	r0, [sp, #12]
	.loc	3 5418 13 is_stmt 1             @ ../../../../Source/tasks.c:5418:13
	ldr	r0, [sp, #12]
	movw	r1, :lower16:pxCurrentTCB
	movt	r1, :upper16:pxCurrentTCB
	ldr	r1, [r1]
	str	r0, [r1, #124]
.Ltmp244:
	.loc	3 5420 17                       @ ../../../../Source/tasks.c:5420:17
	ldr	r0, [sp, #12]
	.loc	3 5420 31 is_stmt 0             @ ../../../../Source/tasks.c:5420:31
	ldr	r1, [sp, #8]
.Ltmp245:
	.loc	3 5420 17                       @ ../../../../Source/tasks.c:5420:17
	cmp	r0, r1
	bhs	.LBB11_10
	b	.LBB11_9
.LBB11_9:
.Ltmp246:
	.loc	3 5424 30 is_stmt 1             @ ../../../../Source/tasks.c:5424:30
	movw	r0, :lower16:pxOverflowDelayedTaskList
	movt	r0, :upper16:pxOverflowDelayedTaskList
	ldr	r0, [r0]
	.loc	3 5424 60 is_stmt 0             @ ../../../../Source/tasks.c:5424:60
	movw	r1, :lower16:pxCurrentTCB
	movt	r1, :upper16:pxCurrentTCB
	ldr	r1, [r1]
	.loc	3 5424 74                       @ ../../../../Source/tasks.c:5424:74
	adds	r1, #124
	.loc	3 5424 17                       @ ../../../../Source/tasks.c:5424:17
	bl	vListInsert
	.loc	3 5425 13 is_stmt 1             @ ../../../../Source/tasks.c:5425:13
	b	.LBB11_14
.Ltmp247:
.LBB11_10:
	.loc	3 5430 30                       @ ../../../../Source/tasks.c:5430:30
	movw	r0, :lower16:pxDelayedTaskList
	movt	r0, :upper16:pxDelayedTaskList
	ldr	r0, [r0]
	.loc	3 5430 52 is_stmt 0             @ ../../../../Source/tasks.c:5430:52
	movw	r1, :lower16:pxCurrentTCB
	movt	r1, :upper16:pxCurrentTCB
	ldr	r1, [r1]
	.loc	3 5430 66                       @ ../../../../Source/tasks.c:5430:66
	adds	r1, #124
	.loc	3 5430 17                       @ ../../../../Source/tasks.c:5430:17
	bl	vListInsert
.Ltmp248:
	.loc	3 5435 21 is_stmt 1             @ ../../../../Source/tasks.c:5435:21
	ldr	r0, [sp, #12]
	.loc	3 5435 35 is_stmt 0             @ ../../../../Source/tasks.c:5435:35
	movw	r1, :lower16:xNextTaskUnblockTime
	movt	r1, :upper16:xNextTaskUnblockTime
	ldr	r1, [r1]
.Ltmp249:
	.loc	3 5435 21                       @ ../../../../Source/tasks.c:5435:21
	cmp	r0, r1
	bhs	.LBB11_12
	b	.LBB11_11
.LBB11_11:
.Ltmp250:
	.loc	3 5437 44 is_stmt 1             @ ../../../../Source/tasks.c:5437:44
	ldr	r0, [sp, #12]
	.loc	3 5437 42 is_stmt 0             @ ../../../../Source/tasks.c:5437:42
	movw	r1, :lower16:xNextTaskUnblockTime
	movt	r1, :upper16:xNextTaskUnblockTime
	str	r0, [r1]
	.loc	3 5438 17 is_stmt 1             @ ../../../../Source/tasks.c:5438:17
	b	.LBB11_13
.Ltmp251:
.LBB11_12:
	.loc	3 0 17 is_stmt 0                @ ../../../../Source/tasks.c:0:17
	b	.LBB11_13
.LBB11_13:
	b	.LBB11_14
.LBB11_14:
	b	.LBB11_15
.LBB11_15:
	.loc	3 5483 1 is_stmt 1              @ ../../../../Source/tasks.c:5483:1
	add	sp, #24
	pop	{r4, pc}
.Ltmp252:
.Lfunc_end11:
	.size	prvAddCurrentTaskToDelayedList, .Lfunc_end11-prvAddCurrentTaskToDelayedList
	.cfi_endproc
	.cantunwind
	.fnend
                                        @ -- End function
	.hidden	xTaskResumeAll                  @ -- Begin function xTaskResumeAll
	.globl	xTaskResumeAll
	.p2align	1
	.type	xTaskResumeAll,%function
	.code	16                              @ @xTaskResumeAll
	.thumb_func
xTaskResumeAll:
.Lfunc_begin12:
	.loc	3 2189 0                        @ ../../../../Source/tasks.c:2189:0
	.fnstart
	.cfi_startproc
@ %bb.0:
	.save	{r4, r5, r7, lr}
	push	{r4, r5, r7, lr}
	.cfi_def_cfa_offset 16
	.cfi_offset lr, -4
	.cfi_offset r7, -8
	.cfi_offset r5, -12
	.cfi_offset r4, -16
	.pad	#24
	sub	sp, #24
	.cfi_def_cfa_offset 40
	movs	r0, #0
.Ltmp253:
	.loc	3 2190 13 prologue_end          @ ../../../../Source/tasks.c:2190:13
	str	r0, [sp, #20]
	.loc	3 2191 16                       @ ../../../../Source/tasks.c:2191:16
	str	r0, [sp, #16]
.Ltmp254:
	.loc	3 2195 5                        @ ../../../../Source/tasks.c:2195:5
	movw	r0, :lower16:uxSchedulerSuspended
	movt	r0, :upper16:uxSchedulerSuspended
	ldr	r0, [r0]
.Ltmp255:
	.loc	3 2195 5 is_stmt 0              @ ../../../../Source/tasks.c:2195:5
	cbnz	r0, .LBB12_3
	b	.LBB12_1
.LBB12_1:
.Ltmp256:
	.loc	3 2195 5                        @ ../../../../Source/tasks.c:2195:5
	@APP
	cpsid i
	@NO_APP
	b	.LBB12_2
.LBB12_2:                               @ =>This Inner Loop Header: Depth=1
.Ltmp257:
	.loc	3 2195 5                        @ ../../../../Source/tasks.c:2195:5
	b	.LBB12_2
.Ltmp258:
.LBB12_3:
	.loc	3 2202 5 is_stmt 1              @ ../../../../Source/tasks.c:2202:5
	bl	vPortEnterCritical
.Ltmp259:
	.loc	3 2204 9                        @ ../../../../Source/tasks.c:2204:9
	movw	r0, :lower16:uxSchedulerSuspended
	movt	r0, :upper16:uxSchedulerSuspended
	ldr	r1, [r0]
	subs	r1, r1, #1
	str	r1, [r0]
.Ltmp260:
	.loc	3 2206 13                       @ ../../../../Source/tasks.c:2206:13
	ldr	r0, [r0]
.Ltmp261:
	.loc	3 2206 13 is_stmt 0             @ ../../../../Source/tasks.c:2206:13
	cbz	r0, .LBB12_4
	b	.LBB12_41
.LBB12_4:
.Ltmp262:
	.loc	3 2208 17 is_stmt 1             @ ../../../../Source/tasks.c:2208:17
	movw	r0, :lower16:uxCurrentNumberOfTasks
	movt	r0, :upper16:uxCurrentNumberOfTasks
	ldr	r0, [r0]
.Ltmp263:
	.loc	3 2208 17 is_stmt 0             @ ../../../../Source/tasks.c:2208:17
	cbnz	r0, .LBB12_5
	b	.LBB12_40
.LBB12_5:
.Ltmp264:
	.loc	3 2212 17 is_stmt 1             @ ../../../../Source/tasks.c:2212:17
	b	.LBB12_6
.LBB12_6:                               @ =>This Inner Loop Header: Depth=1
	.loc	3 2212 24 is_stmt 0             @ ../../../../Source/tasks.c:2212:24
	movw	r0, :lower16:xPendingReadyList
	movt	r0, :upper16:xPendingReadyList
	ldr	r0, [r0]
	.loc	3 2212 17                       @ ../../../../Source/tasks.c:2212:17
	cbnz	r0, .LBB12_7
	b	.LBB12_25
.LBB12_7:                               @   in Loop: Header=BB12_6 Depth=1
.Ltmp265:
	.loc	3 2214 29 is_stmt 1             @ ../../../../Source/tasks.c:2214:29
	movw	r0, :lower16:xPendingReadyList
	movt	r0, :upper16:xPendingReadyList
	ldr	r0, [r0, #12]
	ldr	r0, [r0, #12]
	.loc	3 2214 27 is_stmt 0             @ ../../../../Source/tasks.c:2214:27
	str	r0, [sp, #20]
	.loc	3 2215 21 is_stmt 1             @ ../../../../Source/tasks.c:2215:21
	b	.LBB12_8
.LBB12_8:                               @   in Loop: Header=BB12_6 Depth=1
.Ltmp266:
	.loc	3 2215 21 is_stmt 0             @ ../../../../Source/tasks.c:2215:21
	ldr	r0, [sp, #20]
	movs	r1, #160
	ldr	r0, [r0, r1]
	str	r0, [sp, #12]
	ldr	r1, [sp, #20]
	adds	r1, #144
	ldr	r0, [r1, #8]
	ldr	r1, [r1, #4]
	str	r0, [r1, #8]
	ldr	r1, [sp, #20]
	adds	r1, #144
	ldr	r0, [r1, #4]
	ldr	r1, [r1, #8]
	str	r0, [r1, #4]
.Ltmp267:
	.loc	3 2215 21                       @ ../../../../Source/tasks.c:2215:21
	ldr	r0, [sp, #12]
	ldr	r0, [r0, #4]
	ldr	r1, [sp, #20]
	adds	r1, #144
.Ltmp268:
	.loc	3 2215 21                       @ ../../../../Source/tasks.c:2215:21
	cmp	r0, r1
	bne	.LBB12_10
	b	.LBB12_9
.LBB12_9:                               @   in Loop: Header=BB12_6 Depth=1
.Ltmp269:
	.loc	3 2215 21                       @ ../../../../Source/tasks.c:2215:21
	ldr	r0, [sp, #20]
	movs	r1, #152
	ldr	r0, [r0, r1]
	ldr	r1, [sp, #12]
	str	r0, [r1, #4]
	b	.LBB12_10
.Ltmp270:
.LBB12_10:                              @   in Loop: Header=BB12_6 Depth=1
	.loc	3 2215 21                       @ ../../../../Source/tasks.c:2215:21
	ldr	r1, [sp, #20]
	movs	r2, #160
	movs	r0, #0
	str	r0, [r1, r2]
	ldr	r1, [sp, #12]
	ldr	r0, [r1]
	subs	r0, r0, #1
	str	r0, [r1]
	b	.LBB12_11
.Ltmp271:
.LBB12_11:                              @   in Loop: Header=BB12_6 Depth=1
	.loc	3 2216 21 is_stmt 1             @ ../../../../Source/tasks.c:2216:21
	@APP
	@NO_APP
	.loc	3 2217 21                       @ ../../../../Source/tasks.c:2217:21
	b	.LBB12_12
.LBB12_12:                              @   in Loop: Header=BB12_6 Depth=1
.Ltmp272:
	.loc	3 2217 21 is_stmt 0             @ ../../../../Source/tasks.c:2217:21
	ldr	r0, [sp, #20]
	movs	r1, #140
	ldr	r0, [r0, r1]
	str	r0, [sp, #8]
	ldr	r1, [sp, #20]
	adds	r1, #124
	ldr	r0, [r1, #8]
	ldr	r1, [r1, #4]
	str	r0, [r1, #8]
	ldr	r1, [sp, #20]
	adds	r1, #124
	ldr	r0, [r1, #4]
	ldr	r1, [r1, #8]
	str	r0, [r1, #4]
.Ltmp273:
	.loc	3 2217 21                       @ ../../../../Source/tasks.c:2217:21
	ldr	r0, [sp, #8]
	ldr	r0, [r0, #4]
	ldr	r1, [sp, #20]
	adds	r1, #124
.Ltmp274:
	.loc	3 2217 21                       @ ../../../../Source/tasks.c:2217:21
	cmp	r0, r1
	bne	.LBB12_14
	b	.LBB12_13
.LBB12_13:                              @   in Loop: Header=BB12_6 Depth=1
.Ltmp275:
	.loc	3 2217 21                       @ ../../../../Source/tasks.c:2217:21
	ldr	r0, [sp, #20]
	movs	r1, #132
	ldr	r0, [r0, r1]
	ldr	r1, [sp, #8]
	str	r0, [r1, #4]
	b	.LBB12_14
.Ltmp276:
.LBB12_14:                              @   in Loop: Header=BB12_6 Depth=1
	.loc	3 2217 21                       @ ../../../../Source/tasks.c:2217:21
	ldr	r1, [sp, #20]
	movs	r2, #140
	movs	r0, #0
	str	r0, [r1, r2]
	ldr	r1, [sp, #8]
	ldr	r0, [r1]
	subs	r0, r0, #1
	str	r0, [r1]
	b	.LBB12_15
.Ltmp277:
.LBB12_15:                              @   in Loop: Header=BB12_6 Depth=1
	.loc	3 2218 21 is_stmt 1             @ ../../../../Source/tasks.c:2218:21
	b	.LBB12_16
.LBB12_16:                              @   in Loop: Header=BB12_6 Depth=1
.Ltmp278:
	.loc	3 2218 21 is_stmt 0             @ ../../../../Source/tasks.c:2218:21
	ldr	r0, [sp, #20]
	movs	r1, #164
	ldr	r0, [r0, r1]
	movw	r1, :lower16:uxTopReadyPriority
	movt	r1, :upper16:uxTopReadyPriority
	ldr	r1, [r1]
.Ltmp279:
	.loc	3 2218 21                       @ ../../../../Source/tasks.c:2218:21
	cmp	r0, r1
	bls	.LBB12_18
	b	.LBB12_17
.LBB12_17:                              @   in Loop: Header=BB12_6 Depth=1
.Ltmp280:
	.loc	3 2218 21                       @ ../../../../Source/tasks.c:2218:21
	ldr	r0, [sp, #20]
	movs	r1, #164
	ldr	r0, [r0, r1]
	movw	r1, :lower16:uxTopReadyPriority
	movt	r1, :upper16:uxTopReadyPriority
	str	r0, [r1]
	b	.LBB12_18
.Ltmp281:
.LBB12_18:                              @   in Loop: Header=BB12_6 Depth=1
	.loc	3 2218 21                       @ ../../../../Source/tasks.c:2218:21
	b	.LBB12_19
.LBB12_19:                              @   in Loop: Header=BB12_6 Depth=1
.Ltmp282:
	.loc	3 2218 21                       @ ../../../../Source/tasks.c:2218:21
	ldr	r0, [sp, #20]
	movs	r3, #164
	ldr	r1, [r0, r3]
	movs	r2, #20
	mov	r0, r2
	muls	r0, r1, r0
	movw	r1, :lower16:pxReadyTasksLists
	movt	r1, :upper16:pxReadyTasksLists
	adds	r0, r1, r0
	ldr	r0, [r0, #4]
	str	r0, [sp, #4]
	ldr	r0, [sp, #4]
	ldr	r4, [sp, #20]
	movs	r5, #128
	str	r0, [r4, r5]
	ldr	r0, [sp, #4]
	ldr	r0, [r0, #8]
	ldr	r4, [sp, #20]
	movs	r5, #132
	str	r0, [r4, r5]
	ldr	r0, [sp, #20]
	adds	r0, #124
	ldr	r4, [sp, #4]
	ldr	r4, [r4, #8]
	str	r0, [r4, #4]
	ldr	r0, [sp, #20]
	adds	r0, #124
	ldr	r4, [sp, #4]
	str	r0, [r4, #8]
	ldr	r4, [sp, #20]
	ldr	r5, [r4, r3]
	mov	r0, r2
	muls	r0, r5, r0
	adds	r0, r1, r0
	movs	r5, #140
	str	r0, [r4, r5]
	ldr	r0, [sp, #20]
	ldr	r0, [r0, r3]
	muls	r2, r0, r2
	ldr	r0, [r1, r2]
	adds	r0, r0, #1
	str	r0, [r1, r2]
	b	.LBB12_20
.Ltmp283:
.LBB12_20:                              @   in Loop: Header=BB12_6 Depth=1
	.loc	3 2218 21                       @ ../../../../Source/tasks.c:2218:21
	b	.LBB12_21
.Ltmp284:
.LBB12_21:                              @   in Loop: Header=BB12_6 Depth=1
	.loc	3 2222 25 is_stmt 1             @ ../../../../Source/tasks.c:2222:25
	ldr	r0, [sp, #20]
	movs	r2, #164
	.loc	3 2222 32 is_stmt 0             @ ../../../../Source/tasks.c:2222:32
	ldr	r0, [r0, r2]
	.loc	3 2222 45                       @ ../../../../Source/tasks.c:2222:45
	movw	r1, :lower16:pxCurrentTCB
	movt	r1, :upper16:pxCurrentTCB
	ldr	r1, [r1]
	.loc	3 2222 59                       @ ../../../../Source/tasks.c:2222:59
	ldr	r1, [r1, r2]
.Ltmp285:
	.loc	3 2222 25                       @ ../../../../Source/tasks.c:2222:25
	cmp	r0, r1
	bls	.LBB12_23
	b	.LBB12_22
.LBB12_22:                              @   in Loop: Header=BB12_6 Depth=1
.Ltmp286:
	.loc	3 2224 39 is_stmt 1             @ ../../../../Source/tasks.c:2224:39
	movw	r1, :lower16:xYieldPending
	movt	r1, :upper16:xYieldPending
	movs	r0, #1
	str	r0, [r1]
	.loc	3 2225 21                       @ ../../../../Source/tasks.c:2225:21
	b	.LBB12_24
.Ltmp287:
.LBB12_23:                              @   in Loop: Header=BB12_6 Depth=1
	.loc	3 0 21 is_stmt 0                @ ../../../../Source/tasks.c:0:21
	b	.LBB12_24
.LBB12_24:                              @   in Loop: Header=BB12_6 Depth=1
	.loc	3 2212 17 is_stmt 1             @ ../../../../Source/tasks.c:2212:17
	b	.LBB12_6
.LBB12_25:
.Ltmp288:
	.loc	3 2232 21                       @ ../../../../Source/tasks.c:2232:21
	ldr	r0, [sp, #20]
.Ltmp289:
	.loc	3 2232 21 is_stmt 0             @ ../../../../Source/tasks.c:2232:21
	cbz	r0, .LBB12_27
	b	.LBB12_26
.LBB12_26:
.Ltmp290:
	.loc	3 2240 21 is_stmt 1             @ ../../../../Source/tasks.c:2240:21
	bl	prvResetNextTaskUnblockTime
	.loc	3 2241 17                       @ ../../../../Source/tasks.c:2241:17
	b	.LBB12_27
.Ltmp291:
.LBB12_27:
	.loc	3 2248 48                       @ ../../../../Source/tasks.c:2248:48
	movw	r0, :lower16:xPendedTicks
	movt	r0, :upper16:xPendedTicks
	ldr	r0, [r0]
	.loc	3 2248 32 is_stmt 0             @ ../../../../Source/tasks.c:2248:32
	str	r0, [sp]
.Ltmp292:
	.loc	3 2250 25 is_stmt 1             @ ../../../../Source/tasks.c:2250:25
	ldr	r0, [sp]
.Ltmp293:
	.loc	3 2250 25 is_stmt 0             @ ../../../../Source/tasks.c:2250:25
	cbz	r0, .LBB12_35
	b	.LBB12_28
.LBB12_28:
.Ltmp294:
	.loc	3 2252 25 is_stmt 1             @ ../../../../Source/tasks.c:2252:25
	b	.LBB12_29
.LBB12_29:                              @ =>This Inner Loop Header: Depth=1
.Ltmp295:
	.loc	3 2254 33                       @ ../../../../Source/tasks.c:2254:33
	bl	xTaskIncrementTick
.Ltmp296:
	.loc	3 2254 33 is_stmt 0             @ ../../../../Source/tasks.c:2254:33
	cbz	r0, .LBB12_31
	b	.LBB12_30
.LBB12_30:                              @   in Loop: Header=BB12_29 Depth=1
.Ltmp297:
	.loc	3 2256 47 is_stmt 1             @ ../../../../Source/tasks.c:2256:47
	movw	r1, :lower16:xYieldPending
	movt	r1, :upper16:xYieldPending
	movs	r0, #1
	str	r0, [r1]
	.loc	3 2257 29                       @ ../../../../Source/tasks.c:2257:29
	b	.LBB12_32
.Ltmp298:
.LBB12_31:                              @   in Loop: Header=BB12_29 Depth=1
	.loc	3 0 29 is_stmt 0                @ ../../../../Source/tasks.c:0:29
	b	.LBB12_32
.LBB12_32:                              @   in Loop: Header=BB12_29 Depth=1
	.loc	3 2263 29 is_stmt 1             @ ../../../../Source/tasks.c:2263:29
	ldr	r0, [sp]
	subs	r0, r0, #1
	str	r0, [sp]
	.loc	3 2264 25                       @ ../../../../Source/tasks.c:2264:25
	b	.LBB12_33
.Ltmp299:
.LBB12_33:                              @   in Loop: Header=BB12_29 Depth=1
	.loc	3 2264 34 is_stmt 0             @ ../../../../Source/tasks.c:2264:34
	ldr	r0, [sp]
.Ltmp300:
	.loc	3 2264 25                       @ ../../../../Source/tasks.c:2264:25
	cmp	r0, #0
	bne	.LBB12_29
	b	.LBB12_34
.Ltmp301:
.LBB12_34:
	.loc	3 2266 38 is_stmt 1             @ ../../../../Source/tasks.c:2266:38
	movw	r1, :lower16:xPendedTicks
	movt	r1, :upper16:xPendedTicks
	movs	r0, #0
	str	r0, [r1]
	.loc	3 2267 21                       @ ../../../../Source/tasks.c:2267:21
	b	.LBB12_36
.Ltmp302:
.LBB12_35:
	.loc	3 0 21 is_stmt 0                @ ../../../../Source/tasks.c:0:21
	b	.LBB12_36
.LBB12_36:
.Ltmp303:
	.loc	3 2274 21 is_stmt 1             @ ../../../../Source/tasks.c:2274:21
	movw	r0, :lower16:xYieldPending
	movt	r0, :upper16:xYieldPending
	ldr	r0, [r0]
.Ltmp304:
	.loc	3 2274 21 is_stmt 0             @ ../../../../Source/tasks.c:2274:21
	cbz	r0, .LBB12_38
	b	.LBB12_37
.LBB12_37:
	.loc	3 0 21                          @ ../../../../Source/tasks.c:0:21
	movs	r0, #1
.Ltmp305:
	.loc	3 2278 41 is_stmt 1             @ ../../../../Source/tasks.c:2278:41
	str	r0, [sp, #16]
.Ltmp306:
	.loc	3 2281 21                       @ ../../../../Source/tasks.c:2281:21
	bl	vPortYield
	.loc	3 2282 17                       @ ../../../../Source/tasks.c:2282:17
	b	.LBB12_39
.Ltmp307:
.LBB12_38:
	.loc	3 0 17 is_stmt 0                @ ../../../../Source/tasks.c:0:17
	b	.LBB12_39
.LBB12_39:
	.loc	3 2287 13 is_stmt 1             @ ../../../../Source/tasks.c:2287:13
	b	.LBB12_40
.Ltmp308:
.LBB12_40:
	.loc	3 2288 9                        @ ../../../../Source/tasks.c:2288:9
	b	.LBB12_42
.Ltmp309:
.LBB12_41:
	.loc	3 0 9 is_stmt 0                 @ ../../../../Source/tasks.c:0:9
	b	.LBB12_42
.LBB12_42:
	.loc	3 2294 5 is_stmt 1              @ ../../../../Source/tasks.c:2294:5
	bl	vPortExitCritical
	.loc	3 2296 12                       @ ../../../../Source/tasks.c:2296:12
	ldr	r0, [sp, #16]
	.loc	3 2296 5 is_stmt 0              @ ../../../../Source/tasks.c:2296:5
	add	sp, #24
	pop	{r4, r5, r7, pc}
.Ltmp310:
.Lfunc_end12:
	.size	xTaskResumeAll, .Lfunc_end12-xTaskResumeAll
	.cfi_endproc
	.cantunwind
	.fnend
                                        @ -- End function
	.hidden	vTaskDelay                      @ -- Begin function vTaskDelay
	.globl	vTaskDelay
	.p2align	1
	.type	vTaskDelay,%function
	.code	16                              @ @vTaskDelay
	.thumb_func
vTaskDelay:
.Lfunc_begin13:
	.loc	3 1306 0 is_stmt 1              @ ../../../../Source/tasks.c:1306:0
	.fnstart
	.cfi_startproc
@ %bb.0:
	.save	{r7, lr}
	push	{r7, lr}
	.cfi_def_cfa_offset 8
	.cfi_offset lr, -4
	.cfi_offset r7, -8
	.pad	#8
	sub	sp, #8
	.cfi_def_cfa_offset 16
	str	r0, [sp, #4]
	movs	r0, #0
.Ltmp311:
	.loc	3 1307 20 prologue_end          @ ../../../../Source/tasks.c:1307:20
	str	r0, [sp]
.Ltmp312:
	.loc	3 1310 13                       @ ../../../../Source/tasks.c:1310:13
	ldr	r0, [sp, #4]
.Ltmp313:
	.loc	3 1310 13 is_stmt 0             @ ../../../../Source/tasks.c:1310:13
	cbz	r0, .LBB13_5
	b	.LBB13_1
.LBB13_1:
.Ltmp314:
	.loc	3 1312 13 is_stmt 1             @ ../../../../Source/tasks.c:1312:13
	movw	r0, :lower16:uxSchedulerSuspended
	movt	r0, :upper16:uxSchedulerSuspended
	ldr	r0, [r0]
.Ltmp315:
	.loc	3 1312 13 is_stmt 0             @ ../../../../Source/tasks.c:1312:13
	cbz	r0, .LBB13_4
	b	.LBB13_2
.LBB13_2:
.Ltmp316:
	.loc	3 1312 13                       @ ../../../../Source/tasks.c:1312:13
	@APP
	cpsid i
	@NO_APP
	b	.LBB13_3
.LBB13_3:                               @ =>This Inner Loop Header: Depth=1
.Ltmp317:
	.loc	3 1312 13                       @ ../../../../Source/tasks.c:1312:13
	b	.LBB13_3
.Ltmp318:
.LBB13_4:
	.loc	3 1313 13 is_stmt 1             @ ../../../../Source/tasks.c:1313:13
	bl	vTaskSuspendAll
.Ltmp319:
	.loc	3 1324 49                       @ ../../../../Source/tasks.c:1324:49
	ldr	r0, [sp, #4]
	movs	r1, #0
	.loc	3 1324 17 is_stmt 0             @ ../../../../Source/tasks.c:1324:17
	bl	prvAddCurrentTaskToDelayedList
.Ltmp320:
	.loc	3 1326 31 is_stmt 1             @ ../../../../Source/tasks.c:1326:31
	bl	xTaskResumeAll
	.loc	3 1326 29 is_stmt 0             @ ../../../../Source/tasks.c:1326:29
	str	r0, [sp]
	.loc	3 1327 9 is_stmt 1              @ ../../../../Source/tasks.c:1327:9
	b	.LBB13_6
.Ltmp321:
.LBB13_5:
	.loc	3 0 9 is_stmt 0                 @ ../../../../Source/tasks.c:0:9
	b	.LBB13_6
.LBB13_6:
.Ltmp322:
	.loc	3 1335 13 is_stmt 1             @ ../../../../Source/tasks.c:1335:13
	ldr	r0, [sp]
.Ltmp323:
	.loc	3 1335 13 is_stmt 0             @ ../../../../Source/tasks.c:1335:13
	cbnz	r0, .LBB13_8
	b	.LBB13_7
.LBB13_7:
.Ltmp324:
	.loc	3 1337 13 is_stmt 1             @ ../../../../Source/tasks.c:1337:13
	bl	vPortYield
	.loc	3 1338 9                        @ ../../../../Source/tasks.c:1338:9
	b	.LBB13_9
.Ltmp325:
.LBB13_8:
	.loc	3 0 9 is_stmt 0                 @ ../../../../Source/tasks.c:0:9
	b	.LBB13_9
.LBB13_9:
	.loc	3 1343 5 is_stmt 1              @ ../../../../Source/tasks.c:1343:5
	add	sp, #8
	pop	{r7, pc}
.Ltmp326:
.Lfunc_end13:
	.size	vTaskDelay, .Lfunc_end13-vTaskDelay
	.cfi_endproc
	.cantunwind
	.fnend
                                        @ -- End function
	.hidden	eTaskGetState                   @ -- Begin function eTaskGetState
	.globl	eTaskGetState
	.p2align	1
	.type	eTaskGetState,%function
	.code	16                              @ @eTaskGetState
	.thumb_func
eTaskGetState:
.Lfunc_begin14:
	.loc	3 1351 0                        @ ../../../../Source/tasks.c:1351:0
	.fnstart
	.cfi_startproc
@ %bb.0:
	.save	{r7, lr}
	push	{r7, lr}
	.cfi_def_cfa_offset 8
	.cfi_offset lr, -4
	.cfi_offset r7, -8
	.pad	#32
	sub	sp, #32
	.cfi_def_cfa_offset 40
	str	r0, [sp, #28]
.Ltmp327:
	.loc	3 1357 37 prologue_end          @ ../../../../Source/tasks.c:1357:37
	ldr	r0, [sp, #28]
	.loc	3 1357 29 is_stmt 0             @ ../../../../Source/tasks.c:1357:29
	str	r0, [sp, #4]
.Ltmp328:
	.loc	3 1359 9 is_stmt 1              @ ../../../../Source/tasks.c:1359:9
	ldr	r0, [sp, #4]
.Ltmp329:
	.loc	3 1359 9 is_stmt 0              @ ../../../../Source/tasks.c:1359:9
	cbnz	r0, .LBB14_3
	b	.LBB14_1
.LBB14_1:
.Ltmp330:
	.loc	3 1359 9                        @ ../../../../Source/tasks.c:1359:9
	@APP
	cpsid i
	@NO_APP
	b	.LBB14_2
.LBB14_2:                               @ =>This Inner Loop Header: Depth=1
.Ltmp331:
	.loc	3 1359 9                        @ ../../../../Source/tasks.c:1359:9
	b	.LBB14_2
.Ltmp332:
.LBB14_3:
	.loc	3 1361 13 is_stmt 1             @ ../../../../Source/tasks.c:1361:13
	ldr	r0, [sp, #4]
	.loc	3 1361 22 is_stmt 0             @ ../../../../Source/tasks.c:1361:22
	movw	r1, :lower16:pxCurrentTCB
	movt	r1, :upper16:pxCurrentTCB
	ldr	r1, [r1]
.Ltmp333:
	.loc	3 1361 13                       @ ../../../../Source/tasks.c:1361:13
	cmp	r0, r1
	bne	.LBB14_5
	b	.LBB14_4
.LBB14_4:
	.loc	3 0 13                          @ ../../../../Source/tasks.c:0:13
	movs	r0, #0
.Ltmp334:
	.loc	3 1364 21 is_stmt 1             @ ../../../../Source/tasks.c:1364:21
	str	r0, [sp, #24]
	.loc	3 1365 9                        @ ../../../../Source/tasks.c:1365:9
	b	.LBB14_29
.Ltmp335:
.LBB14_5:
	.loc	3 1368 13                       @ ../../../../Source/tasks.c:1368:13
	bl	vPortEnterCritical
.Ltmp336:
	.loc	3 1370 31                       @ ../../../../Source/tasks.c:1370:31
	ldr	r0, [sp, #4]
	movs	r1, #140
	ldr	r0, [r0, r1]
	.loc	3 1370 29 is_stmt 0             @ ../../../../Source/tasks.c:1370:29
	str	r0, [sp, #20]
	.loc	3 1371 31 is_stmt 1             @ ../../../../Source/tasks.c:1371:31
	ldr	r0, [sp, #4]
	movs	r1, #160
	ldr	r0, [r0, r1]
	.loc	3 1371 29 is_stmt 0             @ ../../../../Source/tasks.c:1371:29
	str	r0, [sp, #16]
	.loc	3 1372 33 is_stmt 1             @ ../../../../Source/tasks.c:1372:33
	movw	r0, :lower16:pxDelayedTaskList
	movt	r0, :upper16:pxDelayedTaskList
	ldr	r0, [r0]
	.loc	3 1372 31 is_stmt 0             @ ../../../../Source/tasks.c:1372:31
	str	r0, [sp, #12]
	.loc	3 1373 43 is_stmt 1             @ ../../../../Source/tasks.c:1373:43
	movw	r0, :lower16:pxOverflowDelayedTaskList
	movt	r0, :upper16:pxOverflowDelayedTaskList
	ldr	r0, [r0]
	.loc	3 1373 41 is_stmt 0             @ ../../../../Source/tasks.c:1373:41
	str	r0, [sp, #8]
.Ltmp337:
	.loc	3 1375 13 is_stmt 1             @ ../../../../Source/tasks.c:1375:13
	bl	vPortExitCritical
.Ltmp338:
	.loc	3 1377 17                       @ ../../../../Source/tasks.c:1377:17
	ldr	r0, [sp, #16]
	.loc	3 1377 29 is_stmt 0             @ ../../../../Source/tasks.c:1377:29
	movw	r1, :lower16:xPendingReadyList
	movt	r1, :upper16:xPendingReadyList
.Ltmp339:
	.loc	3 1377 17                       @ ../../../../Source/tasks.c:1377:17
	cmp	r0, r1
	bne	.LBB14_7
	b	.LBB14_6
.LBB14_6:
	.loc	3 0 17                          @ ../../../../Source/tasks.c:0:17
	movs	r0, #1
.Ltmp340:
	.loc	3 1382 25 is_stmt 1             @ ../../../../Source/tasks.c:1382:25
	str	r0, [sp, #24]
	.loc	3 1383 13                       @ ../../../../Source/tasks.c:1383:13
	b	.LBB14_28
.Ltmp341:
.LBB14_7:
	.loc	3 1384 24                       @ ../../../../Source/tasks.c:1384:24
	ldr	r0, [sp, #20]
	.loc	3 1384 39 is_stmt 0             @ ../../../../Source/tasks.c:1384:39
	ldr	r1, [sp, #12]
	.loc	3 1384 55                       @ ../../../../Source/tasks.c:1384:55
	cmp	r0, r1
	beq	.LBB14_9
	b	.LBB14_8
.LBB14_8:
	.loc	3 1384 60                       @ ../../../../Source/tasks.c:1384:60
	ldr	r0, [sp, #20]
	.loc	3 1384 75                       @ ../../../../Source/tasks.c:1384:75
	ldr	r1, [sp, #8]
.Ltmp342:
	.loc	3 1384 22                       @ ../../../../Source/tasks.c:1384:22
	cmp	r0, r1
	bne	.LBB14_10
	b	.LBB14_9
.LBB14_9:
	.loc	3 0 22                          @ ../../../../Source/tasks.c:0:22
	movs	r0, #2
.Ltmp343:
	.loc	3 1388 25 is_stmt 1             @ ../../../../Source/tasks.c:1388:25
	str	r0, [sp, #24]
	.loc	3 1389 13                       @ ../../../../Source/tasks.c:1389:13
	b	.LBB14_27
.Ltmp344:
.LBB14_10:
	.loc	3 1392 26                       @ ../../../../Source/tasks.c:1392:26
	ldr	r0, [sp, #20]
	.loc	3 1392 38 is_stmt 0             @ ../../../../Source/tasks.c:1392:38
	movw	r1, :lower16:xSuspendedTaskList
	movt	r1, :upper16:xSuspendedTaskList
.Ltmp345:
	.loc	3 1392 26                       @ ../../../../Source/tasks.c:1392:26
	cmp	r0, r1
	bne	.LBB14_21
	b	.LBB14_11
.LBB14_11:
.Ltmp346:
	.loc	3 1397 25 is_stmt 1             @ ../../../../Source/tasks.c:1397:25
	ldr	r0, [sp, #4]
	movs	r1, #160
	ldr	r0, [r0, r1]
.Ltmp347:
	.loc	3 1397 25 is_stmt 0             @ ../../../../Source/tasks.c:1397:25
	cbnz	r0, .LBB14_19
	b	.LBB14_12
.LBB14_12:
	.loc	3 0 25                          @ ../../../../Source/tasks.c:0:25
	movs	r0, #3
.Ltmp348:
	.loc	3 1408 37 is_stmt 1             @ ../../../../Source/tasks.c:1408:37
	str	r0, [sp, #24]
	movs	r0, #0
.Ltmp349:
	.loc	3 1410 36                       @ ../../../../Source/tasks.c:1410:36
	str	r0, [sp]
	.loc	3 1410 34 is_stmt 0             @ ../../../../Source/tasks.c:1410:34
	b	.LBB14_13
.LBB14_13:                              @ =>This Inner Loop Header: Depth=1
.Ltmp350:
	.loc	3 1410 41                       @ ../../../../Source/tasks.c:1410:41
	ldr	r0, [sp]
.Ltmp351:
	.loc	3 1410 29                       @ ../../../../Source/tasks.c:1410:29
	cmp	r0, #2
	bgt	.LBB14_18
	b	.LBB14_14
.LBB14_14:                              @   in Loop: Header=BB14_13 Depth=1
.Ltmp352:
	.loc	3 1412 37 is_stmt 1             @ ../../../../Source/tasks.c:1412:37
	ldr	r0, [sp, #4]
	.loc	3 1412 59 is_stmt 0             @ ../../../../Source/tasks.c:1412:59
	ldr	r1, [sp]
	.loc	3 1412 44                       @ ../../../../Source/tasks.c:1412:44
	adds	r0, r0, r1
	movs	r1, #212
	.loc	3 1412 37                       @ ../../../../Source/tasks.c:1412:37
	ldrb	r0, [r0, r1]
.Ltmp353:
	.loc	3 1412 37                       @ ../../../../Source/tasks.c:1412:37
	cmp	r0, #1
	bne	.LBB14_16
	b	.LBB14_15
.LBB14_15:
	.loc	3 0 37                          @ ../../../../Source/tasks.c:0:37
	movs	r0, #2
.Ltmp354:
	.loc	3 1414 45 is_stmt 1             @ ../../../../Source/tasks.c:1414:45
	str	r0, [sp, #24]
	.loc	3 1415 37                       @ ../../../../Source/tasks.c:1415:37
	b	.LBB14_18
.Ltmp355:
.LBB14_16:                              @   in Loop: Header=BB14_13 Depth=1
	.loc	3 1417 29                       @ ../../../../Source/tasks.c:1417:29
	b	.LBB14_17
.Ltmp356:
.LBB14_17:                              @   in Loop: Header=BB14_13 Depth=1
	.loc	3 1410 85                       @ ../../../../Source/tasks.c:1410:85
	ldr	r0, [sp]
	adds	r0, r0, #1
	str	r0, [sp]
	.loc	3 1410 29 is_stmt 0             @ ../../../../Source/tasks.c:1410:29
	b	.LBB14_13
.Ltmp357:
.LBB14_18:
	.loc	3 1424 21 is_stmt 1             @ ../../../../Source/tasks.c:1424:21
	b	.LBB14_20
.Ltmp358:
.LBB14_19:
	.loc	3 0 21 is_stmt 0                @ ../../../../Source/tasks.c:0:21
	movs	r0, #2
.Ltmp359:
	.loc	3 1427 33 is_stmt 1             @ ../../../../Source/tasks.c:1427:33
	str	r0, [sp, #24]
	b	.LBB14_20
.Ltmp360:
.LBB14_20:
	.loc	3 1429 17                       @ ../../../../Source/tasks.c:1429:17
	b	.LBB14_26
.Ltmp361:
.LBB14_21:
	.loc	3 1433 28                       @ ../../../../Source/tasks.c:1433:28
	ldr	r0, [sp, #20]
	.loc	3 1433 40 is_stmt 0             @ ../../../../Source/tasks.c:1433:40
	movw	r1, :lower16:xTasksWaitingTermination
	movt	r1, :upper16:xTasksWaitingTermination
	.loc	3 1433 71                       @ ../../../../Source/tasks.c:1433:71
	cmp	r0, r1
	beq	.LBB14_23
	b	.LBB14_22
.LBB14_22:
	.loc	3 1433 76                       @ ../../../../Source/tasks.c:1433:76
	ldr	r0, [sp, #20]
.Ltmp362:
	.loc	3 1433 26                       @ ../../../../Source/tasks.c:1433:26
	cbnz	r0, .LBB14_24
	b	.LBB14_23
.LBB14_23:
	.loc	3 0 26                          @ ../../../../Source/tasks.c:0:26
	movs	r0, #4
.Ltmp363:
	.loc	3 1438 29 is_stmt 1             @ ../../../../Source/tasks.c:1438:29
	str	r0, [sp, #24]
	.loc	3 1439 17                       @ ../../../../Source/tasks.c:1439:17
	b	.LBB14_25
.Ltmp364:
.LBB14_24:
	.loc	3 0 17 is_stmt 0                @ ../../../../Source/tasks.c:0:17
	movs	r0, #1
.Ltmp365:
	.loc	3 1446 25 is_stmt 1             @ ../../../../Source/tasks.c:1446:25
	str	r0, [sp, #24]
	b	.LBB14_25
.Ltmp366:
.LBB14_25:
	.loc	3 0 25 is_stmt 0                @ ../../../../Source/tasks.c:0:25
	b	.LBB14_26
.LBB14_26:
	b	.LBB14_27
.LBB14_27:
	b	.LBB14_28
.LBB14_28:
	b	.LBB14_29
.LBB14_29:
	.loc	3 1450 16 is_stmt 1             @ ../../../../Source/tasks.c:1450:16
	ldr	r0, [sp, #24]
	.loc	3 1450 9 is_stmt 0              @ ../../../../Source/tasks.c:1450:9
	add	sp, #32
	pop	{r7, pc}
.Ltmp367:
.Lfunc_end14:
	.size	eTaskGetState, .Lfunc_end14-eTaskGetState
	.cfi_endproc
	.cantunwind
	.fnend
                                        @ -- End function
	.hidden	uxTaskPriorityGet               @ -- Begin function uxTaskPriorityGet
	.globl	uxTaskPriorityGet
	.p2align	1
	.type	uxTaskPriorityGet,%function
	.code	16                              @ @uxTaskPriorityGet
	.thumb_func
uxTaskPriorityGet:
.Lfunc_begin15:
	.loc	3 1459 0 is_stmt 1              @ ../../../../Source/tasks.c:1459:0
	.fnstart
	.cfi_startproc
@ %bb.0:
	.save	{r7, lr}
	push	{r7, lr}
	.cfi_def_cfa_offset 8
	.cfi_offset lr, -4
	.cfi_offset r7, -8
	.pad	#16
	sub	sp, #16
	.cfi_def_cfa_offset 24
	str	r0, [sp, #12]
.Ltmp368:
	.loc	3 1463 9 prologue_end           @ ../../../../Source/tasks.c:1463:9
	bl	vPortEnterCritical
.Ltmp369:
	.loc	3 1467 21                       @ ../../../../Source/tasks.c:1467:21
	ldr	r0, [sp, #12]
	cbnz	r0, .LBB15_2
	b	.LBB15_1
.LBB15_1:
	movw	r0, :lower16:pxCurrentTCB
	movt	r0, :upper16:pxCurrentTCB
	ldr	r0, [r0]
	str	r0, [sp]                        @ 4-byte Spill
	b	.LBB15_3
.LBB15_2:
	ldr	r0, [sp, #12]
	str	r0, [sp]                        @ 4-byte Spill
	b	.LBB15_3
.LBB15_3:
	ldr	r0, [sp]                        @ 4-byte Reload
	.loc	3 1467 19 is_stmt 0             @ ../../../../Source/tasks.c:1467:19
	str	r0, [sp, #8]
	.loc	3 1468 24 is_stmt 1             @ ../../../../Source/tasks.c:1468:24
	ldr	r0, [sp, #8]
	movs	r1, #164
	.loc	3 1468 31 is_stmt 0             @ ../../../../Source/tasks.c:1468:31
	ldr	r0, [r0, r1]
	.loc	3 1468 22                       @ ../../../../Source/tasks.c:1468:22
	str	r0, [sp, #4]
.Ltmp370:
	.loc	3 1470 9 is_stmt 1              @ ../../../../Source/tasks.c:1470:9
	bl	vPortExitCritical
	.loc	3 1472 16                       @ ../../../../Source/tasks.c:1472:16
	ldr	r0, [sp, #4]
	.loc	3 1472 9 is_stmt 0              @ ../../../../Source/tasks.c:1472:9
	add	sp, #16
	pop	{r7, pc}
.Ltmp371:
.Lfunc_end15:
	.size	uxTaskPriorityGet, .Lfunc_end15-uxTaskPriorityGet
	.cfi_endproc
	.cantunwind
	.fnend
                                        @ -- End function
	.hidden	uxTaskPriorityGetFromISR        @ -- Begin function uxTaskPriorityGetFromISR
	.globl	uxTaskPriorityGetFromISR
	.p2align	1
	.type	uxTaskPriorityGetFromISR,%function
	.code	16                              @ @uxTaskPriorityGetFromISR
	.thumb_func
uxTaskPriorityGetFromISR:
.Lfunc_begin16:
	.loc	3 1481 0 is_stmt 1              @ ../../../../Source/tasks.c:1481:0
	.fnstart
	.cfi_startproc
@ %bb.0:
	.save	{r7, lr}
	push	{r7, lr}
	.cfi_def_cfa_offset 8
	.cfi_offset lr, -4
	.cfi_offset r7, -8
	.pad	#24
	sub	sp, #24
	.cfi_def_cfa_offset 32
	str	r0, [sp, #20]
.Ltmp372:
	.loc	3 1504 32 prologue_end          @ ../../../../Source/tasks.c:1504:32
	bl	ulSetInterruptMask
	.loc	3 1504 30 is_stmt 0             @ ../../../../Source/tasks.c:1504:30
	str	r0, [sp, #8]
.Ltmp373:
	.loc	3 1508 21 is_stmt 1             @ ../../../../Source/tasks.c:1508:21
	ldr	r0, [sp, #20]
	cbnz	r0, .LBB16_2
	b	.LBB16_1
.LBB16_1:
	movw	r0, :lower16:pxCurrentTCB
	movt	r0, :upper16:pxCurrentTCB
	ldr	r0, [r0]
	str	r0, [sp, #4]                    @ 4-byte Spill
	b	.LBB16_3
.LBB16_2:
	ldr	r0, [sp, #20]
	str	r0, [sp, #4]                    @ 4-byte Spill
	b	.LBB16_3
.LBB16_3:
	ldr	r0, [sp, #4]                    @ 4-byte Reload
	.loc	3 1508 19 is_stmt 0             @ ../../../../Source/tasks.c:1508:19
	str	r0, [sp, #16]
	.loc	3 1509 24 is_stmt 1             @ ../../../../Source/tasks.c:1509:24
	ldr	r0, [sp, #16]
	movs	r1, #164
	.loc	3 1509 31 is_stmt 0             @ ../../../../Source/tasks.c:1509:31
	ldr	r0, [r0, r1]
	.loc	3 1509 22                       @ ../../../../Source/tasks.c:1509:22
	str	r0, [sp, #12]
.Ltmp374:
	.loc	3 1511 9 is_stmt 1              @ ../../../../Source/tasks.c:1511:9
	ldr	r0, [sp, #8]
	bl	vClearInterruptMask
	.loc	3 1513 16                       @ ../../../../Source/tasks.c:1513:16
	ldr	r0, [sp, #12]
	.loc	3 1513 9 is_stmt 0              @ ../../../../Source/tasks.c:1513:9
	add	sp, #24
	pop	{r7, pc}
.Ltmp375:
.Lfunc_end16:
	.size	uxTaskPriorityGetFromISR, .Lfunc_end16-uxTaskPriorityGetFromISR
	.cfi_endproc
	.cantunwind
	.fnend
                                        @ -- End function
	.hidden	vTaskPrioritySet                @ -- Begin function vTaskPrioritySet
	.globl	vTaskPrioritySet
	.p2align	1
	.type	vTaskPrioritySet,%function
	.code	16                              @ @vTaskPrioritySet
	.thumb_func
vTaskPrioritySet:
.Lfunc_begin17:
	.loc	3 1523 0 is_stmt 1              @ ../../../../Source/tasks.c:1523:0
	.fnstart
	.cfi_startproc
@ %bb.0:
	.save	{r4, r5, r7, lr}
	push	{r4, r5, r7, lr}
	.cfi_def_cfa_offset 16
	.cfi_offset lr, -4
	.cfi_offset r7, -8
	.cfi_offset r5, -12
	.cfi_offset r4, -16
	.pad	#32
	sub	sp, #32
	.cfi_def_cfa_offset 48
	str	r0, [sp, #28]
	str	r1, [sp, #24]
	movs	r0, #0
.Ltmp376:
	.loc	3 1526 20 prologue_end          @ ../../../../Source/tasks.c:1526:20
	str	r0, [sp, #8]
.Ltmp377:
	.loc	3 1528 9                        @ ../../../../Source/tasks.c:1528:9
	ldr	r0, [sp, #24]
.Ltmp378:
	.loc	3 1528 9 is_stmt 0              @ ../../../../Source/tasks.c:1528:9
	cmp	r0, #5
	blo	.LBB17_3
	b	.LBB17_1
.LBB17_1:
.Ltmp379:
	.loc	3 1528 9                        @ ../../../../Source/tasks.c:1528:9
	@APP
	cpsid i
	@NO_APP
	b	.LBB17_2
.LBB17_2:                               @ =>This Inner Loop Header: Depth=1
.Ltmp380:
	.loc	3 1528 9                        @ ../../../../Source/tasks.c:1528:9
	b	.LBB17_2
.Ltmp381:
.LBB17_3:
	.loc	3 1531 13 is_stmt 1             @ ../../../../Source/tasks.c:1531:13
	ldr	r0, [sp, #24]
.Ltmp382:
	.loc	3 1531 13 is_stmt 0             @ ../../../../Source/tasks.c:1531:13
	cmp	r0, #5
	blo	.LBB17_5
	b	.LBB17_4
.LBB17_4:
	.loc	3 0 13                          @ ../../../../Source/tasks.c:0:13
	movs	r0, #4
.Ltmp383:
	.loc	3 1533 27 is_stmt 1             @ ../../../../Source/tasks.c:1533:27
	str	r0, [sp, #24]
	.loc	3 1534 9                        @ ../../../../Source/tasks.c:1534:9
	b	.LBB17_6
.Ltmp384:
.LBB17_5:
	.loc	3 0 9 is_stmt 0                 @ ../../../../Source/tasks.c:0:9
	b	.LBB17_6
.LBB17_6:
	.loc	3 1540 9 is_stmt 1              @ ../../../../Source/tasks.c:1540:9
	bl	vPortEnterCritical
.Ltmp385:
	.loc	3 1544 21                       @ ../../../../Source/tasks.c:1544:21
	ldr	r0, [sp, #28]
	cbnz	r0, .LBB17_8
	b	.LBB17_7
.LBB17_7:
	movw	r0, :lower16:pxCurrentTCB
	movt	r0, :upper16:pxCurrentTCB
	ldr	r0, [r0]
	str	r0, [sp]                        @ 4-byte Spill
	b	.LBB17_9
.LBB17_8:
	ldr	r0, [sp, #28]
	str	r0, [sp]                        @ 4-byte Spill
	b	.LBB17_9
.LBB17_9:
	ldr	r0, [sp]                        @ 4-byte Reload
	.loc	3 1544 19 is_stmt 0             @ ../../../../Source/tasks.c:1544:19
	str	r0, [sp, #20]
.Ltmp386:
	.loc	3 1550 41 is_stmt 1             @ ../../../../Source/tasks.c:1550:41
	ldr	r0, [sp, #20]
	movs	r1, #192
	.loc	3 1550 48 is_stmt 0             @ ../../../../Source/tasks.c:1550:48
	ldr	r0, [r0, r1]
	.loc	3 1550 39                       @ ../../../../Source/tasks.c:1550:39
	str	r0, [sp, #16]
.Ltmp387:
	.loc	3 1558 17 is_stmt 1             @ ../../../../Source/tasks.c:1558:17
	ldr	r0, [sp, #16]
	.loc	3 1558 42 is_stmt 0             @ ../../../../Source/tasks.c:1558:42
	ldr	r1, [sp, #24]
.Ltmp388:
	.loc	3 1558 17                       @ ../../../../Source/tasks.c:1558:17
	cmp	r0, r1
	bne	.LBB17_10
	b	.LBB17_44
.LBB17_10:
.Ltmp389:
	.loc	3 1562 21 is_stmt 1             @ ../../../../Source/tasks.c:1562:21
	ldr	r0, [sp, #24]
	.loc	3 1562 37 is_stmt 0             @ ../../../../Source/tasks.c:1562:37
	ldr	r1, [sp, #16]
.Ltmp390:
	.loc	3 1562 21                       @ ../../../../Source/tasks.c:1562:21
	cmp	r0, r1
	bls	.LBB17_18
	b	.LBB17_11
.LBB17_11:
.Ltmp391:
	.loc	3 1564 25 is_stmt 1             @ ../../../../Source/tasks.c:1564:25
	ldr	r0, [sp, #20]
	.loc	3 1564 34 is_stmt 0             @ ../../../../Source/tasks.c:1564:34
	movw	r1, :lower16:pxCurrentTCB
	movt	r1, :upper16:pxCurrentTCB
	ldr	r1, [r1]
.Ltmp392:
	.loc	3 1564 25                       @ ../../../../Source/tasks.c:1564:25
	cmp	r0, r1
	beq	.LBB17_16
	b	.LBB17_12
.LBB17_12:
.Ltmp393:
	.loc	3 1569 29 is_stmt 1             @ ../../../../Source/tasks.c:1569:29
	ldr	r0, [sp, #24]
	.loc	3 1569 45 is_stmt 0             @ ../../../../Source/tasks.c:1569:45
	movw	r1, :lower16:pxCurrentTCB
	movt	r1, :upper16:pxCurrentTCB
	ldr	r1, [r1]
	movs	r2, #164
	.loc	3 1569 59                       @ ../../../../Source/tasks.c:1569:59
	ldr	r1, [r1, r2]
.Ltmp394:
	.loc	3 1569 29                       @ ../../../../Source/tasks.c:1569:29
	cmp	r0, r1
	bls	.LBB17_14
	b	.LBB17_13
.LBB17_13:
	.loc	3 0 29                          @ ../../../../Source/tasks.c:0:29
	movs	r0, #1
.Ltmp395:
	.loc	3 1571 44 is_stmt 1             @ ../../../../Source/tasks.c:1571:44
	str	r0, [sp, #8]
	.loc	3 1572 25                       @ ../../../../Source/tasks.c:1572:25
	b	.LBB17_15
.Ltmp396:
.LBB17_14:
	.loc	3 0 25 is_stmt 0                @ ../../../../Source/tasks.c:0:25
	b	.LBB17_15
.LBB17_15:
	.loc	3 1577 21 is_stmt 1             @ ../../../../Source/tasks.c:1577:21
	b	.LBB17_17
.Ltmp397:
.LBB17_16:
	.loc	3 0 21 is_stmt 0                @ ../../../../Source/tasks.c:0:21
	b	.LBB17_17
.LBB17_17:
	.loc	3 1584 17 is_stmt 1             @ ../../../../Source/tasks.c:1584:17
	b	.LBB17_22
.Ltmp398:
.LBB17_18:
	.loc	3 1585 26                       @ ../../../../Source/tasks.c:1585:26
	ldr	r0, [sp, #20]
	.loc	3 1585 35 is_stmt 0             @ ../../../../Source/tasks.c:1585:35
	movw	r1, :lower16:pxCurrentTCB
	movt	r1, :upper16:pxCurrentTCB
	ldr	r1, [r1]
.Ltmp399:
	.loc	3 1585 26                       @ ../../../../Source/tasks.c:1585:26
	cmp	r0, r1
	bne	.LBB17_20
	b	.LBB17_19
.LBB17_19:
	.loc	3 0 26                          @ ../../../../Source/tasks.c:0:26
	movs	r0, #1
.Ltmp400:
	.loc	3 1590 36 is_stmt 1             @ ../../../../Source/tasks.c:1590:36
	str	r0, [sp, #8]
	.loc	3 1591 17                       @ ../../../../Source/tasks.c:1591:17
	b	.LBB17_21
.Ltmp401:
.LBB17_20:
	.loc	3 0 17 is_stmt 0                @ ../../../../Source/tasks.c:0:17
	b	.LBB17_21
.LBB17_21:
	b	.LBB17_22
.LBB17_22:
	.loc	3 1602 41 is_stmt 1             @ ../../../../Source/tasks.c:1602:41
	ldr	r0, [sp, #20]
	movs	r2, #164
	.loc	3 1602 48 is_stmt 0             @ ../../../../Source/tasks.c:1602:48
	ldr	r0, [r0, r2]
	.loc	3 1602 39                       @ ../../../../Source/tasks.c:1602:39
	str	r0, [sp, #12]
.Ltmp402:
	.loc	3 1608 25 is_stmt 1             @ ../../../../Source/tasks.c:1608:25
	ldr	r1, [sp, #20]
	movs	r0, #192
	.loc	3 1608 32 is_stmt 0             @ ../../../../Source/tasks.c:1608:32
	ldr	r0, [r1, r0]
	.loc	3 1608 57                       @ ../../../../Source/tasks.c:1608:57
	ldr	r1, [r1, r2]
.Ltmp403:
	.loc	3 1608 25                       @ ../../../../Source/tasks.c:1608:25
	cmp	r0, r1
	bne	.LBB17_24
	b	.LBB17_23
.LBB17_23:
.Ltmp404:
	.loc	3 1610 45 is_stmt 1             @ ../../../../Source/tasks.c:1610:45
	ldr	r0, [sp, #24]
	.loc	3 1610 25 is_stmt 0             @ ../../../../Source/tasks.c:1610:25
	ldr	r1, [sp, #20]
	movs	r2, #164
	.loc	3 1610 43                       @ ../../../../Source/tasks.c:1610:43
	str	r0, [r1, r2]
	.loc	3 1611 21 is_stmt 1             @ ../../../../Source/tasks.c:1611:21
	b	.LBB17_25
.Ltmp405:
.LBB17_24:
	.loc	3 0 21 is_stmt 0                @ ../../../../Source/tasks.c:0:21
	b	.LBB17_25
.LBB17_25:
	.loc	3 1618 45 is_stmt 1             @ ../../../../Source/tasks.c:1618:45
	ldr	r0, [sp, #24]
	.loc	3 1618 21 is_stmt 0             @ ../../../../Source/tasks.c:1618:21
	ldr	r1, [sp, #20]
	movs	r2, #192
	.loc	3 1618 43                       @ ../../../../Source/tasks.c:1618:43
	str	r0, [r1, r2]
.Ltmp406:
	.loc	3 1628 23 is_stmt 1             @ ../../../../Source/tasks.c:1628:23
	ldr	r0, [sp, #20]
	movs	r1, #147
.Ltmp407:
	.loc	3 1628 21 is_stmt 0             @ ../../../../Source/tasks.c:1628:21
	ldrb	r0, [r0, r1]
	lsls	r0, r0, #24
	cmp	r0, #0
	bmi	.LBB17_27
	b	.LBB17_26
.LBB17_26:
.Ltmp408:
	.loc	3 1630 21 is_stmt 1             @ ../../../../Source/tasks.c:1630:21
	ldr	r1, [sp, #24]
	movs	r0, #5
	subs	r0, r0, r1
	ldr	r1, [sp, #20]
	movs	r2, #144
	str	r0, [r1, r2]
	.loc	3 1631 17                       @ ../../../../Source/tasks.c:1631:17
	b	.LBB17_28
.Ltmp409:
.LBB17_27:
	.loc	3 0 17 is_stmt 0                @ ../../../../Source/tasks.c:0:17
	b	.LBB17_28
.LBB17_28:
.Ltmp410:
	.loc	3 1641 21 is_stmt 1             @ ../../../../Source/tasks.c:1641:21
	ldr	r0, [sp, #20]
	movs	r1, #140
	ldr	r0, [r0, r1]
	ldr	r1, [sp, #12]
	movs	r2, #20
	muls	r2, r1, r2
	movw	r1, :lower16:pxReadyTasksLists
	movt	r1, :upper16:pxReadyTasksLists
	adds	r1, r1, r2
.Ltmp411:
	.loc	3 1641 21 is_stmt 0             @ ../../../../Source/tasks.c:1641:21
	cmp	r0, r1
	bne	.LBB17_39
	b	.LBB17_29
.LBB17_29:
.Ltmp412:
	.loc	3 1646 42 is_stmt 1             @ ../../../../Source/tasks.c:1646:42
	ldr	r0, [sp, #20]
	.loc	3 1646 49 is_stmt 0             @ ../../../../Source/tasks.c:1646:49
	adds	r0, #124
	.loc	3 1646 25                       @ ../../../../Source/tasks.c:1646:25
	bl	uxListRemove
.Ltmp413:
	.loc	3 1646 25                       @ ../../../../Source/tasks.c:1646:25
	cbnz	r0, .LBB17_31
	b	.LBB17_30
.LBB17_30:
.Ltmp414:
	.loc	3 1652 21 is_stmt 1             @ ../../../../Source/tasks.c:1652:21
	b	.LBB17_32
.Ltmp415:
.LBB17_31:
	.loc	3 0 21 is_stmt 0                @ ../../../../Source/tasks.c:0:21
	b	.LBB17_32
.LBB17_32:
	.loc	3 1658 21 is_stmt 1             @ ../../../../Source/tasks.c:1658:21
	b	.LBB17_33
.LBB17_33:
.Ltmp416:
	.loc	3 1658 21 is_stmt 0             @ ../../../../Source/tasks.c:1658:21
	ldr	r0, [sp, #20]
	movs	r1, #164
	ldr	r0, [r0, r1]
	movw	r1, :lower16:uxTopReadyPriority
	movt	r1, :upper16:uxTopReadyPriority
	ldr	r1, [r1]
.Ltmp417:
	.loc	3 1658 21                       @ ../../../../Source/tasks.c:1658:21
	cmp	r0, r1
	bls	.LBB17_35
	b	.LBB17_34
.LBB17_34:
.Ltmp418:
	.loc	3 1658 21                       @ ../../../../Source/tasks.c:1658:21
	ldr	r0, [sp, #20]
	movs	r1, #164
	ldr	r0, [r0, r1]
	movw	r1, :lower16:uxTopReadyPriority
	movt	r1, :upper16:uxTopReadyPriority
	str	r0, [r1]
	b	.LBB17_35
.Ltmp419:
.LBB17_35:
	.loc	3 1658 21                       @ ../../../../Source/tasks.c:1658:21
	b	.LBB17_36
.LBB17_36:
.Ltmp420:
	.loc	3 1658 21                       @ ../../../../Source/tasks.c:1658:21
	ldr	r0, [sp, #20]
	movs	r3, #164
	ldr	r1, [r0, r3]
	movs	r2, #20
	mov	r0, r2
	muls	r0, r1, r0
	movw	r1, :lower16:pxReadyTasksLists
	movt	r1, :upper16:pxReadyTasksLists
	adds	r0, r1, r0
	ldr	r0, [r0, #4]
	str	r0, [sp, #4]
	ldr	r0, [sp, #4]
	ldr	r4, [sp, #20]
	movs	r5, #128
	str	r0, [r4, r5]
	ldr	r0, [sp, #4]
	ldr	r0, [r0, #8]
	ldr	r4, [sp, #20]
	movs	r5, #132
	str	r0, [r4, r5]
	ldr	r0, [sp, #20]
	adds	r0, #124
	ldr	r4, [sp, #4]
	ldr	r4, [r4, #8]
	str	r0, [r4, #4]
	ldr	r0, [sp, #20]
	adds	r0, #124
	ldr	r4, [sp, #4]
	str	r0, [r4, #8]
	ldr	r4, [sp, #20]
	ldr	r5, [r4, r3]
	mov	r0, r2
	muls	r0, r5, r0
	adds	r0, r1, r0
	movs	r5, #140
	str	r0, [r4, r5]
	ldr	r0, [sp, #20]
	ldr	r0, [r0, r3]
	muls	r2, r0, r2
	ldr	r0, [r1, r2]
	adds	r0, r0, #1
	str	r0, [r1, r2]
	b	.LBB17_37
.Ltmp421:
.LBB17_37:
	.loc	3 1658 21                       @ ../../../../Source/tasks.c:1658:21
	b	.LBB17_38
.Ltmp422:
.LBB17_38:
	.loc	3 1659 17 is_stmt 1             @ ../../../../Source/tasks.c:1659:17
	b	.LBB17_40
.Ltmp423:
.LBB17_39:
	.loc	3 0 17 is_stmt 0                @ ../../../../Source/tasks.c:0:17
	b	.LBB17_40
.LBB17_40:
.Ltmp424:
	.loc	3 1665 21 is_stmt 1             @ ../../../../Source/tasks.c:1665:21
	ldr	r0, [sp, #8]
.Ltmp425:
	.loc	3 1665 21 is_stmt 0             @ ../../../../Source/tasks.c:1665:21
	cbz	r0, .LBB17_42
	b	.LBB17_41
.LBB17_41:
.Ltmp426:
	.loc	3 1667 21 is_stmt 1             @ ../../../../Source/tasks.c:1667:21
	bl	vPortYield
	.loc	3 1668 17                       @ ../../../../Source/tasks.c:1668:17
	b	.LBB17_43
.Ltmp427:
.LBB17_42:
	.loc	3 0 17 is_stmt 0                @ ../../../../Source/tasks.c:0:17
	b	.LBB17_43
.LBB17_43:
	.loc	3 1677 13 is_stmt 1             @ ../../../../Source/tasks.c:1677:13
	b	.LBB17_44
.Ltmp428:
.LBB17_44:
	.loc	3 1679 9                        @ ../../../../Source/tasks.c:1679:9
	bl	vPortExitCritical
	.loc	3 1680 5                        @ ../../../../Source/tasks.c:1680:5
	add	sp, #32
	pop	{r4, r5, r7, pc}
.Ltmp429:
.Lfunc_end17:
	.size	vTaskPrioritySet, .Lfunc_end17-vTaskPrioritySet
	.cfi_endproc
	.cantunwind
	.fnend
                                        @ -- End function
	.hidden	vTaskSuspend                    @ -- Begin function vTaskSuspend
	.globl	vTaskSuspend
	.p2align	1
	.type	vTaskSuspend,%function
	.code	16                              @ @vTaskSuspend
	.thumb_func
vTaskSuspend:
.Lfunc_begin18:
	.loc	3 1688 0                        @ ../../../../Source/tasks.c:1688:0
	.fnstart
	.cfi_startproc
@ %bb.0:
	.save	{r7, lr}
	push	{r7, lr}
	.cfi_def_cfa_offset 8
	.cfi_offset lr, -4
	.cfi_offset r7, -8
	.pad	#16
	sub	sp, #16
	.cfi_def_cfa_offset 24
	str	r0, [sp, #12]
.Ltmp430:
	.loc	3 1691 9 prologue_end           @ ../../../../Source/tasks.c:1691:9
	bl	vPortEnterCritical
.Ltmp431:
	.loc	3 1695 21                       @ ../../../../Source/tasks.c:1695:21
	ldr	r0, [sp, #12]
	cbnz	r0, .LBB18_2
	b	.LBB18_1
.LBB18_1:
	movw	r0, :lower16:pxCurrentTCB
	movt	r0, :upper16:pxCurrentTCB
	ldr	r0, [r0]
	str	r0, [sp]                        @ 4-byte Spill
	b	.LBB18_3
.LBB18_2:
	ldr	r0, [sp, #12]
	str	r0, [sp]                        @ 4-byte Spill
	b	.LBB18_3
.LBB18_3:
	ldr	r0, [sp]                        @ 4-byte Reload
	.loc	3 1695 19 is_stmt 0             @ ../../../../Source/tasks.c:1695:19
	str	r0, [sp, #8]
.Ltmp432:
	.loc	3 1701 34 is_stmt 1             @ ../../../../Source/tasks.c:1701:34
	ldr	r0, [sp, #8]
	.loc	3 1701 41 is_stmt 0             @ ../../../../Source/tasks.c:1701:41
	adds	r0, #124
	.loc	3 1701 17                       @ ../../../../Source/tasks.c:1701:17
	bl	uxListRemove
.Ltmp433:
	.loc	3 1701 17                       @ ../../../../Source/tasks.c:1701:17
	cbnz	r0, .LBB18_5
	b	.LBB18_4
.LBB18_4:
.Ltmp434:
	.loc	3 1704 13 is_stmt 1             @ ../../../../Source/tasks.c:1704:13
	b	.LBB18_6
.Ltmp435:
.LBB18_5:
	.loc	3 0 13 is_stmt 0                @ ../../../../Source/tasks.c:0:13
	b	.LBB18_6
.LBB18_6:
.Ltmp436:
	.loc	3 1711 17 is_stmt 1             @ ../../../../Source/tasks.c:1711:17
	ldr	r0, [sp, #8]
	movs	r1, #160
	ldr	r0, [r0, r1]
.Ltmp437:
	.loc	3 1711 17 is_stmt 0             @ ../../../../Source/tasks.c:1711:17
	cbz	r0, .LBB18_8
	b	.LBB18_7
.LBB18_7:
.Ltmp438:
	.loc	3 1713 43 is_stmt 1             @ ../../../../Source/tasks.c:1713:43
	ldr	r0, [sp, #8]
	.loc	3 1713 50 is_stmt 0             @ ../../../../Source/tasks.c:1713:50
	adds	r0, #144
	.loc	3 1713 26                       @ ../../../../Source/tasks.c:1713:26
	bl	uxListRemove
	.loc	3 1714 13 is_stmt 1             @ ../../../../Source/tasks.c:1714:13
	b	.LBB18_9
.Ltmp439:
.LBB18_8:
	.loc	3 0 13 is_stmt 0                @ ../../../../Source/tasks.c:0:13
	b	.LBB18_9
.LBB18_9:
	.loc	3 1720 53 is_stmt 1             @ ../../../../Source/tasks.c:1720:53
	ldr	r1, [sp, #8]
	.loc	3 1720 60 is_stmt 0             @ ../../../../Source/tasks.c:1720:60
	adds	r1, #124
	.loc	3 1720 13                       @ ../../../../Source/tasks.c:1720:13
	movw	r0, :lower16:xSuspendedTaskList
	movt	r0, :upper16:xSuspendedTaskList
	bl	vListInsertEnd
	movs	r0, #0
.Ltmp440:
	.loc	3 1726 24 is_stmt 1             @ ../../../../Source/tasks.c:1726:24
	str	r0, [sp, #4]
	.loc	3 1726 22 is_stmt 0             @ ../../../../Source/tasks.c:1726:22
	b	.LBB18_10
.LBB18_10:                              @ =>This Inner Loop Header: Depth=1
.Ltmp441:
	.loc	3 1726 29                       @ ../../../../Source/tasks.c:1726:29
	ldr	r0, [sp, #4]
.Ltmp442:
	.loc	3 1726 17                       @ ../../../../Source/tasks.c:1726:17
	cmp	r0, #2
	bgt	.LBB18_15
	b	.LBB18_11
.LBB18_11:                              @   in Loop: Header=BB18_10 Depth=1
.Ltmp443:
	.loc	3 1728 25 is_stmt 1             @ ../../../../Source/tasks.c:1728:25
	ldr	r0, [sp, #8]
	.loc	3 1728 47 is_stmt 0             @ ../../../../Source/tasks.c:1728:47
	ldr	r1, [sp, #4]
	.loc	3 1728 32                       @ ../../../../Source/tasks.c:1728:32
	adds	r0, r0, r1
	movs	r1, #212
	.loc	3 1728 25                       @ ../../../../Source/tasks.c:1728:25
	ldrb	r0, [r0, r1]
.Ltmp444:
	.loc	3 1728 25                       @ ../../../../Source/tasks.c:1728:25
	cmp	r0, #1
	bne	.LBB18_13
	b	.LBB18_12
.LBB18_12:                              @   in Loop: Header=BB18_10 Depth=1
.Ltmp445:
	.loc	3 1732 25 is_stmt 1             @ ../../../../Source/tasks.c:1732:25
	ldr	r0, [sp, #8]
	.loc	3 1732 47 is_stmt 0             @ ../../../../Source/tasks.c:1732:47
	ldr	r1, [sp, #4]
	.loc	3 1732 32                       @ ../../../../Source/tasks.c:1732:32
	adds	r1, r0, r1
	movs	r2, #212
	movs	r0, #0
	.loc	3 1732 51                       @ ../../../../Source/tasks.c:1732:51
	strb	r0, [r1, r2]
	.loc	3 1733 21 is_stmt 1             @ ../../../../Source/tasks.c:1733:21
	b	.LBB18_13
.Ltmp446:
.LBB18_13:                              @   in Loop: Header=BB18_10 Depth=1
	.loc	3 1734 17                       @ ../../../../Source/tasks.c:1734:17
	b	.LBB18_14
.Ltmp447:
.LBB18_14:                              @   in Loop: Header=BB18_10 Depth=1
	.loc	3 1726 73                       @ ../../../../Source/tasks.c:1726:73
	ldr	r0, [sp, #4]
	adds	r0, r0, #1
	str	r0, [sp, #4]
	.loc	3 1726 17 is_stmt 0             @ ../../../../Source/tasks.c:1726:17
	b	.LBB18_10
.Ltmp448:
.LBB18_15:
	.loc	3 1738 9 is_stmt 1              @ ../../../../Source/tasks.c:1738:9
	bl	vPortExitCritical
.Ltmp449:
	.loc	3 1740 13                       @ ../../../../Source/tasks.c:1740:13
	movw	r0, :lower16:xSchedulerRunning
	movt	r0, :upper16:xSchedulerRunning
	ldr	r0, [r0]
.Ltmp450:
	.loc	3 1740 13 is_stmt 0             @ ../../../../Source/tasks.c:1740:13
	cbz	r0, .LBB18_17
	b	.LBB18_16
.LBB18_16:
.Ltmp451:
	.loc	3 1744 13 is_stmt 1             @ ../../../../Source/tasks.c:1744:13
	bl	vPortEnterCritical
.Ltmp452:
	.loc	3 1746 17                       @ ../../../../Source/tasks.c:1746:17
	bl	prvResetNextTaskUnblockTime
.Ltmp453:
	.loc	3 1748 13                       @ ../../../../Source/tasks.c:1748:13
	bl	vPortExitCritical
	.loc	3 1749 9                        @ ../../../../Source/tasks.c:1749:9
	b	.LBB18_18
.Ltmp454:
.LBB18_17:
	.loc	3 0 9 is_stmt 0                 @ ../../../../Source/tasks.c:0:9
	b	.LBB18_18
.LBB18_18:
.Ltmp455:
	.loc	3 1755 13 is_stmt 1             @ ../../../../Source/tasks.c:1755:13
	ldr	r0, [sp, #8]
	.loc	3 1755 22 is_stmt 0             @ ../../../../Source/tasks.c:1755:22
	movw	r1, :lower16:pxCurrentTCB
	movt	r1, :upper16:pxCurrentTCB
	ldr	r1, [r1]
.Ltmp456:
	.loc	3 1755 13                       @ ../../../../Source/tasks.c:1755:13
	cmp	r0, r1
	bne	.LBB18_29
	b	.LBB18_19
.LBB18_19:
.Ltmp457:
	.loc	3 1757 17 is_stmt 1             @ ../../../../Source/tasks.c:1757:17
	movw	r0, :lower16:xSchedulerRunning
	movt	r0, :upper16:xSchedulerRunning
	ldr	r0, [r0]
.Ltmp458:
	.loc	3 1757 17 is_stmt 0             @ ../../../../Source/tasks.c:1757:17
	cbz	r0, .LBB18_24
	b	.LBB18_20
.LBB18_20:
.Ltmp459:
	.loc	3 1760 17 is_stmt 1             @ ../../../../Source/tasks.c:1760:17
	movw	r0, :lower16:uxSchedulerSuspended
	movt	r0, :upper16:uxSchedulerSuspended
	ldr	r0, [r0]
.Ltmp460:
	.loc	3 1760 17 is_stmt 0             @ ../../../../Source/tasks.c:1760:17
	cbz	r0, .LBB18_23
	b	.LBB18_21
.LBB18_21:
.Ltmp461:
	.loc	3 1760 17                       @ ../../../../Source/tasks.c:1760:17
	@APP
	cpsid i
	@NO_APP
	b	.LBB18_22
.LBB18_22:                              @ =>This Inner Loop Header: Depth=1
.Ltmp462:
	.loc	3 1760 17                       @ ../../../../Source/tasks.c:1760:17
	b	.LBB18_22
.Ltmp463:
.LBB18_23:
	.loc	3 1761 17 is_stmt 1             @ ../../../../Source/tasks.c:1761:17
	bl	vPortYield
	.loc	3 1762 13                       @ ../../../../Source/tasks.c:1762:13
	b	.LBB18_28
.Ltmp464:
.LBB18_24:
	.loc	3 1768 21                       @ ../../../../Source/tasks.c:1768:21
	movw	r0, :lower16:xSuspendedTaskList
	movt	r0, :upper16:xSuspendedTaskList
	ldr	r0, [r0]
	.loc	3 1768 71 is_stmt 0             @ ../../../../Source/tasks.c:1768:71
	movw	r1, :lower16:uxCurrentNumberOfTasks
	movt	r1, :upper16:uxCurrentNumberOfTasks
	ldr	r1, [r1]
.Ltmp465:
	.loc	3 1768 21                       @ ../../../../Source/tasks.c:1768:21
	cmp	r0, r1
	bne	.LBB18_26
	b	.LBB18_25
.LBB18_25:
.Ltmp466:
	.loc	3 1774 34 is_stmt 1             @ ../../../../Source/tasks.c:1774:34
	movw	r1, :lower16:pxCurrentTCB
	movt	r1, :upper16:pxCurrentTCB
	movs	r0, #0
	str	r0, [r1]
	.loc	3 1775 17                       @ ../../../../Source/tasks.c:1775:17
	b	.LBB18_27
.Ltmp467:
.LBB18_26:
	.loc	3 1778 21                       @ ../../../../Source/tasks.c:1778:21
	bl	vTaskSwitchContext
	b	.LBB18_27
.Ltmp468:
.LBB18_27:
	.loc	3 0 21 is_stmt 0                @ ../../../../Source/tasks.c:0:21
	b	.LBB18_28
.LBB18_28:
	.loc	3 1781 9 is_stmt 1              @ ../../../../Source/tasks.c:1781:9
	b	.LBB18_30
.Ltmp469:
.LBB18_29:
	.loc	3 0 9 is_stmt 0                 @ ../../../../Source/tasks.c:0:9
	b	.LBB18_30
.LBB18_30:
	.loc	3 1786 5 is_stmt 1              @ ../../../../Source/tasks.c:1786:5
	add	sp, #16
	pop	{r7, pc}
.Ltmp470:
.Lfunc_end18:
	.size	vTaskSuspend, .Lfunc_end18-vTaskSuspend
	.cfi_endproc
	.cantunwind
	.fnend
                                        @ -- End function
	.section	privileged_functions,"axR",%progbits,unique,1
	.hidden	vTaskSwitchContext              @ -- Begin function vTaskSwitchContext
	.globl	vTaskSwitchContext
	.p2align	1
	.type	vTaskSwitchContext,%function
	.code	16                              @ @vTaskSwitchContext
	.thumb_func
vTaskSwitchContext:
__tagsym$$used.0:
.Lfunc_begin19:
	.loc	3 3071 0                        @ ../../../../Source/tasks.c:3071:0
	.fnstart
	.cfi_startproc
@ %bb.0:
	.save	{r7, lr}
	push	{r7, lr}
	.cfi_def_cfa_offset 8
	.cfi_offset lr, -4
	.cfi_offset r7, -8
	.pad	#16
	sub	sp, #16
	.cfi_def_cfa_offset 24
.Ltmp471:
	.loc	3 3072 9 prologue_end           @ ../../../../Source/tasks.c:3072:9
	movw	r0, :lower16:uxSchedulerSuspended
	movt	r0, :upper16:uxSchedulerSuspended
	ldr	r0, [r0]
.Ltmp472:
	.loc	3 3072 9 is_stmt 0              @ ../../../../Source/tasks.c:3072:9
	cbz	r0, .LBB19_2
	b	.LBB19_1
.LBB19_1:
.Ltmp473:
	.loc	3 3076 23 is_stmt 1             @ ../../../../Source/tasks.c:3076:23
	movw	r1, :lower16:xYieldPending
	movt	r1, :upper16:xYieldPending
	movs	r0, #1
	str	r0, [r1]
	.loc	3 3077 5                        @ ../../../../Source/tasks.c:3077:5
	b	.LBB19_22
.Ltmp474:
.LBB19_2:
	.loc	3 3080 23                       @ ../../../../Source/tasks.c:3080:23
	movw	r1, :lower16:xYieldPending
	movt	r1, :upper16:xYieldPending
	movs	r0, #0
	str	r0, [r1]
	.loc	3 3112 9                        @ ../../../../Source/tasks.c:3112:9
	b	.LBB19_3
.LBB19_3:
.Ltmp475:
	.loc	3 3112 9 is_stmt 0              @ ../../../../Source/tasks.c:3112:9
	movw	r0, :lower16:pxCurrentTCB
	movt	r0, :upper16:pxCurrentTCB
	ldr	r0, [r0]
	movs	r1, #168
	ldr	r0, [r0, r1]
	str	r0, [sp, #12]
	movw	r1, #42405
	movt	r1, #42405
	str	r1, [sp, #8]
.Ltmp476:
	.loc	3 3112 9                        @ ../../../../Source/tasks.c:3112:9
	ldr	r0, [sp, #12]
	ldr	r0, [r0]
	cmp	r0, r1
	bne	.LBB19_7
	b	.LBB19_4
.LBB19_4:
	ldr	r0, [sp, #12]
	ldr	r0, [r0, #4]
	movw	r1, #42405
	movt	r1, #42405
	cmp	r0, r1
	bne	.LBB19_7
	b	.LBB19_5
.LBB19_5:
	ldr	r0, [sp, #12]
	ldr	r0, [r0, #8]
	movw	r1, #42405
	movt	r1, #42405
	cmp	r0, r1
	bne	.LBB19_7
	b	.LBB19_6
.LBB19_6:
	ldr	r0, [sp, #12]
	ldr	r0, [r0, #12]
	movw	r1, #42405
	movt	r1, #42405
.Ltmp477:
	.loc	3 3112 9                        @ ../../../../Source/tasks.c:3112:9
	cmp	r0, r1
	beq	.LBB19_8
	b	.LBB19_7
.LBB19_7:
.Ltmp478:
	.loc	3 3112 9                        @ ../../../../Source/tasks.c:3112:9
	movw	r1, :lower16:pxCurrentTCB
	movt	r1, :upper16:pxCurrentTCB
	ldr	r0, [r1]
	ldr	r1, [r1]
	adds	r1, #172
	bl	vApplicationStackOverflowHook
	b	.LBB19_8
.Ltmp479:
.LBB19_8:
	.loc	3 3112 9                        @ ../../../../Source/tasks.c:3112:9
	b	.LBB19_9
.Ltmp480:
.LBB19_9:
	.loc	3 3123 9 is_stmt 1              @ ../../../../Source/tasks.c:3123:9
	b	.LBB19_10
.LBB19_10:
.Ltmp481:
	.loc	3 3123 9 is_stmt 0              @ ../../../../Source/tasks.c:3123:9
	movw	r0, :lower16:uxTopReadyPriority
	movt	r0, :upper16:uxTopReadyPriority
	ldr	r0, [r0]
	str	r0, [sp, #4]
	b	.LBB19_11
.LBB19_11:                              @ =>This Inner Loop Header: Depth=1
	ldr	r0, [sp, #4]
	movs	r1, #20
	muls	r1, r0, r1
	movw	r0, :lower16:pxReadyTasksLists
	movt	r0, :upper16:pxReadyTasksLists
	ldr	r0, [r0, r1]
	cbnz	r0, .LBB19_16
	b	.LBB19_12
.LBB19_12:                              @   in Loop: Header=BB19_11 Depth=1
.Ltmp482:
	.loc	3 3123 9                        @ ../../../../Source/tasks.c:3123:9
	ldr	r0, [sp, #4]
.Ltmp483:
	.loc	3 3123 9                        @ ../../../../Source/tasks.c:3123:9
	cbnz	r0, .LBB19_15
	b	.LBB19_13
.LBB19_13:
.Ltmp484:
	.loc	3 3123 9                        @ ../../../../Source/tasks.c:3123:9
	@APP
	cpsid i
	@NO_APP
	b	.LBB19_14
.LBB19_14:                              @ =>This Inner Loop Header: Depth=1
.Ltmp485:
	.loc	3 3123 9                        @ ../../../../Source/tasks.c:3123:9
	b	.LBB19_14
.Ltmp486:
.LBB19_15:                              @   in Loop: Header=BB19_11 Depth=1
	.loc	3 3123 9                        @ ../../../../Source/tasks.c:3123:9
	ldr	r0, [sp, #4]
	subs	r0, r0, #1
	str	r0, [sp, #4]
.Ltmp487:
	.loc	3 3123 9                        @ ../../../../Source/tasks.c:3123:9
	b	.LBB19_11
.LBB19_16:
	b	.LBB19_17
.LBB19_17:
.Ltmp488:
	.loc	3 3123 9                        @ ../../../../Source/tasks.c:3123:9
	ldr	r0, [sp, #4]
	movs	r1, #20
	muls	r1, r0, r1
	movw	r0, :lower16:pxReadyTasksLists
	movt	r0, :upper16:pxReadyTasksLists
	adds	r0, r0, r1
	str	r0, [sp]
	ldr	r1, [sp]
	ldr	r0, [r1, #4]
	ldr	r0, [r0, #4]
	str	r0, [r1, #4]
.Ltmp489:
	.loc	3 3123 9                        @ ../../../../Source/tasks.c:3123:9
	ldr	r1, [sp]
	ldr	r0, [r1, #4]
	adds	r1, #8
.Ltmp490:
	.loc	3 3123 9                        @ ../../../../Source/tasks.c:3123:9
	cmp	r0, r1
	bne	.LBB19_19
	b	.LBB19_18
.LBB19_18:
.Ltmp491:
	.loc	3 3123 9                        @ ../../../../Source/tasks.c:3123:9
	ldr	r1, [sp]
	ldr	r0, [r1, #12]
	str	r0, [r1, #4]
	b	.LBB19_19
.Ltmp492:
.LBB19_19:
	.loc	3 3123 9                        @ ../../../../Source/tasks.c:3123:9
	ldr	r0, [sp]
	ldr	r0, [r0, #4]
	ldr	r0, [r0, #12]
	movw	r1, :lower16:pxCurrentTCB
	movt	r1, :upper16:pxCurrentTCB
	str	r0, [r1]
	b	.LBB19_20
.Ltmp493:
.LBB19_20:
	.loc	3 3123 9                        @ ../../../../Source/tasks.c:3123:9
	ldr	r0, [sp, #4]
	movw	r1, :lower16:uxTopReadyPriority
	movt	r1, :upper16:uxTopReadyPriority
	str	r0, [r1]
	b	.LBB19_21
.Ltmp494:
.LBB19_21:
	.loc	3 0 9                           @ ../../../../Source/tasks.c:0:9
	b	.LBB19_22
.LBB19_22:
	.loc	3 3141 1 is_stmt 1              @ ../../../../Source/tasks.c:3141:1
	add	sp, #16
	pop	{r7, pc}
.Ltmp495:
.Lfunc_end19:
	.size	vTaskSwitchContext, .Lfunc_end19-vTaskSwitchContext
	.cfi_endproc
	.cantunwind
	.fnend
                                        @ -- End function
	.section	privileged_functions,"ax",%progbits
	.hidden	vTaskResume                     @ -- Begin function vTaskResume
	.globl	vTaskResume
	.p2align	1
	.type	vTaskResume,%function
	.code	16                              @ @vTaskResume
	.thumb_func
vTaskResume:
.Lfunc_begin20:
	.loc	3 1840 0                        @ ../../../../Source/tasks.c:1840:0
	.fnstart
	.cfi_startproc
@ %bb.0:
	.save	{r4, r5, r7, lr}
	push	{r4, r5, r7, lr}
	.cfi_def_cfa_offset 16
	.cfi_offset lr, -4
	.cfi_offset r7, -8
	.cfi_offset r5, -12
	.cfi_offset r4, -16
	.pad	#16
	sub	sp, #16
	.cfi_def_cfa_offset 32
	str	r0, [sp, #12]
.Ltmp496:
	.loc	3 1841 31 prologue_end          @ ../../../../Source/tasks.c:1841:31
	ldr	r0, [sp, #12]
	.loc	3 1841 23 is_stmt 0             @ ../../../../Source/tasks.c:1841:23
	str	r0, [sp, #8]
.Ltmp497:
	.loc	3 1844 9 is_stmt 1              @ ../../../../Source/tasks.c:1844:9
	ldr	r0, [sp, #12]
.Ltmp498:
	.loc	3 1844 9 is_stmt 0              @ ../../../../Source/tasks.c:1844:9
	cbnz	r0, .LBB20_3
	b	.LBB20_1
.LBB20_1:
.Ltmp499:
	.loc	3 1844 9                        @ ../../../../Source/tasks.c:1844:9
	@APP
	cpsid i
	@NO_APP
	b	.LBB20_2
.LBB20_2:                               @ =>This Inner Loop Header: Depth=1
.Ltmp500:
	.loc	3 1844 9                        @ ../../../../Source/tasks.c:1844:9
	b	.LBB20_2
.Ltmp501:
.LBB20_3:
	.loc	3 1848 15 is_stmt 1             @ ../../../../Source/tasks.c:1848:15
	ldr	r0, [sp, #8]
	.loc	3 1848 24 is_stmt 0             @ ../../../../Source/tasks.c:1848:24
	movw	r1, :lower16:pxCurrentTCB
	movt	r1, :upper16:pxCurrentTCB
	ldr	r1, [r1]
	.loc	3 1848 39                       @ ../../../../Source/tasks.c:1848:39
	cmp	r0, r1
	beq	.LBB20_18
	b	.LBB20_4
.LBB20_4:
	.loc	3 1848 44                       @ ../../../../Source/tasks.c:1848:44
	ldr	r0, [sp, #8]
.Ltmp502:
	.loc	3 1848 13                       @ ../../../../Source/tasks.c:1848:13
	cmp	r0, #0
	beq	.LBB20_18
	b	.LBB20_5
.LBB20_5:
.Ltmp503:
	.loc	3 1850 13 is_stmt 1             @ ../../../../Source/tasks.c:1850:13
	bl	vPortEnterCritical
.Ltmp504:
	.loc	3 1852 45                       @ ../../../../Source/tasks.c:1852:45
	ldr	r0, [sp, #8]
	.loc	3 1852 21 is_stmt 0             @ ../../../../Source/tasks.c:1852:21
	bl	prvTaskIsTaskSuspended
.Ltmp505:
	.loc	3 1852 21                       @ ../../../../Source/tasks.c:1852:21
	cmp	r0, #0
	beq	.LBB20_16
	b	.LBB20_6
.LBB20_6:
.Ltmp506:
	.loc	3 1858 47 is_stmt 1             @ ../../../../Source/tasks.c:1858:47
	ldr	r0, [sp, #8]
	.loc	3 1858 54 is_stmt 0             @ ../../../../Source/tasks.c:1858:54
	adds	r0, #124
	.loc	3 1858 30                       @ ../../../../Source/tasks.c:1858:30
	bl	uxListRemove
	.loc	3 1859 21 is_stmt 1             @ ../../../../Source/tasks.c:1859:21
	b	.LBB20_7
.LBB20_7:
.Ltmp507:
	.loc	3 1859 21 is_stmt 0             @ ../../../../Source/tasks.c:1859:21
	ldr	r0, [sp, #8]
	movs	r1, #164
	ldr	r0, [r0, r1]
	movw	r1, :lower16:uxTopReadyPriority
	movt	r1, :upper16:uxTopReadyPriority
	ldr	r1, [r1]
.Ltmp508:
	.loc	3 1859 21                       @ ../../../../Source/tasks.c:1859:21
	cmp	r0, r1
	bls	.LBB20_9
	b	.LBB20_8
.LBB20_8:
.Ltmp509:
	.loc	3 1859 21                       @ ../../../../Source/tasks.c:1859:21
	ldr	r0, [sp, #8]
	movs	r1, #164
	ldr	r0, [r0, r1]
	movw	r1, :lower16:uxTopReadyPriority
	movt	r1, :upper16:uxTopReadyPriority
	str	r0, [r1]
	b	.LBB20_9
.Ltmp510:
.LBB20_9:
	.loc	3 1859 21                       @ ../../../../Source/tasks.c:1859:21
	b	.LBB20_10
.LBB20_10:
.Ltmp511:
	.loc	3 1859 21                       @ ../../../../Source/tasks.c:1859:21
	ldr	r0, [sp, #8]
	movs	r3, #164
	ldr	r1, [r0, r3]
	movs	r2, #20
	mov	r0, r2
	muls	r0, r1, r0
	movw	r1, :lower16:pxReadyTasksLists
	movt	r1, :upper16:pxReadyTasksLists
	adds	r0, r1, r0
	ldr	r0, [r0, #4]
	str	r0, [sp, #4]
	ldr	r0, [sp, #4]
	ldr	r4, [sp, #8]
	movs	r5, #128
	str	r0, [r4, r5]
	ldr	r0, [sp, #4]
	ldr	r0, [r0, #8]
	ldr	r4, [sp, #8]
	movs	r5, #132
	str	r0, [r4, r5]
	ldr	r0, [sp, #8]
	adds	r0, #124
	ldr	r4, [sp, #4]
	ldr	r4, [r4, #8]
	str	r0, [r4, #4]
	ldr	r0, [sp, #8]
	adds	r0, #124
	ldr	r4, [sp, #4]
	str	r0, [r4, #8]
	ldr	r4, [sp, #8]
	ldr	r5, [r4, r3]
	mov	r0, r2
	muls	r0, r5, r0
	adds	r0, r1, r0
	movs	r5, #140
	str	r0, [r4, r5]
	ldr	r0, [sp, #8]
	ldr	r0, [r0, r3]
	muls	r2, r0, r2
	ldr	r0, [r1, r2]
	adds	r0, r0, #1
	str	r0, [r1, r2]
	b	.LBB20_11
.Ltmp512:
.LBB20_11:
	.loc	3 1859 21                       @ ../../../../Source/tasks.c:1859:21
	b	.LBB20_12
.Ltmp513:
.LBB20_12:
	.loc	3 1862 25 is_stmt 1             @ ../../../../Source/tasks.c:1862:25
	ldr	r0, [sp, #8]
	movs	r2, #164
	.loc	3 1862 32 is_stmt 0             @ ../../../../Source/tasks.c:1862:32
	ldr	r0, [r0, r2]
	.loc	3 1862 45                       @ ../../../../Source/tasks.c:1862:45
	movw	r1, :lower16:pxCurrentTCB
	movt	r1, :upper16:pxCurrentTCB
	ldr	r1, [r1]
	.loc	3 1862 59                       @ ../../../../Source/tasks.c:1862:59
	ldr	r1, [r1, r2]
.Ltmp514:
	.loc	3 1862 25                       @ ../../../../Source/tasks.c:1862:25
	cmp	r0, r1
	bls	.LBB20_14
	b	.LBB20_13
.LBB20_13:
.Ltmp515:
	.loc	3 1867 25 is_stmt 1             @ ../../../../Source/tasks.c:1867:25
	bl	vPortYield
	.loc	3 1868 21                       @ ../../../../Source/tasks.c:1868:21
	b	.LBB20_15
.Ltmp516:
.LBB20_14:
	.loc	3 0 21 is_stmt 0                @ ../../../../Source/tasks.c:0:21
	b	.LBB20_15
.LBB20_15:
	.loc	3 1873 17 is_stmt 1             @ ../../../../Source/tasks.c:1873:17
	b	.LBB20_17
.Ltmp517:
.LBB20_16:
	.loc	3 0 17 is_stmt 0                @ ../../../../Source/tasks.c:0:17
	b	.LBB20_17
.LBB20_17:
	.loc	3 1879 13 is_stmt 1             @ ../../../../Source/tasks.c:1879:13
	bl	vPortExitCritical
	.loc	3 1880 9                        @ ../../../../Source/tasks.c:1880:9
	b	.LBB20_19
.Ltmp518:
.LBB20_18:
	.loc	3 0 9 is_stmt 0                 @ ../../../../Source/tasks.c:0:9
	b	.LBB20_19
.LBB20_19:
	.loc	3 1885 5 is_stmt 1              @ ../../../../Source/tasks.c:1885:5
	add	sp, #16
	pop	{r4, r5, r7, pc}
.Ltmp519:
.Lfunc_end20:
	.size	vTaskResume, .Lfunc_end20-vTaskResume
	.cfi_endproc
	.cantunwind
	.fnend
                                        @ -- End function
	.p2align	1                               @ -- Begin function prvTaskIsTaskSuspended
	.type	prvTaskIsTaskSuspended,%function
	.code	16                              @ @prvTaskIsTaskSuspended
	.thumb_func
prvTaskIsTaskSuspended:
.Lfunc_begin21:
	.loc	3 1794 0                        @ ../../../../Source/tasks.c:1794:0
	.fnstart
	.cfi_startproc
@ %bb.0:
	.pad	#12
	sub	sp, #12
	.cfi_def_cfa_offset 12
	str	r0, [sp, #8]
	movs	r0, #0
.Ltmp520:
	.loc	3 1795 20 prologue_end          @ ../../../../Source/tasks.c:1795:20
	str	r0, [sp, #4]
	.loc	3 1796 37                       @ ../../../../Source/tasks.c:1796:37
	ldr	r0, [sp, #8]
	.loc	3 1796 29 is_stmt 0             @ ../../../../Source/tasks.c:1796:29
	str	r0, [sp]
.Ltmp521:
	.loc	3 1802 9 is_stmt 1              @ ../../../../Source/tasks.c:1802:9
	ldr	r0, [sp, #8]
.Ltmp522:
	.loc	3 1802 9 is_stmt 0              @ ../../../../Source/tasks.c:1802:9
	cbnz	r0, .LBB21_3
	b	.LBB21_1
.LBB21_1:
.Ltmp523:
	.loc	3 1802 9                        @ ../../../../Source/tasks.c:1802:9
	@APP
	cpsid i
	@NO_APP
	b	.LBB21_2
.LBB21_2:                               @ =>This Inner Loop Header: Depth=1
.Ltmp524:
	.loc	3 1802 9                        @ ../../../../Source/tasks.c:1802:9
	b	.LBB21_2
.Ltmp525:
.LBB21_3:
	.loc	3 1805 13 is_stmt 1             @ ../../../../Source/tasks.c:1805:13
	ldr	r0, [sp]
	movs	r1, #140
	ldr	r0, [r0, r1]
	movw	r1, :lower16:xSuspendedTaskList
	movt	r1, :upper16:xSuspendedTaskList
.Ltmp526:
	.loc	3 1805 13 is_stmt 0             @ ../../../../Source/tasks.c:1805:13
	cmp	r0, r1
	bne	.LBB21_11
	b	.LBB21_4
.LBB21_4:
.Ltmp527:
	.loc	3 1808 17 is_stmt 1             @ ../../../../Source/tasks.c:1808:17
	ldr	r0, [sp]
	movs	r1, #160
	ldr	r0, [r0, r1]
	movw	r1, :lower16:xPendingReadyList
	movt	r1, :upper16:xPendingReadyList
.Ltmp528:
	.loc	3 1808 17 is_stmt 0             @ ../../../../Source/tasks.c:1808:17
	cmp	r0, r1
	beq	.LBB21_9
	b	.LBB21_5
.LBB21_5:
.Ltmp529:
	.loc	3 1812 21 is_stmt 1             @ ../../../../Source/tasks.c:1812:21
	ldr	r0, [sp]
	movs	r1, #160
	ldr	r0, [r0, r1]
.Ltmp530:
	.loc	3 1812 21 is_stmt 0             @ ../../../../Source/tasks.c:1812:21
	cbnz	r0, .LBB21_7
	b	.LBB21_6
.LBB21_6:
	.loc	3 0 21                          @ ../../../../Source/tasks.c:0:21
	movs	r0, #1
.Ltmp531:
	.loc	3 1814 29 is_stmt 1             @ ../../../../Source/tasks.c:1814:29
	str	r0, [sp, #4]
	.loc	3 1815 17                       @ ../../../../Source/tasks.c:1815:17
	b	.LBB21_8
.Ltmp532:
.LBB21_7:
	.loc	3 0 17 is_stmt 0                @ ../../../../Source/tasks.c:0:17
	b	.LBB21_8
.LBB21_8:
	.loc	3 1820 13 is_stmt 1             @ ../../../../Source/tasks.c:1820:13
	b	.LBB21_10
.Ltmp533:
.LBB21_9:
	.loc	3 0 13 is_stmt 0                @ ../../../../Source/tasks.c:0:13
	b	.LBB21_10
.LBB21_10:
	.loc	3 1825 9 is_stmt 1              @ ../../../../Source/tasks.c:1825:9
	b	.LBB21_12
.Ltmp534:
.LBB21_11:
	.loc	3 0 9 is_stmt 0                 @ ../../../../Source/tasks.c:0:9
	b	.LBB21_12
.LBB21_12:
	.loc	3 1831 16 is_stmt 1             @ ../../../../Source/tasks.c:1831:16
	ldr	r0, [sp, #4]
	.loc	3 1831 9 is_stmt 0              @ ../../../../Source/tasks.c:1831:9
	add	sp, #12
	bx	lr
.Ltmp535:
.Lfunc_end21:
	.size	prvTaskIsTaskSuspended, .Lfunc_end21-prvTaskIsTaskSuspended
	.cfi_endproc
	.cantunwind
	.fnend
                                        @ -- End function
	.hidden	vTaskStartScheduler             @ -- Begin function vTaskStartScheduler
	.globl	vTaskStartScheduler
	.p2align	1
	.type	vTaskStartScheduler,%function
	.code	16                              @ @vTaskStartScheduler
	.thumb_func
vTaskStartScheduler:
.Lfunc_begin22:
	.loc	3 1969 0 is_stmt 1              @ ../../../../Source/tasks.c:1969:0
	.fnstart
	.cfi_startproc
@ %bb.0:
	.save	{r7, lr}
	push	{r7, lr}
	.cfi_def_cfa_offset 8
	.cfi_offset lr, -4
	.cfi_offset r7, -8
	.pad	#32
	sub	sp, #32
	.cfi_def_cfa_offset 40
	movs	r0, #0
.Ltmp536:
	.loc	3 1975 24 prologue_end          @ ../../../../Source/tasks.c:1975:24
	str	r0, [sp, #12]                   @ 4-byte Spill
	str	r0, [sp, #24]
	.loc	3 1976 23                       @ ../../../../Source/tasks.c:1976:23
	str	r0, [sp, #20]
	add	r0, sp, #24
	add	r1, sp, #20
	add	r2, sp, #16
	.loc	3 1981 9                        @ ../../../../Source/tasks.c:1981:9
	bl	vApplicationGetIdleTaskMemory
	ldr	r3, [sp, #12]                   @ 4-byte Reload
	.loc	3 1984 46                       @ ../../../../Source/tasks.c:1984:46
	ldr	r2, [sp, #16]
	.loc	3 1987 46                       @ ../../../../Source/tasks.c:1987:46
	ldr	r0, [sp, #20]
	.loc	3 1988 46                       @ ../../../../Source/tasks.c:1988:46
	ldr	r1, [sp, #24]
	.loc	3 1982 27                       @ ../../../../Source/tasks.c:1982:27
	str	r1, [sp, #8]
	str	r0, [sp, #4]
	movs	r0, #1
	lsls	r0, r0, #31
	str	r0, [sp]
	movw	r0, :lower16:prvIdleTask
	movt	r0, :upper16:prvIdleTask
	movw	r1, :lower16:.L.str
	movt	r1, :upper16:.L.str
	bl	xTaskCreateStatic
	mov	r1, r0
	.loc	3 1982 25 is_stmt 0             @ ../../../../Source/tasks.c:1982:25
	movw	r0, :lower16:xIdleTaskHandle
	movt	r0, :upper16:xIdleTaskHandle
	str	r1, [r0]
.Ltmp537:
	.loc	3 1990 13 is_stmt 1             @ ../../../../Source/tasks.c:1990:13
	ldr	r0, [r0]
.Ltmp538:
	.loc	3 1990 13 is_stmt 0             @ ../../../../Source/tasks.c:1990:13
	cbz	r0, .LBB22_2
	b	.LBB22_1
.LBB22_1:
	.loc	3 0 13                          @ ../../../../Source/tasks.c:0:13
	movs	r0, #1
.Ltmp539:
	.loc	3 1992 21 is_stmt 1             @ ../../../../Source/tasks.c:1992:21
	str	r0, [sp, #28]
	.loc	3 1993 9                        @ ../../../../Source/tasks.c:1993:9
	b	.LBB22_3
.Ltmp540:
.LBB22_2:
	.loc	3 0 9 is_stmt 0                 @ ../../../../Source/tasks.c:0:9
	movs	r0, #0
.Ltmp541:
	.loc	3 1996 21 is_stmt 1             @ ../../../../Source/tasks.c:1996:21
	str	r0, [sp, #28]
	b	.LBB22_3
.Ltmp542:
.LBB22_3:
	.loc	3 2013 13                       @ ../../../../Source/tasks.c:2013:13
	ldr	r0, [sp, #28]
.Ltmp543:
	.loc	3 2013 13 is_stmt 0             @ ../../../../Source/tasks.c:2013:13
	cmp	r0, #1
	bne	.LBB22_5
	b	.LBB22_4
.LBB22_4:
.Ltmp544:
	.loc	3 2015 23 is_stmt 1             @ ../../../../Source/tasks.c:2015:23
	bl	xTimerCreateTimerTask
	.loc	3 2015 21 is_stmt 0             @ ../../../../Source/tasks.c:2015:21
	str	r0, [sp, #28]
	.loc	3 2016 9 is_stmt 1              @ ../../../../Source/tasks.c:2016:9
	b	.LBB22_6
.Ltmp545:
.LBB22_5:
	.loc	3 0 9 is_stmt 0                 @ ../../../../Source/tasks.c:0:9
	b	.LBB22_6
.LBB22_6:
.Ltmp546:
	.loc	3 2024 9 is_stmt 1              @ ../../../../Source/tasks.c:2024:9
	ldr	r0, [sp, #28]
.Ltmp547:
	.loc	3 2024 9 is_stmt 0              @ ../../../../Source/tasks.c:2024:9
	cmp	r0, #1
	bne	.LBB22_8
	b	.LBB22_7
.LBB22_7:
.Ltmp548:
	.loc	3 2040 9 is_stmt 1              @ ../../../../Source/tasks.c:2040:9
	@APP
	cpsid i
	@NO_APP
	.loc	3 2050 30                       @ ../../../../Source/tasks.c:2050:30
	movw	r2, :lower16:xNextTaskUnblockTime
	movt	r2, :upper16:xNextTaskUnblockTime
	movs	r0, #0
	mvns	r1, r0
	str	r1, [r2]
	.loc	3 2051 27                       @ ../../../../Source/tasks.c:2051:27
	movw	r2, :lower16:xSchedulerRunning
	movt	r2, :upper16:xSchedulerRunning
	movs	r1, #1
	str	r1, [r2]
	.loc	3 2052 20                       @ ../../../../Source/tasks.c:2052:20
	movw	r1, :lower16:xTickCount
	movt	r1, :upper16:xTickCount
	str	r0, [r1]
	.loc	3 2066 9                        @ ../../../../Source/tasks.c:2066:9
	bl	xPortStartScheduler
	.loc	3 2074 5                        @ ../../../../Source/tasks.c:2074:5
	b	.LBB22_12
.Ltmp549:
.LBB22_8:
	.loc	3 2080 9                        @ ../../../../Source/tasks.c:2080:9
	ldr	r0, [sp, #28]
.Ltmp550:
	.loc	3 2080 9 is_stmt 0              @ ../../../../Source/tasks.c:2080:9
	adds	r0, r0, #1
	cbnz	r0, .LBB22_11
	b	.LBB22_9
.LBB22_9:
.Ltmp551:
	.loc	3 2080 9                        @ ../../../../Source/tasks.c:2080:9
	@APP
	cpsid i
	@NO_APP
	b	.LBB22_10
.LBB22_10:                              @ =>This Inner Loop Header: Depth=1
.Ltmp552:
	.loc	3 2080 9                        @ ../../../../Source/tasks.c:2080:9
	b	.LBB22_10
.Ltmp553:
.LBB22_11:
	.loc	3 0 9                           @ ../../../../Source/tasks.c:0:9
	b	.LBB22_12
.LBB22_12:
	.loc	3 2089 14 is_stmt 1             @ ../../../../Source/tasks.c:2089:14
	movw	r0, :lower16:uxTopUsedPriority
	movt	r0, :upper16:uxTopUsedPriority
	ldr	r0, [r0]
	.loc	3 2090 1                        @ ../../../../Source/tasks.c:2090:1
	add	sp, #32
	pop	{r7, pc}
.Ltmp554:
.Lfunc_end22:
	.size	vTaskStartScheduler, .Lfunc_end22-vTaskStartScheduler
	.cfi_endproc
	.cantunwind
	.fnend
                                        @ -- End function
	.p2align	1                               @ -- Begin function prvIdleTask
	.type	prvIdleTask,%function
	.code	16                              @ @prvIdleTask
	.thumb_func
prvIdleTask:
.Lfunc_begin23:
	.loc	3 3490 0                        @ ../../../../Source/tasks.c:3490:0
	.fnstart
	.cfi_startproc
@ %bb.0:
	.pad	#8
	sub	sp, #8
	.cfi_def_cfa_offset 8
	str	r0, [sp, #4]
.Ltmp555:
	.loc	3 3502 5 prologue_end           @ ../../../../Source/tasks.c:3502:5
	b	.LBB23_1
.LBB23_1:                               @ =>This Inner Loop Header: Depth=1
.Ltmp556:
	.loc	3 3506 9                        @ ../../../../Source/tasks.c:3506:9
	bl	prvCheckTasksWaitingTermination
.Ltmp557:
	.loc	3 3529 17                       @ ../../../../Source/tasks.c:3529:17
	movw	r0, :lower16:pxReadyTasksLists
	movt	r0, :upper16:pxReadyTasksLists
	ldr	r0, [r0]
.Ltmp558:
	.loc	3 3529 17 is_stmt 0             @ ../../../../Source/tasks.c:3529:17
	cmp	r0, #2
	blo	.LBB23_3
	b	.LBB23_2
.LBB23_2:                               @   in Loop: Header=BB23_1 Depth=1
.Ltmp559:
	.loc	3 3531 17 is_stmt 1             @ ../../../../Source/tasks.c:3531:17
	bl	vPortYield
	.loc	3 3532 13                       @ ../../../../Source/tasks.c:3532:13
	b	.LBB23_4
.Ltmp560:
.LBB23_3:                               @   in Loop: Header=BB23_1 Depth=1
	.loc	3 0 13 is_stmt 0                @ ../../../../Source/tasks.c:0:13
	b	.LBB23_4
.LBB23_4:                               @   in Loop: Header=BB23_1 Depth=1
.Ltmp561:
	.loc	3 3560 33 is_stmt 1             @ ../../../../Source/tasks.c:3560:33
	bl	prvGetExpectedIdleTime
	.loc	3 3560 31 is_stmt 0             @ ../../../../Source/tasks.c:3560:31
	str	r0, [sp]
.Ltmp562:
	.loc	3 3562 17 is_stmt 1             @ ../../../../Source/tasks.c:3562:17
	ldr	r0, [sp]
.Ltmp563:
	.loc	3 3562 17 is_stmt 0             @ ../../../../Source/tasks.c:3562:17
	cmp	r0, #2
	blo	.LBB23_12
	b	.LBB23_5
.LBB23_5:                               @   in Loop: Header=BB23_1 Depth=1
.Ltmp564:
	.loc	3 3564 17 is_stmt 1             @ ../../../../Source/tasks.c:3564:17
	bl	vTaskSuspendAll
.Ltmp565:
	.loc	3 3569 21                       @ ../../../../Source/tasks.c:3569:21
	movw	r0, :lower16:xNextTaskUnblockTime
	movt	r0, :upper16:xNextTaskUnblockTime
	ldr	r0, [r0]
	movw	r1, :lower16:xTickCount
	movt	r1, :upper16:xTickCount
	ldr	r1, [r1]
.Ltmp566:
	.loc	3 3569 21 is_stmt 0             @ ../../../../Source/tasks.c:3569:21
	cmp	r0, r1
	bhs	.LBB23_8
	b	.LBB23_6
.LBB23_6:
.Ltmp567:
	.loc	3 3569 21                       @ ../../../../Source/tasks.c:3569:21
	@APP
	cpsid i
	@NO_APP
	b	.LBB23_7
.LBB23_7:                               @ =>This Inner Loop Header: Depth=1
.Ltmp568:
	.loc	3 3569 21                       @ ../../../../Source/tasks.c:3569:21
	b	.LBB23_7
.Ltmp569:
.LBB23_8:                               @   in Loop: Header=BB23_1 Depth=1
	.loc	3 3570 41 is_stmt 1             @ ../../../../Source/tasks.c:3570:41
	bl	prvGetExpectedIdleTime
	.loc	3 3570 39 is_stmt 0             @ ../../../../Source/tasks.c:3570:39
	str	r0, [sp]
.Ltmp570:
	.loc	3 3577 25 is_stmt 1             @ ../../../../Source/tasks.c:3577:25
	ldr	r0, [sp]
.Ltmp571:
	.loc	3 3577 25 is_stmt 0             @ ../../../../Source/tasks.c:3577:25
	cmp	r0, #2
	blo	.LBB23_10
	b	.LBB23_9
.LBB23_9:                               @   in Loop: Header=BB23_1 Depth=1
.Ltmp572:
	.loc	3 3580 25 is_stmt 1             @ ../../../../Source/tasks.c:3580:25
	ldr	r0, [sp]
	bl	vPortSuppressTicksAndSleep
	.loc	3 3582 21                       @ ../../../../Source/tasks.c:3582:21
	b	.LBB23_11
.Ltmp573:
.LBB23_10:                              @   in Loop: Header=BB23_1 Depth=1
	.loc	3 0 21 is_stmt 0                @ ../../../../Source/tasks.c:0:21
	b	.LBB23_11
.LBB23_11:                              @   in Loop: Header=BB23_1 Depth=1
	.loc	3 3588 26 is_stmt 1             @ ../../../../Source/tasks.c:3588:26
	bl	xTaskResumeAll
	.loc	3 3589 13                       @ ../../../../Source/tasks.c:3589:13
	b	.LBB23_13
.Ltmp574:
.LBB23_12:                              @   in Loop: Header=BB23_1 Depth=1
	.loc	3 0 13 is_stmt 0                @ ../../../../Source/tasks.c:0:13
	b	.LBB23_13
.LBB23_13:                              @   in Loop: Header=BB23_1 Depth=1
	.loc	3 3502 5 is_stmt 1              @ ../../../../Source/tasks.c:3502:5
	b	.LBB23_1
.Ltmp575:
.Lfunc_end23:
	.size	prvIdleTask, .Lfunc_end23-prvIdleTask
	.cfi_endproc
	.cantunwind
	.fnend
                                        @ -- End function
	.hidden	vTaskEndScheduler               @ -- Begin function vTaskEndScheduler
	.globl	vTaskEndScheduler
	.p2align	1
	.type	vTaskEndScheduler,%function
	.code	16                              @ @vTaskEndScheduler
	.thumb_func
vTaskEndScheduler:
.Lfunc_begin24:
	.loc	3 2094 0                        @ ../../../../Source/tasks.c:2094:0
	.fnstart
	.cfi_startproc
@ %bb.0:
	.save	{r7, lr}
	push	{r7, lr}
	.cfi_def_cfa_offset 8
	.cfi_offset lr, -4
	.cfi_offset r7, -8
.Ltmp576:
	.loc	3 2098 5 prologue_end           @ ../../../../Source/tasks.c:2098:5
	@APP
	cpsid i
	@NO_APP
	.loc	3 2099 23                       @ ../../../../Source/tasks.c:2099:23
	movw	r1, :lower16:xSchedulerRunning
	movt	r1, :upper16:xSchedulerRunning
	movs	r0, #0
	str	r0, [r1]
	.loc	3 2100 5                        @ ../../../../Source/tasks.c:2100:5
	bl	vPortEndScheduler
	.loc	3 2101 1                        @ ../../../../Source/tasks.c:2101:1
	pop	{r7, pc}
.Ltmp577:
.Lfunc_end24:
	.size	vTaskEndScheduler, .Lfunc_end24-vTaskEndScheduler
	.cfi_endproc
	.cantunwind
	.fnend
                                        @ -- End function
	.hidden	xTaskIncrementTick              @ -- Begin function xTaskIncrementTick
	.globl	xTaskIncrementTick
	.p2align	1
	.type	xTaskIncrementTick,%function
	.code	16                              @ @xTaskIncrementTick
	.thumb_func
xTaskIncrementTick:
.Lfunc_begin25:
	.loc	3 2782 0                        @ ../../../../Source/tasks.c:2782:0
	.fnstart
	.cfi_startproc
@ %bb.0:
	.save	{r4, r5, r7, lr}
	push	{r4, r5, r7, lr}
	.cfi_def_cfa_offset 16
	.cfi_offset lr, -4
	.cfi_offset r7, -8
	.cfi_offset r5, -12
	.cfi_offset r4, -16
	.pad	#32
	sub	sp, #32
	.cfi_def_cfa_offset 48
	movs	r0, #0
.Ltmp578:
	.loc	3 2785 16 prologue_end          @ ../../../../Source/tasks.c:2785:16
	str	r0, [sp, #20]
.Ltmp579:
	.loc	3 2792 9                        @ ../../../../Source/tasks.c:2792:9
	movw	r0, :lower16:uxSchedulerSuspended
	movt	r0, :upper16:uxSchedulerSuspended
	ldr	r0, [r0]
.Ltmp580:
	.loc	3 2792 9 is_stmt 0              @ ../../../../Source/tasks.c:2792:9
	cbz	r0, .LBB25_1
	b	.LBB25_46
.LBB25_1:
.Ltmp581:
	.loc	3 2796 44 is_stmt 1             @ ../../../../Source/tasks.c:2796:44
	movw	r1, :lower16:xTickCount
	movt	r1, :upper16:xTickCount
	ldr	r0, [r1]
	.loc	3 2796 55 is_stmt 0             @ ../../../../Source/tasks.c:2796:55
	adds	r0, r0, #1
	.loc	3 2796 26                       @ ../../../../Source/tasks.c:2796:26
	str	r0, [sp, #16]
	.loc	3 2800 22 is_stmt 1             @ ../../../../Source/tasks.c:2800:22
	ldr	r0, [sp, #16]
	.loc	3 2800 20 is_stmt 0             @ ../../../../Source/tasks.c:2800:20
	str	r0, [r1]
.Ltmp582:
	.loc	3 2802 13 is_stmt 1             @ ../../../../Source/tasks.c:2802:13
	ldr	r0, [sp, #16]
.Ltmp583:
	.loc	3 2802 13 is_stmt 0             @ ../../../../Source/tasks.c:2802:13
	cbnz	r0, .LBB25_8
	b	.LBB25_2
.LBB25_2:
.Ltmp584:
	.loc	3 2804 13 is_stmt 1             @ ../../../../Source/tasks.c:2804:13
	b	.LBB25_3
.LBB25_3:
.Ltmp585:
	.loc	3 2804 13 is_stmt 0             @ ../../../../Source/tasks.c:2804:13
	movw	r0, :lower16:pxDelayedTaskList
	movt	r0, :upper16:pxDelayedTaskList
	ldr	r0, [r0]
	ldr	r0, [r0]
.Ltmp586:
	.loc	3 2804 13                       @ ../../../../Source/tasks.c:2804:13
	cbz	r0, .LBB25_6
	b	.LBB25_4
.LBB25_4:
.Ltmp587:
	.loc	3 2804 13                       @ ../../../../Source/tasks.c:2804:13
	@APP
	cpsid i
	@NO_APP
	b	.LBB25_5
.LBB25_5:                               @ =>This Inner Loop Header: Depth=1
.Ltmp588:
	.loc	3 2804 13                       @ ../../../../Source/tasks.c:2804:13
	b	.LBB25_5
.Ltmp589:
.LBB25_6:
	.loc	3 2804 13                       @ ../../../../Source/tasks.c:2804:13
	movw	r2, :lower16:pxDelayedTaskList
	movt	r2, :upper16:pxDelayedTaskList
	ldr	r0, [r2]
	str	r0, [sp, #12]
	movw	r1, :lower16:pxOverflowDelayedTaskList
	movt	r1, :upper16:pxOverflowDelayedTaskList
	ldr	r0, [r1]
	str	r0, [r2]
	ldr	r0, [sp, #12]
	str	r0, [r1]
	movw	r1, :lower16:xNumOfOverflows
	movt	r1, :upper16:xNumOfOverflows
	ldr	r0, [r1]
	adds	r0, r0, #1
	str	r0, [r1]
	bl	prvResetNextTaskUnblockTime
	b	.LBB25_7
.Ltmp590:
.LBB25_7:
	.loc	3 2805 9 is_stmt 1              @ ../../../../Source/tasks.c:2805:9
	b	.LBB25_9
.Ltmp591:
.LBB25_8:
	.loc	3 0 9 is_stmt 0                 @ ../../../../Source/tasks.c:0:9
	b	.LBB25_9
.LBB25_9:
.Ltmp592:
	.loc	3 2815 13 is_stmt 1             @ ../../../../Source/tasks.c:2815:13
	ldr	r0, [sp, #16]
	.loc	3 2815 32 is_stmt 0             @ ../../../../Source/tasks.c:2815:32
	movw	r1, :lower16:xNextTaskUnblockTime
	movt	r1, :upper16:xNextTaskUnblockTime
	ldr	r1, [r1]
.Ltmp593:
	.loc	3 2815 13                       @ ../../../../Source/tasks.c:2815:13
	cmp	r0, r1
	bhs	.LBB25_10
	b	.LBB25_39
.LBB25_10:
.Ltmp594:
	.loc	3 2817 13 is_stmt 1             @ ../../../../Source/tasks.c:2817:13
	b	.LBB25_11
.LBB25_11:                              @ =>This Inner Loop Header: Depth=1
.Ltmp595:
	.loc	3 2819 21                       @ ../../../../Source/tasks.c:2819:21
	movw	r0, :lower16:pxDelayedTaskList
	movt	r0, :upper16:pxDelayedTaskList
	ldr	r0, [r0]
	ldr	r0, [r0]
.Ltmp596:
	.loc	3 2819 21 is_stmt 0             @ ../../../../Source/tasks.c:2819:21
	cbnz	r0, .LBB25_13
	b	.LBB25_12
.LBB25_12:
.Ltmp597:
	.loc	3 2826 42 is_stmt 1             @ ../../../../Source/tasks.c:2826:42
	movw	r1, :lower16:xNextTaskUnblockTime
	movt	r1, :upper16:xNextTaskUnblockTime
	movs	r0, #0
	mvns	r0, r0
	str	r0, [r1]
	.loc	3 2827 21                       @ ../../../../Source/tasks.c:2827:21
	b	.LBB25_38
.Ltmp598:
.LBB25_13:                              @   in Loop: Header=BB25_11 Depth=1
	.loc	3 2835 29                       @ ../../../../Source/tasks.c:2835:29
	movw	r0, :lower16:pxDelayedTaskList
	movt	r0, :upper16:pxDelayedTaskList
	ldr	r0, [r0]
	ldr	r0, [r0, #12]
	ldr	r0, [r0, #12]
	.loc	3 2835 27 is_stmt 0             @ ../../../../Source/tasks.c:2835:27
	str	r0, [sp, #28]
	.loc	3 2836 34 is_stmt 1             @ ../../../../Source/tasks.c:2836:34
	ldr	r0, [sp, #28]
	ldr	r0, [r0, #124]
	.loc	3 2836 32 is_stmt 0             @ ../../../../Source/tasks.c:2836:32
	str	r0, [sp, #24]
.Ltmp599:
	.loc	3 2838 25 is_stmt 1             @ ../../../../Source/tasks.c:2838:25
	ldr	r0, [sp, #16]
	.loc	3 2838 43 is_stmt 0             @ ../../../../Source/tasks.c:2838:43
	ldr	r1, [sp, #24]
.Ltmp600:
	.loc	3 2838 25                       @ ../../../../Source/tasks.c:2838:25
	cmp	r0, r1
	bhs	.LBB25_15
	b	.LBB25_14
.LBB25_14:
.Ltmp601:
	.loc	3 2845 48 is_stmt 1             @ ../../../../Source/tasks.c:2845:48
	ldr	r0, [sp, #24]
	.loc	3 2845 46 is_stmt 0             @ ../../../../Source/tasks.c:2845:46
	movw	r1, :lower16:xNextTaskUnblockTime
	movt	r1, :upper16:xNextTaskUnblockTime
	str	r0, [r1]
	.loc	3 2846 25 is_stmt 1             @ ../../../../Source/tasks.c:2846:25
	b	.LBB25_38
.Ltmp602:
.LBB25_15:                              @   in Loop: Header=BB25_11 Depth=1
	.loc	3 0 25 is_stmt 0                @ ../../../../Source/tasks.c:0:25
	b	.LBB25_16
.LBB25_16:                              @   in Loop: Header=BB25_11 Depth=1
	.loc	3 2854 21 is_stmt 1             @ ../../../../Source/tasks.c:2854:21
	b	.LBB25_17
.LBB25_17:                              @   in Loop: Header=BB25_11 Depth=1
.Ltmp603:
	.loc	3 2854 21 is_stmt 0             @ ../../../../Source/tasks.c:2854:21
	ldr	r0, [sp, #28]
	movs	r1, #140
	ldr	r0, [r0, r1]
	str	r0, [sp, #8]
	ldr	r1, [sp, #28]
	adds	r1, #124
	ldr	r0, [r1, #8]
	ldr	r1, [r1, #4]
	str	r0, [r1, #8]
	ldr	r1, [sp, #28]
	adds	r1, #124
	ldr	r0, [r1, #4]
	ldr	r1, [r1, #8]
	str	r0, [r1, #4]
.Ltmp604:
	.loc	3 2854 21                       @ ../../../../Source/tasks.c:2854:21
	ldr	r0, [sp, #8]
	ldr	r0, [r0, #4]
	ldr	r1, [sp, #28]
	adds	r1, #124
.Ltmp605:
	.loc	3 2854 21                       @ ../../../../Source/tasks.c:2854:21
	cmp	r0, r1
	bne	.LBB25_19
	b	.LBB25_18
.LBB25_18:                              @   in Loop: Header=BB25_11 Depth=1
.Ltmp606:
	.loc	3 2854 21                       @ ../../../../Source/tasks.c:2854:21
	ldr	r0, [sp, #28]
	movs	r1, #132
	ldr	r0, [r0, r1]
	ldr	r1, [sp, #8]
	str	r0, [r1, #4]
	b	.LBB25_19
.Ltmp607:
.LBB25_19:                              @   in Loop: Header=BB25_11 Depth=1
	.loc	3 2854 21                       @ ../../../../Source/tasks.c:2854:21
	ldr	r1, [sp, #28]
	movs	r2, #140
	movs	r0, #0
	str	r0, [r1, r2]
	ldr	r1, [sp, #8]
	ldr	r0, [r1]
	subs	r0, r0, #1
	str	r0, [r1]
	b	.LBB25_20
.Ltmp608:
.LBB25_20:                              @   in Loop: Header=BB25_11 Depth=1
	.loc	3 2858 25 is_stmt 1             @ ../../../../Source/tasks.c:2858:25
	ldr	r0, [sp, #28]
	movs	r1, #160
	ldr	r0, [r0, r1]
.Ltmp609:
	.loc	3 2858 25 is_stmt 0             @ ../../../../Source/tasks.c:2858:25
	cbz	r0, .LBB25_26
	b	.LBB25_21
.LBB25_21:                              @   in Loop: Header=BB25_11 Depth=1
.Ltmp610:
	.loc	3 2860 25 is_stmt 1             @ ../../../../Source/tasks.c:2860:25
	b	.LBB25_22
.LBB25_22:                              @   in Loop: Header=BB25_11 Depth=1
.Ltmp611:
	.loc	3 2860 25 is_stmt 0             @ ../../../../Source/tasks.c:2860:25
	ldr	r0, [sp, #28]
	movs	r1, #160
	ldr	r0, [r0, r1]
	str	r0, [sp, #4]
	ldr	r1, [sp, #28]
	adds	r1, #144
	ldr	r0, [r1, #8]
	ldr	r1, [r1, #4]
	str	r0, [r1, #8]
	ldr	r1, [sp, #28]
	adds	r1, #144
	ldr	r0, [r1, #4]
	ldr	r1, [r1, #8]
	str	r0, [r1, #4]
.Ltmp612:
	.loc	3 2860 25                       @ ../../../../Source/tasks.c:2860:25
	ldr	r0, [sp, #4]
	ldr	r0, [r0, #4]
	ldr	r1, [sp, #28]
	adds	r1, #144
.Ltmp613:
	.loc	3 2860 25                       @ ../../../../Source/tasks.c:2860:25
	cmp	r0, r1
	bne	.LBB25_24
	b	.LBB25_23
.LBB25_23:                              @   in Loop: Header=BB25_11 Depth=1
.Ltmp614:
	.loc	3 2860 25                       @ ../../../../Source/tasks.c:2860:25
	ldr	r0, [sp, #28]
	movs	r1, #152
	ldr	r0, [r0, r1]
	ldr	r1, [sp, #4]
	str	r0, [r1, #4]
	b	.LBB25_24
.Ltmp615:
.LBB25_24:                              @   in Loop: Header=BB25_11 Depth=1
	.loc	3 2860 25                       @ ../../../../Source/tasks.c:2860:25
	ldr	r1, [sp, #28]
	movs	r2, #160
	movs	r0, #0
	str	r0, [r1, r2]
	ldr	r1, [sp, #4]
	ldr	r0, [r1]
	subs	r0, r0, #1
	str	r0, [r1]
	b	.LBB25_25
.Ltmp616:
.LBB25_25:                              @   in Loop: Header=BB25_11 Depth=1
	.loc	3 2861 21 is_stmt 1             @ ../../../../Source/tasks.c:2861:21
	b	.LBB25_27
.Ltmp617:
.LBB25_26:                              @   in Loop: Header=BB25_11 Depth=1
	.loc	3 0 21 is_stmt 0                @ ../../../../Source/tasks.c:0:21
	b	.LBB25_27
.LBB25_27:                              @   in Loop: Header=BB25_11 Depth=1
	.loc	3 2869 21 is_stmt 1             @ ../../../../Source/tasks.c:2869:21
	b	.LBB25_28
.LBB25_28:                              @   in Loop: Header=BB25_11 Depth=1
.Ltmp618:
	.loc	3 2869 21 is_stmt 0             @ ../../../../Source/tasks.c:2869:21
	ldr	r0, [sp, #28]
	movs	r1, #164
	ldr	r0, [r0, r1]
	movw	r1, :lower16:uxTopReadyPriority
	movt	r1, :upper16:uxTopReadyPriority
	ldr	r1, [r1]
.Ltmp619:
	.loc	3 2869 21                       @ ../../../../Source/tasks.c:2869:21
	cmp	r0, r1
	bls	.LBB25_30
	b	.LBB25_29
.LBB25_29:                              @   in Loop: Header=BB25_11 Depth=1
.Ltmp620:
	.loc	3 2869 21                       @ ../../../../Source/tasks.c:2869:21
	ldr	r0, [sp, #28]
	movs	r1, #164
	ldr	r0, [r0, r1]
	movw	r1, :lower16:uxTopReadyPriority
	movt	r1, :upper16:uxTopReadyPriority
	str	r0, [r1]
	b	.LBB25_30
.Ltmp621:
.LBB25_30:                              @   in Loop: Header=BB25_11 Depth=1
	.loc	3 2869 21                       @ ../../../../Source/tasks.c:2869:21
	b	.LBB25_31
.LBB25_31:                              @   in Loop: Header=BB25_11 Depth=1
.Ltmp622:
	.loc	3 2869 21                       @ ../../../../Source/tasks.c:2869:21
	ldr	r0, [sp, #28]
	movs	r3, #164
	ldr	r1, [r0, r3]
	movs	r2, #20
	mov	r0, r2
	muls	r0, r1, r0
	movw	r1, :lower16:pxReadyTasksLists
	movt	r1, :upper16:pxReadyTasksLists
	adds	r0, r1, r0
	ldr	r0, [r0, #4]
	str	r0, [sp]
	ldr	r0, [sp]
	ldr	r4, [sp, #28]
	movs	r5, #128
	str	r0, [r4, r5]
	ldr	r0, [sp]
	ldr	r0, [r0, #8]
	ldr	r4, [sp, #28]
	movs	r5, #132
	str	r0, [r4, r5]
	ldr	r0, [sp, #28]
	adds	r0, #124
	ldr	r4, [sp]
	ldr	r4, [r4, #8]
	str	r0, [r4, #4]
	ldr	r0, [sp, #28]
	adds	r0, #124
	ldr	r4, [sp]
	str	r0, [r4, #8]
	ldr	r4, [sp, #28]
	ldr	r5, [r4, r3]
	mov	r0, r2
	muls	r0, r5, r0
	adds	r0, r1, r0
	movs	r5, #140
	str	r0, [r4, r5]
	ldr	r0, [sp, #28]
	ldr	r0, [r0, r3]
	muls	r2, r0, r2
	ldr	r0, [r1, r2]
	adds	r0, r0, #1
	str	r0, [r1, r2]
	b	.LBB25_32
.Ltmp623:
.LBB25_32:                              @   in Loop: Header=BB25_11 Depth=1
	.loc	3 2869 21                       @ ../../../../Source/tasks.c:2869:21
	b	.LBB25_33
.Ltmp624:
.LBB25_33:                              @   in Loop: Header=BB25_11 Depth=1
	.loc	3 2883 29 is_stmt 1             @ ../../../../Source/tasks.c:2883:29
	ldr	r0, [sp, #28]
	movs	r2, #164
	.loc	3 2883 36 is_stmt 0             @ ../../../../Source/tasks.c:2883:36
	ldr	r0, [r0, r2]
	.loc	3 2883 49                       @ ../../../../Source/tasks.c:2883:49
	movw	r1, :lower16:pxCurrentTCB
	movt	r1, :upper16:pxCurrentTCB
	ldr	r1, [r1]
	.loc	3 2883 63                       @ ../../../../Source/tasks.c:2883:63
	ldr	r1, [r1, r2]
.Ltmp625:
	.loc	3 2883 29                       @ ../../../../Source/tasks.c:2883:29
	cmp	r0, r1
	bls	.LBB25_35
	b	.LBB25_34
.LBB25_34:                              @   in Loop: Header=BB25_11 Depth=1
	.loc	3 0 29                          @ ../../../../Source/tasks.c:0:29
	movs	r0, #1
.Ltmp626:
	.loc	3 2885 45 is_stmt 1             @ ../../../../Source/tasks.c:2885:45
	str	r0, [sp, #20]
	.loc	3 2886 25                       @ ../../../../Source/tasks.c:2886:25
	b	.LBB25_36
.Ltmp627:
.LBB25_35:                              @   in Loop: Header=BB25_11 Depth=1
	.loc	3 0 25 is_stmt 0                @ ../../../../Source/tasks.c:0:25
	b	.LBB25_36
.LBB25_36:                              @   in Loop: Header=BB25_11 Depth=1
	b	.LBB25_37
.LBB25_37:                              @   in Loop: Header=BB25_11 Depth=1
	.loc	3 2817 13 is_stmt 1             @ ../../../../Source/tasks.c:2817:13
	b	.LBB25_11
.Ltmp628:
.LBB25_38:
	.loc	3 2895 9                        @ ../../../../Source/tasks.c:2895:9
	b	.LBB25_39
.Ltmp629:
.LBB25_39:
	.loc	3 2902 17                       @ ../../../../Source/tasks.c:2902:17
	movw	r0, :lower16:pxCurrentTCB
	movt	r0, :upper16:pxCurrentTCB
	ldr	r0, [r0]
	movs	r1, #164
	ldr	r0, [r0, r1]
	movs	r1, #20
	muls	r1, r0, r1
	movw	r0, :lower16:pxReadyTasksLists
	movt	r0, :upper16:pxReadyTasksLists
	ldr	r0, [r0, r1]
.Ltmp630:
	.loc	3 2902 17 is_stmt 0             @ ../../../../Source/tasks.c:2902:17
	cmp	r0, #2
	blo	.LBB25_41
	b	.LBB25_40
.LBB25_40:
	.loc	3 0 17                          @ ../../../../Source/tasks.c:0:17
	movs	r0, #1
.Ltmp631:
	.loc	3 2904 33 is_stmt 1             @ ../../../../Source/tasks.c:2904:33
	str	r0, [sp, #20]
	.loc	3 2905 13                       @ ../../../../Source/tasks.c:2905:13
	b	.LBB25_42
.Ltmp632:
.LBB25_41:
	.loc	3 0 13 is_stmt 0                @ ../../../../Source/tasks.c:0:13
	b	.LBB25_42
.LBB25_42:
.Ltmp633:
	.loc	3 2930 17 is_stmt 1             @ ../../../../Source/tasks.c:2930:17
	movw	r0, :lower16:xYieldPending
	movt	r0, :upper16:xYieldPending
	ldr	r0, [r0]
.Ltmp634:
	.loc	3 2930 17 is_stmt 0             @ ../../../../Source/tasks.c:2930:17
	cbz	r0, .LBB25_44
	b	.LBB25_43
.LBB25_43:
	.loc	3 0 17                          @ ../../../../Source/tasks.c:0:17
	movs	r0, #1
.Ltmp635:
	.loc	3 2932 33 is_stmt 1             @ ../../../../Source/tasks.c:2932:33
	str	r0, [sp, #20]
	.loc	3 2933 13                       @ ../../../../Source/tasks.c:2933:13
	b	.LBB25_45
.Ltmp636:
.LBB25_44:
	.loc	3 0 13 is_stmt 0                @ ../../../../Source/tasks.c:0:13
	b	.LBB25_45
.LBB25_45:
	.loc	3 2940 5 is_stmt 1              @ ../../../../Source/tasks.c:2940:5
	b	.LBB25_47
.Ltmp637:
.LBB25_46:
	.loc	3 2943 9                        @ ../../../../Source/tasks.c:2943:9
	movw	r1, :lower16:xPendedTicks
	movt	r1, :upper16:xPendedTicks
	ldr	r0, [r1]
	adds	r0, r0, #1
	str	r0, [r1]
	b	.LBB25_47
.Ltmp638:
.LBB25_47:
	.loc	3 2954 12                       @ ../../../../Source/tasks.c:2954:12
	ldr	r0, [sp, #20]
	.loc	3 2954 5 is_stmt 0              @ ../../../../Source/tasks.c:2954:5
	add	sp, #32
	pop	{r4, r5, r7, pc}
.Ltmp639:
.Lfunc_end25:
	.size	xTaskIncrementTick, .Lfunc_end25-xTaskIncrementTick
	.cfi_endproc
	.cantunwind
	.fnend
                                        @ -- End function
	.hidden	xTaskGetTickCount               @ -- Begin function xTaskGetTickCount
	.globl	xTaskGetTickCount
	.p2align	1
	.type	xTaskGetTickCount,%function
	.code	16                              @ @xTaskGetTickCount
	.thumb_func
xTaskGetTickCount:
.Lfunc_begin26:
	.loc	3 2301 0 is_stmt 1              @ ../../../../Source/tasks.c:2301:0
	.fnstart
	.cfi_startproc
@ %bb.0:
	.pad	#4
	sub	sp, #4
	.cfi_def_cfa_offset 4
.Ltmp640:
	.loc	3 2307 18 prologue_end          @ ../../../../Source/tasks.c:2307:18
	movw	r0, :lower16:xTickCount
	movt	r0, :upper16:xTickCount
	ldr	r0, [r0]
	.loc	3 2307 16 is_stmt 0             @ ../../../../Source/tasks.c:2307:16
	str	r0, [sp]
.Ltmp641:
	.loc	3 2311 12 is_stmt 1             @ ../../../../Source/tasks.c:2311:12
	ldr	r0, [sp]
	.loc	3 2311 5 is_stmt 0              @ ../../../../Source/tasks.c:2311:5
	add	sp, #4
	bx	lr
.Ltmp642:
.Lfunc_end26:
	.size	xTaskGetTickCount, .Lfunc_end26-xTaskGetTickCount
	.cfi_endproc
	.cantunwind
	.fnend
                                        @ -- End function
	.hidden	xTaskGetTickCountFromISR        @ -- Begin function xTaskGetTickCountFromISR
	.globl	xTaskGetTickCountFromISR
	.p2align	1
	.type	xTaskGetTickCountFromISR,%function
	.code	16                              @ @xTaskGetTickCountFromISR
	.thumb_func
xTaskGetTickCountFromISR:
.Lfunc_begin27:
	.loc	3 2316 0 is_stmt 1              @ ../../../../Source/tasks.c:2316:0
	.fnstart
	.cfi_startproc
@ %bb.0:
	.pad	#8
	sub	sp, #8
	.cfi_def_cfa_offset 8
	movs	r0, #0
.Ltmp643:
	.loc	3 2336 27 prologue_end          @ ../../../../Source/tasks.c:2336:27
	str	r0, [sp]
.Ltmp644:
	.loc	3 2338 19                       @ ../../../../Source/tasks.c:2338:19
	movw	r0, :lower16:xTickCount
	movt	r0, :upper16:xTickCount
	ldr	r0, [r0]
	.loc	3 2338 17 is_stmt 0             @ ../../../../Source/tasks.c:2338:17
	str	r0, [sp, #4]
.Ltmp645:
	.loc	3 2342 12 is_stmt 1             @ ../../../../Source/tasks.c:2342:12
	ldr	r0, [sp, #4]
	.loc	3 2342 5 is_stmt 0              @ ../../../../Source/tasks.c:2342:5
	add	sp, #8
	bx	lr
.Ltmp646:
.Lfunc_end27:
	.size	xTaskGetTickCountFromISR, .Lfunc_end27-xTaskGetTickCountFromISR
	.cfi_endproc
	.cantunwind
	.fnend
                                        @ -- End function
	.hidden	uxTaskGetNumberOfTasks          @ -- Begin function uxTaskGetNumberOfTasks
	.globl	uxTaskGetNumberOfTasks
	.p2align	1
	.type	uxTaskGetNumberOfTasks,%function
	.code	16                              @ @uxTaskGetNumberOfTasks
	.thumb_func
uxTaskGetNumberOfTasks:
.Lfunc_begin28:
	.loc	3 2347 0 is_stmt 1              @ ../../../../Source/tasks.c:2347:0
	.fnstart
	.cfi_startproc
@ %bb.0:
	.loc	3 2350 12 prologue_end          @ ../../../../Source/tasks.c:2350:12
	movw	r0, :lower16:uxCurrentNumberOfTasks
	movt	r0, :upper16:uxCurrentNumberOfTasks
	ldr	r0, [r0]
	.loc	3 2350 5 is_stmt 0              @ ../../../../Source/tasks.c:2350:5
	bx	lr
.Ltmp647:
.Lfunc_end28:
	.size	uxTaskGetNumberOfTasks, .Lfunc_end28-uxTaskGetNumberOfTasks
	.cfi_endproc
	.cantunwind
	.fnend
                                        @ -- End function
	.hidden	pcTaskGetName                   @ -- Begin function pcTaskGetName
	.globl	pcTaskGetName
	.p2align	1
	.type	pcTaskGetName,%function
	.code	16                              @ @pcTaskGetName
	.thumb_func
pcTaskGetName:
.Lfunc_begin29:
	.loc	3 2355 0 is_stmt 1              @ ../../../../Source/tasks.c:2355:0
	.fnstart
	.cfi_startproc
@ %bb.0:
	.pad	#12
	sub	sp, #12
	.cfi_def_cfa_offset 12
	str	r0, [sp, #8]
.Ltmp648:
	.loc	3 2360 13 prologue_end          @ ../../../../Source/tasks.c:2360:13
	ldr	r0, [sp, #8]
	cbnz	r0, .LBB29_2
	b	.LBB29_1
.LBB29_1:
	movw	r0, :lower16:pxCurrentTCB
	movt	r0, :upper16:pxCurrentTCB
	ldr	r0, [r0]
	str	r0, [sp]                        @ 4-byte Spill
	b	.LBB29_3
.LBB29_2:
	ldr	r0, [sp, #8]
	str	r0, [sp]                        @ 4-byte Spill
	b	.LBB29_3
.LBB29_3:
	ldr	r0, [sp]                        @ 4-byte Reload
	.loc	3 2360 11 is_stmt 0             @ ../../../../Source/tasks.c:2360:11
	str	r0, [sp, #4]
.Ltmp649:
	.loc	3 2361 5 is_stmt 1              @ ../../../../Source/tasks.c:2361:5
	ldr	r0, [sp, #4]
.Ltmp650:
	.loc	3 2361 5 is_stmt 0              @ ../../../../Source/tasks.c:2361:5
	cbnz	r0, .LBB29_6
	b	.LBB29_4
.LBB29_4:
.Ltmp651:
	.loc	3 2361 5                        @ ../../../../Source/tasks.c:2361:5
	@APP
	cpsid i
	@NO_APP
	b	.LBB29_5
.LBB29_5:                               @ =>This Inner Loop Header: Depth=1
.Ltmp652:
	.loc	3 2361 5                        @ ../../../../Source/tasks.c:2361:5
	b	.LBB29_5
.Ltmp653:
.LBB29_6:
	.loc	3 2362 15 is_stmt 1             @ ../../../../Source/tasks.c:2362:15
	ldr	r0, [sp, #4]
	.loc	3 2362 22 is_stmt 0             @ ../../../../Source/tasks.c:2362:22
	adds	r0, #172
	.loc	3 2362 5                        @ ../../../../Source/tasks.c:2362:5
	add	sp, #12
	bx	lr
.Ltmp654:
.Lfunc_end29:
	.size	pcTaskGetName, .Lfunc_end29-pcTaskGetName
	.cfi_endproc
	.cantunwind
	.fnend
                                        @ -- End function
	.hidden	xTaskGetHandle                  @ -- Begin function xTaskGetHandle
	.globl	xTaskGetHandle
	.p2align	1
	.type	xTaskGetHandle,%function
	.code	16                              @ @xTaskGetHandle
	.thumb_func
xTaskGetHandle:
.Lfunc_begin30:
	.loc	3 2440 0 is_stmt 1              @ ../../../../Source/tasks.c:2440:0
	.fnstart
	.cfi_startproc
@ %bb.0:
	.save	{r7, lr}
	push	{r7, lr}
	.cfi_def_cfa_offset 8
	.cfi_offset lr, -4
	.cfi_offset r7, -8
	.pad	#16
	sub	sp, #16
	.cfi_def_cfa_offset 24
	str	r0, [sp, #12]
	movs	r0, #5
.Ltmp655:
	.loc	3 2441 21 prologue_end          @ ../../../../Source/tasks.c:2441:21
	str	r0, [sp, #8]
.Ltmp656:
	.loc	3 2445 9                        @ ../../../../Source/tasks.c:2445:9
	ldr	r0, [sp, #12]
	bl	strlen
.Ltmp657:
	.loc	3 2445 9 is_stmt 0              @ ../../../../Source/tasks.c:2445:9
	cmp	r0, #12
	blo	.LBB30_3
	b	.LBB30_1
.LBB30_1:
.Ltmp658:
	.loc	3 2445 9                        @ ../../../../Source/tasks.c:2445:9
	@APP
	cpsid i
	@NO_APP
	b	.LBB30_2
.LBB30_2:                               @ =>This Inner Loop Header: Depth=1
.Ltmp659:
	.loc	3 2445 9                        @ ../../../../Source/tasks.c:2445:9
	b	.LBB30_2
.Ltmp660:
.LBB30_3:
	.loc	3 2447 9 is_stmt 1              @ ../../../../Source/tasks.c:2447:9
	bl	vTaskSuspendAll
.Ltmp661:
	.loc	3 2450 13                       @ ../../../../Source/tasks.c:2450:13
	b	.LBB30_4
.LBB30_4:                               @ =>This Inner Loop Header: Depth=1
.Ltmp662:
	.loc	3 2452 24                       @ ../../../../Source/tasks.c:2452:24
	ldr	r0, [sp, #8]
	subs	r0, r0, #1
	str	r0, [sp, #8]
	.loc	3 2453 94                       @ ../../../../Source/tasks.c:2453:94
	ldr	r0, [sp, #8]
	movs	r1, #20
	.loc	3 2453 75 is_stmt 0             @ ../../../../Source/tasks.c:2453:75
	muls	r1, r0, r1
	movw	r0, :lower16:pxReadyTasksLists
	movt	r0, :upper16:pxReadyTasksLists
	adds	r0, r0, r1
	.loc	3 2453 107                      @ ../../../../Source/tasks.c:2453:107
	ldr	r1, [sp, #12]
	.loc	3 2453 25                       @ ../../../../Source/tasks.c:2453:25
	bl	prvSearchForNameWithinSingleList
	.loc	3 2453 23                       @ ../../../../Source/tasks.c:2453:23
	str	r0, [sp, #4]
.Ltmp663:
	.loc	3 2455 21 is_stmt 1             @ ../../../../Source/tasks.c:2455:21
	ldr	r0, [sp, #4]
.Ltmp664:
	.loc	3 2455 21 is_stmt 0             @ ../../../../Source/tasks.c:2455:21
	cbz	r0, .LBB30_6
	b	.LBB30_5
.LBB30_5:
.Ltmp665:
	.loc	3 2458 21 is_stmt 1             @ ../../../../Source/tasks.c:2458:21
	b	.LBB30_8
.Ltmp666:
.LBB30_6:                               @   in Loop: Header=BB30_4 Depth=1
	.loc	3 2460 13                       @ ../../../../Source/tasks.c:2460:13
	b	.LBB30_7
.Ltmp667:
.LBB30_7:                               @   in Loop: Header=BB30_4 Depth=1
	.loc	3 2460 22 is_stmt 0             @ ../../../../Source/tasks.c:2460:22
	ldr	r0, [sp, #8]
.Ltmp668:
	.loc	3 2460 13                       @ ../../../../Source/tasks.c:2460:13
	cmp	r0, #0
	bne	.LBB30_4
	b	.LBB30_8
.Ltmp669:
.LBB30_8:
	.loc	3 2463 17 is_stmt 1             @ ../../../../Source/tasks.c:2463:17
	ldr	r0, [sp, #4]
.Ltmp670:
	.loc	3 2463 17 is_stmt 0             @ ../../../../Source/tasks.c:2463:17
	cbnz	r0, .LBB30_10
	b	.LBB30_9
.LBB30_9:
.Ltmp671:
	.loc	3 2465 72 is_stmt 1             @ ../../../../Source/tasks.c:2465:72
	movw	r0, :lower16:pxDelayedTaskList
	movt	r0, :upper16:pxDelayedTaskList
	ldr	r0, [r0]
	.loc	3 2465 91 is_stmt 0             @ ../../../../Source/tasks.c:2465:91
	ldr	r1, [sp, #12]
	.loc	3 2465 25                       @ ../../../../Source/tasks.c:2465:25
	bl	prvSearchForNameWithinSingleList
	.loc	3 2465 23                       @ ../../../../Source/tasks.c:2465:23
	str	r0, [sp, #4]
	.loc	3 2466 13 is_stmt 1             @ ../../../../Source/tasks.c:2466:13
	b	.LBB30_10
.Ltmp672:
.LBB30_10:
	.loc	3 2468 17                       @ ../../../../Source/tasks.c:2468:17
	ldr	r0, [sp, #4]
.Ltmp673:
	.loc	3 2468 17 is_stmt 0             @ ../../../../Source/tasks.c:2468:17
	cbnz	r0, .LBB30_12
	b	.LBB30_11
.LBB30_11:
.Ltmp674:
	.loc	3 2470 72 is_stmt 1             @ ../../../../Source/tasks.c:2470:72
	movw	r0, :lower16:pxOverflowDelayedTaskList
	movt	r0, :upper16:pxOverflowDelayedTaskList
	ldr	r0, [r0]
	.loc	3 2470 99 is_stmt 0             @ ../../../../Source/tasks.c:2470:99
	ldr	r1, [sp, #12]
	.loc	3 2470 25                       @ ../../../../Source/tasks.c:2470:25
	bl	prvSearchForNameWithinSingleList
	.loc	3 2470 23                       @ ../../../../Source/tasks.c:2470:23
	str	r0, [sp, #4]
	.loc	3 2471 13 is_stmt 1             @ ../../../../Source/tasks.c:2471:13
	b	.LBB30_12
.Ltmp675:
.LBB30_12:
	.loc	3 2475 21                       @ ../../../../Source/tasks.c:2475:21
	ldr	r0, [sp, #4]
.Ltmp676:
	.loc	3 2475 21 is_stmt 0             @ ../../../../Source/tasks.c:2475:21
	cbnz	r0, .LBB30_14
	b	.LBB30_13
.LBB30_13:
.Ltmp677:
	.loc	3 2478 84 is_stmt 1             @ ../../../../Source/tasks.c:2478:84
	ldr	r1, [sp, #12]
	.loc	3 2478 29 is_stmt 0             @ ../../../../Source/tasks.c:2478:29
	movw	r0, :lower16:xSuspendedTaskList
	movt	r0, :upper16:xSuspendedTaskList
	bl	prvSearchForNameWithinSingleList
	.loc	3 2478 27                       @ ../../../../Source/tasks.c:2478:27
	str	r0, [sp, #4]
	.loc	3 2479 17 is_stmt 1             @ ../../../../Source/tasks.c:2479:17
	b	.LBB30_14
.Ltmp678:
.LBB30_14:
	.loc	3 2485 21                       @ ../../../../Source/tasks.c:2485:21
	ldr	r0, [sp, #4]
.Ltmp679:
	.loc	3 2485 21 is_stmt 0             @ ../../../../Source/tasks.c:2485:21
	cbnz	r0, .LBB30_16
	b	.LBB30_15
.LBB30_15:
.Ltmp680:
	.loc	3 2488 90 is_stmt 1             @ ../../../../Source/tasks.c:2488:90
	ldr	r1, [sp, #12]
	.loc	3 2488 29 is_stmt 0             @ ../../../../Source/tasks.c:2488:29
	movw	r0, :lower16:xTasksWaitingTermination
	movt	r0, :upper16:xTasksWaitingTermination
	bl	prvSearchForNameWithinSingleList
	.loc	3 2488 27                       @ ../../../../Source/tasks.c:2488:27
	str	r0, [sp, #4]
	.loc	3 2489 17 is_stmt 1             @ ../../../../Source/tasks.c:2489:17
	b	.LBB30_16
.Ltmp681:
.LBB30_16:
	.loc	3 2493 18                       @ ../../../../Source/tasks.c:2493:18
	bl	xTaskResumeAll
	.loc	3 2495 16                       @ ../../../../Source/tasks.c:2495:16
	ldr	r0, [sp, #4]
	.loc	3 2495 9 is_stmt 0              @ ../../../../Source/tasks.c:2495:9
	add	sp, #16
	pop	{r7, pc}
.Ltmp682:
.Lfunc_end30:
	.size	xTaskGetHandle, .Lfunc_end30-xTaskGetHandle
	.cfi_endproc
	.cantunwind
	.fnend
                                        @ -- End function
	.p2align	1                               @ -- Begin function prvSearchForNameWithinSingleList
	.type	prvSearchForNameWithinSingleList,%function
	.code	16                              @ @prvSearchForNameWithinSingleList
	.thumb_func
prvSearchForNameWithinSingleList:
.Lfunc_begin31:
	.loc	3 2370 0 is_stmt 1              @ ../../../../Source/tasks.c:2370:0
	.fnstart
	.cfi_startproc
@ %bb.0:
	.pad	#40
	sub	sp, #40
	.cfi_def_cfa_offset 40
	str	r0, [sp, #36]
	str	r1, [sp, #32]
	movs	r0, #0
.Ltmp683:
	.loc	3 2373 17 prologue_end          @ ../../../../Source/tasks.c:2373:17
	str	r0, [sp, #20]
.Ltmp684:
	.loc	3 2380 13                       @ ../../../../Source/tasks.c:2380:13
	ldr	r0, [sp, #36]
	ldr	r0, [r0]
.Ltmp685:
	.loc	3 2380 13 is_stmt 0             @ ../../../../Source/tasks.c:2380:13
	cmp	r0, #0
	beq	.LBB31_27
	b	.LBB31_1
.LBB31_1:
.Ltmp686:
	.loc	3 2382 13 is_stmt 1             @ ../../../../Source/tasks.c:2382:13
	b	.LBB31_2
.LBB31_2:
.Ltmp687:
	.loc	3 2382 13 is_stmt 0             @ ../../../../Source/tasks.c:2382:13
	ldr	r0, [sp, #36]
	str	r0, [sp, #4]
	ldr	r1, [sp, #4]
	ldr	r0, [r1, #4]
	ldr	r0, [r0, #4]
	str	r0, [r1, #4]
.Ltmp688:
	.loc	3 2382 13                       @ ../../../../Source/tasks.c:2382:13
	ldr	r1, [sp, #4]
	ldr	r0, [r1, #4]
	adds	r1, #8
.Ltmp689:
	.loc	3 2382 13                       @ ../../../../Source/tasks.c:2382:13
	cmp	r0, r1
	bne	.LBB31_4
	b	.LBB31_3
.LBB31_3:
.Ltmp690:
	.loc	3 2382 13                       @ ../../../../Source/tasks.c:2382:13
	ldr	r1, [sp, #4]
	ldr	r0, [r1, #12]
	str	r0, [r1, #4]
	b	.LBB31_4
.Ltmp691:
.LBB31_4:
	.loc	3 2382 13                       @ ../../../../Source/tasks.c:2382:13
	ldr	r0, [sp, #4]
	ldr	r0, [r0, #4]
	ldr	r0, [r0, #12]
	str	r0, [sp, #24]
	b	.LBB31_5
.Ltmp692:
.LBB31_5:
	.loc	3 2384 13 is_stmt 1             @ ../../../../Source/tasks.c:2384:13
	b	.LBB31_6
.LBB31_6:                               @ =>This Loop Header: Depth=1
                                        @     Child Loop BB31_11 Depth 2
.Ltmp693:
	.loc	3 2386 17                       @ ../../../../Source/tasks.c:2386:17
	b	.LBB31_7
.LBB31_7:                               @   in Loop: Header=BB31_6 Depth=1
.Ltmp694:
	.loc	3 2386 17 is_stmt 0             @ ../../../../Source/tasks.c:2386:17
	ldr	r0, [sp, #36]
	str	r0, [sp]
	ldr	r1, [sp]
	ldr	r0, [r1, #4]
	ldr	r0, [r0, #4]
	str	r0, [r1, #4]
.Ltmp695:
	.loc	3 2386 17                       @ ../../../../Source/tasks.c:2386:17
	ldr	r1, [sp]
	ldr	r0, [r1, #4]
	adds	r1, #8
.Ltmp696:
	.loc	3 2386 17                       @ ../../../../Source/tasks.c:2386:17
	cmp	r0, r1
	bne	.LBB31_9
	b	.LBB31_8
.LBB31_8:                               @   in Loop: Header=BB31_6 Depth=1
.Ltmp697:
	.loc	3 2386 17                       @ ../../../../Source/tasks.c:2386:17
	ldr	r1, [sp]
	ldr	r0, [r1, #12]
	str	r0, [r1, #4]
	b	.LBB31_9
.Ltmp698:
.LBB31_9:                               @   in Loop: Header=BB31_6 Depth=1
	.loc	3 2386 17                       @ ../../../../Source/tasks.c:2386:17
	ldr	r0, [sp]
	ldr	r0, [r0, #4]
	ldr	r0, [r0, #12]
	str	r0, [sp, #28]
	b	.LBB31_10
.Ltmp699:
.LBB31_10:                              @   in Loop: Header=BB31_6 Depth=1
	.loc	3 0 17                          @ ../../../../Source/tasks.c:0:17
	movs	r0, #0
	.loc	3 2390 28 is_stmt 1             @ ../../../../Source/tasks.c:2390:28
	str	r0, [sp, #8]
.Ltmp700:
	.loc	3 2392 24                       @ ../../../../Source/tasks.c:2392:24
	str	r0, [sp, #16]
	.loc	3 2392 22 is_stmt 0             @ ../../../../Source/tasks.c:2392:22
	b	.LBB31_11
.LBB31_11:                              @   Parent Loop BB31_6 Depth=1
                                        @ =>  This Inner Loop Header: Depth=2
.Ltmp701:
	.loc	3 2392 45                       @ ../../../../Source/tasks.c:2392:45
	ldr	r0, [sp, #16]
.Ltmp702:
	.loc	3 2392 17                       @ ../../../../Source/tasks.c:2392:17
	cmp	r0, #11
	bhi	.LBB31_22
	b	.LBB31_12
.LBB31_12:                              @   in Loop: Header=BB31_11 Depth=2
.Ltmp703:
	.loc	3 2394 33 is_stmt 1             @ ../../../../Source/tasks.c:2394:33
	ldr	r0, [sp, #28]
	.loc	3 2394 56 is_stmt 0             @ ../../../../Source/tasks.c:2394:56
	ldr	r1, [sp, #16]
	.loc	3 2394 44                       @ ../../../../Source/tasks.c:2394:44
	adds	r0, r0, r1
	movs	r1, #172
	.loc	3 2394 33                       @ ../../../../Source/tasks.c:2394:33
	ldrb	r1, [r0, r1]
	add	r0, sp, #12
	.loc	3 2394 31                       @ ../../../../Source/tasks.c:2394:31
	strb	r1, [r0]
.Ltmp704:
	.loc	3 2396 25 is_stmt 1             @ ../../../../Source/tasks.c:2396:25
	ldrb	r0, [r0]
	.loc	3 2396 38 is_stmt 0             @ ../../../../Source/tasks.c:2396:38
	ldr	r1, [sp, #32]
	.loc	3 2396 53                       @ ../../../../Source/tasks.c:2396:53
	ldr	r2, [sp, #16]
	.loc	3 2396 38                       @ ../../../../Source/tasks.c:2396:38
	ldrb	r1, [r1, r2]
.Ltmp705:
	.loc	3 2396 25                       @ ../../../../Source/tasks.c:2396:25
	cmp	r0, r1
	beq	.LBB31_14
	b	.LBB31_13
.LBB31_13:                              @   in Loop: Header=BB31_11 Depth=2
	.loc	3 0 25                          @ ../../../../Source/tasks.c:0:25
	movs	r0, #1
.Ltmp706:
	.loc	3 2399 36 is_stmt 1             @ ../../../../Source/tasks.c:2399:36
	str	r0, [sp, #8]
	.loc	3 2400 21                       @ ../../../../Source/tasks.c:2400:21
	b	.LBB31_18
.Ltmp707:
.LBB31_14:                              @   in Loop: Header=BB31_11 Depth=2
	.loc	3 0 21 is_stmt 0                @ ../../../../Source/tasks.c:0:21
	add	r0, sp, #12
.Ltmp708:
	.loc	3 2401 30 is_stmt 1             @ ../../../../Source/tasks.c:2401:30
	ldrb	r0, [r0]
.Ltmp709:
	.loc	3 2401 30 is_stmt 0             @ ../../../../Source/tasks.c:2401:30
	cbnz	r0, .LBB31_16
	b	.LBB31_15
.LBB31_15:                              @   in Loop: Header=BB31_11 Depth=2
.Ltmp710:
	.loc	3 2405 36 is_stmt 1             @ ../../../../Source/tasks.c:2405:36
	ldr	r0, [sp, #28]
	.loc	3 2405 34 is_stmt 0             @ ../../../../Source/tasks.c:2405:34
	str	r0, [sp, #20]
	movs	r0, #1
	.loc	3 2406 36 is_stmt 1             @ ../../../../Source/tasks.c:2406:36
	str	r0, [sp, #8]
	.loc	3 2407 21                       @ ../../../../Source/tasks.c:2407:21
	b	.LBB31_17
.Ltmp711:
.LBB31_16:                              @   in Loop: Header=BB31_11 Depth=2
	.loc	3 0 21 is_stmt 0                @ ../../../../Source/tasks.c:0:21
	b	.LBB31_17
.LBB31_17:                              @   in Loop: Header=BB31_11 Depth=2
	b	.LBB31_18
.LBB31_18:                              @   in Loop: Header=BB31_11 Depth=2
.Ltmp712:
	.loc	3 2413 25 is_stmt 1             @ ../../../../Source/tasks.c:2413:25
	ldr	r0, [sp, #8]
.Ltmp713:
	.loc	3 2413 25 is_stmt 0             @ ../../../../Source/tasks.c:2413:25
	cbz	r0, .LBB31_20
	b	.LBB31_19
.LBB31_19:                              @   in Loop: Header=BB31_6 Depth=1
.Ltmp714:
	.loc	3 2415 25 is_stmt 1             @ ../../../../Source/tasks.c:2415:25
	b	.LBB31_22
.Ltmp715:
.LBB31_20:                              @   in Loop: Header=BB31_11 Depth=2
	.loc	3 2417 17                       @ ../../../../Source/tasks.c:2417:17
	b	.LBB31_21
.Ltmp716:
.LBB31_21:                              @   in Loop: Header=BB31_11 Depth=2
	.loc	3 2392 91                       @ ../../../../Source/tasks.c:2392:91
	ldr	r0, [sp, #16]
	adds	r0, r0, #1
	str	r0, [sp, #16]
	.loc	3 2392 17 is_stmt 0             @ ../../../../Source/tasks.c:2392:17
	b	.LBB31_11
.Ltmp717:
.LBB31_22:                              @   in Loop: Header=BB31_6 Depth=1
	.loc	3 2419 21 is_stmt 1             @ ../../../../Source/tasks.c:2419:21
	ldr	r0, [sp, #20]
.Ltmp718:
	.loc	3 2419 21 is_stmt 0             @ ../../../../Source/tasks.c:2419:21
	cbz	r0, .LBB31_24
	b	.LBB31_23
.LBB31_23:
.Ltmp719:
	.loc	3 2422 21 is_stmt 1             @ ../../../../Source/tasks.c:2422:21
	b	.LBB31_26
.Ltmp720:
.LBB31_24:                              @   in Loop: Header=BB31_6 Depth=1
	.loc	3 2424 13                       @ ../../../../Source/tasks.c:2424:13
	b	.LBB31_25
.Ltmp721:
.LBB31_25:                              @   in Loop: Header=BB31_6 Depth=1
	.loc	3 2424 22 is_stmt 0             @ ../../../../Source/tasks.c:2424:22
	ldr	r0, [sp, #28]
	.loc	3 2424 35                       @ ../../../../Source/tasks.c:2424:35
	ldr	r1, [sp, #24]
.Ltmp722:
	.loc	3 2424 13                       @ ../../../../Source/tasks.c:2424:13
	cmp	r0, r1
	bne	.LBB31_6
	b	.LBB31_26
.Ltmp723:
.LBB31_26:
	.loc	3 2425 9 is_stmt 1              @ ../../../../Source/tasks.c:2425:9
	b	.LBB31_28
.Ltmp724:
.LBB31_27:
	.loc	3 0 9 is_stmt 0                 @ ../../../../Source/tasks.c:0:9
	b	.LBB31_28
.LBB31_28:
	.loc	3 2431 16 is_stmt 1             @ ../../../../Source/tasks.c:2431:16
	ldr	r0, [sp, #20]
	.loc	3 2431 9 is_stmt 0              @ ../../../../Source/tasks.c:2431:9
	add	sp, #40
	bx	lr
.Ltmp725:
.Lfunc_end31:
	.size	prvSearchForNameWithinSingleList, .Lfunc_end31-prvSearchForNameWithinSingleList
	.cfi_endproc
	.cantunwind
	.fnend
                                        @ -- End function
	.hidden	xTaskGetStaticBuffers           @ -- Begin function xTaskGetStaticBuffers
	.globl	xTaskGetStaticBuffers
	.p2align	1
	.type	xTaskGetStaticBuffers,%function
	.code	16                              @ @xTaskGetStaticBuffers
	.thumb_func
xTaskGetStaticBuffers:
.Lfunc_begin32:
	.loc	3 2506 0 is_stmt 1              @ ../../../../Source/tasks.c:2506:0
	.fnstart
	.cfi_startproc
@ %bb.0:
	.pad	#24
	sub	sp, #24
	.cfi_def_cfa_offset 24
	str	r0, [sp, #20]
	str	r1, [sp, #16]
	str	r2, [sp, #12]
.Ltmp726:
	.loc	3 2510 9 prologue_end           @ ../../../../Source/tasks.c:2510:9
	ldr	r0, [sp, #16]
.Ltmp727:
	.loc	3 2510 9 is_stmt 0              @ ../../../../Source/tasks.c:2510:9
	cbnz	r0, .LBB32_3
	b	.LBB32_1
.LBB32_1:
.Ltmp728:
	.loc	3 2510 9                        @ ../../../../Source/tasks.c:2510:9
	@APP
	cpsid i
	@NO_APP
	b	.LBB32_2
.LBB32_2:                               @ =>This Inner Loop Header: Depth=1
.Ltmp729:
	.loc	3 2510 9                        @ ../../../../Source/tasks.c:2510:9
	b	.LBB32_2
.Ltmp730:
.LBB32_3:
	.loc	3 2511 9 is_stmt 1              @ ../../../../Source/tasks.c:2511:9
	ldr	r0, [sp, #12]
.Ltmp731:
	.loc	3 2511 9 is_stmt 0              @ ../../../../Source/tasks.c:2511:9
	cbnz	r0, .LBB32_6
	b	.LBB32_4
.LBB32_4:
.Ltmp732:
	.loc	3 2511 9                        @ ../../../../Source/tasks.c:2511:9
	@APP
	cpsid i
	@NO_APP
	b	.LBB32_5
.LBB32_5:                               @ =>This Inner Loop Header: Depth=1
.Ltmp733:
	.loc	3 2511 9                        @ ../../../../Source/tasks.c:2511:9
	b	.LBB32_5
.Ltmp734:
.LBB32_6:
	.loc	3 2513 17 is_stmt 1             @ ../../../../Source/tasks.c:2513:17
	ldr	r0, [sp, #20]
	cbnz	r0, .LBB32_8
	b	.LBB32_7
.LBB32_7:
	movw	r0, :lower16:pxCurrentTCB
	movt	r0, :upper16:pxCurrentTCB
	ldr	r0, [r0]
	str	r0, [sp]                        @ 4-byte Spill
	b	.LBB32_9
.LBB32_8:
	ldr	r0, [sp, #20]
	str	r0, [sp]                        @ 4-byte Spill
	b	.LBB32_9
.LBB32_9:
	ldr	r0, [sp]                        @ 4-byte Reload
	.loc	3 2513 15 is_stmt 0             @ ../../../../Source/tasks.c:2513:15
	str	r0, [sp, #4]
.Ltmp735:
	.loc	3 2517 17 is_stmt 1             @ ../../../../Source/tasks.c:2517:17
	ldr	r0, [sp, #4]
	movs	r1, #215
	.loc	3 2517 24 is_stmt 0             @ ../../../../Source/tasks.c:2517:24
	ldrb	r0, [r0, r1]
.Ltmp736:
	.loc	3 2517 17                       @ ../../../../Source/tasks.c:2517:17
	cmp	r0, #2
	bne	.LBB32_11
	b	.LBB32_10
.LBB32_10:
.Ltmp737:
	.loc	3 2519 36 is_stmt 1             @ ../../../../Source/tasks.c:2519:36
	ldr	r0, [sp, #4]
	movs	r1, #168
	.loc	3 2519 43 is_stmt 0             @ ../../../../Source/tasks.c:2519:43
	ldr	r0, [r0, r1]
	.loc	3 2519 18                       @ ../../../../Source/tasks.c:2519:18
	ldr	r1, [sp, #16]
	.loc	3 2519 34                       @ ../../../../Source/tasks.c:2519:34
	str	r0, [r1]
	.loc	3 2520 53 is_stmt 1             @ ../../../../Source/tasks.c:2520:53
	ldr	r0, [sp, #4]
	.loc	3 2520 18 is_stmt 0             @ ../../../../Source/tasks.c:2520:18
	ldr	r1, [sp, #12]
	.loc	3 2520 32                       @ ../../../../Source/tasks.c:2520:32
	str	r0, [r1]
	movs	r0, #1
	.loc	3 2521 25 is_stmt 1             @ ../../../../Source/tasks.c:2521:25
	str	r0, [sp, #8]
	.loc	3 2522 13                       @ ../../../../Source/tasks.c:2522:13
	b	.LBB32_15
.Ltmp738:
.LBB32_11:
	.loc	3 2523 22                       @ ../../../../Source/tasks.c:2523:22
	ldr	r0, [sp, #4]
	movs	r1, #215
	.loc	3 2523 29 is_stmt 0             @ ../../../../Source/tasks.c:2523:29
	ldrb	r0, [r0, r1]
.Ltmp739:
	.loc	3 2523 22                       @ ../../../../Source/tasks.c:2523:22
	cmp	r0, #1
	bne	.LBB32_13
	b	.LBB32_12
.LBB32_12:
.Ltmp740:
	.loc	3 2525 36 is_stmt 1             @ ../../../../Source/tasks.c:2525:36
	ldr	r0, [sp, #4]
	movs	r1, #168
	.loc	3 2525 43 is_stmt 0             @ ../../../../Source/tasks.c:2525:43
	ldr	r0, [r0, r1]
	.loc	3 2525 18                       @ ../../../../Source/tasks.c:2525:18
	ldr	r1, [sp, #16]
	.loc	3 2525 34                       @ ../../../../Source/tasks.c:2525:34
	str	r0, [r1]
	.loc	3 2526 18 is_stmt 1             @ ../../../../Source/tasks.c:2526:18
	ldr	r1, [sp, #12]
	movs	r0, #0
	.loc	3 2526 32 is_stmt 0             @ ../../../../Source/tasks.c:2526:32
	str	r0, [r1]
	movs	r0, #1
	.loc	3 2527 25 is_stmt 1             @ ../../../../Source/tasks.c:2527:25
	str	r0, [sp, #8]
	.loc	3 2528 13                       @ ../../../../Source/tasks.c:2528:13
	b	.LBB32_14
.Ltmp741:
.LBB32_13:
	.loc	3 0 13 is_stmt 0                @ ../../../../Source/tasks.c:0:13
	movs	r0, #0
.Ltmp742:
	.loc	3 2531 25 is_stmt 1             @ ../../../../Source/tasks.c:2531:25
	str	r0, [sp, #8]
	b	.LBB32_14
.Ltmp743:
.LBB32_14:
	.loc	3 0 25 is_stmt 0                @ ../../../../Source/tasks.c:0:25
	b	.LBB32_15
.LBB32_15:
	.loc	3 2542 16 is_stmt 1             @ ../../../../Source/tasks.c:2542:16
	ldr	r0, [sp, #8]
	.loc	3 2542 9 is_stmt 0              @ ../../../../Source/tasks.c:2542:9
	add	sp, #24
	bx	lr
.Ltmp744:
.Lfunc_end32:
	.size	xTaskGetStaticBuffers, .Lfunc_end32-xTaskGetStaticBuffers
	.cfi_endproc
	.cantunwind
	.fnend
                                        @ -- End function
	.hidden	uxTaskGetSystemState            @ -- Begin function uxTaskGetSystemState
	.globl	uxTaskGetSystemState
	.p2align	1
	.type	uxTaskGetSystemState,%function
	.code	16                              @ @uxTaskGetSystemState
	.thumb_func
uxTaskGetSystemState:
.Lfunc_begin33:
	.loc	3 2553 0 is_stmt 1              @ ../../../../Source/tasks.c:2553:0
	.fnstart
	.cfi_startproc
@ %bb.0:
	.save	{r7, lr}
	push	{r7, lr}
	.cfi_def_cfa_offset 8
	.cfi_offset lr, -4
	.cfi_offset r7, -8
	.pad	#32
	sub	sp, #32
	.cfi_def_cfa_offset 40
	str	r0, [sp, #28]
	str	r1, [sp, #24]
	str	r2, [sp, #20]
	movs	r0, #0
.Ltmp745:
	.loc	3 2554 21 prologue_end          @ ../../../../Source/tasks.c:2554:21
	str	r0, [sp, #16]
	movs	r0, #5
	.loc	3 2554 33 is_stmt 0             @ ../../../../Source/tasks.c:2554:33
	str	r0, [sp, #12]
	.loc	3 2556 9 is_stmt 1              @ ../../../../Source/tasks.c:2556:9
	bl	vTaskSuspendAll
.Ltmp746:
	.loc	3 2559 17                       @ ../../../../Source/tasks.c:2559:17
	ldr	r0, [sp, #24]
	.loc	3 2559 32 is_stmt 0             @ ../../../../Source/tasks.c:2559:32
	movw	r1, :lower16:uxCurrentNumberOfTasks
	movt	r1, :upper16:uxCurrentNumberOfTasks
	ldr	r1, [r1]
.Ltmp747:
	.loc	3 2559 17                       @ ../../../../Source/tasks.c:2559:17
	cmp	r0, r1
	blo	.LBB33_7
	b	.LBB33_1
.LBB33_1:
.Ltmp748:
	.loc	3 2563 17 is_stmt 1             @ ../../../../Source/tasks.c:2563:17
	b	.LBB33_2
.LBB33_2:                               @ =>This Inner Loop Header: Depth=1
.Ltmp749:
	.loc	3 2565 28                       @ ../../../../Source/tasks.c:2565:28
	ldr	r0, [sp, #12]
	subs	r0, r0, #1
	str	r0, [sp, #12]
	.loc	3 2566 64                       @ ../../../../Source/tasks.c:2566:64
	ldr	r0, [sp, #28]
	.loc	3 2566 83 is_stmt 0             @ ../../../../Source/tasks.c:2566:83
	ldr	r2, [sp, #16]
	movs	r1, #36
	.loc	3 2566 64                       @ ../../../../Source/tasks.c:2566:64
	muls	r1, r2, r1
	adds	r0, r0, r1
	.loc	3 2566 117                      @ ../../../../Source/tasks.c:2566:117
	ldr	r1, [sp, #12]
	movs	r2, #20
	.loc	3 2566 98                       @ ../../../../Source/tasks.c:2566:98
	muls	r2, r1, r2
	movw	r1, :lower16:pxReadyTasksLists
	movt	r1, :upper16:pxReadyTasksLists
	adds	r1, r1, r2
	movs	r2, #1
	.loc	3 2566 31                       @ ../../../../Source/tasks.c:2566:31
	bl	prvListTasksWithinSingleList
	mov	r1, r0
	.loc	3 2566 28                       @ ../../../../Source/tasks.c:2566:28
	ldr	r0, [sp, #16]
	adds	r0, r0, r1
	str	r0, [sp, #16]
	.loc	3 2567 17 is_stmt 1             @ ../../../../Source/tasks.c:2567:17
	b	.LBB33_3
.Ltmp750:
.LBB33_3:                               @   in Loop: Header=BB33_2 Depth=1
	.loc	3 2567 26 is_stmt 0             @ ../../../../Source/tasks.c:2567:26
	ldr	r0, [sp, #12]
.Ltmp751:
	.loc	3 2567 17                       @ ../../../../Source/tasks.c:2567:17
	cmp	r0, #0
	bne	.LBB33_2
	b	.LBB33_4
.Ltmp752:
.LBB33_4:
	.loc	3 2571 60 is_stmt 1             @ ../../../../Source/tasks.c:2571:60
	ldr	r0, [sp, #28]
	.loc	3 2571 79 is_stmt 0             @ ../../../../Source/tasks.c:2571:79
	ldr	r2, [sp, #16]
	movs	r1, #36
	.loc	3 2571 60                       @ ../../../../Source/tasks.c:2571:60
	str	r1, [sp, #8]                    @ 4-byte Spill
	muls	r1, r2, r1
	adds	r0, r0, r1
	.loc	3 2571 104                      @ ../../../../Source/tasks.c:2571:104
	movw	r1, :lower16:pxDelayedTaskList
	movt	r1, :upper16:pxDelayedTaskList
	ldr	r1, [r1]
	movs	r2, #2
	.loc	3 2571 27                       @ ../../../../Source/tasks.c:2571:27
	str	r2, [sp, #4]                    @ 4-byte Spill
	bl	prvListTasksWithinSingleList
	ldr	r2, [sp, #4]                    @ 4-byte Reload
	ldr	r1, [sp, #8]                    @ 4-byte Reload
	mov	r3, r0
	.loc	3 2571 24                       @ ../../../../Source/tasks.c:2571:24
	ldr	r0, [sp, #16]
	adds	r0, r0, r3
	str	r0, [sp, #16]
	.loc	3 2572 60 is_stmt 1             @ ../../../../Source/tasks.c:2572:60
	ldr	r0, [sp, #28]
	.loc	3 2572 79 is_stmt 0             @ ../../../../Source/tasks.c:2572:79
	ldr	r3, [sp, #16]
	.loc	3 2572 60                       @ ../../../../Source/tasks.c:2572:60
	muls	r1, r3, r1
	adds	r0, r0, r1
	.loc	3 2572 104                      @ ../../../../Source/tasks.c:2572:104
	movw	r1, :lower16:pxOverflowDelayedTaskList
	movt	r1, :upper16:pxOverflowDelayedTaskList
	ldr	r1, [r1]
	.loc	3 2572 27                       @ ../../../../Source/tasks.c:2572:27
	bl	prvListTasksWithinSingleList
	ldr	r1, [sp, #8]                    @ 4-byte Reload
	mov	r2, r0
	.loc	3 2572 24                       @ ../../../../Source/tasks.c:2572:24
	ldr	r0, [sp, #16]
	adds	r0, r0, r2
	str	r0, [sp, #16]
.Ltmp753:
	.loc	3 2578 64 is_stmt 1             @ ../../../../Source/tasks.c:2578:64
	ldr	r0, [sp, #28]
	.loc	3 2578 83 is_stmt 0             @ ../../../../Source/tasks.c:2578:83
	ldr	r2, [sp, #16]
	.loc	3 2578 64                       @ ../../../../Source/tasks.c:2578:64
	muls	r1, r2, r1
	adds	r0, r0, r1
	.loc	3 2578 31                       @ ../../../../Source/tasks.c:2578:31
	movw	r1, :lower16:xTasksWaitingTermination
	movt	r1, :upper16:xTasksWaitingTermination
	movs	r2, #4
	bl	prvListTasksWithinSingleList
	ldr	r1, [sp, #8]                    @ 4-byte Reload
	mov	r2, r0
	.loc	3 2578 28                       @ ../../../../Source/tasks.c:2578:28
	ldr	r0, [sp, #16]
	adds	r0, r0, r2
	str	r0, [sp, #16]
.Ltmp754:
	.loc	3 2586 64 is_stmt 1             @ ../../../../Source/tasks.c:2586:64
	ldr	r0, [sp, #28]
	.loc	3 2586 83 is_stmt 0             @ ../../../../Source/tasks.c:2586:83
	ldr	r2, [sp, #16]
	.loc	3 2586 64                       @ ../../../../Source/tasks.c:2586:64
	muls	r1, r2, r1
	adds	r0, r0, r1
	.loc	3 2586 31                       @ ../../../../Source/tasks.c:2586:31
	movw	r1, :lower16:xSuspendedTaskList
	movt	r1, :upper16:xSuspendedTaskList
	movs	r2, #3
	bl	prvListTasksWithinSingleList
	mov	r1, r0
	.loc	3 2586 28                       @ ../../../../Source/tasks.c:2586:28
	ldr	r0, [sp, #16]
	adds	r0, r0, r1
	str	r0, [sp, #16]
.Ltmp755:
	.loc	3 2603 25 is_stmt 1             @ ../../../../Source/tasks.c:2603:25
	ldr	r0, [sp, #20]
.Ltmp756:
	.loc	3 2603 25 is_stmt 0             @ ../../../../Source/tasks.c:2603:25
	cbz	r0, .LBB33_6
	b	.LBB33_5
.LBB33_5:
.Ltmp757:
	.loc	3 2605 26 is_stmt 1             @ ../../../../Source/tasks.c:2605:26
	ldr	r1, [sp, #20]
	movs	r0, #0
	.loc	3 2605 42 is_stmt 0             @ ../../../../Source/tasks.c:2605:42
	str	r0, [r1]
	.loc	3 2606 21 is_stmt 1             @ ../../../../Source/tasks.c:2606:21
	b	.LBB33_6
.Ltmp758:
.LBB33_6:
	.loc	3 2609 13                       @ ../../../../Source/tasks.c:2609:13
	b	.LBB33_8
.Ltmp759:
.LBB33_7:
	.loc	3 0 13 is_stmt 0                @ ../../../../Source/tasks.c:0:13
	b	.LBB33_8
.LBB33_8:
	.loc	3 2615 18 is_stmt 1             @ ../../../../Source/tasks.c:2615:18
	bl	xTaskResumeAll
	.loc	3 2617 16                       @ ../../../../Source/tasks.c:2617:16
	ldr	r0, [sp, #16]
	.loc	3 2617 9 is_stmt 0              @ ../../../../Source/tasks.c:2617:9
	add	sp, #32
	pop	{r7, pc}
.Ltmp760:
.Lfunc_end33:
	.size	uxTaskGetSystemState, .Lfunc_end33-uxTaskGetSystemState
	.cfi_endproc
	.cantunwind
	.fnend
                                        @ -- End function
	.p2align	1                               @ -- Begin function prvListTasksWithinSingleList
	.type	prvListTasksWithinSingleList,%function
	.code	16                              @ @prvListTasksWithinSingleList
	.thumb_func
prvListTasksWithinSingleList:
.Lfunc_begin34:
	.loc	3 3881 0 is_stmt 1              @ ../../../../Source/tasks.c:3881:0
	.fnstart
	.cfi_startproc
@ %bb.0:
	.save	{r7, lr}
	push	{r7, lr}
	.cfi_def_cfa_offset 8
	.cfi_offset lr, -4
	.cfi_offset r7, -8
	.pad	#32
	sub	sp, #32
	.cfi_def_cfa_offset 40
	str	r0, [sp, #28]
	str	r1, [sp, #24]
	str	r2, [sp, #20]
	movs	r0, #0
.Ltmp761:
	.loc	3 3884 21 prologue_end          @ ../../../../Source/tasks.c:3884:21
	str	r0, [sp, #8]
.Ltmp762:
	.loc	3 3886 13                       @ ../../../../Source/tasks.c:3886:13
	ldr	r0, [sp, #24]
	ldr	r0, [r0]
.Ltmp763:
	.loc	3 3886 13 is_stmt 0             @ ../../../../Source/tasks.c:3886:13
	cmp	r0, #0
	beq	.LBB34_13
	b	.LBB34_1
.LBB34_1:
.Ltmp764:
	.loc	3 3888 13 is_stmt 1             @ ../../../../Source/tasks.c:3888:13
	b	.LBB34_2
.LBB34_2:
.Ltmp765:
	.loc	3 3888 13 is_stmt 0             @ ../../../../Source/tasks.c:3888:13
	ldr	r0, [sp, #24]
	str	r0, [sp, #4]
	ldr	r1, [sp, #4]
	ldr	r0, [r1, #4]
	ldr	r0, [r0, #4]
	str	r0, [r1, #4]
.Ltmp766:
	.loc	3 3888 13                       @ ../../../../Source/tasks.c:3888:13
	ldr	r1, [sp, #4]
	ldr	r0, [r1, #4]
	adds	r1, #8
.Ltmp767:
	.loc	3 3888 13                       @ ../../../../Source/tasks.c:3888:13
	cmp	r0, r1
	bne	.LBB34_4
	b	.LBB34_3
.LBB34_3:
.Ltmp768:
	.loc	3 3888 13                       @ ../../../../Source/tasks.c:3888:13
	ldr	r1, [sp, #4]
	ldr	r0, [r1, #12]
	str	r0, [r1, #4]
	b	.LBB34_4
.Ltmp769:
.LBB34_4:
	.loc	3 3888 13                       @ ../../../../Source/tasks.c:3888:13
	ldr	r0, [sp, #4]
	ldr	r0, [r0, #4]
	ldr	r0, [r0, #12]
	str	r0, [sp, #12]
	b	.LBB34_5
.Ltmp770:
.LBB34_5:
	.loc	3 3894 13 is_stmt 1             @ ../../../../Source/tasks.c:3894:13
	b	.LBB34_6
.LBB34_6:                               @ =>This Inner Loop Header: Depth=1
.Ltmp771:
	.loc	3 3896 17                       @ ../../../../Source/tasks.c:3896:17
	b	.LBB34_7
.LBB34_7:                               @   in Loop: Header=BB34_6 Depth=1
.Ltmp772:
	.loc	3 3896 17 is_stmt 0             @ ../../../../Source/tasks.c:3896:17
	ldr	r0, [sp, #24]
	str	r0, [sp]
	ldr	r1, [sp]
	ldr	r0, [r1, #4]
	ldr	r0, [r0, #4]
	str	r0, [r1, #4]
.Ltmp773:
	.loc	3 3896 17                       @ ../../../../Source/tasks.c:3896:17
	ldr	r1, [sp]
	ldr	r0, [r1, #4]
	adds	r1, #8
.Ltmp774:
	.loc	3 3896 17                       @ ../../../../Source/tasks.c:3896:17
	cmp	r0, r1
	bne	.LBB34_9
	b	.LBB34_8
.LBB34_8:                               @   in Loop: Header=BB34_6 Depth=1
.Ltmp775:
	.loc	3 3896 17                       @ ../../../../Source/tasks.c:3896:17
	ldr	r1, [sp]
	ldr	r0, [r1, #12]
	str	r0, [r1, #4]
	b	.LBB34_9
.Ltmp776:
.LBB34_9:                               @   in Loop: Header=BB34_6 Depth=1
	.loc	3 3896 17                       @ ../../../../Source/tasks.c:3896:17
	ldr	r0, [sp]
	ldr	r0, [r0, #4]
	ldr	r0, [r0, #12]
	str	r0, [sp, #16]
	b	.LBB34_10
.Ltmp777:
.LBB34_10:                              @   in Loop: Header=BB34_6 Depth=1
	.loc	3 3897 48 is_stmt 1             @ ../../../../Source/tasks.c:3897:48
	ldr	r0, [sp, #16]
	.loc	3 3897 62 is_stmt 0             @ ../../../../Source/tasks.c:3897:62
	ldr	r1, [sp, #28]
	.loc	3 3897 81                       @ ../../../../Source/tasks.c:3897:81
	ldr	r3, [sp, #8]
	movs	r2, #36
	.loc	3 3897 62                       @ ../../../../Source/tasks.c:3897:62
	muls	r2, r3, r2
	adds	r1, r1, r2
	.loc	3 3897 101                      @ ../../../../Source/tasks.c:3897:101
	ldr	r3, [sp, #20]
	movs	r2, #1
	.loc	3 3897 17                       @ ../../../../Source/tasks.c:3897:17
	bl	vTaskGetInfo
	.loc	3 3898 23 is_stmt 1             @ ../../../../Source/tasks.c:3898:23
	ldr	r0, [sp, #8]
	adds	r0, r0, #1
	str	r0, [sp, #8]
	.loc	3 3899 13                       @ ../../../../Source/tasks.c:3899:13
	b	.LBB34_11
.Ltmp778:
.LBB34_11:                              @   in Loop: Header=BB34_6 Depth=1
	.loc	3 3899 22 is_stmt 0             @ ../../../../Source/tasks.c:3899:22
	ldr	r0, [sp, #16]
	.loc	3 3899 35                       @ ../../../../Source/tasks.c:3899:35
	ldr	r1, [sp, #12]
.Ltmp779:
	.loc	3 3899 13                       @ ../../../../Source/tasks.c:3899:13
	cmp	r0, r1
	bne	.LBB34_6
	b	.LBB34_12
.Ltmp780:
.LBB34_12:
	.loc	3 3900 9 is_stmt 1              @ ../../../../Source/tasks.c:3900:9
	b	.LBB34_14
.Ltmp781:
.LBB34_13:
	.loc	3 0 9 is_stmt 0                 @ ../../../../Source/tasks.c:0:9
	b	.LBB34_14
.LBB34_14:
	.loc	3 3906 16 is_stmt 1             @ ../../../../Source/tasks.c:3906:16
	ldr	r0, [sp, #8]
	.loc	3 3906 9 is_stmt 0              @ ../../../../Source/tasks.c:3906:9
	add	sp, #32
	pop	{r7, pc}
.Ltmp782:
.Lfunc_end34:
	.size	prvListTasksWithinSingleList, .Lfunc_end34-prvListTasksWithinSingleList
	.cfi_endproc
	.cantunwind
	.fnend
                                        @ -- End function
	.hidden	vTaskStepTick                   @ -- Begin function vTaskStepTick
	.globl	vTaskStepTick
	.p2align	1
	.type	vTaskStepTick,%function
	.code	16                              @ @vTaskStepTick
	.thumb_func
vTaskStepTick:
.Lfunc_begin35:
	.loc	3 2643 0 is_stmt 1              @ ../../../../Source/tasks.c:2643:0
	.fnstart
	.cfi_startproc
@ %bb.0:
	.save	{r7, lr}
	push	{r7, lr}
	.cfi_def_cfa_offset 8
	.cfi_offset lr, -4
	.cfi_offset r7, -8
	.pad	#8
	sub	sp, #8
	.cfi_def_cfa_offset 16
	str	r0, [sp, #4]
.Ltmp783:
	.loc	3 2647 9 prologue_end           @ ../../../../Source/tasks.c:2647:9
	movw	r0, :lower16:xTickCount
	movt	r0, :upper16:xTickCount
	ldr	r0, [r0]
	ldr	r1, [sp, #4]
	adds	r0, r0, r1
	movw	r1, :lower16:xNextTaskUnblockTime
	movt	r1, :upper16:xNextTaskUnblockTime
	ldr	r1, [r1]
.Ltmp784:
	.loc	3 2647 9 is_stmt 0              @ ../../../../Source/tasks.c:2647:9
	cmp	r0, r1
	bls	.LBB35_3
	b	.LBB35_1
.LBB35_1:
.Ltmp785:
	.loc	3 2647 9                        @ ../../../../Source/tasks.c:2647:9
	@APP
	cpsid i
	@NO_APP
	b	.LBB35_2
.LBB35_2:                               @ =>This Inner Loop Header: Depth=1
.Ltmp786:
	.loc	3 2647 9                        @ ../../../../Source/tasks.c:2647:9
	b	.LBB35_2
.Ltmp787:
.LBB35_3:
	.loc	3 2649 15 is_stmt 1             @ ../../../../Source/tasks.c:2649:15
	movw	r0, :lower16:xTickCount
	movt	r0, :upper16:xTickCount
	ldr	r0, [r0]
	.loc	3 2649 28 is_stmt 0             @ ../../../../Source/tasks.c:2649:28
	ldr	r1, [sp, #4]
	.loc	3 2649 26                       @ ../../../../Source/tasks.c:2649:26
	adds	r0, r0, r1
	.loc	3 2649 46                       @ ../../../../Source/tasks.c:2649:46
	movw	r1, :lower16:xNextTaskUnblockTime
	movt	r1, :upper16:xNextTaskUnblockTime
	ldr	r1, [r1]
.Ltmp788:
	.loc	3 2649 13                       @ ../../../../Source/tasks.c:2649:13
	cmp	r0, r1
	bne	.LBB35_11
	b	.LBB35_4
.LBB35_4:
.Ltmp789:
	.loc	3 2654 13 is_stmt 1             @ ../../../../Source/tasks.c:2654:13
	movw	r0, :lower16:uxSchedulerSuspended
	movt	r0, :upper16:uxSchedulerSuspended
	ldr	r0, [r0]
.Ltmp790:
	.loc	3 2654 13 is_stmt 0             @ ../../../../Source/tasks.c:2654:13
	cbnz	r0, .LBB35_7
	b	.LBB35_5
.LBB35_5:
.Ltmp791:
	.loc	3 2654 13                       @ ../../../../Source/tasks.c:2654:13
	@APP
	cpsid i
	@NO_APP
	b	.LBB35_6
.LBB35_6:                               @ =>This Inner Loop Header: Depth=1
.Ltmp792:
	.loc	3 2654 13                       @ ../../../../Source/tasks.c:2654:13
	b	.LBB35_6
.Ltmp793:
.LBB35_7:
	.loc	3 2655 13 is_stmt 1             @ ../../../../Source/tasks.c:2655:13
	ldr	r0, [sp, #4]
.Ltmp794:
	.loc	3 2655 13 is_stmt 0             @ ../../../../Source/tasks.c:2655:13
	cbnz	r0, .LBB35_10
	b	.LBB35_8
.LBB35_8:
.Ltmp795:
	.loc	3 2655 13                       @ ../../../../Source/tasks.c:2655:13
	@APP
	cpsid i
	@NO_APP
	b	.LBB35_9
.LBB35_9:                               @ =>This Inner Loop Header: Depth=1
.Ltmp796:
	.loc	3 2655 13                       @ ../../../../Source/tasks.c:2655:13
	b	.LBB35_9
.Ltmp797:
.LBB35_10:
	.loc	3 2658 13 is_stmt 1             @ ../../../../Source/tasks.c:2658:13
	bl	vPortEnterCritical
.Ltmp798:
	.loc	3 2660 29                       @ ../../../../Source/tasks.c:2660:29
	movw	r1, :lower16:xPendedTicks
	movt	r1, :upper16:xPendedTicks
	ldr	r0, [r1]
	adds	r0, r0, #1
	str	r0, [r1]
.Ltmp799:
	.loc	3 2662 13                       @ ../../../../Source/tasks.c:2662:13
	bl	vPortExitCritical
	.loc	3 2663 25                       @ ../../../../Source/tasks.c:2663:25
	ldr	r0, [sp, #4]
	subs	r0, r0, #1
	str	r0, [sp, #4]
	.loc	3 2664 9                        @ ../../../../Source/tasks.c:2664:9
	b	.LBB35_12
.Ltmp800:
.LBB35_11:
	.loc	3 0 9 is_stmt 0                 @ ../../../../Source/tasks.c:0:9
	b	.LBB35_12
.LBB35_12:
	.loc	3 2670 23 is_stmt 1             @ ../../../../Source/tasks.c:2670:23
	ldr	r2, [sp, #4]
	.loc	3 2670 20 is_stmt 0             @ ../../../../Source/tasks.c:2670:20
	movw	r1, :lower16:xTickCount
	movt	r1, :upper16:xTickCount
	ldr	r0, [r1]
	adds	r0, r0, r2
	str	r0, [r1]
	.loc	3 2672 5 is_stmt 1              @ ../../../../Source/tasks.c:2672:5
	add	sp, #8
	pop	{r7, pc}
.Ltmp801:
.Lfunc_end35:
	.size	vTaskStepTick, .Lfunc_end35-vTaskStepTick
	.cfi_endproc
	.cantunwind
	.fnend
                                        @ -- End function
	.hidden	xTaskCatchUpTicks               @ -- Begin function xTaskCatchUpTicks
	.globl	xTaskCatchUpTicks
	.p2align	1
	.type	xTaskCatchUpTicks,%function
	.code	16                              @ @xTaskCatchUpTicks
	.thumb_func
xTaskCatchUpTicks:
.Lfunc_begin36:
	.loc	3 2678 0                        @ ../../../../Source/tasks.c:2678:0
	.fnstart
	.cfi_startproc
@ %bb.0:
	.save	{r7, lr}
	push	{r7, lr}
	.cfi_def_cfa_offset 8
	.cfi_offset lr, -4
	.cfi_offset r7, -8
	.pad	#8
	sub	sp, #8
	.cfi_def_cfa_offset 16
	str	r0, [sp, #4]
.Ltmp802:
	.loc	3 2683 5 prologue_end           @ ../../../../Source/tasks.c:2683:5
	movw	r0, :lower16:uxSchedulerSuspended
	movt	r0, :upper16:uxSchedulerSuspended
	ldr	r0, [r0]
.Ltmp803:
	.loc	3 2683 5 is_stmt 0              @ ../../../../Source/tasks.c:2683:5
	cbz	r0, .LBB36_3
	b	.LBB36_1
.LBB36_1:
.Ltmp804:
	.loc	3 2683 5                        @ ../../../../Source/tasks.c:2683:5
	@APP
	cpsid i
	@NO_APP
	b	.LBB36_2
.LBB36_2:                               @ =>This Inner Loop Header: Depth=1
.Ltmp805:
	.loc	3 2683 5                        @ ../../../../Source/tasks.c:2683:5
	b	.LBB36_2
.Ltmp806:
.LBB36_3:
	.loc	3 2687 5 is_stmt 1              @ ../../../../Source/tasks.c:2687:5
	bl	vTaskSuspendAll
	.loc	3 2690 5                        @ ../../../../Source/tasks.c:2690:5
	bl	vPortEnterCritical
.Ltmp807:
	.loc	3 2692 25                       @ ../../../../Source/tasks.c:2692:25
	ldr	r2, [sp, #4]
	.loc	3 2692 22 is_stmt 0             @ ../../../../Source/tasks.c:2692:22
	movw	r1, :lower16:xPendedTicks
	movt	r1, :upper16:xPendedTicks
	ldr	r0, [r1]
	adds	r0, r0, r2
	str	r0, [r1]
.Ltmp808:
	.loc	3 2694 5 is_stmt 1              @ ../../../../Source/tasks.c:2694:5
	bl	vPortExitCritical
	.loc	3 2695 22                       @ ../../../../Source/tasks.c:2695:22
	bl	xTaskResumeAll
	.loc	3 2695 20 is_stmt 0             @ ../../../../Source/tasks.c:2695:20
	str	r0, [sp]
	.loc	3 2697 12 is_stmt 1             @ ../../../../Source/tasks.c:2697:12
	ldr	r0, [sp]
	.loc	3 2697 5 is_stmt 0              @ ../../../../Source/tasks.c:2697:5
	add	sp, #8
	pop	{r7, pc}
.Ltmp809:
.Lfunc_end36:
	.size	xTaskCatchUpTicks, .Lfunc_end36-xTaskCatchUpTicks
	.cfi_endproc
	.cantunwind
	.fnend
                                        @ -- End function
	.hidden	xTaskAbortDelay                 @ -- Begin function xTaskAbortDelay
	.globl	xTaskAbortDelay
	.p2align	1
	.type	xTaskAbortDelay,%function
	.code	16                              @ @xTaskAbortDelay
	.thumb_func
xTaskAbortDelay:
.Lfunc_begin37:
	.loc	3 2704 0 is_stmt 1              @ ../../../../Source/tasks.c:2704:0
	.fnstart
	.cfi_startproc
@ %bb.0:
	.save	{r4, r5, r7, lr}
	push	{r4, r5, r7, lr}
	.cfi_def_cfa_offset 16
	.cfi_offset lr, -4
	.cfi_offset r7, -8
	.cfi_offset r5, -12
	.cfi_offset r4, -16
	.pad	#16
	sub	sp, #16
	.cfi_def_cfa_offset 32
	str	r0, [sp, #12]
.Ltmp810:
	.loc	3 2705 25 prologue_end          @ ../../../../Source/tasks.c:2705:25
	ldr	r0, [sp, #12]
	.loc	3 2705 17 is_stmt 0             @ ../../../../Source/tasks.c:2705:17
	str	r0, [sp, #8]
.Ltmp811:
	.loc	3 2708 9 is_stmt 1              @ ../../../../Source/tasks.c:2708:9
	ldr	r0, [sp, #8]
.Ltmp812:
	.loc	3 2708 9 is_stmt 0              @ ../../../../Source/tasks.c:2708:9
	cbnz	r0, .LBB37_3
	b	.LBB37_1
.LBB37_1:
.Ltmp813:
	.loc	3 2708 9                        @ ../../../../Source/tasks.c:2708:9
	@APP
	cpsid i
	@NO_APP
	b	.LBB37_2
.LBB37_2:                               @ =>This Inner Loop Header: Depth=1
.Ltmp814:
	.loc	3 2708 9                        @ ../../../../Source/tasks.c:2708:9
	b	.LBB37_2
.Ltmp815:
.LBB37_3:
	.loc	3 2710 9 is_stmt 1              @ ../../../../Source/tasks.c:2710:9
	bl	vTaskSuspendAll
.Ltmp816:
	.loc	3 2714 32                       @ ../../../../Source/tasks.c:2714:32
	ldr	r0, [sp, #12]
	.loc	3 2714 17 is_stmt 0             @ ../../../../Source/tasks.c:2714:17
	bl	eTaskGetState
.Ltmp817:
	.loc	3 2714 17                       @ ../../../../Source/tasks.c:2714:17
	cmp	r0, #2
	bne	.LBB37_17
	b	.LBB37_4
.LBB37_4:
	.loc	3 0 17                          @ ../../../../Source/tasks.c:0:17
	movs	r0, #1
.Ltmp818:
	.loc	3 2716 25 is_stmt 1             @ ../../../../Source/tasks.c:2716:25
	str	r0, [sp, #4]
	.loc	3 2721 43                       @ ../../../../Source/tasks.c:2721:43
	ldr	r0, [sp, #8]
	.loc	3 2721 50 is_stmt 0             @ ../../../../Source/tasks.c:2721:50
	adds	r0, #124
	.loc	3 2721 26                       @ ../../../../Source/tasks.c:2721:26
	bl	uxListRemove
	.loc	3 2727 17 is_stmt 1             @ ../../../../Source/tasks.c:2727:17
	bl	vPortEnterCritical
.Ltmp819:
	.loc	3 2729 25                       @ ../../../../Source/tasks.c:2729:25
	ldr	r0, [sp, #8]
	movs	r1, #160
	ldr	r0, [r0, r1]
.Ltmp820:
	.loc	3 2729 25 is_stmt 0             @ ../../../../Source/tasks.c:2729:25
	cbz	r0, .LBB37_6
	b	.LBB37_5
.LBB37_5:
.Ltmp821:
	.loc	3 2731 51 is_stmt 1             @ ../../../../Source/tasks.c:2731:51
	ldr	r0, [sp, #8]
	.loc	3 2731 58 is_stmt 0             @ ../../../../Source/tasks.c:2731:58
	adds	r0, #144
	.loc	3 2731 34                       @ ../../../../Source/tasks.c:2731:34
	bl	uxListRemove
	.loc	3 2736 25 is_stmt 1             @ ../../../../Source/tasks.c:2736:25
	ldr	r1, [sp, #8]
	movs	r2, #216
	movs	r0, #1
	.loc	3 2736 47 is_stmt 0             @ ../../../../Source/tasks.c:2736:47
	strb	r0, [r1, r2]
	.loc	3 2737 21 is_stmt 1             @ ../../../../Source/tasks.c:2737:21
	b	.LBB37_7
.Ltmp822:
.LBB37_6:
	.loc	3 0 21 is_stmt 0                @ ../../../../Source/tasks.c:0:21
	b	.LBB37_7
.LBB37_7:
	.loc	3 2743 17 is_stmt 1             @ ../../../../Source/tasks.c:2743:17
	bl	vPortExitCritical
	.loc	3 2746 17                       @ ../../../../Source/tasks.c:2746:17
	b	.LBB37_8
.LBB37_8:
.Ltmp823:
	.loc	3 2746 17 is_stmt 0             @ ../../../../Source/tasks.c:2746:17
	ldr	r0, [sp, #8]
	movs	r1, #164
	ldr	r0, [r0, r1]
	movw	r1, :lower16:uxTopReadyPriority
	movt	r1, :upper16:uxTopReadyPriority
	ldr	r1, [r1]
.Ltmp824:
	.loc	3 2746 17                       @ ../../../../Source/tasks.c:2746:17
	cmp	r0, r1
	bls	.LBB37_10
	b	.LBB37_9
.LBB37_9:
.Ltmp825:
	.loc	3 2746 17                       @ ../../../../Source/tasks.c:2746:17
	ldr	r0, [sp, #8]
	movs	r1, #164
	ldr	r0, [r0, r1]
	movw	r1, :lower16:uxTopReadyPriority
	movt	r1, :upper16:uxTopReadyPriority
	str	r0, [r1]
	b	.LBB37_10
.Ltmp826:
.LBB37_10:
	.loc	3 2746 17                       @ ../../../../Source/tasks.c:2746:17
	b	.LBB37_11
.LBB37_11:
.Ltmp827:
	.loc	3 2746 17                       @ ../../../../Source/tasks.c:2746:17
	ldr	r0, [sp, #8]
	movs	r3, #164
	ldr	r1, [r0, r3]
	movs	r2, #20
	mov	r0, r2
	muls	r0, r1, r0
	movw	r1, :lower16:pxReadyTasksLists
	movt	r1, :upper16:pxReadyTasksLists
	adds	r0, r1, r0
	ldr	r0, [r0, #4]
	str	r0, [sp]
	ldr	r0, [sp]
	ldr	r4, [sp, #8]
	movs	r5, #128
	str	r0, [r4, r5]
	ldr	r0, [sp]
	ldr	r0, [r0, #8]
	ldr	r4, [sp, #8]
	movs	r5, #132
	str	r0, [r4, r5]
	ldr	r0, [sp, #8]
	adds	r0, #124
	ldr	r4, [sp]
	ldr	r4, [r4, #8]
	str	r0, [r4, #4]
	ldr	r0, [sp, #8]
	adds	r0, #124
	ldr	r4, [sp]
	str	r0, [r4, #8]
	ldr	r4, [sp, #8]
	ldr	r5, [r4, r3]
	mov	r0, r2
	muls	r0, r5, r0
	adds	r0, r1, r0
	movs	r5, #140
	str	r0, [r4, r5]
	ldr	r0, [sp, #8]
	ldr	r0, [r0, r3]
	muls	r2, r0, r2
	ldr	r0, [r1, r2]
	adds	r0, r0, #1
	str	r0, [r1, r2]
	b	.LBB37_12
.Ltmp828:
.LBB37_12:
	.loc	3 2746 17                       @ ../../../../Source/tasks.c:2746:17
	b	.LBB37_13
.Ltmp829:
.LBB37_13:
	.loc	3 2755 25 is_stmt 1             @ ../../../../Source/tasks.c:2755:25
	ldr	r0, [sp, #8]
	movs	r2, #164
	.loc	3 2755 32 is_stmt 0             @ ../../../../Source/tasks.c:2755:32
	ldr	r0, [r0, r2]
	.loc	3 2755 45                       @ ../../../../Source/tasks.c:2755:45
	movw	r1, :lower16:pxCurrentTCB
	movt	r1, :upper16:pxCurrentTCB
	ldr	r1, [r1]
	.loc	3 2755 59                       @ ../../../../Source/tasks.c:2755:59
	ldr	r1, [r1, r2]
.Ltmp830:
	.loc	3 2755 25                       @ ../../../../Source/tasks.c:2755:25
	cmp	r0, r1
	bls	.LBB37_15
	b	.LBB37_14
.LBB37_14:
.Ltmp831:
	.loc	3 2759 39 is_stmt 1             @ ../../../../Source/tasks.c:2759:39
	movw	r1, :lower16:xYieldPending
	movt	r1, :upper16:xYieldPending
	movs	r0, #1
	str	r0, [r1]
	.loc	3 2760 21                       @ ../../../../Source/tasks.c:2760:21
	b	.LBB37_16
.Ltmp832:
.LBB37_15:
	.loc	3 0 21 is_stmt 0                @ ../../../../Source/tasks.c:0:21
	b	.LBB37_16
.LBB37_16:
	.loc	3 2767 13 is_stmt 1             @ ../../../../Source/tasks.c:2767:13
	b	.LBB37_18
.Ltmp833:
.LBB37_17:
	.loc	3 0 13 is_stmt 0                @ ../../../../Source/tasks.c:0:13
	movs	r0, #0
.Ltmp834:
	.loc	3 2770 25 is_stmt 1             @ ../../../../Source/tasks.c:2770:25
	str	r0, [sp, #4]
	b	.LBB37_18
.Ltmp835:
.LBB37_18:
	.loc	3 2773 18                       @ ../../../../Source/tasks.c:2773:18
	bl	xTaskResumeAll
	.loc	3 2775 16                       @ ../../../../Source/tasks.c:2775:16
	ldr	r0, [sp, #4]
	.loc	3 2775 9 is_stmt 0              @ ../../../../Source/tasks.c:2775:9
	add	sp, #16
	pop	{r4, r5, r7, pc}
.Ltmp836:
.Lfunc_end37:
	.size	xTaskAbortDelay, .Lfunc_end37-xTaskAbortDelay
	.cfi_endproc
	.cantunwind
	.fnend
                                        @ -- End function
	.hidden	vTaskPlaceOnEventList           @ -- Begin function vTaskPlaceOnEventList
	.globl	vTaskPlaceOnEventList
	.p2align	1
	.type	vTaskPlaceOnEventList,%function
	.code	16                              @ @vTaskPlaceOnEventList
	.thumb_func
vTaskPlaceOnEventList:
.Lfunc_begin38:
	.loc	3 3146 0 is_stmt 1              @ ../../../../Source/tasks.c:3146:0
	.fnstart
	.cfi_startproc
@ %bb.0:
	.save	{r7, lr}
	push	{r7, lr}
	.cfi_def_cfa_offset 8
	.cfi_offset lr, -4
	.cfi_offset r7, -8
	.pad	#8
	sub	sp, #8
	.cfi_def_cfa_offset 16
	str	r0, [sp, #4]
	str	r1, [sp]
.Ltmp837:
	.loc	3 3147 5 prologue_end           @ ../../../../Source/tasks.c:3147:5
	ldr	r0, [sp, #4]
.Ltmp838:
	.loc	3 3147 5 is_stmt 0              @ ../../../../Source/tasks.c:3147:5
	cbnz	r0, .LBB38_3
	b	.LBB38_1
.LBB38_1:
.Ltmp839:
	.loc	3 3147 5                        @ ../../../../Source/tasks.c:3147:5
	@APP
	cpsid i
	@NO_APP
	b	.LBB38_2
.LBB38_2:                               @ =>This Inner Loop Header: Depth=1
.Ltmp840:
	.loc	3 3147 5                        @ ../../../../Source/tasks.c:3147:5
	b	.LBB38_2
.Ltmp841:
.LBB38_3:
	.loc	3 3163 18 is_stmt 1             @ ../../../../Source/tasks.c:3163:18
	ldr	r0, [sp, #4]
	.loc	3 3163 34 is_stmt 0             @ ../../../../Source/tasks.c:3163:34
	movw	r1, :lower16:pxCurrentTCB
	movt	r1, :upper16:pxCurrentTCB
	ldr	r1, [r1]
	.loc	3 3163 48                       @ ../../../../Source/tasks.c:3163:48
	adds	r1, #144
	.loc	3 3163 5                        @ ../../../../Source/tasks.c:3163:5
	bl	vListInsert
	.loc	3 3165 37 is_stmt 1             @ ../../../../Source/tasks.c:3165:37
	ldr	r0, [sp]
	movs	r1, #1
	.loc	3 3165 5 is_stmt 0              @ ../../../../Source/tasks.c:3165:5
	bl	prvAddCurrentTaskToDelayedList
	.loc	3 3166 1 is_stmt 1              @ ../../../../Source/tasks.c:3166:1
	add	sp, #8
	pop	{r7, pc}
.Ltmp842:
.Lfunc_end38:
	.size	vTaskPlaceOnEventList, .Lfunc_end38-vTaskPlaceOnEventList
	.cfi_endproc
	.cantunwind
	.fnend
                                        @ -- End function
	.hidden	vTaskPlaceOnUnorderedEventList  @ -- Begin function vTaskPlaceOnUnorderedEventList
	.globl	vTaskPlaceOnUnorderedEventList
	.p2align	1
	.type	vTaskPlaceOnUnorderedEventList,%function
	.code	16                              @ @vTaskPlaceOnUnorderedEventList
	.thumb_func
vTaskPlaceOnUnorderedEventList:
.Lfunc_begin39:
	.loc	3 3172 0                        @ ../../../../Source/tasks.c:3172:0
	.fnstart
	.cfi_startproc
@ %bb.0:
	.save	{r7, lr}
	push	{r7, lr}
	.cfi_def_cfa_offset 8
	.cfi_offset lr, -4
	.cfi_offset r7, -8
	.pad	#16
	sub	sp, #16
	.cfi_def_cfa_offset 24
	str	r0, [sp, #12]
	str	r1, [sp, #8]
	str	r2, [sp, #4]
.Ltmp843:
	.loc	3 3173 5 prologue_end           @ ../../../../Source/tasks.c:3173:5
	ldr	r0, [sp, #12]
.Ltmp844:
	.loc	3 3173 5 is_stmt 0              @ ../../../../Source/tasks.c:3173:5
	cbnz	r0, .LBB39_3
	b	.LBB39_1
.LBB39_1:
.Ltmp845:
	.loc	3 3173 5                        @ ../../../../Source/tasks.c:3173:5
	@APP
	cpsid i
	@NO_APP
	b	.LBB39_2
.LBB39_2:                               @ =>This Inner Loop Header: Depth=1
.Ltmp846:
	.loc	3 3173 5                        @ ../../../../Source/tasks.c:3173:5
	b	.LBB39_2
.Ltmp847:
.LBB39_3:
	.loc	3 3177 5 is_stmt 1              @ ../../../../Source/tasks.c:3177:5
	movw	r0, :lower16:uxSchedulerSuspended
	movt	r0, :upper16:uxSchedulerSuspended
	ldr	r0, [r0]
.Ltmp848:
	.loc	3 3177 5 is_stmt 0              @ ../../../../Source/tasks.c:3177:5
	cbnz	r0, .LBB39_6
	b	.LBB39_4
.LBB39_4:
.Ltmp849:
	.loc	3 3177 5                        @ ../../../../Source/tasks.c:3177:5
	@APP
	cpsid i
	@NO_APP
	b	.LBB39_5
.LBB39_5:                               @ =>This Inner Loop Header: Depth=1
.Ltmp850:
	.loc	3 3177 5                        @ ../../../../Source/tasks.c:3177:5
	b	.LBB39_5
.Ltmp851:
.LBB39_6:
	.loc	3 3182 5 is_stmt 1              @ ../../../../Source/tasks.c:3182:5
	ldr	r0, [sp, #8]
	movs	r1, #1
	lsls	r1, r1, #31
	orrs	r0, r1
	movw	r1, :lower16:pxCurrentTCB
	movt	r1, :upper16:pxCurrentTCB
	ldr	r1, [r1]
	movs	r2, #144
	str	r0, [r1, r2]
	.loc	3 3189 5                        @ ../../../../Source/tasks.c:3189:5
	b	.LBB39_7
.LBB39_7:
.Ltmp852:
	.loc	3 3189 5 is_stmt 0              @ ../../../../Source/tasks.c:3189:5
	ldr	r0, [sp, #12]
	ldr	r0, [r0, #4]
	str	r0, [sp]
	ldr	r0, [sp]
	movw	r1, :lower16:pxCurrentTCB
	movt	r1, :upper16:pxCurrentTCB
	ldr	r2, [r1]
	movs	r3, #148
	str	r0, [r2, r3]
	ldr	r0, [sp]
	ldr	r0, [r0, #8]
	ldr	r2, [r1]
	movs	r3, #152
	str	r0, [r2, r3]
	ldr	r0, [r1]
	adds	r0, #144
	ldr	r2, [sp]
	ldr	r2, [r2, #8]
	str	r0, [r2, #4]
	ldr	r0, [r1]
	adds	r0, #144
	ldr	r2, [sp]
	str	r0, [r2, #8]
	ldr	r0, [sp, #12]
	ldr	r1, [r1]
	movs	r2, #160
	str	r0, [r1, r2]
	ldr	r1, [sp, #12]
	ldr	r0, [r1]
	adds	r0, r0, #1
	str	r0, [r1]
	b	.LBB39_8
.Ltmp853:
.LBB39_8:
	.loc	3 3191 37 is_stmt 1             @ ../../../../Source/tasks.c:3191:37
	ldr	r0, [sp, #4]
	movs	r1, #1
	.loc	3 3191 5 is_stmt 0              @ ../../../../Source/tasks.c:3191:5
	bl	prvAddCurrentTaskToDelayedList
	.loc	3 3192 1 is_stmt 1              @ ../../../../Source/tasks.c:3192:1
	add	sp, #16
	pop	{r7, pc}
.Ltmp854:
.Lfunc_end39:
	.size	vTaskPlaceOnUnorderedEventList, .Lfunc_end39-vTaskPlaceOnUnorderedEventList
	.cfi_endproc
	.cantunwind
	.fnend
                                        @ -- End function
	.hidden	vTaskPlaceOnEventListRestricted @ -- Begin function vTaskPlaceOnEventListRestricted
	.globl	vTaskPlaceOnEventListRestricted
	.p2align	1
	.type	vTaskPlaceOnEventListRestricted,%function
	.code	16                              @ @vTaskPlaceOnEventListRestricted
	.thumb_func
vTaskPlaceOnEventListRestricted:
.Lfunc_begin40:
	.loc	3 3200 0                        @ ../../../../Source/tasks.c:3200:0
	.fnstart
	.cfi_startproc
@ %bb.0:
	.save	{r7, lr}
	push	{r7, lr}
	.cfi_def_cfa_offset 8
	.cfi_offset lr, -4
	.cfi_offset r7, -8
	.pad	#16
	sub	sp, #16
	.cfi_def_cfa_offset 24
	str	r0, [sp, #12]
	str	r1, [sp, #8]
	str	r2, [sp, #4]
.Ltmp855:
	.loc	3 3201 9 prologue_end           @ ../../../../Source/tasks.c:3201:9
	ldr	r0, [sp, #12]
.Ltmp856:
	.loc	3 3201 9 is_stmt 0              @ ../../../../Source/tasks.c:3201:9
	cbnz	r0, .LBB40_3
	b	.LBB40_1
.LBB40_1:
.Ltmp857:
	.loc	3 3201 9                        @ ../../../../Source/tasks.c:3201:9
	@APP
	cpsid i
	@NO_APP
	b	.LBB40_2
.LBB40_2:                               @ =>This Inner Loop Header: Depth=1
.Ltmp858:
	.loc	3 3201 9                        @ ../../../../Source/tasks.c:3201:9
	b	.LBB40_2
.Ltmp859:
.LBB40_3:
	.loc	3 3213 9 is_stmt 1              @ ../../../../Source/tasks.c:3213:9
	b	.LBB40_4
.LBB40_4:
.Ltmp860:
	.loc	3 3213 9 is_stmt 0              @ ../../../../Source/tasks.c:3213:9
	ldr	r0, [sp, #12]
	ldr	r0, [r0, #4]
	str	r0, [sp]
	ldr	r0, [sp]
	movw	r1, :lower16:pxCurrentTCB
	movt	r1, :upper16:pxCurrentTCB
	ldr	r2, [r1]
	movs	r3, #148
	str	r0, [r2, r3]
	ldr	r0, [sp]
	ldr	r0, [r0, #8]
	ldr	r2, [r1]
	movs	r3, #152
	str	r0, [r2, r3]
	ldr	r0, [r1]
	adds	r0, #144
	ldr	r2, [sp]
	ldr	r2, [r2, #8]
	str	r0, [r2, #4]
	ldr	r0, [r1]
	adds	r0, #144
	ldr	r2, [sp]
	str	r0, [r2, #8]
	ldr	r0, [sp, #12]
	ldr	r1, [r1]
	movs	r2, #160
	str	r0, [r1, r2]
	ldr	r1, [sp, #12]
	ldr	r0, [r1]
	adds	r0, r0, #1
	str	r0, [r1]
	b	.LBB40_5
.Ltmp861:
.LBB40_5:
	.loc	3 3218 13 is_stmt 1             @ ../../../../Source/tasks.c:3218:13
	ldr	r0, [sp, #4]
.Ltmp862:
	.loc	3 3218 13 is_stmt 0             @ ../../../../Source/tasks.c:3218:13
	cbz	r0, .LBB40_7
	b	.LBB40_6
.LBB40_6:
	.loc	3 0 13                          @ ../../../../Source/tasks.c:0:13
	movs	r0, #0
	mvns	r0, r0
.Ltmp863:
	.loc	3 3220 26 is_stmt 1             @ ../../../../Source/tasks.c:3220:26
	str	r0, [sp, #8]
	.loc	3 3221 9                        @ ../../../../Source/tasks.c:3221:9
	b	.LBB40_7
.Ltmp864:
.LBB40_7:
	.loc	3 3224 41                       @ ../../../../Source/tasks.c:3224:41
	ldr	r0, [sp, #8]
	.loc	3 3224 55 is_stmt 0             @ ../../../../Source/tasks.c:3224:55
	ldr	r1, [sp, #4]
	.loc	3 3224 9                        @ ../../../../Source/tasks.c:3224:9
	bl	prvAddCurrentTaskToDelayedList
	.loc	3 3225 5 is_stmt 1              @ ../../../../Source/tasks.c:3225:5
	add	sp, #16
	pop	{r7, pc}
.Ltmp865:
.Lfunc_end40:
	.size	vTaskPlaceOnEventListRestricted, .Lfunc_end40-vTaskPlaceOnEventListRestricted
	.cfi_endproc
	.cantunwind
	.fnend
                                        @ -- End function
	.hidden	xTaskRemoveFromEventList        @ -- Begin function xTaskRemoveFromEventList
	.globl	xTaskRemoveFromEventList
	.p2align	1
	.type	xTaskRemoveFromEventList,%function
	.code	16                              @ @xTaskRemoveFromEventList
	.thumb_func
xTaskRemoveFromEventList:
.Lfunc_begin41:
	.loc	3 3231 0                        @ ../../../../Source/tasks.c:3231:0
	.fnstart
	.cfi_startproc
@ %bb.0:
	.save	{r4, r5, r7, lr}
	push	{r4, r5, r7, lr}
	.cfi_def_cfa_offset 16
	.cfi_offset lr, -4
	.cfi_offset r7, -8
	.cfi_offset r5, -12
	.cfi_offset r4, -16
	.pad	#32
	sub	sp, #32
	.cfi_def_cfa_offset 48
	str	r0, [sp, #28]
.Ltmp866:
	.loc	3 3248 22 prologue_end          @ ../../../../Source/tasks.c:3248:22
	ldr	r0, [sp, #28]
	ldr	r0, [r0, #12]
	ldr	r0, [r0, #12]
	.loc	3 3248 20 is_stmt 0             @ ../../../../Source/tasks.c:3248:20
	str	r0, [sp, #24]
.Ltmp867:
	.loc	3 3249 5 is_stmt 1              @ ../../../../Source/tasks.c:3249:5
	ldr	r0, [sp, #24]
.Ltmp868:
	.loc	3 3249 5 is_stmt 0              @ ../../../../Source/tasks.c:3249:5
	cbnz	r0, .LBB41_3
	b	.LBB41_1
.LBB41_1:
.Ltmp869:
	.loc	3 3249 5                        @ ../../../../Source/tasks.c:3249:5
	@APP
	cpsid i
	@NO_APP
	b	.LBB41_2
.LBB41_2:                               @ =>This Inner Loop Header: Depth=1
.Ltmp870:
	.loc	3 3249 5                        @ ../../../../Source/tasks.c:3249:5
	b	.LBB41_2
.Ltmp871:
.LBB41_3:
	.loc	3 3250 5 is_stmt 1              @ ../../../../Source/tasks.c:3250:5
	b	.LBB41_4
.LBB41_4:
.Ltmp872:
	.loc	3 3250 5 is_stmt 0              @ ../../../../Source/tasks.c:3250:5
	ldr	r0, [sp, #24]
	movs	r1, #160
	ldr	r0, [r0, r1]
	str	r0, [sp, #16]
	ldr	r1, [sp, #24]
	adds	r1, #144
	ldr	r0, [r1, #8]
	ldr	r1, [r1, #4]
	str	r0, [r1, #8]
	ldr	r1, [sp, #24]
	adds	r1, #144
	ldr	r0, [r1, #4]
	ldr	r1, [r1, #8]
	str	r0, [r1, #4]
.Ltmp873:
	.loc	3 3250 5                        @ ../../../../Source/tasks.c:3250:5
	ldr	r0, [sp, #16]
	ldr	r0, [r0, #4]
	ldr	r1, [sp, #24]
	adds	r1, #144
.Ltmp874:
	.loc	3 3250 5                        @ ../../../../Source/tasks.c:3250:5
	cmp	r0, r1
	bne	.LBB41_6
	b	.LBB41_5
.LBB41_5:
.Ltmp875:
	.loc	3 3250 5                        @ ../../../../Source/tasks.c:3250:5
	ldr	r0, [sp, #24]
	movs	r1, #152
	ldr	r0, [r0, r1]
	ldr	r1, [sp, #16]
	str	r0, [r1, #4]
	b	.LBB41_6
.Ltmp876:
.LBB41_6:
	.loc	3 3250 5                        @ ../../../../Source/tasks.c:3250:5
	ldr	r1, [sp, #24]
	movs	r2, #160
	movs	r0, #0
	str	r0, [r1, r2]
	ldr	r1, [sp, #16]
	ldr	r0, [r1]
	subs	r0, r0, #1
	str	r0, [r1]
	b	.LBB41_7
.Ltmp877:
.LBB41_7:
	.loc	3 3252 9 is_stmt 1              @ ../../../../Source/tasks.c:3252:9
	movw	r0, :lower16:uxSchedulerSuspended
	movt	r0, :upper16:uxSchedulerSuspended
	ldr	r0, [r0]
.Ltmp878:
	.loc	3 3252 9 is_stmt 0              @ ../../../../Source/tasks.c:3252:9
	cmp	r0, #0
	bne	.LBB41_19
	b	.LBB41_8
.LBB41_8:
.Ltmp879:
	.loc	3 3254 9 is_stmt 1              @ ../../../../Source/tasks.c:3254:9
	b	.LBB41_9
.LBB41_9:
.Ltmp880:
	.loc	3 3254 9 is_stmt 0              @ ../../../../Source/tasks.c:3254:9
	ldr	r0, [sp, #24]
	movs	r1, #140
	ldr	r0, [r0, r1]
	str	r0, [sp, #12]
	ldr	r1, [sp, #24]
	adds	r1, #124
	ldr	r0, [r1, #8]
	ldr	r1, [r1, #4]
	str	r0, [r1, #8]
	ldr	r1, [sp, #24]
	adds	r1, #124
	ldr	r0, [r1, #4]
	ldr	r1, [r1, #8]
	str	r0, [r1, #4]
.Ltmp881:
	.loc	3 3254 9                        @ ../../../../Source/tasks.c:3254:9
	ldr	r0, [sp, #12]
	ldr	r0, [r0, #4]
	ldr	r1, [sp, #24]
	adds	r1, #124
.Ltmp882:
	.loc	3 3254 9                        @ ../../../../Source/tasks.c:3254:9
	cmp	r0, r1
	bne	.LBB41_11
	b	.LBB41_10
.LBB41_10:
.Ltmp883:
	.loc	3 3254 9                        @ ../../../../Source/tasks.c:3254:9
	ldr	r0, [sp, #24]
	movs	r1, #132
	ldr	r0, [r0, r1]
	ldr	r1, [sp, #12]
	str	r0, [r1, #4]
	b	.LBB41_11
.Ltmp884:
.LBB41_11:
	.loc	3 3254 9                        @ ../../../../Source/tasks.c:3254:9
	ldr	r1, [sp, #24]
	movs	r2, #140
	movs	r0, #0
	str	r0, [r1, r2]
	ldr	r1, [sp, #12]
	ldr	r0, [r1]
	subs	r0, r0, #1
	str	r0, [r1]
	b	.LBB41_12
.Ltmp885:
.LBB41_12:
	.loc	3 3255 9 is_stmt 1              @ ../../../../Source/tasks.c:3255:9
	b	.LBB41_13
.LBB41_13:
.Ltmp886:
	.loc	3 3255 9 is_stmt 0              @ ../../../../Source/tasks.c:3255:9
	ldr	r0, [sp, #24]
	movs	r1, #164
	ldr	r0, [r0, r1]
	movw	r1, :lower16:uxTopReadyPriority
	movt	r1, :upper16:uxTopReadyPriority
	ldr	r1, [r1]
.Ltmp887:
	.loc	3 3255 9                        @ ../../../../Source/tasks.c:3255:9
	cmp	r0, r1
	bls	.LBB41_15
	b	.LBB41_14
.LBB41_14:
.Ltmp888:
	.loc	3 3255 9                        @ ../../../../Source/tasks.c:3255:9
	ldr	r0, [sp, #24]
	movs	r1, #164
	ldr	r0, [r0, r1]
	movw	r1, :lower16:uxTopReadyPriority
	movt	r1, :upper16:uxTopReadyPriority
	str	r0, [r1]
	b	.LBB41_15
.Ltmp889:
.LBB41_15:
	.loc	3 3255 9                        @ ../../../../Source/tasks.c:3255:9
	b	.LBB41_16
.LBB41_16:
.Ltmp890:
	.loc	3 3255 9                        @ ../../../../Source/tasks.c:3255:9
	ldr	r0, [sp, #24]
	movs	r3, #164
	ldr	r1, [r0, r3]
	movs	r2, #20
	mov	r0, r2
	muls	r0, r1, r0
	movw	r1, :lower16:pxReadyTasksLists
	movt	r1, :upper16:pxReadyTasksLists
	adds	r0, r1, r0
	ldr	r0, [r0, #4]
	str	r0, [sp, #8]
	ldr	r0, [sp, #8]
	ldr	r4, [sp, #24]
	movs	r5, #128
	str	r0, [r4, r5]
	ldr	r0, [sp, #8]
	ldr	r0, [r0, #8]
	ldr	r4, [sp, #24]
	movs	r5, #132
	str	r0, [r4, r5]
	ldr	r0, [sp, #24]
	adds	r0, #124
	ldr	r4, [sp, #8]
	ldr	r4, [r4, #8]
	str	r0, [r4, #4]
	ldr	r0, [sp, #24]
	adds	r0, #124
	ldr	r4, [sp, #8]
	str	r0, [r4, #8]
	ldr	r4, [sp, #24]
	ldr	r5, [r4, r3]
	mov	r0, r2
	muls	r0, r5, r0
	adds	r0, r1, r0
	movs	r5, #140
	str	r0, [r4, r5]
	ldr	r0, [sp, #24]
	ldr	r0, [r0, r3]
	muls	r2, r0, r2
	ldr	r0, [r1, r2]
	adds	r0, r0, #1
	str	r0, [r1, r2]
	b	.LBB41_17
.Ltmp891:
.LBB41_17:
	.loc	3 3255 9                        @ ../../../../Source/tasks.c:3255:9
	b	.LBB41_18
.Ltmp892:
.LBB41_18:
	.loc	3 3267 13 is_stmt 1             @ ../../../../Source/tasks.c:3267:13
	bl	prvResetNextTaskUnblockTime
.Ltmp893:
	.loc	3 3270 5                        @ ../../../../Source/tasks.c:3270:5
	b	.LBB41_22
.Ltmp894:
.LBB41_19:
	.loc	3 3275 9                        @ ../../../../Source/tasks.c:3275:9
	b	.LBB41_20
.LBB41_20:
.Ltmp895:
	.loc	3 3275 9 is_stmt 0              @ ../../../../Source/tasks.c:3275:9
	movw	r1, :lower16:xPendingReadyList
	movt	r1, :upper16:xPendingReadyList
	ldr	r0, [r1, #4]
	str	r0, [sp, #4]
	ldr	r0, [sp, #4]
	ldr	r2, [sp, #24]
	movs	r3, #148
	str	r0, [r2, r3]
	ldr	r0, [sp, #4]
	ldr	r0, [r0, #8]
	ldr	r2, [sp, #24]
	movs	r3, #152
	str	r0, [r2, r3]
	ldr	r0, [sp, #24]
	adds	r0, #144
	ldr	r2, [sp, #4]
	ldr	r2, [r2, #8]
	str	r0, [r2, #4]
	ldr	r0, [sp, #24]
	adds	r0, #144
	ldr	r2, [sp, #4]
	str	r0, [r2, #8]
	ldr	r0, [sp, #24]
	movs	r2, #160
	str	r1, [r0, r2]
	ldr	r0, [r1]
	adds	r0, r0, #1
	str	r0, [r1]
	b	.LBB41_21
.Ltmp896:
.LBB41_21:
	.loc	3 0 9                           @ ../../../../Source/tasks.c:0:9
	b	.LBB41_22
.LBB41_22:
.Ltmp897:
	.loc	3 3278 9 is_stmt 1              @ ../../../../Source/tasks.c:3278:9
	ldr	r0, [sp, #24]
	movs	r2, #164
	.loc	3 3278 25 is_stmt 0             @ ../../../../Source/tasks.c:3278:25
	ldr	r0, [r0, r2]
	.loc	3 3278 38                       @ ../../../../Source/tasks.c:3278:38
	movw	r1, :lower16:pxCurrentTCB
	movt	r1, :upper16:pxCurrentTCB
	ldr	r1, [r1]
	.loc	3 3278 52                       @ ../../../../Source/tasks.c:3278:52
	ldr	r1, [r1, r2]
.Ltmp898:
	.loc	3 3278 9                        @ ../../../../Source/tasks.c:3278:9
	cmp	r0, r1
	bls	.LBB41_24
	b	.LBB41_23
.LBB41_23:
	.loc	3 0 9                           @ ../../../../Source/tasks.c:0:9
	movs	r0, #1
.Ltmp899:
	.loc	3 3283 17 is_stmt 1             @ ../../../../Source/tasks.c:3283:17
	str	r0, [sp, #20]
	.loc	3 3287 23                       @ ../../../../Source/tasks.c:3287:23
	movw	r1, :lower16:xYieldPending
	movt	r1, :upper16:xYieldPending
	str	r0, [r1]
	.loc	3 3288 5                        @ ../../../../Source/tasks.c:3288:5
	b	.LBB41_25
.Ltmp900:
.LBB41_24:
	.loc	3 0 5 is_stmt 0                 @ ../../../../Source/tasks.c:0:5
	movs	r0, #0
.Ltmp901:
	.loc	3 3291 17 is_stmt 1             @ ../../../../Source/tasks.c:3291:17
	str	r0, [sp, #20]
	b	.LBB41_25
.Ltmp902:
.LBB41_25:
	.loc	3 3294 12                       @ ../../../../Source/tasks.c:3294:12
	ldr	r0, [sp, #20]
	.loc	3 3294 5 is_stmt 0              @ ../../../../Source/tasks.c:3294:5
	add	sp, #32
	pop	{r4, r5, r7, pc}
.Ltmp903:
.Lfunc_end41:
	.size	xTaskRemoveFromEventList, .Lfunc_end41-xTaskRemoveFromEventList
	.cfi_endproc
	.cantunwind
	.fnend
                                        @ -- End function
	.hidden	vTaskRemoveFromUnorderedEventList @ -- Begin function vTaskRemoveFromUnorderedEventList
	.globl	vTaskRemoveFromUnorderedEventList
	.p2align	1
	.type	vTaskRemoveFromUnorderedEventList,%function
	.code	16                              @ @vTaskRemoveFromUnorderedEventList
	.thumb_func
vTaskRemoveFromUnorderedEventList:
.Lfunc_begin42:
	.loc	3 3300 0 is_stmt 1              @ ../../../../Source/tasks.c:3300:0
	.fnstart
	.cfi_startproc
@ %bb.0:
	.save	{r4, r5, r7, lr}
	push	{r4, r5, r7, lr}
	.cfi_def_cfa_offset 16
	.cfi_offset lr, -4
	.cfi_offset r7, -8
	.cfi_offset r5, -12
	.cfi_offset r4, -16
	.pad	#24
	sub	sp, #24
	.cfi_def_cfa_offset 40
	str	r0, [sp, #20]
	str	r1, [sp, #16]
.Ltmp904:
	.loc	3 3305 5 prologue_end           @ ../../../../Source/tasks.c:3305:5
	movw	r0, :lower16:uxSchedulerSuspended
	movt	r0, :upper16:uxSchedulerSuspended
	ldr	r0, [r0]
.Ltmp905:
	.loc	3 3305 5 is_stmt 0              @ ../../../../Source/tasks.c:3305:5
	cbnz	r0, .LBB42_3
	b	.LBB42_1
.LBB42_1:
.Ltmp906:
	.loc	3 3305 5                        @ ../../../../Source/tasks.c:3305:5
	@APP
	cpsid i
	@NO_APP
	b	.LBB42_2
.LBB42_2:                               @ =>This Inner Loop Header: Depth=1
.Ltmp907:
	.loc	3 3305 5                        @ ../../../../Source/tasks.c:3305:5
	b	.LBB42_2
.Ltmp908:
.LBB42_3:
	.loc	3 3308 5 is_stmt 1              @ ../../../../Source/tasks.c:3308:5
	ldr	r0, [sp, #16]
	movs	r1, #1
	lsls	r1, r1, #31
	orrs	r0, r1
	ldr	r1, [sp, #20]
	str	r0, [r1]
	.loc	3 3312 22                       @ ../../../../Source/tasks.c:3312:22
	ldr	r0, [sp, #20]
	ldr	r0, [r0, #12]
	.loc	3 3312 20 is_stmt 0             @ ../../../../Source/tasks.c:3312:20
	str	r0, [sp, #12]
.Ltmp909:
	.loc	3 3313 5 is_stmt 1              @ ../../../../Source/tasks.c:3313:5
	ldr	r0, [sp, #12]
.Ltmp910:
	.loc	3 3313 5 is_stmt 0              @ ../../../../Source/tasks.c:3313:5
	cbnz	r0, .LBB42_6
	b	.LBB42_4
.LBB42_4:
.Ltmp911:
	.loc	3 3313 5                        @ ../../../../Source/tasks.c:3313:5
	@APP
	cpsid i
	@NO_APP
	b	.LBB42_5
.LBB42_5:                               @ =>This Inner Loop Header: Depth=1
.Ltmp912:
	.loc	3 3313 5                        @ ../../../../Source/tasks.c:3313:5
	b	.LBB42_5
.Ltmp913:
.LBB42_6:
	.loc	3 3314 5 is_stmt 1              @ ../../../../Source/tasks.c:3314:5
	b	.LBB42_7
.LBB42_7:
.Ltmp914:
	.loc	3 3314 5 is_stmt 0              @ ../../../../Source/tasks.c:3314:5
	ldr	r0, [sp, #20]
	ldr	r0, [r0, #16]
	str	r0, [sp, #8]
	ldr	r1, [sp, #20]
	ldr	r0, [r1, #8]
	ldr	r1, [r1, #4]
	str	r0, [r1, #8]
	ldr	r1, [sp, #20]
	ldr	r0, [r1, #4]
	ldr	r1, [r1, #8]
	str	r0, [r1, #4]
.Ltmp915:
	.loc	3 3314 5                        @ ../../../../Source/tasks.c:3314:5
	ldr	r0, [sp, #8]
	ldr	r0, [r0, #4]
	ldr	r1, [sp, #20]
.Ltmp916:
	.loc	3 3314 5                        @ ../../../../Source/tasks.c:3314:5
	cmp	r0, r1
	bne	.LBB42_9
	b	.LBB42_8
.LBB42_8:
.Ltmp917:
	.loc	3 3314 5                        @ ../../../../Source/tasks.c:3314:5
	ldr	r0, [sp, #20]
	ldr	r0, [r0, #8]
	ldr	r1, [sp, #8]
	str	r0, [r1, #4]
	b	.LBB42_9
.Ltmp918:
.LBB42_9:
	.loc	3 3314 5                        @ ../../../../Source/tasks.c:3314:5
	ldr	r1, [sp, #20]
	movs	r0, #0
	str	r0, [r1, #16]
	ldr	r1, [sp, #8]
	ldr	r0, [r1]
	subs	r0, r0, #1
	str	r0, [r1]
	b	.LBB42_10
.Ltmp919:
.LBB42_10:
	.loc	3 3326 9 is_stmt 1              @ ../../../../Source/tasks.c:3326:9
	bl	prvResetNextTaskUnblockTime
.Ltmp920:
	.loc	3 3333 5                        @ ../../../../Source/tasks.c:3333:5
	b	.LBB42_11
.LBB42_11:
.Ltmp921:
	.loc	3 3333 5 is_stmt 0              @ ../../../../Source/tasks.c:3333:5
	ldr	r0, [sp, #12]
	movs	r1, #140
	ldr	r0, [r0, r1]
	str	r0, [sp, #4]
	ldr	r1, [sp, #12]
	adds	r1, #124
	ldr	r0, [r1, #8]
	ldr	r1, [r1, #4]
	str	r0, [r1, #8]
	ldr	r1, [sp, #12]
	adds	r1, #124
	ldr	r0, [r1, #4]
	ldr	r1, [r1, #8]
	str	r0, [r1, #4]
.Ltmp922:
	.loc	3 3333 5                        @ ../../../../Source/tasks.c:3333:5
	ldr	r0, [sp, #4]
	ldr	r0, [r0, #4]
	ldr	r1, [sp, #12]
	adds	r1, #124
.Ltmp923:
	.loc	3 3333 5                        @ ../../../../Source/tasks.c:3333:5
	cmp	r0, r1
	bne	.LBB42_13
	b	.LBB42_12
.LBB42_12:
.Ltmp924:
	.loc	3 3333 5                        @ ../../../../Source/tasks.c:3333:5
	ldr	r0, [sp, #12]
	movs	r1, #132
	ldr	r0, [r0, r1]
	ldr	r1, [sp, #4]
	str	r0, [r1, #4]
	b	.LBB42_13
.Ltmp925:
.LBB42_13:
	.loc	3 3333 5                        @ ../../../../Source/tasks.c:3333:5
	ldr	r1, [sp, #12]
	movs	r2, #140
	movs	r0, #0
	str	r0, [r1, r2]
	ldr	r1, [sp, #4]
	ldr	r0, [r1]
	subs	r0, r0, #1
	str	r0, [r1]
	b	.LBB42_14
.Ltmp926:
.LBB42_14:
	.loc	3 3334 5 is_stmt 1              @ ../../../../Source/tasks.c:3334:5
	b	.LBB42_15
.LBB42_15:
.Ltmp927:
	.loc	3 3334 5 is_stmt 0              @ ../../../../Source/tasks.c:3334:5
	ldr	r0, [sp, #12]
	movs	r1, #164
	ldr	r0, [r0, r1]
	movw	r1, :lower16:uxTopReadyPriority
	movt	r1, :upper16:uxTopReadyPriority
	ldr	r1, [r1]
.Ltmp928:
	.loc	3 3334 5                        @ ../../../../Source/tasks.c:3334:5
	cmp	r0, r1
	bls	.LBB42_17
	b	.LBB42_16
.LBB42_16:
.Ltmp929:
	.loc	3 3334 5                        @ ../../../../Source/tasks.c:3334:5
	ldr	r0, [sp, #12]
	movs	r1, #164
	ldr	r0, [r0, r1]
	movw	r1, :lower16:uxTopReadyPriority
	movt	r1, :upper16:uxTopReadyPriority
	str	r0, [r1]
	b	.LBB42_17
.Ltmp930:
.LBB42_17:
	.loc	3 3334 5                        @ ../../../../Source/tasks.c:3334:5
	b	.LBB42_18
.LBB42_18:
.Ltmp931:
	.loc	3 3334 5                        @ ../../../../Source/tasks.c:3334:5
	ldr	r0, [sp, #12]
	movs	r3, #164
	ldr	r1, [r0, r3]
	movs	r2, #20
	mov	r0, r2
	muls	r0, r1, r0
	movw	r1, :lower16:pxReadyTasksLists
	movt	r1, :upper16:pxReadyTasksLists
	adds	r0, r1, r0
	ldr	r0, [r0, #4]
	str	r0, [sp]
	ldr	r0, [sp]
	ldr	r4, [sp, #12]
	movs	r5, #128
	str	r0, [r4, r5]
	ldr	r0, [sp]
	ldr	r0, [r0, #8]
	ldr	r4, [sp, #12]
	movs	r5, #132
	str	r0, [r4, r5]
	ldr	r0, [sp, #12]
	adds	r0, #124
	ldr	r4, [sp]
	ldr	r4, [r4, #8]
	str	r0, [r4, #4]
	ldr	r0, [sp, #12]
	adds	r0, #124
	ldr	r4, [sp]
	str	r0, [r4, #8]
	ldr	r4, [sp, #12]
	ldr	r5, [r4, r3]
	mov	r0, r2
	muls	r0, r5, r0
	adds	r0, r1, r0
	movs	r5, #140
	str	r0, [r4, r5]
	ldr	r0, [sp, #12]
	ldr	r0, [r0, r3]
	muls	r2, r0, r2
	ldr	r0, [r1, r2]
	adds	r0, r0, #1
	str	r0, [r1, r2]
	b	.LBB42_19
.Ltmp932:
.LBB42_19:
	.loc	3 3334 5                        @ ../../../../Source/tasks.c:3334:5
	b	.LBB42_20
.Ltmp933:
.LBB42_20:
	.loc	3 3336 9 is_stmt 1              @ ../../../../Source/tasks.c:3336:9
	ldr	r0, [sp, #12]
	movs	r2, #164
	.loc	3 3336 25 is_stmt 0             @ ../../../../Source/tasks.c:3336:25
	ldr	r0, [r0, r2]
	.loc	3 3336 38                       @ ../../../../Source/tasks.c:3336:38
	movw	r1, :lower16:pxCurrentTCB
	movt	r1, :upper16:pxCurrentTCB
	ldr	r1, [r1]
	.loc	3 3336 52                       @ ../../../../Source/tasks.c:3336:52
	ldr	r1, [r1, r2]
.Ltmp934:
	.loc	3 3336 9                        @ ../../../../Source/tasks.c:3336:9
	cmp	r0, r1
	bls	.LBB42_22
	b	.LBB42_21
.LBB42_21:
.Ltmp935:
	.loc	3 3342 23 is_stmt 1             @ ../../../../Source/tasks.c:3342:23
	movw	r1, :lower16:xYieldPending
	movt	r1, :upper16:xYieldPending
	movs	r0, #1
	str	r0, [r1]
	.loc	3 3343 5                        @ ../../../../Source/tasks.c:3343:5
	b	.LBB42_22
.Ltmp936:
.LBB42_22:
	.loc	3 3344 1                        @ ../../../../Source/tasks.c:3344:1
	add	sp, #24
	pop	{r4, r5, r7, pc}
.Ltmp937:
.Lfunc_end42:
	.size	vTaskRemoveFromUnorderedEventList, .Lfunc_end42-vTaskRemoveFromUnorderedEventList
	.cfi_endproc
	.cantunwind
	.fnend
                                        @ -- End function
	.hidden	vTaskSetTimeOutState            @ -- Begin function vTaskSetTimeOutState
	.globl	vTaskSetTimeOutState
	.p2align	1
	.type	vTaskSetTimeOutState,%function
	.code	16                              @ @vTaskSetTimeOutState
	.thumb_func
vTaskSetTimeOutState:
.Lfunc_begin43:
	.loc	3 3348 0                        @ ../../../../Source/tasks.c:3348:0
	.fnstart
	.cfi_startproc
@ %bb.0:
	.save	{r7, lr}
	push	{r7, lr}
	.cfi_def_cfa_offset 8
	.cfi_offset lr, -4
	.cfi_offset r7, -8
	.pad	#8
	sub	sp, #8
	.cfi_def_cfa_offset 16
	str	r0, [sp, #4]
.Ltmp938:
	.loc	3 3349 5 prologue_end           @ ../../../../Source/tasks.c:3349:5
	ldr	r0, [sp, #4]
.Ltmp939:
	.loc	3 3349 5 is_stmt 0              @ ../../../../Source/tasks.c:3349:5
	cbnz	r0, .LBB43_3
	b	.LBB43_1
.LBB43_1:
.Ltmp940:
	.loc	3 3349 5                        @ ../../../../Source/tasks.c:3349:5
	@APP
	cpsid i
	@NO_APP
	b	.LBB43_2
.LBB43_2:                               @ =>This Inner Loop Header: Depth=1
.Ltmp941:
	.loc	3 3349 5                        @ ../../../../Source/tasks.c:3349:5
	b	.LBB43_2
.Ltmp942:
.LBB43_3:
	.loc	3 3350 5 is_stmt 1              @ ../../../../Source/tasks.c:3350:5
	bl	vPortEnterCritical
.Ltmp943:
	.loc	3 3352 37                       @ ../../../../Source/tasks.c:3352:37
	movw	r0, :lower16:xNumOfOverflows
	movt	r0, :upper16:xNumOfOverflows
	ldr	r0, [r0]
	.loc	3 3352 9 is_stmt 0              @ ../../../../Source/tasks.c:3352:9
	ldr	r1, [sp, #4]
	.loc	3 3352 35                       @ ../../../../Source/tasks.c:3352:35
	str	r0, [r1]
	.loc	3 3353 38 is_stmt 1             @ ../../../../Source/tasks.c:3353:38
	movw	r0, :lower16:xTickCount
	movt	r0, :upper16:xTickCount
	ldr	r0, [r0]
	.loc	3 3353 9 is_stmt 0              @ ../../../../Source/tasks.c:3353:9
	ldr	r1, [sp, #4]
	.loc	3 3353 36                       @ ../../../../Source/tasks.c:3353:36
	str	r0, [r1, #4]
.Ltmp944:
	.loc	3 3355 5 is_stmt 1              @ ../../../../Source/tasks.c:3355:5
	bl	vPortExitCritical
	.loc	3 3356 1                        @ ../../../../Source/tasks.c:3356:1
	add	sp, #8
	pop	{r7, pc}
.Ltmp945:
.Lfunc_end43:
	.size	vTaskSetTimeOutState, .Lfunc_end43-vTaskSetTimeOutState
	.cfi_endproc
	.cantunwind
	.fnend
                                        @ -- End function
	.hidden	vTaskInternalSetTimeOutState    @ -- Begin function vTaskInternalSetTimeOutState
	.globl	vTaskInternalSetTimeOutState
	.p2align	1
	.type	vTaskInternalSetTimeOutState,%function
	.code	16                              @ @vTaskInternalSetTimeOutState
	.thumb_func
vTaskInternalSetTimeOutState:
.Lfunc_begin44:
	.loc	3 3360 0                        @ ../../../../Source/tasks.c:3360:0
	.fnstart
	.cfi_startproc
@ %bb.0:
	.pad	#4
	sub	sp, #4
	.cfi_def_cfa_offset 4
	str	r0, [sp]
.Ltmp946:
	.loc	3 3362 33 prologue_end          @ ../../../../Source/tasks.c:3362:33
	movw	r0, :lower16:xNumOfOverflows
	movt	r0, :upper16:xNumOfOverflows
	ldr	r0, [r0]
	.loc	3 3362 5 is_stmt 0              @ ../../../../Source/tasks.c:3362:5
	ldr	r1, [sp]
	.loc	3 3362 31                       @ ../../../../Source/tasks.c:3362:31
	str	r0, [r1]
	.loc	3 3363 34 is_stmt 1             @ ../../../../Source/tasks.c:3363:34
	movw	r0, :lower16:xTickCount
	movt	r0, :upper16:xTickCount
	ldr	r0, [r0]
	.loc	3 3363 5 is_stmt 0              @ ../../../../Source/tasks.c:3363:5
	ldr	r1, [sp]
	.loc	3 3363 32                       @ ../../../../Source/tasks.c:3363:32
	str	r0, [r1, #4]
	.loc	3 3364 1 is_stmt 1              @ ../../../../Source/tasks.c:3364:1
	add	sp, #4
	bx	lr
.Ltmp947:
.Lfunc_end44:
	.size	vTaskInternalSetTimeOutState, .Lfunc_end44-vTaskInternalSetTimeOutState
	.cfi_endproc
	.cantunwind
	.fnend
                                        @ -- End function
	.hidden	xTaskCheckForTimeOut            @ -- Begin function xTaskCheckForTimeOut
	.globl	xTaskCheckForTimeOut
	.p2align	1
	.type	xTaskCheckForTimeOut,%function
	.code	16                              @ @xTaskCheckForTimeOut
	.thumb_func
xTaskCheckForTimeOut:
.Lfunc_begin45:
	.loc	3 3369 0                        @ ../../../../Source/tasks.c:3369:0
	.fnstart
	.cfi_startproc
@ %bb.0:
	.save	{r7, lr}
	push	{r7, lr}
	.cfi_def_cfa_offset 8
	.cfi_offset lr, -4
	.cfi_offset r7, -8
	.pad	#24
	sub	sp, #24
	.cfi_def_cfa_offset 32
	str	r0, [sp, #20]
	str	r1, [sp, #16]
.Ltmp948:
	.loc	3 3372 5 prologue_end           @ ../../../../Source/tasks.c:3372:5
	ldr	r0, [sp, #20]
.Ltmp949:
	.loc	3 3372 5 is_stmt 0              @ ../../../../Source/tasks.c:3372:5
	cbnz	r0, .LBB45_3
	b	.LBB45_1
.LBB45_1:
.Ltmp950:
	.loc	3 3372 5                        @ ../../../../Source/tasks.c:3372:5
	@APP
	cpsid i
	@NO_APP
	b	.LBB45_2
.LBB45_2:                               @ =>This Inner Loop Header: Depth=1
.Ltmp951:
	.loc	3 3372 5                        @ ../../../../Source/tasks.c:3372:5
	b	.LBB45_2
.Ltmp952:
.LBB45_3:
	.loc	3 3373 5 is_stmt 1              @ ../../../../Source/tasks.c:3373:5
	ldr	r0, [sp, #16]
.Ltmp953:
	.loc	3 3373 5 is_stmt 0              @ ../../../../Source/tasks.c:3373:5
	cbnz	r0, .LBB45_6
	b	.LBB45_4
.LBB45_4:
.Ltmp954:
	.loc	3 3373 5                        @ ../../../../Source/tasks.c:3373:5
	@APP
	cpsid i
	@NO_APP
	b	.LBB45_5
.LBB45_5:                               @ =>This Inner Loop Header: Depth=1
.Ltmp955:
	.loc	3 3373 5                        @ ../../../../Source/tasks.c:3373:5
	b	.LBB45_5
.Ltmp956:
.LBB45_6:
	.loc	3 3375 5 is_stmt 1              @ ../../../../Source/tasks.c:3375:5
	bl	vPortEnterCritical
.Ltmp957:
	.loc	3 3378 44                       @ ../../../../Source/tasks.c:3378:44
	movw	r0, :lower16:xTickCount
	movt	r0, :upper16:xTickCount
	ldr	r0, [r0]
	.loc	3 3378 26 is_stmt 0             @ ../../../../Source/tasks.c:3378:26
	str	r0, [sp, #8]
	.loc	3 3379 41 is_stmt 1             @ ../../../../Source/tasks.c:3379:41
	ldr	r0, [sp, #8]
	.loc	3 3379 59 is_stmt 0             @ ../../../../Source/tasks.c:3379:59
	ldr	r1, [sp, #20]
	.loc	3 3379 70                       @ ../../../../Source/tasks.c:3379:70
	ldr	r1, [r1, #4]
	.loc	3 3379 57                       @ ../../../../Source/tasks.c:3379:57
	subs	r0, r0, r1
	.loc	3 3379 26                       @ ../../../../Source/tasks.c:3379:26
	str	r0, [sp, #4]
.Ltmp958:
	.loc	3 3382 17 is_stmt 1             @ ../../../../Source/tasks.c:3382:17
	movw	r0, :lower16:pxCurrentTCB
	movt	r0, :upper16:pxCurrentTCB
	ldr	r0, [r0]
	movs	r1, #216
	.loc	3 3382 31 is_stmt 0             @ ../../../../Source/tasks.c:3382:31
	ldrb	r0, [r0, r1]
.Ltmp959:
	.loc	3 3382 17                       @ ../../../../Source/tasks.c:3382:17
	cbz	r0, .LBB45_8
	b	.LBB45_7
.LBB45_7:
.Ltmp960:
	.loc	3 3386 17 is_stmt 1             @ ../../../../Source/tasks.c:3386:17
	movw	r0, :lower16:pxCurrentTCB
	movt	r0, :upper16:pxCurrentTCB
	ldr	r1, [r0]
	movs	r2, #216
	movs	r0, #0
	.loc	3 3386 46 is_stmt 0             @ ../../../../Source/tasks.c:3386:46
	strb	r0, [r1, r2]
	movs	r0, #1
	.loc	3 3387 25 is_stmt 1             @ ../../../../Source/tasks.c:3387:25
	str	r0, [sp, #12]
	.loc	3 3388 13                       @ ../../../../Source/tasks.c:3388:13
	b	.LBB45_19
.Ltmp961:
.LBB45_8:
	.loc	3 3393 18                       @ ../../../../Source/tasks.c:3393:18
	ldr	r0, [sp, #16]
	.loc	3 3393 17 is_stmt 0             @ ../../../../Source/tasks.c:3393:17
	ldr	r0, [r0]
.Ltmp962:
	.loc	3 3393 17                       @ ../../../../Source/tasks.c:3393:17
	adds	r0, r0, #1
	cbnz	r0, .LBB45_10
	b	.LBB45_9
.LBB45_9:
	.loc	3 0 17                          @ ../../../../Source/tasks.c:0:17
	movs	r0, #0
.Ltmp963:
	.loc	3 3398 25 is_stmt 1             @ ../../../../Source/tasks.c:3398:25
	str	r0, [sp, #12]
	.loc	3 3399 13                       @ ../../../../Source/tasks.c:3399:13
	b	.LBB45_18
.Ltmp964:
.LBB45_10:
	.loc	3 3403 15                       @ ../../../../Source/tasks.c:3403:15
	movw	r0, :lower16:xNumOfOverflows
	movt	r0, :upper16:xNumOfOverflows
	ldr	r0, [r0]
	.loc	3 3403 34 is_stmt 0             @ ../../../../Source/tasks.c:3403:34
	ldr	r1, [sp, #20]
	.loc	3 3403 45                       @ ../../../../Source/tasks.c:3403:45
	ldr	r1, [r1]
	.loc	3 3403 62                       @ ../../../../Source/tasks.c:3403:62
	cmp	r0, r1
	beq	.LBB45_13
	b	.LBB45_11
.LBB45_11:
	.loc	3 3403 67                       @ ../../../../Source/tasks.c:3403:67
	ldr	r0, [sp, #8]
	.loc	3 3403 86                       @ ../../../../Source/tasks.c:3403:86
	ldr	r1, [sp, #20]
	.loc	3 3403 97                       @ ../../../../Source/tasks.c:3403:97
	ldr	r1, [r1, #4]
.Ltmp965:
	.loc	3 3403 13                       @ ../../../../Source/tasks.c:3403:13
	cmp	r0, r1
	blo	.LBB45_13
	b	.LBB45_12
.LBB45_12:
	.loc	3 0 13                          @ ../../../../Source/tasks.c:0:13
	movs	r0, #1
.Ltmp966:
	.loc	3 3410 21 is_stmt 1             @ ../../../../Source/tasks.c:3410:21
	str	r0, [sp, #12]
	.loc	3 3411 14                       @ ../../../../Source/tasks.c:3411:14
	ldr	r1, [sp, #16]
	movs	r0, #0
	.loc	3 3411 28 is_stmt 0             @ ../../../../Source/tasks.c:3411:28
	str	r0, [r1]
	.loc	3 3412 9 is_stmt 1              @ ../../../../Source/tasks.c:3412:9
	b	.LBB45_17
.Ltmp967:
.LBB45_13:
	.loc	3 3413 18                       @ ../../../../Source/tasks.c:3413:18
	ldr	r0, [sp, #4]
	.loc	3 3413 34 is_stmt 0             @ ../../../../Source/tasks.c:3413:34
	ldr	r1, [sp, #16]
	.loc	3 3413 33                       @ ../../../../Source/tasks.c:3413:33
	ldr	r1, [r1]
.Ltmp968:
	.loc	3 3413 18                       @ ../../../../Source/tasks.c:3413:18
	cmp	r0, r1
	bhs	.LBB45_15
	b	.LBB45_14
.LBB45_14:
.Ltmp969:
	.loc	3 3416 31 is_stmt 1             @ ../../../../Source/tasks.c:3416:31
	ldr	r2, [sp, #4]
	.loc	3 3416 14 is_stmt 0             @ ../../../../Source/tasks.c:3416:14
	ldr	r1, [sp, #16]
	.loc	3 3416 28                       @ ../../../../Source/tasks.c:3416:28
	ldr	r0, [r1]
	subs	r0, r0, r2
	str	r0, [r1]
	.loc	3 3417 43 is_stmt 1             @ ../../../../Source/tasks.c:3417:43
	ldr	r0, [sp, #20]
	.loc	3 3417 13 is_stmt 0             @ ../../../../Source/tasks.c:3417:13
	bl	vTaskInternalSetTimeOutState
	movs	r0, #0
	.loc	3 3418 21 is_stmt 1             @ ../../../../Source/tasks.c:3418:21
	str	r0, [sp, #12]
	.loc	3 3419 9                        @ ../../../../Source/tasks.c:3419:9
	b	.LBB45_16
.Ltmp970:
.LBB45_15:
	.loc	3 3422 14                       @ ../../../../Source/tasks.c:3422:14
	ldr	r1, [sp, #16]
	movs	r0, #0
	.loc	3 3422 28 is_stmt 0             @ ../../../../Source/tasks.c:3422:28
	str	r0, [r1]
	movs	r0, #1
	.loc	3 3423 21 is_stmt 1             @ ../../../../Source/tasks.c:3423:21
	str	r0, [sp, #12]
	b	.LBB45_16
.Ltmp971:
.LBB45_16:
	.loc	3 0 21 is_stmt 0                @ ../../../../Source/tasks.c:0:21
	b	.LBB45_17
.LBB45_17:
	b	.LBB45_18
.LBB45_18:
	b	.LBB45_19
.LBB45_19:
	.loc	3 3426 5 is_stmt 1              @ ../../../../Source/tasks.c:3426:5
	bl	vPortExitCritical
	.loc	3 3428 12                       @ ../../../../Source/tasks.c:3428:12
	ldr	r0, [sp, #12]
	.loc	3 3428 5 is_stmt 0              @ ../../../../Source/tasks.c:3428:5
	add	sp, #24
	pop	{r7, pc}
.Ltmp972:
.Lfunc_end45:
	.size	xTaskCheckForTimeOut, .Lfunc_end45-xTaskCheckForTimeOut
	.cfi_endproc
	.cantunwind
	.fnend
                                        @ -- End function
	.hidden	vTaskMissedYield                @ -- Begin function vTaskMissedYield
	.globl	vTaskMissedYield
	.p2align	1
	.type	vTaskMissedYield,%function
	.code	16                              @ @vTaskMissedYield
	.thumb_func
vTaskMissedYield:
.Lfunc_begin46:
	.loc	3 3433 0 is_stmt 1              @ ../../../../Source/tasks.c:3433:0
	.fnstart
	.cfi_startproc
@ %bb.0:
	.loc	3 3434 19 prologue_end          @ ../../../../Source/tasks.c:3434:19
	movw	r1, :lower16:xYieldPending
	movt	r1, :upper16:xYieldPending
	movs	r0, #1
	str	r0, [r1]
	.loc	3 3435 1                        @ ../../../../Source/tasks.c:3435:1
	bx	lr
.Ltmp973:
.Lfunc_end46:
	.size	vTaskMissedYield, .Lfunc_end46-vTaskMissedYield
	.cfi_endproc
	.cantunwind
	.fnend
