	.text
	.syntax unified
	.eabi_attribute	67, "2.09"	@ Tag_conformance
	.eabi_attribute	6, 16	@ Tag_CPU_arch
	.eabi_attribute	7, 77	@ Tag_CPU_arch_profile
	.eabi_attribute	8, 0	@ Tag_ARM_ISA_use
	.eabi_attribute	9, 3	@ Tag_THUMB_ISA_use
	.eabi_attribute	34, 0	@ Tag_CPU_unaligned_access
	.eabi_attribute	17, 1	@ Tag_ABI_PCS_GOT_use
	.eabi_attribute	20, 2	@ Tag_ABI_FP_denormal
	.eabi_attribute	21, 0	@ Tag_ABI_FP_exceptions
	.eabi_attribute	23, 1	@ Tag_ABI_FP_number_model
	.eabi_attribute	24, 1	@ Tag_ABI_align_needed
	.eabi_attribute	25, 1	@ Tag_ABI_align_preserved
	.eabi_attribute	38, 1	@ Tag_ABI_FP_16bit_format
	.eabi_attribute	18, 4	@ Tag_ABI_PCS_wchar_t
	.eabi_attribute	26, 2	@ Tag_ABI_enum_size
	.eabi_attribute	14, 0	@ Tag_ABI_PCS_R9_use
	.file	"TestRunner.c"
	.file	1 "C:\\Keil_v5\\ARM\\ARMCLANG\\Bin\\..\\include" "stdint.h"
	.file	2 "C:\\Users\\karahulx\\Downloads\\Kernel\\FreeRTOS\\FreeRTOS\\Demo\\CORTEX_MPU_M23_Nuvoton_NuMaker_PFM_M2351_IAR_GCC\\Projects_NTZ\\Keil" "../../../../Source/portable/GCC/ARM_CM23_NTZ/non_secure/portmacrocommon.h"
	.file	3 "C:\\Users\\karahulx\\Downloads\\Kernel\\FreeRTOS\\FreeRTOS\\Demo\\CORTEX_MPU_M23_Nuvoton_NuMaker_PFM_M2351_IAR_GCC\\Projects_NTZ\\Keil" "../../../CORTEX_MPU_M3_NUCLEO_L152RE_GCC/Demo/TestRunner.c"
	.section	.text.vStartTests,"ax",%progbits
	.hidden	vStartTests                     @ -- Begin function vStartTests
	.globl	vStartTests
	.p2align	1
	.type	vStartTests,%function
	.code	16                              @ @vStartTests
	.thumb_func
vStartTests:
.Lfunc_begin0:
	.loc	3 102 0                         @ ../../../CORTEX_MPU_M3_NUCLEO_L152RE_GCC/Demo/TestRunner.c:102:0
	.fnstart
	.cfi_sections .debug_frame
	.cfi_startproc
@ %bb.0:
	.save	{r4, r5, r6, lr}
	push	{r4, r5, r6, lr}
	.cfi_def_cfa_offset 16
	.cfi_offset lr, -4
	.cfi_offset r6, -8
	.cfi_offset r5, -12
	.cfi_offset r4, -16
	.pad	#80
	sub	sp, #80
	.cfi_def_cfa_offset 96
.Ltmp0:
	.loc	3 105 19 prologue_end           @ ../../../CORTEX_MPU_M3_NUCLEO_L152RE_GCC/Demo/TestRunner.c:105:19
	movw	r2, :lower16:.L__const.vStartTests.xCheckTaskParameters
	movt	r2, :upper16:.L__const.vStartTests.xCheckTaskParameters
	add	r0, sp, #12
	mov	r1, r0
	ldm	r2!, {r3, r4, r5, r6}
	stm	r1!, {r3, r4, r5, r6}
	ldm	r2!, {r3, r4, r5, r6}
	stm	r1!, {r3, r4, r5, r6}
	ldm	r2!, {r3, r4, r5, r6}
	stm	r1!, {r3, r4, r5, r6}
	ldm	r2!, {r3, r4, r5, r6}
	stm	r1!, {r3, r4, r5, r6}
	movs	r1, #0
	.loc	3 120 12                        @ ../../../CORTEX_MPU_M3_NUCLEO_L152RE_GCC/Demo/TestRunner.c:120:12
	bl	xTaskCreateRestricted
	.loc	3 120 10 is_stmt 0              @ ../../../CORTEX_MPU_M3_NUCLEO_L152RE_GCC/Demo/TestRunner.c:120:10
	str	r0, [sp, #76]
.Ltmp1:
	.loc	3 122 6 is_stmt 1               @ ../../../CORTEX_MPU_M3_NUCLEO_L152RE_GCC/Demo/TestRunner.c:122:6
	ldr	r0, [sp, #76]
.Ltmp2:
	.loc	3 122 6 is_stmt 0               @ ../../../CORTEX_MPU_M3_NUCLEO_L152RE_GCC/Demo/TestRunner.c:122:6
	cmp	r0, #1
	bne	.LBB0_2
	b	.LBB0_1
.LBB0_1:
.Ltmp3:
	.loc	3 126 4 is_stmt 1               @ ../../../CORTEX_MPU_M3_NUCLEO_L152RE_GCC/Demo/TestRunner.c:126:4
	bl	vStartTaskNotifyTask
.Ltmp4:
	.loc	3 132 4                         @ ../../../CORTEX_MPU_M3_NUCLEO_L152RE_GCC/Demo/TestRunner.c:132:4
	bl	vStartTaskNotifyArrayTask
	movs	r0, #2
.Ltmp5:
	.loc	3 138 4                         @ ../../../CORTEX_MPU_M3_NUCLEO_L152RE_GCC/Demo/TestRunner.c:138:4
	bl	vStartBlockingQueueTasks
	movs	r0, #1
.Ltmp6:
	.loc	3 144 4                         @ ../../../CORTEX_MPU_M3_NUCLEO_L152RE_GCC/Demo/TestRunner.c:144:4
	str	r0, [sp, #4]                    @ 4-byte Spill
	bl	vStartSemaphoreTasks
	ldr	r0, [sp, #4]                    @ 4-byte Reload
.Ltmp7:
	.loc	3 150 4                         @ ../../../CORTEX_MPU_M3_NUCLEO_L152RE_GCC/Demo/TestRunner.c:150:4
	bl	vStartPolledQueueTasks
	movs	r0, #0
.Ltmp8:
	.loc	3 156 4                         @ ../../../CORTEX_MPU_M3_NUCLEO_L152RE_GCC/Demo/TestRunner.c:156:4
	str	r0, [sp, #8]                    @ 4-byte Spill
	bl	vStartIntegerMathTasks
	ldr	r0, [sp, #8]                    @ 4-byte Reload
.Ltmp9:
	.loc	3 162 4                         @ ../../../CORTEX_MPU_M3_NUCLEO_L152RE_GCC/Demo/TestRunner.c:162:4
	bl	vStartGenericQueueTasks
.Ltmp10:
	.loc	3 168 4                         @ ../../../CORTEX_MPU_M3_NUCLEO_L152RE_GCC/Demo/TestRunner.c:168:4
	bl	vStartQueuePeekTasks
	ldr	r0, [sp, #8]                    @ 4-byte Reload
.Ltmp11:
	.loc	3 174 4                         @ ../../../CORTEX_MPU_M3_NUCLEO_L152RE_GCC/Demo/TestRunner.c:174:4
	bl	vStartMathTasks
.Ltmp12:
	.loc	3 180 4                         @ ../../../CORTEX_MPU_M3_NUCLEO_L152RE_GCC/Demo/TestRunner.c:180:4
	bl	vStartRecursiveMutexTasks
.Ltmp13:
	.loc	3 186 4                         @ ../../../CORTEX_MPU_M3_NUCLEO_L152RE_GCC/Demo/TestRunner.c:186:4
	bl	vStartCountingSemaphoreTasks
.Ltmp14:
	.loc	3 192 4                         @ ../../../CORTEX_MPU_M3_NUCLEO_L152RE_GCC/Demo/TestRunner.c:192:4
	bl	vStartQueueSetTasks
	ldr	r0, [sp, #8]                    @ 4-byte Reload
.Ltmp15:
	.loc	3 198 4                         @ ../../../CORTEX_MPU_M3_NUCLEO_L152RE_GCC/Demo/TestRunner.c:198:4
	bl	vStartQueueOverwriteTask
.Ltmp16:
	.loc	3 204 4                         @ ../../../CORTEX_MPU_M3_NUCLEO_L152RE_GCC/Demo/TestRunner.c:204:4
	bl	vStartEventGroupTasks
.Ltmp17:
	.loc	3 210 4                         @ ../../../CORTEX_MPU_M3_NUCLEO_L152RE_GCC/Demo/TestRunner.c:210:4
	bl	vStartInterruptSemaphoreTasks
.Ltmp18:
	.loc	3 216 4                         @ ../../../CORTEX_MPU_M3_NUCLEO_L152RE_GCC/Demo/TestRunner.c:216:4
	bl	vStartQueueSetPollingTask
.Ltmp19:
	.loc	3 222 4                         @ ../../../CORTEX_MPU_M3_NUCLEO_L152RE_GCC/Demo/TestRunner.c:222:4
	bl	vCreateBlockTimeTasks
.Ltmp20:
	.loc	3 228 4                         @ ../../../CORTEX_MPU_M3_NUCLEO_L152RE_GCC/Demo/TestRunner.c:228:4
	bl	vCreateAbortDelayTasks
.Ltmp21:
	.loc	3 234 4                         @ ../../../CORTEX_MPU_M3_NUCLEO_L152RE_GCC/Demo/TestRunner.c:234:4
	bl	vStartDynamicPriorityTasks
	movs	r0, #128
.Ltmp22:
	.loc	3 240 4                         @ ../../../CORTEX_MPU_M3_NUCLEO_L152RE_GCC/Demo/TestRunner.c:240:4
	bl	vStartMessageBufferTasks
.Ltmp23:
	.loc	3 246 4                         @ ../../../CORTEX_MPU_M3_NUCLEO_L152RE_GCC/Demo/TestRunner.c:246:4
	bl	vStartStreamBufferTasks
.Ltmp24:
	.loc	3 252 4                         @ ../../../CORTEX_MPU_M3_NUCLEO_L152RE_GCC/Demo/TestRunner.c:252:4
	bl	vStartStreamBufferInterruptDemo
	movs	r0, #50
.Ltmp25:
	.loc	3 259 4                         @ ../../../CORTEX_MPU_M3_NUCLEO_L152RE_GCC/Demo/TestRunner.c:259:4
	bl	vStartTimerDemoTask
.Ltmp26:
	.loc	3 265 4                         @ ../../../CORTEX_MPU_M3_NUCLEO_L152RE_GCC/Demo/TestRunner.c:265:4
	bl	vStartInterruptQueueTasks
	ldr	r0, [sp, #8]                    @ 4-byte Reload
.Ltmp27:
	.loc	3 271 4                         @ ../../../CORTEX_MPU_M3_NUCLEO_L152RE_GCC/Demo/TestRunner.c:271:4
	bl	vStartRegisterTasks
.Ltmp28:
	.loc	3 284 2                         @ ../../../CORTEX_MPU_M3_NUCLEO_L152RE_GCC/Demo/TestRunner.c:284:2
	b	.LBB0_2
.Ltmp29:
.LBB0_2:
	.loc	3 286 2                         @ ../../../CORTEX_MPU_M3_NUCLEO_L152RE_GCC/Demo/TestRunner.c:286:2
	bl	vTaskStartScheduler
	.loc	3 287 1                         @ ../../../CORTEX_MPU_M3_NUCLEO_L152RE_GCC/Demo/TestRunner.c:287:1
	add	sp, #80
	pop	{r4, r5, r6, pc}
.Ltmp30:
.Lfunc_end0:
	.size	vStartTests, .Lfunc_end0-vStartTests
	.cfi_endproc
	.cantunwind
	.fnend
                                        @ -- End function
	.section	.text.prvCheckTask,"ax",%progbits
	.p2align	1                               @ -- Begin function prvCheckTask
	.type	prvCheckTask,%function
	.code	16                              @ @prvCheckTask
	.thumb_func
prvCheckTask:
.Lfunc_begin1:
	.loc	3 362 0                         @ ../../../CORTEX_MPU_M3_NUCLEO_L152RE_GCC/Demo/TestRunner.c:362:0
	.fnstart
	.cfi_startproc
@ %bb.0:
	.save	{r7, lr}
	push	{r7, lr}
	.cfi_def_cfa_offset 8
	.cfi_offset lr, -4
	.cfi_offset r7, -8
	.pad	#16
	sub	sp, #16
	.cfi_def_cfa_offset 24
	str	r0, [sp, #12]
	movw	r0, #500
.Ltmp31:
	.loc	3 364 18 prologue_end           @ ../../../CORTEX_MPU_M3_NUCLEO_L152RE_GCC/Demo/TestRunner.c:364:18
	str	r0, [sp, #4]
	.loc	3 370 18                        @ ../../../CORTEX_MPU_M3_NUCLEO_L152RE_GCC/Demo/TestRunner.c:370:18
	bl	MPU_xTaskGetTickCount
	.loc	3 370 16 is_stmt 0              @ ../../../CORTEX_MPU_M3_NUCLEO_L152RE_GCC/Demo/TestRunner.c:370:16
	str	r0, [sp, #8]
	.loc	3 372 2 is_stmt 1               @ ../../../CORTEX_MPU_M3_NUCLEO_L152RE_GCC/Demo/TestRunner.c:372:2
	b	.LBB1_1
.LBB1_1:                                @ =>This Inner Loop Header: Depth=1
.Ltmp32:
	.loc	3 375 3                         @ ../../../CORTEX_MPU_M3_NUCLEO_L152RE_GCC/Demo/TestRunner.c:375:3
	b	.LBB1_2
.LBB1_2:                                @   in Loop: Header=BB1_1 Depth=1
	.loc	3 0 3 is_stmt 0                 @ ../../../CORTEX_MPU_M3_NUCLEO_L152RE_GCC/Demo/TestRunner.c:0:3
	add	r0, sp, #8
	movw	r1, #500
.Ltmp33:
	.loc	3 375 3                         @ ../../../CORTEX_MPU_M3_NUCLEO_L152RE_GCC/Demo/TestRunner.c:375:3
	bl	MPU_xTaskDelayUntil
	b	.LBB1_3
.Ltmp34:
.LBB1_3:                                @   in Loop: Header=BB1_1 Depth=1
	.loc	3 379 8 is_stmt 1               @ ../../../CORTEX_MPU_M3_NUCLEO_L152RE_GCC/Demo/TestRunner.c:379:8
	bl	xAreTaskNotificationTasksStillRunning
.Ltmp35:
	.loc	3 379 8 is_stmt 0               @ ../../../CORTEX_MPU_M3_NUCLEO_L152RE_GCC/Demo/TestRunner.c:379:8
	cmp	r0, #1
	beq	.LBB1_5
	b	.LBB1_4
.LBB1_4:                                @   in Loop: Header=BB1_1 Depth=1
.Ltmp36:
	.loc	3 381 21 is_stmt 1              @ ../../../CORTEX_MPU_M3_NUCLEO_L152RE_GCC/Demo/TestRunner.c:381:21
	movw	r1, :lower16:pcStatusMessage
	movt	r1, :upper16:pcStatusMessage
	movw	r0, :lower16:.L.str.1
	movt	r0, :upper16:.L.str.1
	str	r0, [r1]
	.loc	3 382 4                         @ ../../../CORTEX_MPU_M3_NUCLEO_L152RE_GCC/Demo/TestRunner.c:382:4
	b	.LBB1_5
.Ltmp37:
.LBB1_5:                                @   in Loop: Header=BB1_1 Depth=1
	.loc	3 388 8                         @ ../../../CORTEX_MPU_M3_NUCLEO_L152RE_GCC/Demo/TestRunner.c:388:8
	bl	xAreTaskNotificationArrayTasksStillRunning
.Ltmp38:
	.loc	3 388 8 is_stmt 0               @ ../../../CORTEX_MPU_M3_NUCLEO_L152RE_GCC/Demo/TestRunner.c:388:8
	cmp	r0, #1
	beq	.LBB1_7
	b	.LBB1_6
.LBB1_6:                                @   in Loop: Header=BB1_1 Depth=1
.Ltmp39:
	.loc	3 390 21 is_stmt 1              @ ../../../CORTEX_MPU_M3_NUCLEO_L152RE_GCC/Demo/TestRunner.c:390:21
	movw	r1, :lower16:pcStatusMessage
	movt	r1, :upper16:pcStatusMessage
	movw	r0, :lower16:.L.str.2
	movt	r0, :upper16:.L.str.2
	str	r0, [r1]
	.loc	3 391 4                         @ ../../../CORTEX_MPU_M3_NUCLEO_L152RE_GCC/Demo/TestRunner.c:391:4
	b	.LBB1_7
.Ltmp40:
.LBB1_7:                                @   in Loop: Header=BB1_1 Depth=1
	.loc	3 397 8                         @ ../../../CORTEX_MPU_M3_NUCLEO_L152RE_GCC/Demo/TestRunner.c:397:8
	bl	xAreBlockingQueuesStillRunning
.Ltmp41:
	.loc	3 397 8 is_stmt 0               @ ../../../CORTEX_MPU_M3_NUCLEO_L152RE_GCC/Demo/TestRunner.c:397:8
	cmp	r0, #1
	beq	.LBB1_9
	b	.LBB1_8
.LBB1_8:                                @   in Loop: Header=BB1_1 Depth=1
.Ltmp42:
	.loc	3 399 21 is_stmt 1              @ ../../../CORTEX_MPU_M3_NUCLEO_L152RE_GCC/Demo/TestRunner.c:399:21
	movw	r1, :lower16:pcStatusMessage
	movt	r1, :upper16:pcStatusMessage
	movw	r0, :lower16:.L.str.3
	movt	r0, :upper16:.L.str.3
	str	r0, [r1]
	.loc	3 400 4                         @ ../../../CORTEX_MPU_M3_NUCLEO_L152RE_GCC/Demo/TestRunner.c:400:4
	b	.LBB1_9
.Ltmp43:
.LBB1_9:                                @   in Loop: Header=BB1_1 Depth=1
	.loc	3 406 8                         @ ../../../CORTEX_MPU_M3_NUCLEO_L152RE_GCC/Demo/TestRunner.c:406:8
	bl	xAreSemaphoreTasksStillRunning
.Ltmp44:
	.loc	3 406 8 is_stmt 0               @ ../../../CORTEX_MPU_M3_NUCLEO_L152RE_GCC/Demo/TestRunner.c:406:8
	cmp	r0, #1
	beq	.LBB1_11
	b	.LBB1_10
.LBB1_10:                               @   in Loop: Header=BB1_1 Depth=1
.Ltmp45:
	.loc	3 408 21 is_stmt 1              @ ../../../CORTEX_MPU_M3_NUCLEO_L152RE_GCC/Demo/TestRunner.c:408:21
	movw	r1, :lower16:pcStatusMessage
	movt	r1, :upper16:pcStatusMessage
	movw	r0, :lower16:.L.str.4
	movt	r0, :upper16:.L.str.4
	str	r0, [r1]
	.loc	3 409 4                         @ ../../../CORTEX_MPU_M3_NUCLEO_L152RE_GCC/Demo/TestRunner.c:409:4
	b	.LBB1_11
.Ltmp46:
.LBB1_11:                               @   in Loop: Header=BB1_1 Depth=1
	.loc	3 415 8                         @ ../../../CORTEX_MPU_M3_NUCLEO_L152RE_GCC/Demo/TestRunner.c:415:8
	bl	xArePollingQueuesStillRunning
.Ltmp47:
	.loc	3 415 8 is_stmt 0               @ ../../../CORTEX_MPU_M3_NUCLEO_L152RE_GCC/Demo/TestRunner.c:415:8
	cmp	r0, #1
	beq	.LBB1_13
	b	.LBB1_12
.LBB1_12:                               @   in Loop: Header=BB1_1 Depth=1
.Ltmp48:
	.loc	3 417 21 is_stmt 1              @ ../../../CORTEX_MPU_M3_NUCLEO_L152RE_GCC/Demo/TestRunner.c:417:21
	movw	r1, :lower16:pcStatusMessage
	movt	r1, :upper16:pcStatusMessage
	movw	r0, :lower16:.L.str.5
	movt	r0, :upper16:.L.str.5
	str	r0, [r1]
	.loc	3 418 4                         @ ../../../CORTEX_MPU_M3_NUCLEO_L152RE_GCC/Demo/TestRunner.c:418:4
	b	.LBB1_13
.Ltmp49:
.LBB1_13:                               @   in Loop: Header=BB1_1 Depth=1
	.loc	3 424 8                         @ ../../../CORTEX_MPU_M3_NUCLEO_L152RE_GCC/Demo/TestRunner.c:424:8
	bl	xAreIntegerMathsTaskStillRunning
.Ltmp50:
	.loc	3 424 8 is_stmt 0               @ ../../../CORTEX_MPU_M3_NUCLEO_L152RE_GCC/Demo/TestRunner.c:424:8
	cmp	r0, #1
	beq	.LBB1_15
	b	.LBB1_14
.LBB1_14:                               @   in Loop: Header=BB1_1 Depth=1
.Ltmp51:
	.loc	3 426 21 is_stmt 1              @ ../../../CORTEX_MPU_M3_NUCLEO_L152RE_GCC/Demo/TestRunner.c:426:21
	movw	r1, :lower16:pcStatusMessage
	movt	r1, :upper16:pcStatusMessage
	movw	r0, :lower16:.L.str.6
	movt	r0, :upper16:.L.str.6
	str	r0, [r1]
	.loc	3 427 4                         @ ../../../CORTEX_MPU_M3_NUCLEO_L152RE_GCC/Demo/TestRunner.c:427:4
	b	.LBB1_15
.Ltmp52:
.LBB1_15:                               @   in Loop: Header=BB1_1 Depth=1
	.loc	3 433 8                         @ ../../../CORTEX_MPU_M3_NUCLEO_L152RE_GCC/Demo/TestRunner.c:433:8
	bl	xAreGenericQueueTasksStillRunning
.Ltmp53:
	.loc	3 433 8 is_stmt 0               @ ../../../CORTEX_MPU_M3_NUCLEO_L152RE_GCC/Demo/TestRunner.c:433:8
	cmp	r0, #1
	beq	.LBB1_17
	b	.LBB1_16
.LBB1_16:                               @   in Loop: Header=BB1_1 Depth=1
.Ltmp54:
	.loc	3 435 21 is_stmt 1              @ ../../../CORTEX_MPU_M3_NUCLEO_L152RE_GCC/Demo/TestRunner.c:435:21
	movw	r1, :lower16:pcStatusMessage
	movt	r1, :upper16:pcStatusMessage
	movw	r0, :lower16:.L.str.7
	movt	r0, :upper16:.L.str.7
	str	r0, [r1]
	.loc	3 436 4                         @ ../../../CORTEX_MPU_M3_NUCLEO_L152RE_GCC/Demo/TestRunner.c:436:4
	b	.LBB1_17
.Ltmp55:
.LBB1_17:                               @   in Loop: Header=BB1_1 Depth=1
	.loc	3 442 8                         @ ../../../CORTEX_MPU_M3_NUCLEO_L152RE_GCC/Demo/TestRunner.c:442:8
	bl	xAreQueuePeekTasksStillRunning
.Ltmp56:
	.loc	3 442 8 is_stmt 0               @ ../../../CORTEX_MPU_M3_NUCLEO_L152RE_GCC/Demo/TestRunner.c:442:8
	cmp	r0, #1
	beq	.LBB1_19
	b	.LBB1_18
.LBB1_18:                               @   in Loop: Header=BB1_1 Depth=1
.Ltmp57:
	.loc	3 444 21 is_stmt 1              @ ../../../CORTEX_MPU_M3_NUCLEO_L152RE_GCC/Demo/TestRunner.c:444:21
	movw	r1, :lower16:pcStatusMessage
	movt	r1, :upper16:pcStatusMessage
	movw	r0, :lower16:.L.str.8
	movt	r0, :upper16:.L.str.8
	str	r0, [r1]
	.loc	3 445 4                         @ ../../../CORTEX_MPU_M3_NUCLEO_L152RE_GCC/Demo/TestRunner.c:445:4
	b	.LBB1_19
.Ltmp58:
.LBB1_19:                               @   in Loop: Header=BB1_1 Depth=1
	.loc	3 451 8                         @ ../../../CORTEX_MPU_M3_NUCLEO_L152RE_GCC/Demo/TestRunner.c:451:8
	bl	xAreMathsTaskStillRunning
.Ltmp59:
	.loc	3 451 8 is_stmt 0               @ ../../../CORTEX_MPU_M3_NUCLEO_L152RE_GCC/Demo/TestRunner.c:451:8
	cmp	r0, #1
	beq	.LBB1_21
	b	.LBB1_20
.LBB1_20:                               @   in Loop: Header=BB1_1 Depth=1
.Ltmp60:
	.loc	3 453 21 is_stmt 1              @ ../../../CORTEX_MPU_M3_NUCLEO_L152RE_GCC/Demo/TestRunner.c:453:21
	movw	r1, :lower16:pcStatusMessage
	movt	r1, :upper16:pcStatusMessage
	movw	r0, :lower16:.L.str.9
	movt	r0, :upper16:.L.str.9
	str	r0, [r1]
	.loc	3 454 4                         @ ../../../CORTEX_MPU_M3_NUCLEO_L152RE_GCC/Demo/TestRunner.c:454:4
	b	.LBB1_21
.Ltmp61:
.LBB1_21:                               @   in Loop: Header=BB1_1 Depth=1
	.loc	3 460 8                         @ ../../../CORTEX_MPU_M3_NUCLEO_L152RE_GCC/Demo/TestRunner.c:460:8
	bl	xAreRecursiveMutexTasksStillRunning
.Ltmp62:
	.loc	3 460 8 is_stmt 0               @ ../../../CORTEX_MPU_M3_NUCLEO_L152RE_GCC/Demo/TestRunner.c:460:8
	cmp	r0, #1
	beq	.LBB1_23
	b	.LBB1_22
.LBB1_22:                               @   in Loop: Header=BB1_1 Depth=1
.Ltmp63:
	.loc	3 462 21 is_stmt 1              @ ../../../CORTEX_MPU_M3_NUCLEO_L152RE_GCC/Demo/TestRunner.c:462:21
	movw	r1, :lower16:pcStatusMessage
	movt	r1, :upper16:pcStatusMessage
	movw	r0, :lower16:.L.str.10
	movt	r0, :upper16:.L.str.10
	str	r0, [r1]
	.loc	3 463 4                         @ ../../../CORTEX_MPU_M3_NUCLEO_L152RE_GCC/Demo/TestRunner.c:463:4
	b	.LBB1_23
.Ltmp64:
.LBB1_23:                               @   in Loop: Header=BB1_1 Depth=1
	.loc	3 469 8                         @ ../../../CORTEX_MPU_M3_NUCLEO_L152RE_GCC/Demo/TestRunner.c:469:8
	bl	xAreCountingSemaphoreTasksStillRunning
.Ltmp65:
	.loc	3 469 8 is_stmt 0               @ ../../../CORTEX_MPU_M3_NUCLEO_L152RE_GCC/Demo/TestRunner.c:469:8
	cmp	r0, #1
	beq	.LBB1_25
	b	.LBB1_24
.LBB1_24:                               @   in Loop: Header=BB1_1 Depth=1
.Ltmp66:
	.loc	3 471 21 is_stmt 1              @ ../../../CORTEX_MPU_M3_NUCLEO_L152RE_GCC/Demo/TestRunner.c:471:21
	movw	r1, :lower16:pcStatusMessage
	movt	r1, :upper16:pcStatusMessage
	movw	r0, :lower16:.L.str.11
	movt	r0, :upper16:.L.str.11
	str	r0, [r1]
	.loc	3 472 4                         @ ../../../CORTEX_MPU_M3_NUCLEO_L152RE_GCC/Demo/TestRunner.c:472:4
	b	.LBB1_25
.Ltmp67:
.LBB1_25:                               @   in Loop: Header=BB1_1 Depth=1
	.loc	3 478 8                         @ ../../../CORTEX_MPU_M3_NUCLEO_L152RE_GCC/Demo/TestRunner.c:478:8
	bl	xAreQueueSetTasksStillRunning
.Ltmp68:
	.loc	3 478 8 is_stmt 0               @ ../../../CORTEX_MPU_M3_NUCLEO_L152RE_GCC/Demo/TestRunner.c:478:8
	cmp	r0, #1
	beq	.LBB1_27
	b	.LBB1_26
.LBB1_26:                               @   in Loop: Header=BB1_1 Depth=1
.Ltmp69:
	.loc	3 480 21 is_stmt 1              @ ../../../CORTEX_MPU_M3_NUCLEO_L152RE_GCC/Demo/TestRunner.c:480:21
	movw	r1, :lower16:pcStatusMessage
	movt	r1, :upper16:pcStatusMessage
	movw	r0, :lower16:.L.str.12
	movt	r0, :upper16:.L.str.12
	str	r0, [r1]
	.loc	3 481 4                         @ ../../../CORTEX_MPU_M3_NUCLEO_L152RE_GCC/Demo/TestRunner.c:481:4
	b	.LBB1_27
.Ltmp70:
.LBB1_27:                               @   in Loop: Header=BB1_1 Depth=1
	.loc	3 487 8                         @ ../../../CORTEX_MPU_M3_NUCLEO_L152RE_GCC/Demo/TestRunner.c:487:8
	bl	xIsQueueOverwriteTaskStillRunning
.Ltmp71:
	.loc	3 487 8 is_stmt 0               @ ../../../CORTEX_MPU_M3_NUCLEO_L152RE_GCC/Demo/TestRunner.c:487:8
	cmp	r0, #1
	beq	.LBB1_29
	b	.LBB1_28
.LBB1_28:                               @   in Loop: Header=BB1_1 Depth=1
.Ltmp72:
	.loc	3 489 21 is_stmt 1              @ ../../../CORTEX_MPU_M3_NUCLEO_L152RE_GCC/Demo/TestRunner.c:489:21
	movw	r1, :lower16:pcStatusMessage
	movt	r1, :upper16:pcStatusMessage
	movw	r0, :lower16:.L.str.13
	movt	r0, :upper16:.L.str.13
	str	r0, [r1]
	.loc	3 490 4                         @ ../../../CORTEX_MPU_M3_NUCLEO_L152RE_GCC/Demo/TestRunner.c:490:4
	b	.LBB1_29
.Ltmp73:
.LBB1_29:                               @   in Loop: Header=BB1_1 Depth=1
	.loc	3 496 8                         @ ../../../CORTEX_MPU_M3_NUCLEO_L152RE_GCC/Demo/TestRunner.c:496:8
	bl	xAreEventGroupTasksStillRunning
.Ltmp74:
	.loc	3 496 8 is_stmt 0               @ ../../../CORTEX_MPU_M3_NUCLEO_L152RE_GCC/Demo/TestRunner.c:496:8
	cmp	r0, #1
	beq	.LBB1_31
	b	.LBB1_30
.LBB1_30:                               @   in Loop: Header=BB1_1 Depth=1
.Ltmp75:
	.loc	3 498 21 is_stmt 1              @ ../../../CORTEX_MPU_M3_NUCLEO_L152RE_GCC/Demo/TestRunner.c:498:21
	movw	r1, :lower16:pcStatusMessage
	movt	r1, :upper16:pcStatusMessage
	movw	r0, :lower16:.L.str.14
	movt	r0, :upper16:.L.str.14
	str	r0, [r1]
	.loc	3 499 4                         @ ../../../CORTEX_MPU_M3_NUCLEO_L152RE_GCC/Demo/TestRunner.c:499:4
	b	.LBB1_31
.Ltmp76:
.LBB1_31:                               @   in Loop: Header=BB1_1 Depth=1
	.loc	3 505 8                         @ ../../../CORTEX_MPU_M3_NUCLEO_L152RE_GCC/Demo/TestRunner.c:505:8
	bl	xAreInterruptSemaphoreTasksStillRunning
.Ltmp77:
	.loc	3 505 8 is_stmt 0               @ ../../../CORTEX_MPU_M3_NUCLEO_L152RE_GCC/Demo/TestRunner.c:505:8
	cmp	r0, #1
	beq	.LBB1_33
	b	.LBB1_32
.LBB1_32:                               @   in Loop: Header=BB1_1 Depth=1
.Ltmp78:
	.loc	3 507 21 is_stmt 1              @ ../../../CORTEX_MPU_M3_NUCLEO_L152RE_GCC/Demo/TestRunner.c:507:21
	movw	r1, :lower16:pcStatusMessage
	movt	r1, :upper16:pcStatusMessage
	movw	r0, :lower16:.L.str.15
	movt	r0, :upper16:.L.str.15
	str	r0, [r1]
	.loc	3 508 4                         @ ../../../CORTEX_MPU_M3_NUCLEO_L152RE_GCC/Demo/TestRunner.c:508:4
	b	.LBB1_33
.Ltmp79:
.LBB1_33:                               @   in Loop: Header=BB1_1 Depth=1
	.loc	3 514 8                         @ ../../../CORTEX_MPU_M3_NUCLEO_L152RE_GCC/Demo/TestRunner.c:514:8
	bl	xAreQueueSetPollTasksStillRunning
.Ltmp80:
	.loc	3 514 8 is_stmt 0               @ ../../../CORTEX_MPU_M3_NUCLEO_L152RE_GCC/Demo/TestRunner.c:514:8
	cmp	r0, #1
	beq	.LBB1_35
	b	.LBB1_34
.LBB1_34:                               @   in Loop: Header=BB1_1 Depth=1
.Ltmp81:
	.loc	3 516 21 is_stmt 1              @ ../../../CORTEX_MPU_M3_NUCLEO_L152RE_GCC/Demo/TestRunner.c:516:21
	movw	r1, :lower16:pcStatusMessage
	movt	r1, :upper16:pcStatusMessage
	movw	r0, :lower16:.L.str.16
	movt	r0, :upper16:.L.str.16
	str	r0, [r1]
	.loc	3 517 4                         @ ../../../CORTEX_MPU_M3_NUCLEO_L152RE_GCC/Demo/TestRunner.c:517:4
	b	.LBB1_35
.Ltmp82:
.LBB1_35:                               @   in Loop: Header=BB1_1 Depth=1
	.loc	3 523 8                         @ ../../../CORTEX_MPU_M3_NUCLEO_L152RE_GCC/Demo/TestRunner.c:523:8
	bl	xAreBlockTimeTestTasksStillRunning
.Ltmp83:
	.loc	3 523 8 is_stmt 0               @ ../../../CORTEX_MPU_M3_NUCLEO_L152RE_GCC/Demo/TestRunner.c:523:8
	cmp	r0, #1
	beq	.LBB1_37
	b	.LBB1_36
.LBB1_36:                               @   in Loop: Header=BB1_1 Depth=1
.Ltmp84:
	.loc	3 525 21 is_stmt 1              @ ../../../CORTEX_MPU_M3_NUCLEO_L152RE_GCC/Demo/TestRunner.c:525:21
	movw	r1, :lower16:pcStatusMessage
	movt	r1, :upper16:pcStatusMessage
	movw	r0, :lower16:.L.str.17
	movt	r0, :upper16:.L.str.17
	str	r0, [r1]
	.loc	3 526 4                         @ ../../../CORTEX_MPU_M3_NUCLEO_L152RE_GCC/Demo/TestRunner.c:526:4
	b	.LBB1_37
.Ltmp85:
.LBB1_37:                               @   in Loop: Header=BB1_1 Depth=1
	.loc	3 532 8                         @ ../../../CORTEX_MPU_M3_NUCLEO_L152RE_GCC/Demo/TestRunner.c:532:8
	bl	xAreAbortDelayTestTasksStillRunning
.Ltmp86:
	.loc	3 532 8 is_stmt 0               @ ../../../CORTEX_MPU_M3_NUCLEO_L152RE_GCC/Demo/TestRunner.c:532:8
	cmp	r0, #1
	beq	.LBB1_39
	b	.LBB1_38
.LBB1_38:                               @   in Loop: Header=BB1_1 Depth=1
.Ltmp87:
	.loc	3 534 21 is_stmt 1              @ ../../../CORTEX_MPU_M3_NUCLEO_L152RE_GCC/Demo/TestRunner.c:534:21
	movw	r1, :lower16:pcStatusMessage
	movt	r1, :upper16:pcStatusMessage
	movw	r0, :lower16:.L.str.18
	movt	r0, :upper16:.L.str.18
	str	r0, [r1]
	.loc	3 535 4                         @ ../../../CORTEX_MPU_M3_NUCLEO_L152RE_GCC/Demo/TestRunner.c:535:4
	b	.LBB1_39
.Ltmp88:
.LBB1_39:                               @   in Loop: Header=BB1_1 Depth=1
	.loc	3 541 7                         @ ../../../CORTEX_MPU_M3_NUCLEO_L152RE_GCC/Demo/TestRunner.c:541:7
	bl	xAreDynamicPriorityTasksStillRunning
.Ltmp89:
	.loc	3 541 7 is_stmt 0               @ ../../../CORTEX_MPU_M3_NUCLEO_L152RE_GCC/Demo/TestRunner.c:541:7
	cmp	r0, #1
	beq	.LBB1_41
	b	.LBB1_40
.LBB1_40:                               @   in Loop: Header=BB1_1 Depth=1
.Ltmp90:
	.loc	3 543 20 is_stmt 1              @ ../../../CORTEX_MPU_M3_NUCLEO_L152RE_GCC/Demo/TestRunner.c:543:20
	movw	r1, :lower16:pcStatusMessage
	movt	r1, :upper16:pcStatusMessage
	movw	r0, :lower16:.L.str.19
	movt	r0, :upper16:.L.str.19
	str	r0, [r1]
	.loc	3 544 3                         @ ../../../CORTEX_MPU_M3_NUCLEO_L152RE_GCC/Demo/TestRunner.c:544:3
	b	.LBB1_41
.Ltmp91:
.LBB1_41:                               @   in Loop: Header=BB1_1 Depth=1
	.loc	3 550 8                         @ ../../../CORTEX_MPU_M3_NUCLEO_L152RE_GCC/Demo/TestRunner.c:550:8
	bl	xAreMessageBufferTasksStillRunning
.Ltmp92:
	.loc	3 550 8 is_stmt 0               @ ../../../CORTEX_MPU_M3_NUCLEO_L152RE_GCC/Demo/TestRunner.c:550:8
	cmp	r0, #1
	beq	.LBB1_43
	b	.LBB1_42
.LBB1_42:                               @   in Loop: Header=BB1_1 Depth=1
.Ltmp93:
	.loc	3 552 21 is_stmt 1              @ ../../../CORTEX_MPU_M3_NUCLEO_L152RE_GCC/Demo/TestRunner.c:552:21
	movw	r1, :lower16:pcStatusMessage
	movt	r1, :upper16:pcStatusMessage
	movw	r0, :lower16:.L.str.20
	movt	r0, :upper16:.L.str.20
	str	r0, [r1]
	.loc	3 553 4                         @ ../../../CORTEX_MPU_M3_NUCLEO_L152RE_GCC/Demo/TestRunner.c:553:4
	b	.LBB1_43
.Ltmp94:
.LBB1_43:                               @   in Loop: Header=BB1_1 Depth=1
	.loc	3 559 8                         @ ../../../CORTEX_MPU_M3_NUCLEO_L152RE_GCC/Demo/TestRunner.c:559:8
	bl	xAreStreamBufferTasksStillRunning
.Ltmp95:
	.loc	3 559 8 is_stmt 0               @ ../../../CORTEX_MPU_M3_NUCLEO_L152RE_GCC/Demo/TestRunner.c:559:8
	cmp	r0, #1
	beq	.LBB1_45
	b	.LBB1_44
.LBB1_44:                               @   in Loop: Header=BB1_1 Depth=1
.Ltmp96:
	.loc	3 561 21 is_stmt 1              @ ../../../CORTEX_MPU_M3_NUCLEO_L152RE_GCC/Demo/TestRunner.c:561:21
	movw	r1, :lower16:pcStatusMessage
	movt	r1, :upper16:pcStatusMessage
	movw	r0, :lower16:.L.str.21
	movt	r0, :upper16:.L.str.21
	str	r0, [r1]
	.loc	3 562 4                         @ ../../../CORTEX_MPU_M3_NUCLEO_L152RE_GCC/Demo/TestRunner.c:562:4
	b	.LBB1_45
.Ltmp97:
.LBB1_45:                               @   in Loop: Header=BB1_1 Depth=1
	.loc	3 568 8                         @ ../../../CORTEX_MPU_M3_NUCLEO_L152RE_GCC/Demo/TestRunner.c:568:8
	bl	xIsInterruptStreamBufferDemoStillRunning
.Ltmp98:
	.loc	3 568 8 is_stmt 0               @ ../../../CORTEX_MPU_M3_NUCLEO_L152RE_GCC/Demo/TestRunner.c:568:8
	cmp	r0, #1
	beq	.LBB1_47
	b	.LBB1_46
.LBB1_46:                               @   in Loop: Header=BB1_1 Depth=1
.Ltmp99:
	.loc	3 570 21 is_stmt 1              @ ../../../CORTEX_MPU_M3_NUCLEO_L152RE_GCC/Demo/TestRunner.c:570:21
	movw	r1, :lower16:pcStatusMessage
	movt	r1, :upper16:pcStatusMessage
	movw	r0, :lower16:.L.str.22
	movt	r0, :upper16:.L.str.22
	str	r0, [r1]
	.loc	3 571 4                         @ ../../../CORTEX_MPU_M3_NUCLEO_L152RE_GCC/Demo/TestRunner.c:571:4
	b	.LBB1_47
.Ltmp100:
.LBB1_47:                               @   in Loop: Header=BB1_1 Depth=1
	.loc	3 0 4 is_stmt 0                 @ ../../../CORTEX_MPU_M3_NUCLEO_L152RE_GCC/Demo/TestRunner.c:0:4
	movw	r0, #500
.Ltmp101:
	.loc	3 577 8 is_stmt 1               @ ../../../CORTEX_MPU_M3_NUCLEO_L152RE_GCC/Demo/TestRunner.c:577:8
	bl	xAreTimerDemoTasksStillRunning
.Ltmp102:
	.loc	3 577 8 is_stmt 0               @ ../../../CORTEX_MPU_M3_NUCLEO_L152RE_GCC/Demo/TestRunner.c:577:8
	cmp	r0, #1
	beq	.LBB1_49
	b	.LBB1_48
.LBB1_48:                               @   in Loop: Header=BB1_1 Depth=1
.Ltmp103:
	.loc	3 579 21 is_stmt 1              @ ../../../CORTEX_MPU_M3_NUCLEO_L152RE_GCC/Demo/TestRunner.c:579:21
	movw	r1, :lower16:pcStatusMessage
	movt	r1, :upper16:pcStatusMessage
	movw	r0, :lower16:.L.str.23
	movt	r0, :upper16:.L.str.23
	str	r0, [r1]
	.loc	3 580 4                         @ ../../../CORTEX_MPU_M3_NUCLEO_L152RE_GCC/Demo/TestRunner.c:580:4
	b	.LBB1_49
.Ltmp104:
.LBB1_49:                               @   in Loop: Header=BB1_1 Depth=1
	.loc	3 586 8                         @ ../../../CORTEX_MPU_M3_NUCLEO_L152RE_GCC/Demo/TestRunner.c:586:8
	bl	xAreIntQueueTasksStillRunning
.Ltmp105:
	.loc	3 586 8 is_stmt 0               @ ../../../CORTEX_MPU_M3_NUCLEO_L152RE_GCC/Demo/TestRunner.c:586:8
	cmp	r0, #1
	beq	.LBB1_51
	b	.LBB1_50
.LBB1_50:                               @   in Loop: Header=BB1_1 Depth=1
.Ltmp106:
	.loc	3 588 21 is_stmt 1              @ ../../../CORTEX_MPU_M3_NUCLEO_L152RE_GCC/Demo/TestRunner.c:588:21
	movw	r1, :lower16:pcStatusMessage
	movt	r1, :upper16:pcStatusMessage
	movw	r0, :lower16:.L.str.24
	movt	r0, :upper16:.L.str.24
	str	r0, [r1]
	.loc	3 589 4                         @ ../../../CORTEX_MPU_M3_NUCLEO_L152RE_GCC/Demo/TestRunner.c:589:4
	b	.LBB1_51
.Ltmp107:
.LBB1_51:                               @   in Loop: Header=BB1_1 Depth=1
	.loc	3 595 8                         @ ../../../CORTEX_MPU_M3_NUCLEO_L152RE_GCC/Demo/TestRunner.c:595:8
	bl	xAreRegisterTasksStillRunning
.Ltmp108:
	.loc	3 595 8 is_stmt 0               @ ../../../CORTEX_MPU_M3_NUCLEO_L152RE_GCC/Demo/TestRunner.c:595:8
	cmp	r0, #1
	beq	.LBB1_53
	b	.LBB1_52
.LBB1_52:                               @   in Loop: Header=BB1_1 Depth=1
.Ltmp109:
	.loc	3 597 21 is_stmt 1              @ ../../../CORTEX_MPU_M3_NUCLEO_L152RE_GCC/Demo/TestRunner.c:597:21
	movw	r1, :lower16:pcStatusMessage
	movt	r1, :upper16:pcStatusMessage
	movw	r0, :lower16:.L.str.25
	movt	r0, :upper16:.L.str.25
	str	r0, [r1]
	.loc	3 598 4                         @ ../../../CORTEX_MPU_M3_NUCLEO_L152RE_GCC/Demo/TestRunner.c:598:4
	b	.LBB1_53
.Ltmp110:
.LBB1_53:                               @   in Loop: Header=BB1_1 Depth=1
	.loc	3 611 3                         @ ../../../CORTEX_MPU_M3_NUCLEO_L152RE_GCC/Demo/TestRunner.c:611:3
	movw	r0, :lower16:pcStatusMessage
	movt	r0, :upper16:pcStatusMessage
	ldr	r1, [r0]
	movw	r0, :lower16:.L.str.26
	movt	r0, :upper16:.L.str.26
	bl	printf
.Ltmp111:
	.loc	3 372 2                         @ ../../../CORTEX_MPU_M3_NUCLEO_L152RE_GCC/Demo/TestRunner.c:372:2
	b	.LBB1_1
.Ltmp112:
.Lfunc_end1:
	.size	prvCheckTask, .Lfunc_end1-prvCheckTask
	.cfi_endproc
	.cantunwind
	.fnend
                                        @ -- End function
	.section	.text.vApplicationTickHook,"ax",%progbits
	.hidden	vApplicationTickHook            @ -- Begin function vApplicationTickHook
	.globl	vApplicationTickHook
	.p2align	1
	.type	vApplicationTickHook,%function
	.code	16                              @ @vApplicationTickHook
	.thumb_func
vApplicationTickHook:
.Lfunc_begin2:
	.loc	3 291 0                         @ ../../../CORTEX_MPU_M3_NUCLEO_L152RE_GCC/Demo/TestRunner.c:291:0
	.fnstart
	.cfi_startproc
@ %bb.0:
	.save	{r7, lr}
	push	{r7, lr}
	.cfi_def_cfa_offset 8
	.cfi_offset lr, -4
	.cfi_offset r7, -8
.Ltmp113:
	.loc	3 294 3 prologue_end            @ ../../../CORTEX_MPU_M3_NUCLEO_L152RE_GCC/Demo/TestRunner.c:294:3
	bl	xNotifyTaskFromISR
.Ltmp114:
	.loc	3 300 3                         @ ../../../CORTEX_MPU_M3_NUCLEO_L152RE_GCC/Demo/TestRunner.c:300:3
	bl	xNotifyArrayTaskFromISR
.Ltmp115:
	.loc	3 306 3                         @ ../../../CORTEX_MPU_M3_NUCLEO_L152RE_GCC/Demo/TestRunner.c:306:3
	bl	vQueueSetAccessQueueSetFromISR
.Ltmp116:
	.loc	3 312 3                         @ ../../../CORTEX_MPU_M3_NUCLEO_L152RE_GCC/Demo/TestRunner.c:312:3
	bl	vQueueOverwritePeriodicISRDemo
.Ltmp117:
	.loc	3 318 3                         @ ../../../CORTEX_MPU_M3_NUCLEO_L152RE_GCC/Demo/TestRunner.c:318:3
	bl	vPeriodicEventGroupsProcessing
.Ltmp118:
	.loc	3 324 3                         @ ../../../CORTEX_MPU_M3_NUCLEO_L152RE_GCC/Demo/TestRunner.c:324:3
	bl	vInterruptSemaphorePeriodicTest
.Ltmp119:
	.loc	3 330 3                         @ ../../../CORTEX_MPU_M3_NUCLEO_L152RE_GCC/Demo/TestRunner.c:330:3
	bl	vQueueSetPollingInterruptAccess
.Ltmp120:
	.loc	3 336 3                         @ ../../../CORTEX_MPU_M3_NUCLEO_L152RE_GCC/Demo/TestRunner.c:336:3
	bl	vPeriodicStreamBufferProcessing
.Ltmp121:
	.loc	3 342 3                         @ ../../../CORTEX_MPU_M3_NUCLEO_L152RE_GCC/Demo/TestRunner.c:342:3
	bl	vBasicStreamBufferSendFromISR
.Ltmp122:
	.loc	3 349 3                         @ ../../../CORTEX_MPU_M3_NUCLEO_L152RE_GCC/Demo/TestRunner.c:349:3
	bl	vTimerPeriodicISRTests
.Ltmp123:
	.loc	3 355 3                         @ ../../../CORTEX_MPU_M3_NUCLEO_L152RE_GCC/Demo/TestRunner.c:355:3
	b	.LBB2_1
.LBB2_1:
.Ltmp124:
	.loc	3 355 3 is_stmt 0               @ ../../../CORTEX_MPU_M3_NUCLEO_L152RE_GCC/Demo/TestRunner.c:355:3
	bl	xFirstTimerHandler
.Ltmp125:
	.loc	3 355 3                         @ ../../../CORTEX_MPU_M3_NUCLEO_L152RE_GCC/Demo/TestRunner.c:355:3
	cbz	r0, .LBB2_3
	b	.LBB2_2
.LBB2_2:
	.loc	3 0 3                           @ ../../../CORTEX_MPU_M3_NUCLEO_L152RE_GCC/Demo/TestRunner.c:0:3
	movs	r0, #1
	lsls	r0, r0, #28
	movw	r1, #60676
	movt	r1, #57344
.Ltmp126:
	.loc	3 355 3                         @ ../../../CORTEX_MPU_M3_NUCLEO_L152RE_GCC/Demo/TestRunner.c:355:3
	str	r0, [r1]
	b	.LBB2_3
.Ltmp127:
.LBB2_3:
	.loc	3 355 3                         @ ../../../CORTEX_MPU_M3_NUCLEO_L152RE_GCC/Demo/TestRunner.c:355:3
	b	.LBB2_4
.Ltmp128:
.LBB2_4:
	.loc	3 358 1 is_stmt 1               @ ../../../CORTEX_MPU_M3_NUCLEO_L152RE_GCC/Demo/TestRunner.c:358:1
	pop	{r7, pc}
.Ltmp129:
.Lfunc_end2:
	.size	vApplicationTickHook, .Lfunc_end2-vApplicationTickHook
	.cfi_endproc
	.cantunwind
	.fnend
                                        @ -- End function
	.type	vStartTests.xCheckTaskStack,%object @ @vStartTests.xCheckTaskStack
	.section	.bss.vStartTests.xCheckTaskStack,"aw",%nobits
	.p2align	9, 0x0
vStartTests.xCheckTaskStack:
	.zero	512
	.size	vStartTests.xCheckTaskStack, 512

	.type	.L.str,%object                  @ @.str
	.section	.rodata.str1.1,"aMS",%progbits,1
.L.str:
	.asciz	"Check"
	.size	.L.str, 6

	.type	.L__const.vStartTests.xCheckTaskParameters,%object @ @__const.vStartTests.xCheckTaskParameters
	.section	.rodata..L__const.vStartTests.xCheckTaskParameters,"a",%progbits
	.p2align	2, 0x0
.L__const.vStartTests.xCheckTaskParameters:
	.long	prvCheckTask
	.long	.L.str
	.short	128                             @ 0x80
	.zero	2
	.long	0
	.long	2147483651                      @ 0x80000003
	.long	vStartTests.xCheckTaskStack
	.zero	36
	.long	0
	.size	.L__const.vStartTests.xCheckTaskParameters, 64

	.type	.L.str.1,%object                @ @.str.1
	.section	.rodata.str1.1,"aMS",%progbits,1
.L.str.1:
	.asciz	"Error:  Notification"
	.size	.L.str.1, 21

	.type	pcStatusMessage,%object         @ @pcStatusMessage
	.section	.data.pcStatusMessage,"aw",%progbits
	.p2align	2, 0x0
pcStatusMessage:
	.long	.L.str.27
	.size	pcStatusMessage, 4

	.type	.L.str.2,%object                @ @.str.2
	.section	.rodata.str1.1,"aMS",%progbits,1
.L.str.2:
	.asciz	"Error:  Notification Array"
	.size	.L.str.2, 27

	.type	.L.str.3,%object                @ @.str.3
.L.str.3:
	.asciz	"Error: BlockQueue"
	.size	.L.str.3, 18

	.type	.L.str.4,%object                @ @.str.4
.L.str.4:
	.asciz	"Error: SemTest"
	.size	.L.str.4, 15

	.type	.L.str.5,%object                @ @.str.5
.L.str.5:
	.asciz	"Error: PollQueue"
	.size	.L.str.5, 17

	.type	.L.str.6,%object                @ @.str.6
.L.str.6:
	.asciz	"Error: IntMath"
	.size	.L.str.6, 15

	.type	.L.str.7,%object                @ @.str.7
.L.str.7:
	.asciz	"Error: GenQueue"
	.size	.L.str.7, 16

	.type	.L.str.8,%object                @ @.str.8
.L.str.8:
	.asciz	"Error: QueuePeek"
	.size	.L.str.8, 17

	.type	.L.str.9,%object                @ @.str.9
.L.str.9:
	.asciz	"Error: Flop"
	.size	.L.str.9, 12

	.type	.L.str.10,%object               @ @.str.10
.L.str.10:
	.asciz	"Error: RecMutex"
	.size	.L.str.10, 16

	.type	.L.str.11,%object               @ @.str.11
.L.str.11:
	.asciz	"Error: CountSem"
	.size	.L.str.11, 16

	.type	.L.str.12,%object               @ @.str.12
.L.str.12:
	.asciz	"Error: Queue set"
	.size	.L.str.12, 17

	.type	.L.str.13,%object               @ @.str.13
.L.str.13:
	.asciz	"Error: Queue overwrite"
	.size	.L.str.13, 23

	.type	.L.str.14,%object               @ @.str.14
.L.str.14:
	.asciz	"Error: EventGroup"
	.size	.L.str.14, 18

	.type	.L.str.15,%object               @ @.str.15
.L.str.15:
	.asciz	"Error: IntSem"
	.size	.L.str.15, 14

	.type	.L.str.16,%object               @ @.str.16
.L.str.16:
	.asciz	"Error: Queue set polling"
	.size	.L.str.16, 25

	.type	.L.str.17,%object               @ @.str.17
.L.str.17:
	.asciz	"Error: Block time"
	.size	.L.str.17, 18

	.type	.L.str.18,%object               @ @.str.18
.L.str.18:
	.asciz	"Error: Abort delay"
	.size	.L.str.18, 19

	.type	.L.str.19,%object               @ @.str.19
.L.str.19:
	.asciz	"Error: Dynamic Task"
	.size	.L.str.19, 20

	.type	.L.str.20,%object               @ @.str.20
.L.str.20:
	.asciz	"Error:  MessageBuffer"
	.size	.L.str.20, 22

	.type	.L.str.21,%object               @ @.str.21
.L.str.21:
	.asciz	"Error:  StreamBuffer"
	.size	.L.str.21, 21

	.type	.L.str.22,%object               @ @.str.22
.L.str.22:
	.asciz	"Error: Stream buffer interrupt"
	.size	.L.str.22, 31

	.type	.L.str.23,%object               @ @.str.23
.L.str.23:
	.asciz	"Error: TimerDemo"
	.size	.L.str.23, 17

	.type	.L.str.24,%object               @ @.str.24
.L.str.24:
	.asciz	"Error: IntQueue"
	.size	.L.str.24, 16

	.type	.L.str.25,%object               @ @.str.25
.L.str.25:
	.asciz	"Error: RegTests"
	.size	.L.str.25, 16

	.type	.L.str.26,%object               @ @.str.26
.L.str.26:
	.asciz	"%s \r\n"
	.size	.L.str.26, 6

	.type	.L.str.27,%object               @ @.str.27
.L.str.27:
	.asciz	"No errors"
	.size	.L.str.27, 10

	.file	4 "C:\\Users\\karahulx\\Downloads\\Kernel\\FreeRTOS\\FreeRTOS\\Demo\\CORTEX_MPU_M23_Nuvoton_NuMaker_PFM_M2351_IAR_GCC\\Projects_NTZ\\Keil" "../../../../Source/include/projdefs.h"
	.file	5 "C:\\Users\\karahulx\\Downloads\\Kernel\\FreeRTOS\\FreeRTOS\\Demo\\CORTEX_MPU_M23_Nuvoton_NuMaker_PFM_M2351_IAR_GCC\\Projects_NTZ\\Keil" "../../../../Source/include/task.h"
	.file	6 "C:\\Users\\karahulx\\Downloads\\Kernel\\FreeRTOS\\FreeRTOS\\Demo\\CORTEX_MPU_M23_Nuvoton_NuMaker_PFM_M2351_IAR_GCC\\Projects_NTZ\\Keil" "../../../../Source/include\\FreeRTOS.h"
	.section	".note.GNU-stack","",%progbits
	.eabi_attribute	30, 6	@ Tag_ABI_optimization_goals
	.ARM_attribute	16, 1	@ Tag_AV_eba