	.text
	.syntax unified
	.eabi_attribute	67, "2.09"	@ Tag_conformance
	.eabi_attribute	6, 16	@ Tag_CPU_arch
	.eabi_attribute	7, 77	@ Tag_CPU_arch_profile
	.eabi_attribute	8, 0	@ Tag_ARM_ISA_use
	.eabi_attribute	9, 3	@ Tag_THUMB_ISA_use
	.eabi_attribute	34, 0	@ Tag_CPU_unaligned_access
	.eabi_attribute	17, 1	@ Tag_ABI_PCS_GOT_use
	.eabi_attribute	20, 2	@ Tag_ABI_FP_denormal
	.eabi_attribute	21, 0	@ Tag_ABI_FP_exceptions
	.eabi_attribute	23, 1	@ Tag_ABI_FP_number_model
	.eabi_attribute	24, 1	@ Tag_ABI_align_needed
	.eabi_attribute	25, 1	@ Tag_ABI_align_preserved
	.eabi_attribute	38, 1	@ Tag_ABI_FP_16bit_format
	.eabi_attribute	18, 4	@ Tag_ABI_PCS_wchar_t
	.eabi_attribute	26, 2	@ Tag_ABI_enum_size
	.eabi_attribute	14, 0	@ Tag_ABI_PCS_R9_use
	.file	"timers.c"
	.file	1 "C:\\Users\\karahulx\\Downloads\\Kernel\\FreeRTOS\\FreeRTOS\\Demo\\CORTEX_MPU_M23_Nuvoton_NuMaker_PFM_M2351_IAR_GCC\\Projects_NTZ\\Keil" "../../../../Source/timers.c"
	.file	2 "C:\\Users\\karahulx\\Downloads\\Kernel\\FreeRTOS\\FreeRTOS\\Demo\\CORTEX_MPU_M23_Nuvoton_NuMaker_PFM_M2351_IAR_GCC\\Projects_NTZ\\Keil" "../../../../Source/include\\queue.h"
	.file	3 "C:\\Users\\karahulx\\Downloads\\Kernel\\FreeRTOS\\FreeRTOS\\Demo\\CORTEX_MPU_M23_Nuvoton_NuMaker_PFM_M2351_IAR_GCC\\Projects_NTZ\\Keil" "../../../../Source/include/task.h"
	.file	4 "C:\\Users\\karahulx\\Downloads\\Kernel\\FreeRTOS\\FreeRTOS\\Demo\\CORTEX_MPU_M23_Nuvoton_NuMaker_PFM_M2351_IAR_GCC\\Projects_NTZ\\Keil" "../../../../Source/portable/GCC/ARM_CM23_NTZ/non_secure/portmacrocommon.h"
	.file	5 "C:\\Users\\karahulx\\Downloads\\Kernel\\FreeRTOS\\FreeRTOS\\Demo\\CORTEX_MPU_M23_Nuvoton_NuMaker_PFM_M2351_IAR_GCC\\Projects_NTZ\\Keil" "../../../../Source/include/list.h"
	.file	6 "C:\\Keil_v5\\ARM\\ARMCLANG\\Bin\\..\\include" "stdint.h"
	.file	7 "C:\\Users\\karahulx\\Downloads\\Kernel\\FreeRTOS\\FreeRTOS\\Demo\\CORTEX_MPU_M23_Nuvoton_NuMaker_PFM_M2351_IAR_GCC\\Projects_NTZ\\Keil" "../../../../Source/include\\FreeRTOS.h"
	.file	8 "C:\\Users\\karahulx\\Downloads\\Kernel\\FreeRTOS\\FreeRTOS\\Demo\\CORTEX_MPU_M23_Nuvoton_NuMaker_PFM_M2351_IAR_GCC\\Projects_NTZ\\Keil" "../../../../Source/include\\timers.h"
	.file	9 "C:\\Users\\karahulx\\Downloads\\Kernel\\FreeRTOS\\FreeRTOS\\Demo\\CORTEX_MPU_M23_Nuvoton_NuMaker_PFM_M2351_IAR_GCC\\Projects_NTZ\\Keil" "../../../../Source/include/projdefs.h"
	.section	privileged_functions,"ax",%progbits
	.hidden	xTimerCreateTimerTask           @ -- Begin function xTimerCreateTimerTask
	.globl	xTimerCreateTimerTask
	.p2align	1
	.type	xTimerCreateTimerTask,%function
	.code	16                              @ @xTimerCreateTimerTask
	.thumb_func
xTimerCreateTimerTask:
.Lfunc_begin0:
	.loc	1 234 0                         @ ../../../../Source/timers.c:234:0
	.fnstart
	.cfi_sections .debug_frame
	.cfi_startproc
@ %bb.0:
	.save	{r7, lr}
	push	{r7, lr}
	.cfi_def_cfa_offset 8
	.cfi_offset lr, -4
	.cfi_offset r7, -8
	.pad	#32
	sub	sp, #32
	.cfi_def_cfa_offset 40
	movs	r0, #0
.Ltmp0:
	.loc	1 235 20 prologue_end           @ ../../../../Source/timers.c:235:20
	str	r0, [sp, #28]
	.loc	1 241 9                         @ ../../../../Source/timers.c:241:9
	bl	prvCheckForValidListAndQueue
.Ltmp1:
	.loc	1 243 13                        @ ../../../../Source/timers.c:243:13
	movw	r0, :lower16:xTimerQueue
	movt	r0, :upper16:xTimerQueue
	ldr	r0, [r0]
.Ltmp2:
	.loc	1 243 13 is_stmt 0              @ ../../../../Source/timers.c:243:13
	cbz	r0, .LBB0_4
	b	.LBB0_1
.LBB0_1:
	.loc	1 0 13                          @ ../../../../Source/timers.c:0:13
	movs	r0, #0
.Ltmp3:
	.loc	1 247 32 is_stmt 1              @ ../../../../Source/timers.c:247:32
	str	r0, [sp, #12]                   @ 4-byte Spill
	str	r0, [sp, #24]
	.loc	1 248 31                        @ ../../../../Source/timers.c:248:31
	str	r0, [sp, #20]
	add	r0, sp, #24
	add	r1, sp, #20
	add	r2, sp, #16
	.loc	1 251 17                        @ ../../../../Source/timers.c:251:17
	bl	vApplicationGetTimerTaskMemory
	ldr	r3, [sp, #12]                   @ 4-byte Reload
	.loc	1 254 55                        @ ../../../../Source/timers.c:254:55
	ldr	r2, [sp, #16]
	.loc	1 257 55                        @ ../../../../Source/timers.c:257:55
	ldr	r0, [sp, #20]
	.loc	1 258 55                        @ ../../../../Source/timers.c:258:55
	ldr	r1, [sp, #24]
	.loc	1 252 36                        @ ../../../../Source/timers.c:252:36
	str	r1, [sp, #8]
	str	r0, [sp, #4]
	movw	r0, #3
	movt	r0, #32768
	str	r0, [sp]
	movw	r0, :lower16:prvTimerTask
	movt	r0, :upper16:prvTimerTask
	movw	r1, :lower16:.L.str
	movt	r1, :upper16:.L.str
	bl	xTaskCreateStatic
	mov	r1, r0
	.loc	1 252 34 is_stmt 0              @ ../../../../Source/timers.c:252:34
	movw	r0, :lower16:xTimerTaskHandle
	movt	r0, :upper16:xTimerTaskHandle
	str	r1, [r0]
.Ltmp4:
	.loc	1 260 21 is_stmt 1              @ ../../../../Source/timers.c:260:21
	ldr	r0, [r0]
.Ltmp5:
	.loc	1 260 21 is_stmt 0              @ ../../../../Source/timers.c:260:21
	cbz	r0, .LBB0_3
	b	.LBB0_2
.LBB0_2:
	.loc	1 0 21                          @ ../../../../Source/timers.c:0:21
	movs	r0, #1
.Ltmp6:
	.loc	1 262 29 is_stmt 1              @ ../../../../Source/timers.c:262:29
	str	r0, [sp, #28]
	.loc	1 263 17                        @ ../../../../Source/timers.c:263:17
	b	.LBB0_3
.Ltmp7:
.LBB0_3:
	.loc	1 275 9                         @ ../../../../Source/timers.c:275:9
	b	.LBB0_5
.Ltmp8:
.LBB0_4:
	.loc	1 0 9 is_stmt 0                 @ ../../../../Source/timers.c:0:9
	b	.LBB0_5
.LBB0_5:
.Ltmp9:
	.loc	1 281 9 is_stmt 1               @ ../../../../Source/timers.c:281:9
	ldr	r0, [sp, #28]
.Ltmp10:
	.loc	1 281 9 is_stmt 0               @ ../../../../Source/timers.c:281:9
	cbnz	r0, .LBB0_8
	b	.LBB0_6
.LBB0_6:
.Ltmp11:
	.loc	1 281 9                         @ ../../../../Source/timers.c:281:9
	@APP
	cpsid i
	@NO_APP
	b	.LBB0_7
.LBB0_7:                                @ =>This Inner Loop Header: Depth=1
.Ltmp12:
	.loc	1 281 9                         @ ../../../../Source/timers.c:281:9
	b	.LBB0_7
.Ltmp13:
.LBB0_8:
	.loc	1 282 16 is_stmt 1              @ ../../../../Source/timers.c:282:16
	ldr	r0, [sp, #28]
	.loc	1 282 9 is_stmt 0               @ ../../../../Source/timers.c:282:9
	add	sp, #32
	pop	{r7, pc}
.Ltmp14:
.Lfunc_end0:
	.size	xTimerCreateTimerTask, .Lfunc_end0-xTimerCreateTimerTask
	.cfi_endproc
	.cantunwind
	.fnend
                                        @ -- End function
	.p2align	1                               @ -- Begin function prvCheckForValidListAndQueue
	.type	prvCheckForValidListAndQueue,%function
	.code	16                              @ @prvCheckForValidListAndQueue
	.thumb_func
prvCheckForValidListAndQueue:
.Lfunc_begin1:
	.loc	1 956 0 is_stmt 1               @ ../../../../Source/timers.c:956:0
	.fnstart
	.cfi_startproc
@ %bb.0:
	.save	{r7, lr}
	push	{r7, lr}
	.cfi_def_cfa_offset 8
	.cfi_offset lr, -4
	.cfi_offset r7, -8
	.pad	#16
	sub	sp, #16
	.cfi_def_cfa_offset 24
.Ltmp15:
	.loc	1 960 9 prologue_end            @ ../../../../Source/timers.c:960:9
	bl	vPortEnterCritical
.Ltmp16:
	.loc	1 962 17                        @ ../../../../Source/timers.c:962:17
	movw	r0, :lower16:xTimerQueue
	movt	r0, :upper16:xTimerQueue
	ldr	r0, [r0]
.Ltmp17:
	.loc	1 962 17 is_stmt 0              @ ../../../../Source/timers.c:962:17
	cbnz	r0, .LBB1_2
	b	.LBB1_1
.LBB1_1:
.Ltmp18:
	.loc	1 964 17 is_stmt 1              @ ../../../../Source/timers.c:964:17
	movw	r0, :lower16:xActiveTimerList1
	movt	r0, :upper16:xActiveTimerList1
	str	r0, [sp, #8]                    @ 4-byte Spill
	bl	vListInitialise
	.loc	1 965 17                        @ ../../../../Source/timers.c:965:17
	movw	r0, :lower16:xActiveTimerList2
	movt	r0, :upper16:xActiveTimerList2
	str	r0, [sp, #12]                   @ 4-byte Spill
	bl	vListInitialise
	ldr	r1, [sp, #8]                    @ 4-byte Reload
	ldr	r0, [sp, #12]                   @ 4-byte Reload
	.loc	1 966 36                        @ ../../../../Source/timers.c:966:36
	movw	r2, :lower16:pxCurrentTimerList
	movt	r2, :upper16:pxCurrentTimerList
	str	r1, [r2]
	.loc	1 967 37                        @ ../../../../Source/timers.c:967:37
	movw	r1, :lower16:pxOverflowTimerList
	movt	r1, :upper16:pxOverflowTimerList
	str	r0, [r1]
	movs	r0, #0
.Ltmp19:
	.loc	1 976 35                        @ ../../../../Source/timers.c:976:35
	str	r0, [sp]
	movw	r2, :lower16:prvCheckForValidListAndQueue.ucStaticTimerQueueStorage
	movt	r2, :upper16:prvCheckForValidListAndQueue.ucStaticTimerQueueStorage
	movw	r3, :lower16:prvCheckForValidListAndQueue.xStaticTimerQueue
	movt	r3, :upper16:prvCheckForValidListAndQueue.xStaticTimerQueue
	movs	r0, #5
	movs	r1, #16
	bl	xQueueGenericCreateStatic
	.loc	1 976 33 is_stmt 0              @ ../../../../Source/timers.c:976:33
	movw	r1, :lower16:xTimerQueue
	movt	r1, :upper16:xTimerQueue
	str	r0, [r1]
.Ltmp20:
	.loc	1 996 13 is_stmt 1              @ ../../../../Source/timers.c:996:13
	b	.LBB1_3
.Ltmp21:
.LBB1_2:
	.loc	1 0 13 is_stmt 0                @ ../../../../Source/timers.c:0:13
	b	.LBB1_3
.LBB1_3:
	.loc	1 1002 9 is_stmt 1              @ ../../../../Source/timers.c:1002:9
	bl	vPortExitCritical
	.loc	1 1003 5                        @ ../../../../Source/timers.c:1003:5
	add	sp, #16
	pop	{r7, pc}
.Ltmp22:
.Lfunc_end1:
	.size	prvCheckForValidListAndQueue, .Lfunc_end1-prvCheckForValidListAndQueue
	.cfi_endproc
	.cantunwind
	.fnend
                                        @ -- End function
	.p2align	1                               @ -- Begin function prvTimerTask
	.type	prvTimerTask,%function
	.code	16                              @ @prvTimerTask
	.thumb_func
prvTimerTask:
.Lfunc_begin2:
	.loc	1 593 0                         @ ../../../../Source/timers.c:593:0
	.fnstart
	.cfi_startproc
@ %bb.0:
	.pad	#16
	sub	sp, #16
	.cfi_def_cfa_offset 16
	str	r0, [sp, #12]
.Ltmp23:
	.loc	1 610 9 prologue_end            @ ../../../../Source/timers.c:610:9
	b	.LBB2_1
.LBB2_1:                                @ =>This Inner Loop Header: Depth=1
	.loc	1 0 9 is_stmt 0                 @ ../../../../Source/timers.c:0:9
	add	r0, sp, #4
.Ltmp24:
	.loc	1 614 31 is_stmt 1              @ ../../../../Source/timers.c:614:31
	bl	prvGetNextExpireTime
	.loc	1 614 29 is_stmt 0              @ ../../../../Source/timers.c:614:29
	str	r0, [sp, #8]
	.loc	1 618 41 is_stmt 1              @ ../../../../Source/timers.c:618:41
	ldr	r0, [sp, #8]
	.loc	1 618 58 is_stmt 0              @ ../../../../Source/timers.c:618:58
	ldr	r1, [sp, #4]
	.loc	1 618 13                        @ ../../../../Source/timers.c:618:13
	bl	prvProcessTimerOrBlockTask
	.loc	1 621 13 is_stmt 1              @ ../../../../Source/timers.c:621:13
	bl	prvProcessReceivedCommands
.Ltmp25:
	.loc	1 610 9                         @ ../../../../Source/timers.c:610:9
	b	.LBB2_1
.Ltmp26:
.Lfunc_end2:
	.size	prvTimerTask, .Lfunc_end2-prvTimerTask
	.cfi_endproc
	.cantunwind
	.fnend
                                        @ -- End function
	.hidden	xTimerCreate                    @ -- Begin function xTimerCreate
	.globl	xTimerCreate
	.p2align	1
	.type	xTimerCreate,%function
	.code	16                              @ @xTimerCreate
	.thumb_func
xTimerCreate:
.Lfunc_begin3:
	.loc	1 293 0                         @ ../../../../Source/timers.c:293:0
	.fnstart
	.cfi_startproc
@ %bb.0:
	.save	{r4, r5, r7, lr}
	push	{r4, r5, r7, lr}
	.cfi_def_cfa_offset 16
	.cfi_offset lr, -4
	.cfi_offset r7, -8
	.cfi_offset r5, -12
	.cfi_offset r4, -16
	.pad	#32
	sub	sp, #32
	.cfi_def_cfa_offset 48
	ldr	r4, [sp, #48]
	str	r0, [sp, #28]
	str	r1, [sp, #24]
	str	r2, [sp, #20]
	str	r3, [sp, #16]
	movs	r0, #44
.Ltmp27:
	.loc	1 296 40 prologue_end           @ ../../../../Source/timers.c:296:40
	bl	pvPortMalloc
	.loc	1 296 24 is_stmt 0              @ ../../../../Source/timers.c:296:24
	str	r0, [sp, #12]
.Ltmp28:
	.loc	1 298 17 is_stmt 1              @ ../../../../Source/timers.c:298:17
	ldr	r0, [sp, #12]
.Ltmp29:
	.loc	1 298 17 is_stmt 0              @ ../../../../Source/timers.c:298:17
	cbz	r0, .LBB3_2
	b	.LBB3_1
.LBB3_1:
.Ltmp30:
	.loc	1 303 17 is_stmt 1              @ ../../../../Source/timers.c:303:17
	ldr	r1, [sp, #12]
	movs	r2, #40
	movs	r0, #0
	.loc	1 303 38 is_stmt 0              @ ../../../../Source/timers.c:303:38
	strb	r0, [r1, r2]
	.loc	1 304 40 is_stmt 1              @ ../../../../Source/timers.c:304:40
	ldr	r0, [sp, #28]
	.loc	1 304 53 is_stmt 0              @ ../../../../Source/timers.c:304:53
	ldr	r1, [sp, #24]
	.loc	1 304 74                        @ ../../../../Source/timers.c:304:74
	ldr	r2, [sp, #20]
	.loc	1 304 87                        @ ../../../../Source/timers.c:304:87
	ldr	r3, [sp, #16]
	.loc	1 304 98                        @ ../../../../Source/timers.c:304:98
	ldr	r4, [sp, #48]
	.loc	1 304 118                       @ ../../../../Source/timers.c:304:118
	ldr	r5, [sp, #12]
	.loc	1 304 17                        @ ../../../../Source/timers.c:304:17
	str	r5, [sp, #4]
	str	r4, [sp]
	bl	prvInitialiseNewTimer
	.loc	1 305 13 is_stmt 1              @ ../../../../Source/timers.c:305:13
	b	.LBB3_2
.Ltmp31:
.LBB3_2:
	.loc	1 307 20                        @ ../../../../Source/timers.c:307:20
	ldr	r0, [sp, #12]
	.loc	1 307 13 is_stmt 0              @ ../../../../Source/timers.c:307:13
	add	sp, #32
	pop	{r4, r5, r7, pc}
.Ltmp32:
.Lfunc_end3:
	.size	xTimerCreate, .Lfunc_end3-xTimerCreate
	.cfi_endproc
	.cantunwind
	.fnend
                                        @ -- End function
	.p2align	1                               @ -- Begin function prvInitialiseNewTimer
	.type	prvInitialiseNewTimer,%function
	.code	16                              @ @prvInitialiseNewTimer
	.thumb_func
prvInitialiseNewTimer:
.Lfunc_begin4:
	.loc	1 361 0 is_stmt 1               @ ../../../../Source/timers.c:361:0
	.fnstart
	.cfi_startproc
@ %bb.0:
	.save	{r4, lr}
	push	{r4, lr}
	.cfi_def_cfa_offset 8
	.cfi_offset lr, -4
	.cfi_offset r4, -8
	.pad	#16
	sub	sp, #16
	.cfi_def_cfa_offset 24
	ldr	r4, [sp, #28]
	ldr	r4, [sp, #24]
	str	r0, [sp, #12]
	str	r1, [sp, #8]
	str	r2, [sp, #4]
	str	r3, [sp]
.Ltmp33:
	.loc	1 363 9 prologue_end            @ ../../../../Source/timers.c:363:9
	ldr	r0, [sp, #8]
.Ltmp34:
	.loc	1 363 9 is_stmt 0               @ ../../../../Source/timers.c:363:9
	cbnz	r0, .LBB4_3
	b	.LBB4_1
.LBB4_1:
.Ltmp35:
	.loc	1 363 9                         @ ../../../../Source/timers.c:363:9
	@APP
	cpsid i
	@NO_APP
	b	.LBB4_2
.LBB4_2:                                @ =>This Inner Loop Header: Depth=1
.Ltmp36:
	.loc	1 363 9                         @ ../../../../Source/timers.c:363:9
	b	.LBB4_2
.Ltmp37:
.LBB4_3:
	.loc	1 367 9 is_stmt 1               @ ../../../../Source/timers.c:367:9
	bl	prvCheckForValidListAndQueue
	.loc	1 371 35                        @ ../../../../Source/timers.c:371:35
	ldr	r0, [sp, #12]
	.loc	1 371 9 is_stmt 0               @ ../../../../Source/timers.c:371:9
	ldr	r1, [sp, #28]
	.loc	1 371 33                        @ ../../../../Source/timers.c:371:33
	str	r0, [r1]
	.loc	1 372 43 is_stmt 1              @ ../../../../Source/timers.c:372:43
	ldr	r0, [sp, #8]
	.loc	1 372 9 is_stmt 0               @ ../../../../Source/timers.c:372:9
	ldr	r1, [sp, #28]
	.loc	1 372 41                        @ ../../../../Source/timers.c:372:41
	str	r0, [r1, #24]
	.loc	1 373 33 is_stmt 1              @ ../../../../Source/timers.c:373:33
	ldr	r0, [sp]
	.loc	1 373 9 is_stmt 0               @ ../../../../Source/timers.c:373:9
	ldr	r1, [sp, #28]
	.loc	1 373 31                        @ ../../../../Source/timers.c:373:31
	str	r0, [r1, #28]
	.loc	1 374 42 is_stmt 1              @ ../../../../Source/timers.c:374:42
	ldr	r0, [sp, #24]
	.loc	1 374 9 is_stmt 0               @ ../../../../Source/timers.c:374:9
	ldr	r1, [sp, #28]
	.loc	1 374 40                        @ ../../../../Source/timers.c:374:40
	str	r0, [r1, #32]
	.loc	1 375 33 is_stmt 1              @ ../../../../Source/timers.c:375:33
	ldr	r0, [sp, #28]
	.loc	1 375 45 is_stmt 0              @ ../../../../Source/timers.c:375:45
	adds	r0, r0, #4
	.loc	1 375 9                         @ ../../../../Source/timers.c:375:9
	bl	vListInitialiseItem
.Ltmp38:
	.loc	1 377 13 is_stmt 1              @ ../../../../Source/timers.c:377:13
	ldr	r0, [sp, #4]
.Ltmp39:
	.loc	1 377 13 is_stmt 0              @ ../../../../Source/timers.c:377:13
	cbz	r0, .LBB4_5
	b	.LBB4_4
.LBB4_4:
.Ltmp40:
	.loc	1 379 13 is_stmt 1              @ ../../../../Source/timers.c:379:13
	ldr	r1, [sp, #28]
	movs	r2, #40
	.loc	1 379 34 is_stmt 0              @ ../../../../Source/timers.c:379:34
	ldrb	r0, [r1, r2]
	movs	r3, #4
	orrs	r0, r3
	strb	r0, [r1, r2]
	.loc	1 380 9 is_stmt 1               @ ../../../../Source/timers.c:380:9
	b	.LBB4_5
.Ltmp41:
.LBB4_5:
	.loc	1 383 5                         @ ../../../../Source/timers.c:383:5
	add	sp, #16
	pop	{r4, pc}
.Ltmp42:
.Lfunc_end4:
	.size	prvInitialiseNewTimer, .Lfunc_end4-prvInitialiseNewTimer
	.cfi_endproc
	.cantunwind
	.fnend
                                        @ -- End function
	.hidden	xTimerCreateStatic              @ -- Begin function xTimerCreateStatic
	.globl	xTimerCreateStatic
	.p2align	1
	.type	xTimerCreateStatic,%function
	.code	16                              @ @xTimerCreateStatic
	.thumb_func
xTimerCreateStatic:
.Lfunc_begin5:
	.loc	1 321 0                         @ ../../../../Source/timers.c:321:0
	.fnstart
	.cfi_startproc
@ %bb.0:
	.save	{r4, r5, r7, lr}
	push	{r4, r5, r7, lr}
	.cfi_def_cfa_offset 16
	.cfi_offset lr, -4
	.cfi_offset r7, -8
	.cfi_offset r5, -12
	.cfi_offset r4, -16
	.pad	#32
	sub	sp, #32
	.cfi_def_cfa_offset 48
	ldr	r4, [sp, #52]
	ldr	r4, [sp, #48]
	str	r0, [sp, #28]
	str	r1, [sp, #24]
	str	r2, [sp, #20]
	str	r3, [sp, #16]
	movs	r0, #44
.Ltmp43:
	.loc	1 329 33 prologue_end           @ ../../../../Source/timers.c:329:33
	str	r0, [sp, #8]
.Ltmp44:
	.loc	1 330 17                        @ ../../../../Source/timers.c:330:17
	ldr	r0, [sp, #8]
.Ltmp45:
	.loc	1 330 17 is_stmt 0              @ ../../../../Source/timers.c:330:17
	cmp	r0, #44
	beq	.LBB5_3
	b	.LBB5_1
.LBB5_1:
.Ltmp46:
	.loc	1 330 17                        @ ../../../../Source/timers.c:330:17
	@APP
	cpsid i
	@NO_APP
	b	.LBB5_2
.LBB5_2:                                @ =>This Inner Loop Header: Depth=1
.Ltmp47:
	.loc	1 330 17                        @ ../../../../Source/timers.c:330:17
	b	.LBB5_2
.Ltmp48:
.LBB5_3:
	.loc	1 331 26 is_stmt 1              @ ../../../../Source/timers.c:331:26
	ldr	r0, [sp, #8]
.Ltmp49:
	.loc	1 336 13                        @ ../../../../Source/timers.c:336:13
	ldr	r0, [sp, #52]
.Ltmp50:
	.loc	1 336 13 is_stmt 0              @ ../../../../Source/timers.c:336:13
	cbnz	r0, .LBB5_6
	b	.LBB5_4
.LBB5_4:
.Ltmp51:
	.loc	1 336 13                        @ ../../../../Source/timers.c:336:13
	@APP
	cpsid i
	@NO_APP
	b	.LBB5_5
.LBB5_5:                                @ =>This Inner Loop Header: Depth=1
.Ltmp52:
	.loc	1 336 13                        @ ../../../../Source/timers.c:336:13
	b	.LBB5_5
.Ltmp53:
.LBB5_6:
	.loc	1 337 40 is_stmt 1              @ ../../../../Source/timers.c:337:40
	ldr	r0, [sp, #52]
	.loc	1 337 24 is_stmt 0              @ ../../../../Source/timers.c:337:24
	str	r0, [sp, #12]
.Ltmp54:
	.loc	1 339 17 is_stmt 1              @ ../../../../Source/timers.c:339:17
	ldr	r0, [sp, #12]
.Ltmp55:
	.loc	1 339 17 is_stmt 0              @ ../../../../Source/timers.c:339:17
	cbz	r0, .LBB5_8
	b	.LBB5_7
.LBB5_7:
.Ltmp56:
	.loc	1 344 17 is_stmt 1              @ ../../../../Source/timers.c:344:17
	ldr	r1, [sp, #12]
	movs	r2, #40
	movs	r0, #2
	.loc	1 344 38 is_stmt 0              @ ../../../../Source/timers.c:344:38
	strb	r0, [r1, r2]
	.loc	1 346 40 is_stmt 1              @ ../../../../Source/timers.c:346:40
	ldr	r0, [sp, #28]
	.loc	1 346 53 is_stmt 0              @ ../../../../Source/timers.c:346:53
	ldr	r1, [sp, #24]
	.loc	1 346 74                        @ ../../../../Source/timers.c:346:74
	ldr	r2, [sp, #20]
	.loc	1 346 87                        @ ../../../../Source/timers.c:346:87
	ldr	r3, [sp, #16]
	.loc	1 346 98                        @ ../../../../Source/timers.c:346:98
	ldr	r4, [sp, #48]
	.loc	1 346 118                       @ ../../../../Source/timers.c:346:118
	ldr	r5, [sp, #12]
	.loc	1 346 17                        @ ../../../../Source/timers.c:346:17
	str	r5, [sp, #4]
	str	r4, [sp]
	bl	prvInitialiseNewTimer
	.loc	1 347 13 is_stmt 1              @ ../../../../Source/timers.c:347:13
	b	.LBB5_8
.Ltmp57:
.LBB5_8:
	.loc	1 349 20                        @ ../../../../Source/timers.c:349:20
	ldr	r0, [sp, #12]
	.loc	1 349 13 is_stmt 0              @ ../../../../Source/timers.c:349:13
	add	sp, #32
	pop	{r4, r5, r7, pc}
.Ltmp58:
.Lfunc_end5:
	.size	xTimerCreateStatic, .Lfunc_end5-xTimerCreateStatic
	.cfi_endproc
	.cantunwind
	.fnend
                                        @ -- End function
	.hidden	xTimerGenericCommand            @ -- Begin function xTimerGenericCommand
	.globl	xTimerGenericCommand
	.p2align	1
	.type	xTimerGenericCommand,%function
	.code	16                              @ @xTimerGenericCommand
	.thumb_func
xTimerGenericCommand:
.Lfunc_begin6:
	.loc	1 391 0 is_stmt 1               @ ../../../../Source/timers.c:391:0
	.fnstart
	.cfi_startproc
@ %bb.0:
	.save	{r4, lr}
	push	{r4, lr}
	.cfi_def_cfa_offset 8
	.cfi_offset lr, -4
	.cfi_offset r4, -8
	.pad	#40
	sub	sp, #40
	.cfi_def_cfa_offset 48
	ldr	r4, [sp, #48]
	str	r0, [sp, #36]
	str	r1, [sp, #32]
	str	r2, [sp, #28]
	str	r3, [sp, #24]
	movs	r0, #0
.Ltmp59:
	.loc	1 392 20 prologue_end           @ ../../../../Source/timers.c:392:20
	str	r0, [sp, #20]
.Ltmp60:
	.loc	1 395 9                         @ ../../../../Source/timers.c:395:9
	ldr	r0, [sp, #36]
.Ltmp61:
	.loc	1 395 9 is_stmt 0               @ ../../../../Source/timers.c:395:9
	cbnz	r0, .LBB6_3
	b	.LBB6_1
.LBB6_1:
.Ltmp62:
	.loc	1 395 9                         @ ../../../../Source/timers.c:395:9
	@APP
	cpsid i
	@NO_APP
	b	.LBB6_2
.LBB6_2:                                @ =>This Inner Loop Header: Depth=1
.Ltmp63:
	.loc	1 395 9                         @ ../../../../Source/timers.c:395:9
	b	.LBB6_2
.Ltmp64:
.LBB6_3:
	.loc	1 399 13 is_stmt 1              @ ../../../../Source/timers.c:399:13
	movw	r0, :lower16:xTimerQueue
	movt	r0, :upper16:xTimerQueue
	ldr	r0, [r0]
.Ltmp65:
	.loc	1 399 13 is_stmt 0              @ ../../../../Source/timers.c:399:13
	cbz	r0, .LBB6_11
	b	.LBB6_4
.LBB6_4:
.Ltmp66:
	.loc	1 402 35 is_stmt 1              @ ../../../../Source/timers.c:402:35
	ldr	r0, [sp, #32]
	.loc	1 402 33 is_stmt 0              @ ../../../../Source/timers.c:402:33
	str	r0, [sp, #4]
	.loc	1 403 57 is_stmt 1              @ ../../../../Source/timers.c:403:57
	ldr	r0, [sp, #28]
	.loc	1 403 55 is_stmt 0              @ ../../../../Source/timers.c:403:55
	str	r0, [sp, #8]
	.loc	1 404 51 is_stmt 1              @ ../../../../Source/timers.c:404:51
	ldr	r0, [sp, #36]
	.loc	1 404 49 is_stmt 0              @ ../../../../Source/timers.c:404:49
	str	r0, [sp, #12]
.Ltmp67:
	.loc	1 406 17 is_stmt 1              @ ../../../../Source/timers.c:406:17
	ldr	r0, [sp, #32]
.Ltmp68:
	.loc	1 406 17 is_stmt 0              @ ../../../../Source/timers.c:406:17
	cmp	r0, #5
	bgt	.LBB6_9
	b	.LBB6_5
.LBB6_5:
.Ltmp69:
	.loc	1 408 21 is_stmt 1              @ ../../../../Source/timers.c:408:21
	bl	xTaskGetSchedulerState
.Ltmp70:
	.loc	1 408 21 is_stmt 0              @ ../../../../Source/timers.c:408:21
	cmp	r0, #2
	bne	.LBB6_7
	b	.LBB6_6
.LBB6_6:
.Ltmp71:
	.loc	1 410 31 is_stmt 1              @ ../../../../Source/timers.c:410:31
	movw	r0, :lower16:xTimerQueue
	movt	r0, :upper16:xTimerQueue
	ldr	r0, [r0]
	ldr	r2, [sp, #48]
	add	r1, sp, #4
	movs	r3, #0
	bl	xQueueGenericSend
	.loc	1 410 29 is_stmt 0              @ ../../../../Source/timers.c:410:29
	str	r0, [sp, #20]
	.loc	1 411 17 is_stmt 1              @ ../../../../Source/timers.c:411:17
	b	.LBB6_8
.Ltmp72:
.LBB6_7:
	.loc	1 414 31                        @ ../../../../Source/timers.c:414:31
	movw	r0, :lower16:xTimerQueue
	movt	r0, :upper16:xTimerQueue
	ldr	r0, [r0]
	add	r1, sp, #4
	movs	r3, #0
	mov	r2, r3
	bl	xQueueGenericSend
	.loc	1 414 29 is_stmt 0              @ ../../../../Source/timers.c:414:29
	str	r0, [sp, #20]
	b	.LBB6_8
.Ltmp73:
.LBB6_8:
	.loc	1 416 13 is_stmt 1              @ ../../../../Source/timers.c:416:13
	b	.LBB6_10
.Ltmp74:
.LBB6_9:
	.loc	1 419 27                        @ ../../../../Source/timers.c:419:27
	movw	r0, :lower16:xTimerQueue
	movt	r0, :upper16:xTimerQueue
	ldr	r0, [r0]
	ldr	r2, [sp, #24]
	add	r1, sp, #4
	movs	r3, #0
	bl	xQueueGenericSendFromISR
	.loc	1 419 25 is_stmt 0              @ ../../../../Source/timers.c:419:25
	str	r0, [sp, #20]
	b	.LBB6_10
.Ltmp75:
.LBB6_10:
	.loc	1 423 9 is_stmt 1               @ ../../../../Source/timers.c:423:9
	b	.LBB6_12
.Ltmp76:
.LBB6_11:
	.loc	1 0 9 is_stmt 0                 @ ../../../../Source/timers.c:0:9
	b	.LBB6_12
.LBB6_12:
	.loc	1 429 16 is_stmt 1              @ ../../../../Source/timers.c:429:16
	ldr	r0, [sp, #20]
	.loc	1 429 9 is_stmt 0               @ ../../../../Source/timers.c:429:9
	add	sp, #40
	pop	{r4, pc}
.Ltmp77:
.Lfunc_end6:
	.size	xTimerGenericCommand, .Lfunc_end6-xTimerGenericCommand
	.cfi_endproc
	.cantunwind
	.fnend
                                        @ -- End function
	.hidden	xTimerGetTimerDaemonTaskHandle  @ -- Begin function xTimerGetTimerDaemonTaskHandle
	.globl	xTimerGetTimerDaemonTaskHandle
	.p2align	1
	.type	xTimerGetTimerDaemonTaskHandle,%function
	.code	16                              @ @xTimerGetTimerDaemonTaskHandle
	.thumb_func
xTimerGetTimerDaemonTaskHandle:
.Lfunc_begin7:
	.loc	1 434 0 is_stmt 1               @ ../../../../Source/timers.c:434:0
	.fnstart
	.cfi_startproc
@ %bb.0:
	.loc	1 437 9 prologue_end            @ ../../../../Source/timers.c:437:9
	movw	r0, :lower16:xTimerTaskHandle
	movt	r0, :upper16:xTimerTaskHandle
	ldr	r0, [r0]
.Ltmp78:
	.loc	1 437 9 is_stmt 0               @ ../../../../Source/timers.c:437:9
	cbnz	r0, .LBB7_3
	b	.LBB7_1
.LBB7_1:
.Ltmp79:
	.loc	1 437 9                         @ ../../../../Source/timers.c:437:9
	@APP
	cpsid i
	@NO_APP
	b	.LBB7_2
.LBB7_2:                                @ =>This Inner Loop Header: Depth=1
.Ltmp80:
	.loc	1 437 9                         @ ../../../../Source/timers.c:437:9
	b	.LBB7_2
.Ltmp81:
.LBB7_3:
	.loc	1 438 16 is_stmt 1              @ ../../../../Source/timers.c:438:16
	movw	r0, :lower16:xTimerTaskHandle
	movt	r0, :upper16:xTimerTaskHandle
	ldr	r0, [r0]
	.loc	1 438 9 is_stmt 0               @ ../../../../Source/timers.c:438:9
	bx	lr
.Ltmp82:
.Lfunc_end7:
	.size	xTimerGetTimerDaemonTaskHandle, .Lfunc_end7-xTimerGetTimerDaemonTaskHandle
	.cfi_endproc
	.cantunwind
	.fnend
                                        @ -- End function
	.hidden	xTimerGetPeriod                 @ -- Begin function xTimerGetPeriod
	.globl	xTimerGetPeriod
	.p2align	1
	.type	xTimerGetPeriod,%function
	.code	16                              @ @xTimerGetPeriod
	.thumb_func
xTimerGetPeriod:
.Lfunc_begin8:
	.loc	1 443 0 is_stmt 1               @ ../../../../Source/timers.c:443:0
	.fnstart
	.cfi_startproc
@ %bb.0:
	.pad	#8
	sub	sp, #8
	.cfi_def_cfa_offset 8
	str	r0, [sp, #4]
.Ltmp83:
	.loc	1 444 29 prologue_end           @ ../../../../Source/timers.c:444:29
	ldr	r0, [sp, #4]
	.loc	1 444 19 is_stmt 0              @ ../../../../Source/timers.c:444:19
	str	r0, [sp]
.Ltmp84:
	.loc	1 446 9 is_stmt 1               @ ../../../../Source/timers.c:446:9
	ldr	r0, [sp, #4]
.Ltmp85:
	.loc	1 446 9 is_stmt 0               @ ../../../../Source/timers.c:446:9
	cbnz	r0, .LBB8_3
	b	.LBB8_1
.LBB8_1:
.Ltmp86:
	.loc	1 446 9                         @ ../../../../Source/timers.c:446:9
	@APP
	cpsid i
	@NO_APP
	b	.LBB8_2
.LBB8_2:                                @ =>This Inner Loop Header: Depth=1
.Ltmp87:
	.loc	1 446 9                         @ ../../../../Source/timers.c:446:9
	b	.LBB8_2
.Ltmp88:
.LBB8_3:
	.loc	1 447 16 is_stmt 1              @ ../../../../Source/timers.c:447:16
	ldr	r0, [sp]
	.loc	1 447 25 is_stmt 0              @ ../../../../Source/timers.c:447:25
	ldr	r0, [r0, #24]
	.loc	1 447 9                         @ ../../../../Source/timers.c:447:9
	add	sp, #8
	bx	lr
.Ltmp89:
.Lfunc_end8:
	.size	xTimerGetPeriod, .Lfunc_end8-xTimerGetPeriod
	.cfi_endproc
	.cantunwind
	.fnend
                                        @ -- End function
	.hidden	vTimerSetReloadMode             @ -- Begin function vTimerSetReloadMode
	.globl	vTimerSetReloadMode
	.p2align	1
	.type	vTimerSetReloadMode,%function
	.code	16                              @ @vTimerSetReloadMode
	.thumb_func
vTimerSetReloadMode:
.Lfunc_begin9:
	.loc	1 453 0 is_stmt 1               @ ../../../../Source/timers.c:453:0
	.fnstart
	.cfi_startproc
@ %bb.0:
	.save	{r7, lr}
	push	{r7, lr}
	.cfi_def_cfa_offset 8
	.cfi_offset lr, -4
	.cfi_offset r7, -8
	.pad	#16
	sub	sp, #16
	.cfi_def_cfa_offset 24
	str	r0, [sp, #12]
	str	r1, [sp, #8]
.Ltmp90:
	.loc	1 454 29 prologue_end           @ ../../../../Source/timers.c:454:29
	ldr	r0, [sp, #12]
	.loc	1 454 19 is_stmt 0              @ ../../../../Source/timers.c:454:19
	str	r0, [sp, #4]
.Ltmp91:
	.loc	1 456 9 is_stmt 1               @ ../../../../Source/timers.c:456:9
	ldr	r0, [sp, #12]
.Ltmp92:
	.loc	1 456 9 is_stmt 0               @ ../../../../Source/timers.c:456:9
	cbnz	r0, .LBB9_3
	b	.LBB9_1
.LBB9_1:
.Ltmp93:
	.loc	1 456 9                         @ ../../../../Source/timers.c:456:9
	@APP
	cpsid i
	@NO_APP
	b	.LBB9_2
.LBB9_2:                                @ =>This Inner Loop Header: Depth=1
.Ltmp94:
	.loc	1 456 9                         @ ../../../../Source/timers.c:456:9
	b	.LBB9_2
.Ltmp95:
.LBB9_3:
	.loc	1 457 9 is_stmt 1               @ ../../../../Source/timers.c:457:9
	bl	vPortEnterCritical
.Ltmp96:
	.loc	1 459 17                        @ ../../../../Source/timers.c:459:17
	ldr	r0, [sp, #8]
.Ltmp97:
	.loc	1 459 17 is_stmt 0              @ ../../../../Source/timers.c:459:17
	cbz	r0, .LBB9_5
	b	.LBB9_4
.LBB9_4:
.Ltmp98:
	.loc	1 461 17 is_stmt 1              @ ../../../../Source/timers.c:461:17
	ldr	r1, [sp, #4]
	movs	r2, #40
	.loc	1 461 35 is_stmt 0              @ ../../../../Source/timers.c:461:35
	ldrb	r0, [r1, r2]
	movs	r3, #4
	orrs	r0, r3
	strb	r0, [r1, r2]
	.loc	1 462 13 is_stmt 1              @ ../../../../Source/timers.c:462:13
	b	.LBB9_6
.Ltmp99:
.LBB9_5:
	.loc	1 465 17                        @ ../../../../Source/timers.c:465:17
	ldr	r1, [sp, #4]
	movs	r2, #40
	.loc	1 465 35 is_stmt 0              @ ../../../../Source/timers.c:465:35
	ldrb	r0, [r1, r2]
	movs	r3, #251
	ands	r0, r3
	strb	r0, [r1, r2]
	b	.LBB9_6
.Ltmp100:
.LBB9_6:
	.loc	1 468 9 is_stmt 1               @ ../../../../Source/timers.c:468:9
	bl	vPortExitCritical
	.loc	1 469 5                         @ ../../../../Source/timers.c:469:5
	add	sp, #16
	pop	{r7, pc}
.Ltmp101:
.Lfunc_end9:
	.size	vTimerSetReloadMode, .Lfunc_end9-vTimerSetReloadMode
	.cfi_endproc
	.cantunwind
	.fnend
                                        @ -- End function
	.hidden	xTimerGetReloadMode             @ -- Begin function xTimerGetReloadMode
	.globl	xTimerGetReloadMode
	.p2align	1
	.type	xTimerGetReloadMode,%function
	.code	16                              @ @xTimerGetReloadMode
	.thumb_func
xTimerGetReloadMode:
.Lfunc_begin10:
	.loc	1 473 0                         @ ../../../../Source/timers.c:473:0
	.fnstart
	.cfi_startproc
@ %bb.0:
	.save	{r7, lr}
	push	{r7, lr}
	.cfi_def_cfa_offset 8
	.cfi_offset lr, -4
	.cfi_offset r7, -8
	.pad	#16
	sub	sp, #16
	.cfi_def_cfa_offset 24
	str	r0, [sp, #12]
.Ltmp102:
	.loc	1 474 29 prologue_end           @ ../../../../Source/timers.c:474:29
	ldr	r0, [sp, #12]
	.loc	1 474 19 is_stmt 0              @ ../../../../Source/timers.c:474:19
	str	r0, [sp, #8]
.Ltmp103:
	.loc	1 477 9 is_stmt 1               @ ../../../../Source/timers.c:477:9
	ldr	r0, [sp, #12]
.Ltmp104:
	.loc	1 477 9 is_stmt 0               @ ../../../../Source/timers.c:477:9
	cbnz	r0, .LBB10_3
	b	.LBB10_1
.LBB10_1:
.Ltmp105:
	.loc	1 477 9                         @ ../../../../Source/timers.c:477:9
	@APP
	cpsid i
	@NO_APP
	b	.LBB10_2
.LBB10_2:                               @ =>This Inner Loop Header: Depth=1
.Ltmp106:
	.loc	1 477 9                         @ ../../../../Source/timers.c:477:9
	b	.LBB10_2
.Ltmp107:
.LBB10_3:
	.loc	1 478 9 is_stmt 1               @ ../../../../Source/timers.c:478:9
	bl	vPortEnterCritical
.Ltmp108:
	.loc	1 480 19                        @ ../../../../Source/timers.c:480:19
	ldr	r0, [sp, #8]
	movs	r1, #40
	ldrb	r0, [r0, r1]
.Ltmp109:
	.loc	1 480 17 is_stmt 0              @ ../../../../Source/timers.c:480:17
	lsls	r0, r0, #29
	cmp	r0, #0
	bmi	.LBB10_5
	b	.LBB10_4
.LBB10_4:
	.loc	1 0 17                          @ ../../../../Source/timers.c:0:17
	movs	r0, #0
.Ltmp110:
	.loc	1 483 25 is_stmt 1              @ ../../../../Source/timers.c:483:25
	str	r0, [sp, #4]
	.loc	1 484 13                        @ ../../../../Source/timers.c:484:13
	b	.LBB10_6
.Ltmp111:
.LBB10_5:
	.loc	1 0 13 is_stmt 0                @ ../../../../Source/timers.c:0:13
	movs	r0, #1
.Ltmp112:
	.loc	1 488 25 is_stmt 1              @ ../../../../Source/timers.c:488:25
	str	r0, [sp, #4]
	b	.LBB10_6
.Ltmp113:
.LBB10_6:
	.loc	1 491 9                         @ ../../../../Source/timers.c:491:9
	bl	vPortExitCritical
	.loc	1 493 16                        @ ../../../../Source/timers.c:493:16
	ldr	r0, [sp, #4]
	.loc	1 493 9 is_stmt 0               @ ../../../../Source/timers.c:493:9
	add	sp, #16
	pop	{r7, pc}
.Ltmp114:
.Lfunc_end10:
	.size	xTimerGetReloadMode, .Lfunc_end10-xTimerGetReloadMode
	.cfi_endproc
	.cantunwind
	.fnend
                                        @ -- End function
	.hidden	uxTimerGetReloadMode            @ -- Begin function uxTimerGetReloadMode
	.globl	uxTimerGetReloadMode
	.p2align	1
	.type	uxTimerGetReloadMode,%function
	.code	16                              @ @uxTimerGetReloadMode
	.thumb_func
uxTimerGetReloadMode:
.Lfunc_begin11:
	.loc	1 497 0 is_stmt 1               @ ../../../../Source/timers.c:497:0
	.fnstart
	.cfi_startproc
@ %bb.0:
	.save	{r7, lr}
	push	{r7, lr}
	.cfi_def_cfa_offset 8
	.cfi_offset lr, -4
	.cfi_offset r7, -8
	.pad	#8
	sub	sp, #8
	.cfi_def_cfa_offset 16
	str	r0, [sp, #4]
.Ltmp115:
	.loc	1 498 53 prologue_end           @ ../../../../Source/timers.c:498:53
	ldr	r0, [sp, #4]
	.loc	1 498 32 is_stmt 0              @ ../../../../Source/timers.c:498:32
	bl	xTimerGetReloadMode
	.loc	1 498 9                         @ ../../../../Source/timers.c:498:9
	add	sp, #8
	pop	{r7, pc}
.Ltmp116:
.Lfunc_end11:
	.size	uxTimerGetReloadMode, .Lfunc_end11-uxTimerGetReloadMode
	.cfi_endproc
	.cantunwind
	.fnend
                                        @ -- End function
	.hidden	xTimerGetExpiryTime             @ -- Begin function xTimerGetExpiryTime
	.globl	xTimerGetExpiryTime
	.p2align	1
	.type	xTimerGetExpiryTime,%function
	.code	16                              @ @xTimerGetExpiryTime
	.thumb_func
xTimerGetExpiryTime:
.Lfunc_begin12:
	.loc	1 503 0 is_stmt 1               @ ../../../../Source/timers.c:503:0
	.fnstart
	.cfi_startproc
@ %bb.0:
	.pad	#12
	sub	sp, #12
	.cfi_def_cfa_offset 12
	str	r0, [sp, #8]
.Ltmp117:
	.loc	1 504 29 prologue_end           @ ../../../../Source/timers.c:504:29
	ldr	r0, [sp, #8]
	.loc	1 504 19 is_stmt 0              @ ../../../../Source/timers.c:504:19
	str	r0, [sp, #4]
.Ltmp118:
	.loc	1 507 9 is_stmt 1               @ ../../../../Source/timers.c:507:9
	ldr	r0, [sp, #8]
.Ltmp119:
	.loc	1 507 9 is_stmt 0               @ ../../../../Source/timers.c:507:9
	cbnz	r0, .LBB12_3
	b	.LBB12_1
.LBB12_1:
.Ltmp120:
	.loc	1 507 9                         @ ../../../../Source/timers.c:507:9
	@APP
	cpsid i
	@NO_APP
	b	.LBB12_2
.LBB12_2:                               @ =>This Inner Loop Header: Depth=1
.Ltmp121:
	.loc	1 507 9                         @ ../../../../Source/timers.c:507:9
	b	.LBB12_2
.Ltmp122:
.LBB12_3:
	.loc	1 508 19 is_stmt 1              @ ../../../../Source/timers.c:508:19
	ldr	r0, [sp, #4]
	ldr	r0, [r0, #4]
	.loc	1 508 17 is_stmt 0              @ ../../../../Source/timers.c:508:17
	str	r0, [sp]
	.loc	1 509 16 is_stmt 1              @ ../../../../Source/timers.c:509:16
	ldr	r0, [sp]
	.loc	1 509 9 is_stmt 0               @ ../../../../Source/timers.c:509:9
	add	sp, #12
	bx	lr
.Ltmp123:
.Lfunc_end12:
	.size	xTimerGetExpiryTime, .Lfunc_end12-xTimerGetExpiryTime
	.cfi_endproc
	.cantunwind
	.fnend
                                        @ -- End function
	.hidden	xTimerGetStaticBuffer           @ -- Begin function xTimerGetStaticBuffer
	.globl	xTimerGetStaticBuffer
	.p2align	1
	.type	xTimerGetStaticBuffer,%function
	.code	16                              @ @xTimerGetStaticBuffer
	.thumb_func
xTimerGetStaticBuffer:
.Lfunc_begin13:
	.loc	1 516 0 is_stmt 1               @ ../../../../Source/timers.c:516:0
	.fnstart
	.cfi_startproc
@ %bb.0:
	.pad	#16
	sub	sp, #16
	.cfi_def_cfa_offset 16
	str	r0, [sp, #12]
	str	r1, [sp, #8]
.Ltmp124:
	.loc	1 518 33 prologue_end           @ ../../../../Source/timers.c:518:33
	ldr	r0, [sp, #12]
	.loc	1 518 23 is_stmt 0              @ ../../../../Source/timers.c:518:23
	str	r0, [sp]
.Ltmp125:
	.loc	1 520 13 is_stmt 1              @ ../../../../Source/timers.c:520:13
	ldr	r0, [sp, #8]
.Ltmp126:
	.loc	1 520 13 is_stmt 0              @ ../../../../Source/timers.c:520:13
	cbnz	r0, .LBB13_3
	b	.LBB13_1
.LBB13_1:
.Ltmp127:
	.loc	1 520 13                        @ ../../../../Source/timers.c:520:13
	@APP
	cpsid i
	@NO_APP
	b	.LBB13_2
.LBB13_2:                               @ =>This Inner Loop Header: Depth=1
.Ltmp128:
	.loc	1 520 13                        @ ../../../../Source/timers.c:520:13
	b	.LBB13_2
.Ltmp129:
.LBB13_3:
	.loc	1 522 19 is_stmt 1              @ ../../../../Source/timers.c:522:19
	ldr	r0, [sp]
	movs	r1, #40
	ldrb	r0, [r0, r1]
.Ltmp130:
	.loc	1 522 17 is_stmt 0              @ ../../../../Source/timers.c:522:17
	lsls	r0, r0, #30
	cmp	r0, #0
	bpl	.LBB13_5
	b	.LBB13_4
.LBB13_4:
.Ltmp131:
	.loc	1 524 55 is_stmt 1              @ ../../../../Source/timers.c:524:55
	ldr	r0, [sp]
	.loc	1 524 18 is_stmt 0              @ ../../../../Source/timers.c:524:18
	ldr	r1, [sp, #8]
	.loc	1 524 33                        @ ../../../../Source/timers.c:524:33
	str	r0, [r1]
	movs	r0, #1
	.loc	1 525 25 is_stmt 1              @ ../../../../Source/timers.c:525:25
	str	r0, [sp, #4]
	.loc	1 526 13                        @ ../../../../Source/timers.c:526:13
	b	.LBB13_6
.Ltmp132:
.LBB13_5:
	.loc	1 0 13 is_stmt 0                @ ../../../../Source/timers.c:0:13
	movs	r0, #0
.Ltmp133:
	.loc	1 529 25 is_stmt 1              @ ../../../../Source/timers.c:529:25
	str	r0, [sp, #4]
	b	.LBB13_6
.Ltmp134:
.LBB13_6:
	.loc	1 532 20                        @ ../../../../Source/timers.c:532:20
	ldr	r0, [sp, #4]
	.loc	1 532 13 is_stmt 0              @ ../../../../Source/timers.c:532:13
	add	sp, #16
	bx	lr
.Ltmp135:
.Lfunc_end13:
	.size	xTimerGetStaticBuffer, .Lfunc_end13-xTimerGetStaticBuffer
	.cfi_endproc
	.cantunwind
	.fnend
                                        @ -- End function
	.hidden	pcTimerGetName                  @ -- Begin function pcTimerGetName
	.globl	pcTimerGetName
	.p2align	1
	.type	pcTimerGetName,%function
	.code	16                              @ @pcTimerGetName
	.thumb_func
pcTimerGetName:
.Lfunc_begin14:
	.loc	1 538 0 is_stmt 1               @ ../../../../Source/timers.c:538:0
	.fnstart
	.cfi_startproc
@ %bb.0:
	.pad	#8
	sub	sp, #8
	.cfi_def_cfa_offset 8
	str	r0, [sp, #4]
.Ltmp136:
	.loc	1 539 29 prologue_end           @ ../../../../Source/timers.c:539:29
	ldr	r0, [sp, #4]
	.loc	1 539 19 is_stmt 0              @ ../../../../Source/timers.c:539:19
	str	r0, [sp]
.Ltmp137:
	.loc	1 541 9 is_stmt 1               @ ../../../../Source/timers.c:541:9
	ldr	r0, [sp, #4]
.Ltmp138:
	.loc	1 541 9 is_stmt 0               @ ../../../../Source/timers.c:541:9
	cbnz	r0, .LBB14_3
	b	.LBB14_1
.LBB14_1:
.Ltmp139:
	.loc	1 541 9                         @ ../../../../Source/timers.c:541:9
	@APP
	cpsid i
	@NO_APP
	b	.LBB14_2
.LBB14_2:                               @ =>This Inner Loop Header: Depth=1
.Ltmp140:
	.loc	1 541 9                         @ ../../../../Source/timers.c:541:9
	b	.LBB14_2
.Ltmp141:
.LBB14_3:
	.loc	1 542 16 is_stmt 1              @ ../../../../Source/timers.c:542:16
	ldr	r0, [sp]
	.loc	1 542 25 is_stmt 0              @ ../../../../Source/timers.c:542:25
	ldr	r0, [r0]
	.loc	1 542 9                         @ ../../../../Source/timers.c:542:9
	add	sp, #8
	bx	lr
.Ltmp142:
.Lfunc_end14:
	.size	pcTimerGetName, .Lfunc_end14-pcTimerGetName
	.cfi_endproc
	.cantunwind
	.fnend
                                        @ -- End function
	.hidden	xTimerIsTimerActive             @ -- Begin function xTimerIsTimerActive
	.globl	xTimerIsTimerActive
	.p2align	1
	.type	xTimerIsTimerActive,%function
	.code	16                              @ @xTimerIsTimerActive
	.thumb_func
xTimerIsTimerActive:
.Lfunc_begin15:
	.loc	1 1007 0 is_stmt 1              @ ../../../../Source/timers.c:1007:0
	.fnstart
	.cfi_startproc
@ %bb.0:
	.save	{r7, lr}
	push	{r7, lr}
	.cfi_def_cfa_offset 8
	.cfi_offset lr, -4
	.cfi_offset r7, -8
	.pad	#16
	sub	sp, #16
	.cfi_def_cfa_offset 24
	str	r0, [sp, #12]
.Ltmp143:
	.loc	1 1009 29 prologue_end          @ ../../../../Source/timers.c:1009:29
	ldr	r0, [sp, #12]
	.loc	1 1009 19 is_stmt 0             @ ../../../../Source/timers.c:1009:19
	str	r0, [sp, #4]
.Ltmp144:
	.loc	1 1011 9 is_stmt 1              @ ../../../../Source/timers.c:1011:9
	ldr	r0, [sp, #12]
.Ltmp145:
	.loc	1 1011 9 is_stmt 0              @ ../../../../Source/timers.c:1011:9
	cbnz	r0, .LBB15_3
	b	.LBB15_1
.LBB15_1:
.Ltmp146:
	.loc	1 1011 9                        @ ../../../../Source/timers.c:1011:9
	@APP
	cpsid i
	@NO_APP
	b	.LBB15_2
.LBB15_2:                               @ =>This Inner Loop Header: Depth=1
.Ltmp147:
	.loc	1 1011 9                        @ ../../../../Source/timers.c:1011:9
	b	.LBB15_2
.Ltmp148:
.LBB15_3:
	.loc	1 1014 9 is_stmt 1              @ ../../../../Source/timers.c:1014:9
	bl	vPortEnterCritical
.Ltmp149:
	.loc	1 1016 19                       @ ../../../../Source/timers.c:1016:19
	ldr	r0, [sp, #4]
	movs	r1, #40
	ldrb	r0, [r0, r1]
.Ltmp150:
	.loc	1 1016 17 is_stmt 0             @ ../../../../Source/timers.c:1016:17
	lsls	r0, r0, #31
	cbnz	r0, .LBB15_5
	b	.LBB15_4
.LBB15_4:
	.loc	1 0 17                          @ ../../../../Source/timers.c:0:17
	movs	r0, #0
.Ltmp151:
	.loc	1 1018 25 is_stmt 1             @ ../../../../Source/timers.c:1018:25
	str	r0, [sp, #8]
	.loc	1 1019 13                       @ ../../../../Source/timers.c:1019:13
	b	.LBB15_6
.Ltmp152:
.LBB15_5:
	.loc	1 0 13 is_stmt 0                @ ../../../../Source/timers.c:0:13
	movs	r0, #1
.Ltmp153:
	.loc	1 1022 25 is_stmt 1             @ ../../../../Source/timers.c:1022:25
	str	r0, [sp, #8]
	b	.LBB15_6
.Ltmp154:
.LBB15_6:
	.loc	1 1025 9                        @ ../../../../Source/timers.c:1025:9
	bl	vPortExitCritical
	.loc	1 1027 16                       @ ../../../../Source/timers.c:1027:16
	ldr	r0, [sp, #8]
	.loc	1 1027 9 is_stmt 0              @ ../../../../Source/timers.c:1027:9
	add	sp, #16
	pop	{r7, pc}
.Ltmp155:
.Lfunc_end15:
	.size	xTimerIsTimerActive, .Lfunc_end15-xTimerIsTimerActive
	.cfi_endproc
	.cantunwind
	.fnend
                                        @ -- End function
	.hidden	pvTimerGetTimerID               @ -- Begin function pvTimerGetTimerID
	.globl	pvTimerGetTimerID
	.p2align	1
	.type	pvTimerGetTimerID,%function
	.code	16                              @ @pvTimerGetTimerID
	.thumb_func
pvTimerGetTimerID:
.Lfunc_begin16:
	.loc	1 1032 0 is_stmt 1              @ ../../../../Source/timers.c:1032:0
	.fnstart
	.cfi_startproc
@ %bb.0:
	.save	{r7, lr}
	push	{r7, lr}
	.cfi_def_cfa_offset 8
	.cfi_offset lr, -4
	.cfi_offset r7, -8
	.pad	#16
	sub	sp, #16
	.cfi_def_cfa_offset 24
	str	r0, [sp, #12]
.Ltmp156:
	.loc	1 1033 35 prologue_end          @ ../../../../Source/timers.c:1033:35
	ldr	r0, [sp, #12]
	.loc	1 1033 25 is_stmt 0             @ ../../../../Source/timers.c:1033:25
	str	r0, [sp, #8]
.Ltmp157:
	.loc	1 1036 9 is_stmt 1              @ ../../../../Source/timers.c:1036:9
	ldr	r0, [sp, #12]
.Ltmp158:
	.loc	1 1036 9 is_stmt 0              @ ../../../../Source/timers.c:1036:9
	cbnz	r0, .LBB16_3
	b	.LBB16_1
.LBB16_1:
.Ltmp159:
	.loc	1 1036 9                        @ ../../../../Source/timers.c:1036:9
	@APP
	cpsid i
	@NO_APP
	b	.LBB16_2
.LBB16_2:                               @ =>This Inner Loop Header: Depth=1
.Ltmp160:
	.loc	1 1036 9                        @ ../../../../Source/timers.c:1036:9
	b	.LBB16_2
.Ltmp161:
.LBB16_3:
	.loc	1 1038 9 is_stmt 1              @ ../../../../Source/timers.c:1038:9
	bl	vPortEnterCritical
.Ltmp162:
	.loc	1 1040 24                       @ ../../../../Source/timers.c:1040:24
	ldr	r0, [sp, #8]
	.loc	1 1040 33 is_stmt 0             @ ../../../../Source/timers.c:1040:33
	ldr	r0, [r0, #28]
	.loc	1 1040 22                       @ ../../../../Source/timers.c:1040:22
	str	r0, [sp, #4]
.Ltmp163:
	.loc	1 1042 9 is_stmt 1              @ ../../../../Source/timers.c:1042:9
	bl	vPortExitCritical
	.loc	1 1044 16                       @ ../../../../Source/timers.c:1044:16
	ldr	r0, [sp, #4]
	.loc	1 1044 9 is_stmt 0              @ ../../../../Source/timers.c:1044:9
	add	sp, #16
	pop	{r7, pc}
.Ltmp164:
.Lfunc_end16:
	.size	pvTimerGetTimerID, .Lfunc_end16-pvTimerGetTimerID
	.cfi_endproc
	.cantunwind
	.fnend
                                        @ -- End function
	.hidden	vTimerSetTimerID                @ -- Begin function vTimerSetTimerID
	.globl	vTimerSetTimerID
	.p2align	1
	.type	vTimerSetTimerID,%function
	.code	16                              @ @vTimerSetTimerID
	.thumb_func
vTimerSetTimerID:
.Lfunc_begin17:
	.loc	1 1050 0 is_stmt 1              @ ../../../../Source/timers.c:1050:0
	.fnstart
	.cfi_startproc
@ %bb.0:
	.save	{r7, lr}
	push	{r7, lr}
	.cfi_def_cfa_offset 8
	.cfi_offset lr, -4
	.cfi_offset r7, -8
	.pad	#16
	sub	sp, #16
	.cfi_def_cfa_offset 24
	str	r0, [sp, #12]
	str	r1, [sp, #8]
.Ltmp165:
	.loc	1 1051 35 prologue_end          @ ../../../../Source/timers.c:1051:35
	ldr	r0, [sp, #12]
	.loc	1 1051 25 is_stmt 0             @ ../../../../Source/timers.c:1051:25
	str	r0, [sp, #4]
.Ltmp166:
	.loc	1 1053 9 is_stmt 1              @ ../../../../Source/timers.c:1053:9
	ldr	r0, [sp, #12]
.Ltmp167:
	.loc	1 1053 9 is_stmt 0              @ ../../../../Source/timers.c:1053:9
	cbnz	r0, .LBB17_3
	b	.LBB17_1
.LBB17_1:
.Ltmp168:
	.loc	1 1053 9                        @ ../../../../Source/timers.c:1053:9
	@APP
	cpsid i
	@NO_APP
	b	.LBB17_2
.LBB17_2:                               @ =>This Inner Loop Header: Depth=1
.Ltmp169:
	.loc	1 1053 9                        @ ../../../../Source/timers.c:1053:9
	b	.LBB17_2
.Ltmp170:
.LBB17_3:
	.loc	1 1055 9 is_stmt 1              @ ../../../../Source/timers.c:1055:9
	bl	vPortEnterCritical
.Ltmp171:
	.loc	1 1057 34                       @ ../../../../Source/timers.c:1057:34
	ldr	r0, [sp, #8]
	.loc	1 1057 13 is_stmt 0             @ ../../../../Source/timers.c:1057:13
	ldr	r1, [sp, #4]
	.loc	1 1057 32                       @ ../../../../Source/timers.c:1057:32
	str	r0, [r1, #28]
.Ltmp172:
	.loc	1 1059 9 is_stmt 1              @ ../../../../Source/timers.c:1059:9
	bl	vPortExitCritical
	.loc	1 1060 5                        @ ../../../../Source/timers.c:1060:5
	add	sp, #16
	pop	{r7, pc}
.Ltmp173:
.Lfunc_end17:
	.size	vTimerSetTimerID, .Lfunc_end17-vTimerSetTimerID
	.cfi_endproc
	.cantunwind
	.fnend
                                        @ -- End function
	.hidden	xTimerPendFunctionCallFromISR   @ -- Begin function xTimerPendFunctionCallFromISR
	.globl	xTimerPendFunctionCallFromISR
	.p2align	1
	.type	xTimerPendFunctionCallFromISR,%function
	.code	16                              @ @xTimerPendFunctionCallFromISR
	.thumb_func
xTimerPendFunctionCallFromISR:
.Lfunc_begin18:
	.loc	1 1069 0                        @ ../../../../Source/timers.c:1069:0
	.fnstart
	.cfi_startproc
@ %bb.0:
	.save	{r7, lr}
	push	{r7, lr}
	.cfi_def_cfa_offset 8
	.cfi_offset lr, -4
	.cfi_offset r7, -8
	.pad	#40
	sub	sp, #40
	.cfi_def_cfa_offset 48
	str	r0, [sp, #36]
	str	r1, [sp, #32]
	str	r2, [sp, #28]
	str	r3, [sp, #24]
	movs	r0, #1
	mvns	r0, r0
.Ltmp174:
	.loc	1 1075 33 prologue_end          @ ../../../../Source/timers.c:1075:33
	str	r0, [sp, #8]
	.loc	1 1076 65                       @ ../../../../Source/timers.c:1076:65
	ldr	r0, [sp, #36]
	.loc	1 1076 63 is_stmt 0             @ ../../../../Source/timers.c:1076:63
	str	r0, [sp, #12]
	.loc	1 1077 59 is_stmt 1             @ ../../../../Source/timers.c:1077:59
	ldr	r0, [sp, #32]
	.loc	1 1077 57 is_stmt 0             @ ../../../../Source/timers.c:1077:57
	str	r0, [sp, #16]
	.loc	1 1078 59 is_stmt 1             @ ../../../../Source/timers.c:1078:59
	ldr	r0, [sp, #28]
	.loc	1 1078 57 is_stmt 0             @ ../../../../Source/timers.c:1078:57
	str	r0, [sp, #20]
	.loc	1 1080 23 is_stmt 1             @ ../../../../Source/timers.c:1080:23
	movw	r0, :lower16:xTimerQueue
	movt	r0, :upper16:xTimerQueue
	ldr	r0, [r0]
	ldr	r2, [sp, #24]
	add	r1, sp, #8
	movs	r3, #0
	bl	xQueueGenericSendFromISR
	.loc	1 1080 21 is_stmt 0             @ ../../../../Source/timers.c:1080:21
	str	r0, [sp, #4]
	.loc	1 1084 20 is_stmt 1             @ ../../../../Source/timers.c:1084:20
	ldr	r0, [sp, #4]
	.loc	1 1084 13 is_stmt 0             @ ../../../../Source/timers.c:1084:13
	add	sp, #40
	pop	{r7, pc}
.Ltmp175:
.Lfunc_end18:
	.size	xTimerPendFunctionCallFromISR, .Lfunc_end18-xTimerPendFunctionCallFromISR
	.cfi_endproc
	.cantunwind
	.fnend
                                        @ -- End function
	.hidden	xTimerPendFunctionCall          @ -- Begin function xTimerPendFunctionCall
	.globl	xTimerPendFunctionCall
	.p2align	1
	.type	xTimerPendFunctionCall,%function
	.code	16                              @ @xTimerPendFunctionCall
	.thumb_func
xTimerPendFunctionCall:
.Lfunc_begin19:
	.loc	1 1096 0 is_stmt 1              @ ../../../../Source/timers.c:1096:0
	.fnstart
	.cfi_startproc
@ %bb.0:
	.save	{r7, lr}
	push	{r7, lr}
	.cfi_def_cfa_offset 8
	.cfi_offset lr, -4
	.cfi_offset r7, -8
	.pad	#40
	sub	sp, #40
	.cfi_def_cfa_offset 48
	str	r0, [sp, #36]
	str	r1, [sp, #32]
	str	r2, [sp, #28]
	str	r3, [sp, #24]
.Ltmp176:
	.loc	1 1103 13 prologue_end          @ ../../../../Source/timers.c:1103:13
	movw	r0, :lower16:xTimerQueue
	movt	r0, :upper16:xTimerQueue
	ldr	r0, [r0]
.Ltmp177:
	.loc	1 1103 13 is_stmt 0             @ ../../../../Source/timers.c:1103:13
	cbnz	r0, .LBB19_3
	b	.LBB19_1
.LBB19_1:
.Ltmp178:
	.loc	1 1103 13                       @ ../../../../Source/timers.c:1103:13
	@APP
	cpsid i
	@NO_APP
	b	.LBB19_2
.LBB19_2:                               @ =>This Inner Loop Header: Depth=1
.Ltmp179:
	.loc	1 1103 13                       @ ../../../../Source/timers.c:1103:13
	b	.LBB19_2
.Ltmp180:
.LBB19_3:
	.loc	1 0 13                          @ ../../../../Source/timers.c:0:13
	movs	r3, #0
	mvns	r0, r3
	.loc	1 1107 33 is_stmt 1             @ ../../../../Source/timers.c:1107:33
	str	r0, [sp, #8]
	.loc	1 1108 65                       @ ../../../../Source/timers.c:1108:65
	ldr	r0, [sp, #36]
	.loc	1 1108 63 is_stmt 0             @ ../../../../Source/timers.c:1108:63
	str	r0, [sp, #12]
	.loc	1 1109 59 is_stmt 1             @ ../../../../Source/timers.c:1109:59
	ldr	r0, [sp, #32]
	.loc	1 1109 57 is_stmt 0             @ ../../../../Source/timers.c:1109:57
	str	r0, [sp, #16]
	.loc	1 1110 59 is_stmt 1             @ ../../../../Source/timers.c:1110:59
	ldr	r0, [sp, #28]
	.loc	1 1110 57 is_stmt 0             @ ../../../../Source/timers.c:1110:57
	str	r0, [sp, #20]
	.loc	1 1112 23 is_stmt 1             @ ../../../../Source/timers.c:1112:23
	movw	r0, :lower16:xTimerQueue
	movt	r0, :upper16:xTimerQueue
	ldr	r0, [r0]
	ldr	r2, [sp, #24]
	add	r1, sp, #8
	bl	xQueueGenericSend
	.loc	1 1112 21 is_stmt 0             @ ../../../../Source/timers.c:1112:21
	str	r0, [sp, #4]
	.loc	1 1116 20 is_stmt 1             @ ../../../../Source/timers.c:1116:20
	ldr	r0, [sp, #4]
	.loc	1 1116 13 is_stmt 0             @ ../../../../Source/timers.c:1116:13
	add	sp, #40
	pop	{r7, pc}
.Ltmp181:
.Lfunc_end19:
	.size	xTimerPendFunctionCall, .Lfunc_end19-xTimerPendFunctionCall
	.cfi_endproc
	.cantunwind
	.fnend
                                        @ -- End function
	.hidden	uxTimerGetTimerNumber           @ -- Begin function uxTimerGetTimerNumber
	.globl	uxTimerGetTimerNumber
	.p2align	1
	.type	uxTimerGetTimerNumber,%function
	.code	16                              @ @uxTimerGetTimerNumber
	.thumb_func
uxTimerGetTimerNumber:
.Lfunc_begin20:
	.loc	1 1125 0 is_stmt 1              @ ../../../../Source/timers.c:1125:0
	.fnstart
	.cfi_startproc
@ %bb.0:
	.pad	#4
	sub	sp, #4
	.cfi_def_cfa_offset 4
	str	r0, [sp]
.Ltmp182:
	.loc	1 1126 36 prologue_end          @ ../../../../Source/timers.c:1126:36
	ldr	r0, [sp]
	.loc	1 1126 46 is_stmt 0             @ ../../../../Source/timers.c:1126:46
	ldr	r0, [r0, #36]
	.loc	1 1126 13                       @ ../../../../Source/timers.c:1126:13
	add	sp, #4
	bx	lr
.Ltmp183:
.Lfunc_end20:
	.size	uxTimerGetTimerNumber, .Lfunc_end20-uxTimerGetTimerNumber
	.cfi_endproc
	.cantunwind
	.fnend
                                        @ -- End function
	.hidden	vTimerSetTimerNumber            @ -- Begin function vTimerSetTimerNumber
	.globl	vTimerSetTimerNumber
	.p2align	1
	.type	vTimerSetTimerNumber,%function
	.code	16                              @ @vTimerSetTimerNumber
	.thumb_func
vTimerSetTimerNumber:
.Lfunc_begin21:
	.loc	1 1136 0 is_stmt 1              @ ../../../../Source/timers.c:1136:0
	.fnstart
	.cfi_startproc
@ %bb.0:
	.pad	#8
	sub	sp, #8
	.cfi_def_cfa_offset 8
	str	r0, [sp, #4]
	str	r1, [sp]
.Ltmp184:
	.loc	1 1137 55 prologue_end          @ ../../../../Source/timers.c:1137:55
	ldr	r0, [sp]
	.loc	1 1137 29 is_stmt 0             @ ../../../../Source/timers.c:1137:29
	ldr	r1, [sp, #4]
	.loc	1 1137 53                       @ ../../../../Source/timers.c:1137:53
	str	r0, [r1, #36]
	.loc	1 1138 9 is_stmt 1              @ ../../../../Source/timers.c:1138:9
	add	sp, #8
	bx	lr
.Ltmp185:
.Lfunc_end21:
	.size	vTimerSetTimerNumber, .Lfunc_end21-vTimerSetTimerNumber
	.cfi_endproc
	.cantunwind
	.fnend
                                        @ -- End function
	.p2align	1                               @ -- Begin function prvGetNextExpireTime
	.type	prvGetNextExpireTime,%function
	.code	16                              @ @prvGetNextExpireTime
	.thumb_func
prvGetNextExpireTime:
.Lfunc_begin22:
	.loc	1 689 0                         @ ../../../../Source/timers.c:689:0
	.fnstart
	.cfi_startproc
@ %bb.0:
	.pad	#8
	sub	sp, #8
	.cfi_def_cfa_offset 8
	str	r0, [sp, #4]
.Ltmp186:
	.loc	1 699 27 prologue_end           @ ../../../../Source/timers.c:699:27
	movw	r0, :lower16:pxCurrentTimerList
	movt	r0, :upper16:pxCurrentTimerList
	ldr	r0, [r0]
	ldr	r0, [r0]
	rsbs	r1, r0, #0
	adcs	r0, r1
	.loc	1 699 10 is_stmt 0              @ ../../../../Source/timers.c:699:10
	ldr	r1, [sp, #4]
	.loc	1 699 25                        @ ../../../../Source/timers.c:699:25
	str	r0, [r1]
.Ltmp187:
	.loc	1 701 14 is_stmt 1              @ ../../../../Source/timers.c:701:14
	ldr	r0, [sp, #4]
	.loc	1 701 13 is_stmt 0              @ ../../../../Source/timers.c:701:13
	ldr	r0, [r0]
.Ltmp188:
	.loc	1 701 13                        @ ../../../../Source/timers.c:701:13
	cbnz	r0, .LBB22_2
	b	.LBB22_1
.LBB22_1:
.Ltmp189:
	.loc	1 703 31 is_stmt 1              @ ../../../../Source/timers.c:703:31
	movw	r0, :lower16:pxCurrentTimerList
	movt	r0, :upper16:pxCurrentTimerList
	ldr	r0, [r0]
	ldr	r0, [r0, #12]
	ldr	r0, [r0]
	.loc	1 703 29 is_stmt 0              @ ../../../../Source/timers.c:703:29
	str	r0, [sp]
	.loc	1 704 9 is_stmt 1               @ ../../../../Source/timers.c:704:9
	b	.LBB22_3
.Ltmp190:
.LBB22_2:
	.loc	1 0 9 is_stmt 0                 @ ../../../../Source/timers.c:0:9
	movs	r0, #0
.Ltmp191:
	.loc	1 708 29 is_stmt 1              @ ../../../../Source/timers.c:708:29
	str	r0, [sp]
	b	.LBB22_3
.Ltmp192:
.LBB22_3:
	.loc	1 711 16                        @ ../../../../Source/timers.c:711:16
	ldr	r0, [sp]
	.loc	1 711 9 is_stmt 0               @ ../../../../Source/timers.c:711:9
	add	sp, #8
	bx	lr
.Ltmp193:
.Lfunc_end22:
	.size	prvGetNextExpireTime, .Lfunc_end22-prvGetNextExpireTime
	.cfi_endproc
	.cantunwind
	.fnend
                                        @ -- End function
	.p2align	1                               @ -- Begin function prvProcessTimerOrBlockTask
	.type	prvProcessTimerOrBlockTask,%function
	.code	16                              @ @prvProcessTimerOrBlockTask
	.thumb_func
prvProcessTimerOrBlockTask:
.Lfunc_begin23:
	.loc	1 628 0 is_stmt 1               @ ../../../../Source/timers.c:628:0
	.fnstart
	.cfi_startproc
@ %bb.0:
	.save	{r7, lr}
	push	{r7, lr}
	.cfi_def_cfa_offset 8
	.cfi_offset lr, -4
	.cfi_offset r7, -8
	.pad	#16
	sub	sp, #16
	.cfi_def_cfa_offset 24
	str	r0, [sp, #12]
	str	r1, [sp, #8]
.Ltmp194:
	.loc	1 632 9 prologue_end            @ ../../../../Source/timers.c:632:9
	bl	vTaskSuspendAll
	mov	r0, sp
.Ltmp195:
	.loc	1 639 24                        @ ../../../../Source/timers.c:639:24
	bl	prvSampleTimeNow
	.loc	1 639 22 is_stmt 0              @ ../../../../Source/timers.c:639:22
	str	r0, [sp, #4]
.Ltmp196:
	.loc	1 641 17 is_stmt 1              @ ../../../../Source/timers.c:641:17
	ldr	r0, [sp]
.Ltmp197:
	.loc	1 641 17 is_stmt 0              @ ../../../../Source/timers.c:641:17
	cbnz	r0, .LBB23_11
	b	.LBB23_1
.LBB23_1:
.Ltmp198:
	.loc	1 644 23 is_stmt 1              @ ../../../../Source/timers.c:644:23
	ldr	r0, [sp, #8]
	.loc	1 644 50 is_stmt 0              @ ../../../../Source/timers.c:644:50
	cbnz	r0, .LBB23_4
	b	.LBB23_2
.LBB23_2:
	.loc	1 644 55                        @ ../../../../Source/timers.c:644:55
	ldr	r0, [sp, #12]
	.loc	1 644 74                        @ ../../../../Source/timers.c:644:74
	ldr	r1, [sp, #4]
.Ltmp199:
	.loc	1 644 21                        @ ../../../../Source/timers.c:644:21
	cmp	r0, r1
	bhi	.LBB23_4
	b	.LBB23_3
.LBB23_3:
.Ltmp200:
	.loc	1 646 30 is_stmt 1              @ ../../../../Source/timers.c:646:30
	bl	xTaskResumeAll
	.loc	1 647 45                        @ ../../../../Source/timers.c:647:45
	ldr	r0, [sp, #12]
	.loc	1 647 62 is_stmt 0              @ ../../../../Source/timers.c:647:62
	ldr	r1, [sp, #4]
	.loc	1 647 21                        @ ../../../../Source/timers.c:647:21
	bl	prvProcessExpiredTimer
	.loc	1 648 17 is_stmt 1              @ ../../../../Source/timers.c:648:17
	b	.LBB23_10
.Ltmp201:
.LBB23_4:
	.loc	1 657 25                        @ ../../../../Source/timers.c:657:25
	ldr	r0, [sp, #8]
.Ltmp202:
	.loc	1 657 25 is_stmt 0              @ ../../../../Source/timers.c:657:25
	cbz	r0, .LBB23_6
	b	.LBB23_5
.LBB23_5:
.Ltmp203:
	.loc	1 661 41 is_stmt 1              @ ../../../../Source/timers.c:661:41
	movw	r0, :lower16:pxOverflowTimerList
	movt	r0, :upper16:pxOverflowTimerList
	ldr	r0, [r0]
	ldr	r0, [r0]
	rsbs	r1, r0, #0
	adcs	r0, r1
	.loc	1 661 39 is_stmt 0              @ ../../../../Source/timers.c:661:39
	str	r0, [sp, #8]
	.loc	1 662 21 is_stmt 1              @ ../../../../Source/timers.c:662:21
	b	.LBB23_6
.Ltmp204:
.LBB23_6:
	.loc	1 664 53                        @ ../../../../Source/timers.c:664:53
	movw	r0, :lower16:xTimerQueue
	movt	r0, :upper16:xTimerQueue
	ldr	r0, [r0]
	.loc	1 664 68 is_stmt 0              @ ../../../../Source/timers.c:664:68
	ldr	r1, [sp, #12]
	.loc	1 664 86                        @ ../../../../Source/timers.c:664:86
	ldr	r2, [sp, #4]
	.loc	1 664 84                        @ ../../../../Source/timers.c:664:84
	subs	r1, r1, r2
	.loc	1 664 98                        @ ../../../../Source/timers.c:664:98
	ldr	r2, [sp, #8]
	.loc	1 664 21                        @ ../../../../Source/timers.c:664:21
	bl	vQueueWaitForMessageRestricted
.Ltmp205:
	.loc	1 666 25 is_stmt 1              @ ../../../../Source/timers.c:666:25
	bl	xTaskResumeAll
.Ltmp206:
	.loc	1 666 25 is_stmt 0              @ ../../../../Source/timers.c:666:25
	cbnz	r0, .LBB23_8
	b	.LBB23_7
.LBB23_7:
.Ltmp207:
	.loc	1 672 25 is_stmt 1              @ ../../../../Source/timers.c:672:25
	bl	vPortYield
	.loc	1 673 21                        @ ../../../../Source/timers.c:673:21
	b	.LBB23_9
.Ltmp208:
.LBB23_8:
	.loc	1 0 21 is_stmt 0                @ ../../../../Source/timers.c:0:21
	b	.LBB23_9
.LBB23_9:
	b	.LBB23_10
.LBB23_10:
	.loc	1 679 13 is_stmt 1              @ ../../../../Source/timers.c:679:13
	b	.LBB23_12
.Ltmp209:
.LBB23_11:
	.loc	1 682 26                        @ ../../../../Source/timers.c:682:26
	bl	xTaskResumeAll
	b	.LBB23_12
.Ltmp210:
.LBB23_12:
	.loc	1 685 5                         @ ../../../../Source/timers.c:685:5
	add	sp, #16
	pop	{r7, pc}
.Ltmp211:
.Lfunc_end23:
	.size	prvProcessTimerOrBlockTask, .Lfunc_end23-prvProcessTimerOrBlockTask
	.cfi_endproc
	.cantunwind
	.fnend
                                        @ -- End function
	.p2align	2                               @ -- Begin function prvProcessReceivedCommands
	.type	prvProcessReceivedCommands,%function
	.code	16                              @ @prvProcessReceivedCommands
	.thumb_func
prvProcessReceivedCommands:
.Lfunc_begin24:
	.loc	1 783 0                         @ ../../../../Source/timers.c:783:0
	.fnstart
	.cfi_startproc
@ %bb.0:
	.save	{r7, lr}
	push	{r7, lr}
	.cfi_def_cfa_offset 8
	.cfi_offset lr, -4
	.cfi_offset r7, -8
	.pad	#40
	sub	sp, #40
	.cfi_def_cfa_offset 48
.Ltmp212:
	.loc	1 789 9 prologue_end            @ ../../../../Source/timers.c:789:9
	b	.LBB24_1
.LBB24_1:                               @ =>This Inner Loop Header: Depth=1
	.loc	1 789 31 is_stmt 0              @ ../../../../Source/timers.c:789:31
	movw	r0, :lower16:xTimerQueue
	movt	r0, :upper16:xTimerQueue
	ldr	r0, [r0]
	add	r1, sp, #24
	movs	r2, #0
	.loc	1 789 16                        @ ../../../../Source/timers.c:789:16
	bl	xQueueReceive
	.loc	1 789 9                         @ ../../../../Source/timers.c:789:9
	cbnz	r0, .LBB24_2
	b	.LBB24_34
.LBB24_2:                               @   in Loop: Header=BB24_1 Depth=1
.Ltmp213:
	.loc	1 795 30 is_stmt 1              @ ../../../../Source/timers.c:795:30
	ldr	r0, [sp, #24]
.Ltmp214:
	.loc	1 795 21 is_stmt 0              @ ../../../../Source/timers.c:795:21
	cmp	r0, #0
	bpl	.LBB24_7
	b	.LBB24_3
.LBB24_3:                               @   in Loop: Header=BB24_1 Depth=1
	.loc	1 0 21                          @ ../../../../Source/timers.c:0:21
	add	r0, sp, #24
.Ltmp215:
	.loc	1 797 81 is_stmt 1              @ ../../../../Source/timers.c:797:81
	adds	r0, r0, #4
	.loc	1 797 56 is_stmt 0              @ ../../../../Source/timers.c:797:56
	str	r0, [sp, #8]
.Ltmp216:
	.loc	1 801 21 is_stmt 1              @ ../../../../Source/timers.c:801:21
	ldr	r0, [sp, #8]
.Ltmp217:
	.loc	1 801 21 is_stmt 0              @ ../../../../Source/timers.c:801:21
	cbnz	r0, .LBB24_6
	b	.LBB24_4
.LBB24_4:
.Ltmp218:
	.loc	1 801 21                        @ ../../../../Source/timers.c:801:21
	@APP
	cpsid i
	@NO_APP
	b	.LBB24_5
.LBB24_5:                               @ =>This Inner Loop Header: Depth=1
.Ltmp219:
	.loc	1 801 21                        @ ../../../../Source/timers.c:801:21
	b	.LBB24_5
.Ltmp220:
.LBB24_6:                               @   in Loop: Header=BB24_1 Depth=1
	.loc	1 804 21 is_stmt 1              @ ../../../../Source/timers.c:804:21
	ldr	r1, [sp, #8]
	.loc	1 804 33 is_stmt 0              @ ../../../../Source/timers.c:804:33
	ldr	r2, [r1]
	.loc	1 804 65                        @ ../../../../Source/timers.c:804:65
	ldr	r0, [r1, #4]
	.loc	1 804 91                        @ ../../../../Source/timers.c:804:91
	ldr	r1, [r1, #8]
	.loc	1 804 21                        @ ../../../../Source/timers.c:804:21
	blx	r2
	.loc	1 805 17 is_stmt 1              @ ../../../../Source/timers.c:805:17
	b	.LBB24_8
.Ltmp221:
.LBB24_7:                               @   in Loop: Header=BB24_1 Depth=1
	.loc	1 0 17 is_stmt 0                @ ../../../../Source/timers.c:0:17
	b	.LBB24_8
.LBB24_8:                               @   in Loop: Header=BB24_1 Depth=1
.Ltmp222:
	.loc	1 815 26 is_stmt 1              @ ../../../../Source/timers.c:815:26
	ldr	r0, [sp, #24]
.Ltmp223:
	.loc	1 815 17 is_stmt 0              @ ../../../../Source/timers.c:815:17
	cmp	r0, #0
	bpl	.LBB24_9
	b	.LBB24_33
.LBB24_9:                               @   in Loop: Header=BB24_1 Depth=1
.Ltmp224:
	.loc	1 819 55 is_stmt 1              @ ../../../../Source/timers.c:819:55
	ldr	r0, [sp, #32]
	.loc	1 819 25 is_stmt 0              @ ../../../../Source/timers.c:819:25
	str	r0, [sp, #20]
.Ltmp225:
	.loc	1 821 21 is_stmt 1              @ ../../../../Source/timers.c:821:21
	ldr	r0, [sp, #20]
	ldr	r0, [r0, #20]
.Ltmp226:
	.loc	1 821 21 is_stmt 0              @ ../../../../Source/timers.c:821:21
	cbz	r0, .LBB24_11
	b	.LBB24_10
.LBB24_10:                              @   in Loop: Header=BB24_1 Depth=1
.Ltmp227:
	.loc	1 824 47 is_stmt 1              @ ../../../../Source/timers.c:824:47
	ldr	r0, [sp, #20]
	.loc	1 824 56 is_stmt 0              @ ../../../../Source/timers.c:824:56
	adds	r0, r0, #4
	.loc	1 824 30                        @ ../../../../Source/timers.c:824:30
	bl	uxListRemove
	.loc	1 825 17 is_stmt 1              @ ../../../../Source/timers.c:825:17
	b	.LBB24_12
.Ltmp228:
.LBB24_11:                              @   in Loop: Header=BB24_1 Depth=1
	.loc	1 0 17 is_stmt 0                @ ../../../../Source/timers.c:0:17
	b	.LBB24_12
.LBB24_12:                              @   in Loop: Header=BB24_1 Depth=1
	add	r0, sp, #16
	.loc	1 839 28 is_stmt 1              @ ../../../../Source/timers.c:839:28
	bl	prvSampleTimeNow
	.loc	1 839 26 is_stmt 0              @ ../../../../Source/timers.c:839:26
	str	r0, [sp, #12]
	.loc	1 841 34 is_stmt 1              @ ../../../../Source/timers.c:841:34
	ldr	r0, [sp, #24]
	.loc	1 841 17 is_stmt 0              @ ../../../../Source/timers.c:841:17
	subs	r0, r0, #1
	str	r0, [sp, #4]                    @ 4-byte Spill
	cmp	r0, #8
	bhi	.LBB24_31
@ %bb.13:                               @   in Loop: Header=BB24_1 Depth=1
	.loc	1 0 17                          @ ../../../../Source/timers.c:0:17
	ldr	r1, [sp, #4]                    @ 4-byte Reload
	lsls	r2, r1, #2
	adr	r0, .LJTI24_0
	adds	r0, r0, r2
	mov	pc, r0
@ %bb.14:
	.p2align	2
.LJTI24_0:
	b.w	.LBB24_15
	b.w	.LBB24_15
	b.w	.LBB24_22
	b.w	.LBB24_23
	b.w	.LBB24_27
	b.w	.LBB24_15
	b.w	.LBB24_15
	b.w	.LBB24_22
	b.w	.LBB24_23
.LBB24_15:                              @   in Loop: Header=BB24_1 Depth=1
.Ltmp229:
	.loc	1 848 25 is_stmt 1              @ ../../../../Source/timers.c:848:25
	ldr	r1, [sp, #20]
	movs	r2, #40
	.loc	1 848 43 is_stmt 0              @ ../../../../Source/timers.c:848:43
	ldrb	r0, [r1, r2]
	movs	r3, #1
	orrs	r0, r3
	strb	r0, [r1, r2]
.Ltmp230:
	.loc	1 850 57 is_stmt 1              @ ../../../../Source/timers.c:850:57
	ldr	r0, [sp, #20]
	.loc	1 850 94 is_stmt 0              @ ../../../../Source/timers.c:850:94
	ldr	r3, [sp, #28]
	.loc	1 850 119                       @ ../../../../Source/timers.c:850:119
	ldr	r1, [r0, #24]
	.loc	1 850 108                       @ ../../../../Source/timers.c:850:108
	adds	r1, r3, r1
	.loc	1 850 140                       @ ../../../../Source/timers.c:850:140
	ldr	r2, [sp, #12]
	.loc	1 850 29                        @ ../../../../Source/timers.c:850:29
	bl	prvInsertTimerInActiveList
.Ltmp231:
	.loc	1 850 29                        @ ../../../../Source/timers.c:850:29
	cbz	r0, .LBB24_20
	b	.LBB24_16
.LBB24_16:                              @   in Loop: Header=BB24_1 Depth=1
.Ltmp232:
	.loc	1 854 35 is_stmt 1              @ ../../../../Source/timers.c:854:35
	ldr	r0, [sp, #20]
	movs	r1, #40
	ldrb	r0, [r0, r1]
.Ltmp233:
	.loc	1 854 33 is_stmt 0              @ ../../../../Source/timers.c:854:33
	lsls	r0, r0, #29
	cmp	r0, #0
	bpl	.LBB24_18
	b	.LBB24_17
.LBB24_17:                              @   in Loop: Header=BB24_1 Depth=1
.Ltmp234:
	.loc	1 856 49 is_stmt 1              @ ../../../../Source/timers.c:856:49
	ldr	r0, [sp, #20]
	.loc	1 856 86 is_stmt 0              @ ../../../../Source/timers.c:856:86
	ldr	r1, [sp, #28]
	.loc	1 856 111                       @ ../../../../Source/timers.c:856:111
	ldr	r2, [r0, #24]
	.loc	1 856 100                       @ ../../../../Source/timers.c:856:100
	adds	r1, r1, r2
	.loc	1 856 132                       @ ../../../../Source/timers.c:856:132
	ldr	r2, [sp, #12]
	.loc	1 856 33                        @ ../../../../Source/timers.c:856:33
	bl	prvReloadTimer
	.loc	1 857 29 is_stmt 1              @ ../../../../Source/timers.c:857:29
	b	.LBB24_19
.Ltmp235:
.LBB24_18:                              @   in Loop: Header=BB24_1 Depth=1
	.loc	1 860 33                        @ ../../../../Source/timers.c:860:33
	ldr	r1, [sp, #20]
	movs	r2, #40
	.loc	1 860 51 is_stmt 0              @ ../../../../Source/timers.c:860:51
	ldrb	r0, [r1, r2]
	movs	r3, #254
	ands	r0, r3
	strb	r0, [r1, r2]
	b	.LBB24_19
.Ltmp236:
.LBB24_19:                              @   in Loop: Header=BB24_1 Depth=1
	.loc	1 865 29 is_stmt 1              @ ../../../../Source/timers.c:865:29
	ldr	r0, [sp, #20]
	.loc	1 865 38 is_stmt 0              @ ../../../../Source/timers.c:865:38
	ldr	r1, [r0, #32]
	.loc	1 865 29                        @ ../../../../Source/timers.c:865:29
	blx	r1
	.loc	1 866 25 is_stmt 1              @ ../../../../Source/timers.c:866:25
	b	.LBB24_21
.Ltmp237:
.LBB24_20:                              @   in Loop: Header=BB24_1 Depth=1
	.loc	1 0 25 is_stmt 0                @ ../../../../Source/timers.c:0:25
	b	.LBB24_21
.LBB24_21:                              @   in Loop: Header=BB24_1 Depth=1
	.loc	1 872 25 is_stmt 1              @ ../../../../Source/timers.c:872:25
	b	.LBB24_32
.LBB24_22:                              @   in Loop: Header=BB24_1 Depth=1
	.loc	1 877 25                        @ ../../../../Source/timers.c:877:25
	ldr	r1, [sp, #20]
	movs	r2, #40
	.loc	1 877 43 is_stmt 0              @ ../../../../Source/timers.c:877:43
	ldrb	r0, [r1, r2]
	movs	r3, #254
	ands	r0, r3
	strb	r0, [r1, r2]
	.loc	1 878 25 is_stmt 1              @ ../../../../Source/timers.c:878:25
	b	.LBB24_32
.LBB24_23:                              @   in Loop: Header=BB24_1 Depth=1
	.loc	1 882 25                        @ ../../../../Source/timers.c:882:25
	ldr	r1, [sp, #20]
	movs	r2, #40
	.loc	1 882 43 is_stmt 0              @ ../../../../Source/timers.c:882:43
	ldrb	r0, [r1, r2]
	movs	r3, #1
	orrs	r0, r3
	strb	r0, [r1, r2]
	.loc	1 883 84 is_stmt 1              @ ../../../../Source/timers.c:883:84
	ldr	r0, [sp, #28]
	.loc	1 883 25 is_stmt 0              @ ../../../../Source/timers.c:883:25
	ldr	r1, [sp, #20]
	.loc	1 883 54                        @ ../../../../Source/timers.c:883:54
	str	r0, [r1, #24]
.Ltmp238:
	.loc	1 884 25 is_stmt 1              @ ../../../../Source/timers.c:884:25
	ldr	r0, [sp, #20]
	ldr	r0, [r0, #24]
.Ltmp239:
	.loc	1 884 25 is_stmt 0              @ ../../../../Source/timers.c:884:25
	cbnz	r0, .LBB24_26
	b	.LBB24_24
.LBB24_24:
.Ltmp240:
	.loc	1 884 25                        @ ../../../../Source/timers.c:884:25
	@APP
	cpsid i
	@NO_APP
	b	.LBB24_25
.LBB24_25:                              @ =>This Inner Loop Header: Depth=1
.Ltmp241:
	.loc	1 884 25                        @ ../../../../Source/timers.c:884:25
	b	.LBB24_25
.Ltmp242:
.LBB24_26:                              @   in Loop: Header=BB24_1 Depth=1
	.loc	1 892 62 is_stmt 1              @ ../../../../Source/timers.c:892:62
	ldr	r0, [sp, #20]
	.loc	1 892 73 is_stmt 0              @ ../../../../Source/timers.c:892:73
	ldr	r3, [sp, #12]
	.loc	1 892 93                        @ ../../../../Source/timers.c:892:93
	ldr	r1, [r0, #24]
	.loc	1 892 82                        @ ../../../../Source/timers.c:892:82
	adds	r1, r3, r1
	.loc	1 892 34                        @ ../../../../Source/timers.c:892:34
	mov	r2, r3
	bl	prvInsertTimerInActiveList
	.loc	1 893 25 is_stmt 1              @ ../../../../Source/timers.c:893:25
	b	.LBB24_32
.LBB24_27:                              @   in Loop: Header=BB24_1 Depth=1
.Ltmp243:
	.loc	1 901 35                        @ ../../../../Source/timers.c:901:35
	ldr	r0, [sp, #20]
	movs	r1, #40
	ldrb	r0, [r0, r1]
.Ltmp244:
	.loc	1 901 33 is_stmt 0              @ ../../../../Source/timers.c:901:33
	lsls	r0, r0, #30
	cmp	r0, #0
	bmi	.LBB24_29
	b	.LBB24_28
.LBB24_28:                              @   in Loop: Header=BB24_1 Depth=1
.Ltmp245:
	.loc	1 903 44 is_stmt 1              @ ../../../../Source/timers.c:903:44
	ldr	r0, [sp, #20]
	.loc	1 903 33 is_stmt 0              @ ../../../../Source/timers.c:903:33
	bl	vPortFree
	.loc	1 904 29 is_stmt 1              @ ../../../../Source/timers.c:904:29
	b	.LBB24_30
.Ltmp246:
.LBB24_29:                              @   in Loop: Header=BB24_1 Depth=1
	.loc	1 907 33                        @ ../../../../Source/timers.c:907:33
	ldr	r1, [sp, #20]
	movs	r2, #40
	.loc	1 907 51 is_stmt 0              @ ../../../../Source/timers.c:907:51
	ldrb	r0, [r1, r2]
	movs	r3, #254
	ands	r0, r3
	strb	r0, [r1, r2]
	b	.LBB24_30
.Ltmp247:
.LBB24_30:                              @   in Loop: Header=BB24_1 Depth=1
	.loc	1 919 25 is_stmt 1              @ ../../../../Source/timers.c:919:25
	b	.LBB24_32
.LBB24_31:                              @   in Loop: Header=BB24_1 Depth=1
	.loc	1 923 25                        @ ../../../../Source/timers.c:923:25
	b	.LBB24_32
.Ltmp248:
.LBB24_32:                              @   in Loop: Header=BB24_1 Depth=1
	.loc	1 925 13                        @ ../../../../Source/timers.c:925:13
	b	.LBB24_33
.Ltmp249:
.LBB24_33:                              @   in Loop: Header=BB24_1 Depth=1
	.loc	1 789 9                         @ ../../../../Source/timers.c:789:9
	b	.LBB24_1
.LBB24_34:
	.loc	1 927 5                         @ ../../../../Source/timers.c:927:5
	add	sp, #40
	pop	{r7, pc}
.Ltmp250:
.Lfunc_end24:
	.size	prvProcessReceivedCommands, .Lfunc_end24-prvProcessReceivedCommands
	.cfi_endproc
	.cantunwind
	.fnend
                                        @ -- End function
	.p2align	1                               @ -- Begin function prvSampleTimeNow
	.type	prvSampleTimeNow,%function
	.code	16                              @ @prvSampleTimeNow
	.thumb_func
prvSampleTimeNow:
.Lfunc_begin25:
	.loc	1 716 0                         @ ../../../../Source/timers.c:716:0
	.fnstart
	.cfi_startproc
@ %bb.0:
	.save	{r7, lr}
	push	{r7, lr}
	.cfi_def_cfa_offset 8
	.cfi_offset lr, -4
	.cfi_offset r7, -8
	.pad	#8
	sub	sp, #8
	.cfi_def_cfa_offset 16
	str	r0, [sp, #4]
.Ltmp251:
	.loc	1 720 20 prologue_end           @ ../../../../Source/timers.c:720:20
	bl	xTaskGetTickCount
	.loc	1 720 18 is_stmt 0              @ ../../../../Source/timers.c:720:18
	str	r0, [sp]
.Ltmp252:
	.loc	1 722 13 is_stmt 1              @ ../../../../Source/timers.c:722:13
	ldr	r0, [sp]
	.loc	1 722 24 is_stmt 0              @ ../../../../Source/timers.c:722:24
	movw	r1, :lower16:prvSampleTimeNow.xLastTime
	movt	r1, :upper16:prvSampleTimeNow.xLastTime
	ldr	r1, [r1]
.Ltmp253:
	.loc	1 722 13                        @ ../../../../Source/timers.c:722:13
	cmp	r0, r1
	bhs	.LBB25_2
	b	.LBB25_1
.LBB25_1:
.Ltmp254:
	.loc	1 724 13 is_stmt 1              @ ../../../../Source/timers.c:724:13
	bl	prvSwitchTimerLists
	.loc	1 725 14                        @ ../../../../Source/timers.c:725:14
	ldr	r1, [sp, #4]
	movs	r0, #1
	.loc	1 725 39 is_stmt 0              @ ../../../../Source/timers.c:725:39
	str	r0, [r1]
	.loc	1 726 9 is_stmt 1               @ ../../../../Source/timers.c:726:9
	b	.LBB25_3
.Ltmp255:
.LBB25_2:
	.loc	1 729 14                        @ ../../../../Source/timers.c:729:14
	ldr	r1, [sp, #4]
	movs	r0, #0
	.loc	1 729 39 is_stmt 0              @ ../../../../Source/timers.c:729:39
	str	r0, [r1]
	b	.LBB25_3
.Ltmp256:
.LBB25_3:
	.loc	1 732 21 is_stmt 1              @ ../../../../Source/timers.c:732:21
	ldr	r0, [sp]
	.loc	1 732 19 is_stmt 0              @ ../../../../Source/timers.c:732:19
	movw	r1, :lower16:prvSampleTimeNow.xLastTime
	movt	r1, :upper16:prvSampleTimeNow.xLastTime
	str	r0, [r1]
	.loc	1 734 16 is_stmt 1              @ ../../../../Source/timers.c:734:16
	ldr	r0, [sp]
	.loc	1 734 9 is_stmt 0               @ ../../../../Source/timers.c:734:9
	add	sp, #8
	pop	{r7, pc}
.Ltmp257:
.Lfunc_end25:
	.size	prvSampleTimeNow, .Lfunc_end25-prvSampleTimeNow
	.cfi_endproc
	.cantunwind
	.fnend
                                        @ -- End function
	.p2align	1                               @ -- Begin function prvProcessExpiredTimer
	.type	prvProcessExpiredTimer,%function
	.code	16                              @ @prvProcessExpiredTimer
	.thumb_func
prvProcessExpiredTimer:
.Lfunc_begin26:
	.loc	1 567 0 is_stmt 1               @ ../../../../Source/timers.c:567:0
	.fnstart
	.cfi_startproc
@ %bb.0:
	.save	{r7, lr}
	push	{r7, lr}
	.cfi_def_cfa_offset 8
	.cfi_offset lr, -4
	.cfi_offset r7, -8
	.pad	#16
	sub	sp, #16
	.cfi_def_cfa_offset 24
	str	r0, [sp, #12]
	str	r1, [sp, #8]
.Ltmp258:
	.loc	1 568 49 prologue_end           @ ../../../../Source/timers.c:568:49
	movw	r0, :lower16:pxCurrentTimerList
	movt	r0, :upper16:pxCurrentTimerList
	ldr	r0, [r0]
	ldr	r0, [r0, #12]
	ldr	r0, [r0, #12]
	.loc	1 568 25 is_stmt 0              @ ../../../../Source/timers.c:568:25
	str	r0, [sp, #4]
	.loc	1 573 35 is_stmt 1              @ ../../../../Source/timers.c:573:35
	ldr	r0, [sp, #4]
	.loc	1 573 44 is_stmt 0              @ ../../../../Source/timers.c:573:44
	adds	r0, r0, #4
	.loc	1 573 18                        @ ../../../../Source/timers.c:573:18
	bl	uxListRemove
.Ltmp259:
	.loc	1 577 15 is_stmt 1              @ ../../../../Source/timers.c:577:15
	ldr	r0, [sp, #4]
	movs	r1, #40
	ldrb	r0, [r0, r1]
.Ltmp260:
	.loc	1 577 13 is_stmt 0              @ ../../../../Source/timers.c:577:13
	lsls	r0, r0, #29
	cmp	r0, #0
	bpl	.LBB26_2
	b	.LBB26_1
.LBB26_1:
.Ltmp261:
	.loc	1 579 29 is_stmt 1              @ ../../../../Source/timers.c:579:29
	ldr	r0, [sp, #4]
	.loc	1 579 38 is_stmt 0              @ ../../../../Source/timers.c:579:38
	ldr	r1, [sp, #12]
	.loc	1 579 55                        @ ../../../../Source/timers.c:579:55
	ldr	r2, [sp, #8]
	.loc	1 579 13                        @ ../../../../Source/timers.c:579:13
	bl	prvReloadTimer
	.loc	1 580 9 is_stmt 1               @ ../../../../Source/timers.c:580:9
	b	.LBB26_3
.Ltmp262:
.LBB26_2:
	.loc	1 583 13                        @ ../../../../Source/timers.c:583:13
	ldr	r1, [sp, #4]
	movs	r2, #40
	.loc	1 583 31 is_stmt 0              @ ../../../../Source/timers.c:583:31
	ldrb	r0, [r1, r2]
	movs	r3, #254
	ands	r0, r3
	strb	r0, [r1, r2]
	b	.LBB26_3
.Ltmp263:
.LBB26_3:
	.loc	1 588 9 is_stmt 1               @ ../../../../Source/timers.c:588:9
	ldr	r0, [sp, #4]
	.loc	1 588 18 is_stmt 0              @ ../../../../Source/timers.c:588:18
	ldr	r1, [r0, #32]
	.loc	1 588 9                         @ ../../../../Source/timers.c:588:9
	blx	r1
	.loc	1 589 5 is_stmt 1               @ ../../../../Source/timers.c:589:5
	add	sp, #16
	pop	{r7, pc}
.Ltmp264:
.Lfunc_end26:
	.size	prvProcessExpiredTimer, .Lfunc_end26-prvProcessExpiredTimer
	.cfi_endproc
	.cantunwind
	.fnend
                                        @ -- End function
	.p2align	1                               @ -- Begin function prvSwitchTimerLists
	.type	prvSwitchTimerLists,%function
	.code	16                              @ @prvSwitchTimerLists
	.thumb_func
prvSwitchTimerLists:
.Lfunc_begin27:
	.loc	1 931 0                         @ ../../../../Source/timers.c:931:0
	.fnstart
	.cfi_startproc
@ %bb.0:
	.save	{r7, lr}
	push	{r7, lr}
	.cfi_def_cfa_offset 8
	.cfi_offset lr, -4
	.cfi_offset r7, -8
	.pad	#8
	sub	sp, #8
	.cfi_def_cfa_offset 16
.Ltmp265:
	.loc	1 939 9 prologue_end            @ ../../../../Source/timers.c:939:9
	b	.LBB27_1
.LBB27_1:                               @ =>This Inner Loop Header: Depth=1
	.loc	1 939 16 is_stmt 0              @ ../../../../Source/timers.c:939:16
	movw	r0, :lower16:pxCurrentTimerList
	movt	r0, :upper16:pxCurrentTimerList
	ldr	r0, [r0]
	ldr	r0, [r0]
	.loc	1 939 9                         @ ../../../../Source/timers.c:939:9
	cbz	r0, .LBB27_3
	b	.LBB27_2
.LBB27_2:                               @   in Loop: Header=BB27_1 Depth=1
.Ltmp266:
	.loc	1 941 31 is_stmt 1              @ ../../../../Source/timers.c:941:31
	movw	r0, :lower16:pxCurrentTimerList
	movt	r0, :upper16:pxCurrentTimerList
	ldr	r0, [r0]
	ldr	r0, [r0, #12]
	ldr	r0, [r0]
	.loc	1 941 29 is_stmt 0              @ ../../../../Source/timers.c:941:29
	str	r0, [sp, #4]
	.loc	1 946 37 is_stmt 1              @ ../../../../Source/timers.c:946:37
	ldr	r0, [sp, #4]
	movs	r1, #0
	mvns	r1, r1
	.loc	1 946 13 is_stmt 0              @ ../../../../Source/timers.c:946:13
	bl	prvProcessExpiredTimer
.Ltmp267:
	.loc	1 939 9 is_stmt 1               @ ../../../../Source/timers.c:939:9
	b	.LBB27_1
.LBB27_3:
	.loc	1 949 18                        @ ../../../../Source/timers.c:949:18
	movw	r2, :lower16:pxCurrentTimerList
	movt	r2, :upper16:pxCurrentTimerList
	ldr	r0, [r2]
	.loc	1 949 16 is_stmt 0              @ ../../../../Source/timers.c:949:16
	str	r0, [sp]
	.loc	1 950 30 is_stmt 1              @ ../../../../Source/timers.c:950:30
	movw	r1, :lower16:pxOverflowTimerList
	movt	r1, :upper16:pxOverflowTimerList
	ldr	r0, [r1]
	.loc	1 950 28 is_stmt 0              @ ../../../../Source/timers.c:950:28
	str	r0, [r2]
	.loc	1 951 31 is_stmt 1              @ ../../../../Source/timers.c:951:31
	ldr	r0, [sp]
	.loc	1 951 29 is_stmt 0              @ ../../../../Source/timers.c:951:29
	str	r0, [r1]
	.loc	1 952 5 is_stmt 1               @ ../../../../Source/timers.c:952:5
	add	sp, #8
	pop	{r7, pc}
.Ltmp268:
.Lfunc_end27:
	.size	prvSwitchTimerLists, .Lfunc_end27-prvSwitchTimerLists
	.cfi_endproc
	.cantunwind
	.fnend
                                        @ -- End function
	.p2align	1                               @ -- Begin function prvReloadTimer
	.type	prvReloadTimer,%function
	.code	16                              @ @prvReloadTimer
	.thumb_func
prvReloadTimer:
.Lfunc_begin28:
	.loc	1 549 0                         @ ../../../../Source/timers.c:549:0
	.fnstart
	.cfi_startproc
@ %bb.0:
	.save	{r7, lr}
	push	{r7, lr}
	.cfi_def_cfa_offset 8
	.cfi_offset lr, -4
	.cfi_offset r7, -8
	.pad	#16
	sub	sp, #16
	.cfi_def_cfa_offset 24
	str	r0, [sp, #12]
	str	r1, [sp, #8]
	str	r2, [sp, #4]
.Ltmp269:
	.loc	1 553 9 prologue_end            @ ../../../../Source/timers.c:553:9
	b	.LBB28_1
.LBB28_1:                               @ =>This Inner Loop Header: Depth=1
	.loc	1 553 44 is_stmt 0              @ ../../../../Source/timers.c:553:44
	ldr	r0, [sp, #12]
	.loc	1 553 55                        @ ../../../../Source/timers.c:553:55
	ldr	r3, [sp, #8]
	.loc	1 553 79                        @ ../../../../Source/timers.c:553:79
	ldr	r1, [r0, #24]
	.loc	1 553 68                        @ ../../../../Source/timers.c:553:68
	adds	r1, r3, r1
	.loc	1 553 102                       @ ../../../../Source/timers.c:553:102
	ldr	r2, [sp, #4]
	.loc	1 553 16                        @ ../../../../Source/timers.c:553:16
	bl	prvInsertTimerInActiveList
	.loc	1 553 9                         @ ../../../../Source/timers.c:553:9
	cbz	r0, .LBB28_3
	b	.LBB28_2
.LBB28_2:                               @   in Loop: Header=BB28_1 Depth=1
.Ltmp270:
	.loc	1 556 29 is_stmt 1              @ ../../../../Source/timers.c:556:29
	ldr	r0, [sp, #12]
	.loc	1 556 38 is_stmt 0              @ ../../../../Source/timers.c:556:38
	ldr	r1, [r0, #24]
	.loc	1 556 26                        @ ../../../../Source/timers.c:556:26
	ldr	r0, [sp, #8]
	adds	r0, r0, r1
	str	r0, [sp, #8]
	.loc	1 560 13 is_stmt 1              @ ../../../../Source/timers.c:560:13
	ldr	r0, [sp, #12]
	.loc	1 560 22 is_stmt 0              @ ../../../../Source/timers.c:560:22
	ldr	r1, [r0, #32]
	.loc	1 560 13                        @ ../../../../Source/timers.c:560:13
	blx	r1
.Ltmp271:
	.loc	1 553 9 is_stmt 1               @ ../../../../Source/timers.c:553:9
	b	.LBB28_1
.LBB28_3:
	.loc	1 562 5                         @ ../../../../Source/timers.c:562:5
	add	sp, #16
	pop	{r7, pc}
.Ltmp272:
.Lfunc_end28:
	.size	prvReloadTimer, .Lfunc_end28-prvReloadTimer
	.cfi_endproc
	.cantunwind
	.fnend
                                        @ -- End function
	.p2align	1                               @ -- Begin function prvInsertTimerInActiveList
	.type	prvInsertTimerInActiveList,%function
	.code	16                              @ @prvInsertTimerInActiveList
	.thumb_func
prvInsertTimerInActiveList:
.Lfunc_begin29:
	.loc	1 742 0                         @ ../../../../Source/timers.c:742:0
	.fnstart
	.cfi_startproc
@ %bb.0:
	.save	{r7, lr}
	push	{r7, lr}
	.cfi_def_cfa_offset 8
	.cfi_offset lr, -4
	.cfi_offset r7, -8
	.pad	#24
	sub	sp, #24
	.cfi_def_cfa_offset 32
	str	r0, [sp, #20]
	str	r1, [sp, #16]
	str	r2, [sp, #12]
	str	r3, [sp, #8]
	movs	r0, #0
.Ltmp273:
	.loc	1 743 20 prologue_end           @ ../../../../Source/timers.c:743:20
	str	r0, [sp, #4]
	.loc	1 745 9                         @ ../../../../Source/timers.c:745:9
	ldr	r0, [sp, #16]
	ldr	r1, [sp, #20]
	str	r0, [r1, #4]
	.loc	1 746 9                         @ ../../../../Source/timers.c:746:9
	ldr	r0, [sp, #20]
	str	r0, [r0, #16]
.Ltmp274:
	.loc	1 748 13                        @ ../../../../Source/timers.c:748:13
	ldr	r0, [sp, #16]
	.loc	1 748 32 is_stmt 0              @ ../../../../Source/timers.c:748:32
	ldr	r1, [sp, #12]
.Ltmp275:
	.loc	1 748 13                        @ ../../../../Source/timers.c:748:13
	cmp	r0, r1
	bhi	.LBB29_5
	b	.LBB29_1
.LBB29_1:
.Ltmp276:
	.loc	1 752 36 is_stmt 1              @ ../../../../Source/timers.c:752:36
	ldr	r0, [sp, #12]
	.loc	1 752 47 is_stmt 0              @ ../../../../Source/timers.c:752:47
	ldr	r1, [sp, #8]
	.loc	1 752 45                        @ ../../../../Source/timers.c:752:45
	subs	r0, r0, r1
	.loc	1 752 67                        @ ../../../../Source/timers.c:752:67
	ldr	r1, [sp, #20]
	.loc	1 752 76                        @ ../../../../Source/timers.c:752:76
	ldr	r1, [r1, #24]
.Ltmp277:
	.loc	1 752 17                        @ ../../../../Source/timers.c:752:17
	cmp	r0, r1
	blo	.LBB29_3
	b	.LBB29_2
.LBB29_2:
	.loc	1 0 17                          @ ../../../../Source/timers.c:0:17
	movs	r0, #1
.Ltmp278:
	.loc	1 756 34 is_stmt 1              @ ../../../../Source/timers.c:756:34
	str	r0, [sp, #4]
	.loc	1 757 13                        @ ../../../../Source/timers.c:757:13
	b	.LBB29_4
.Ltmp279:
.LBB29_3:
	.loc	1 760 30                        @ ../../../../Source/timers.c:760:30
	movw	r0, :lower16:pxOverflowTimerList
	movt	r0, :upper16:pxOverflowTimerList
	ldr	r0, [r0]
	.loc	1 760 54 is_stmt 0              @ ../../../../Source/timers.c:760:54
	ldr	r1, [sp, #20]
	.loc	1 760 63                        @ ../../../../Source/timers.c:760:63
	adds	r1, r1, #4
	.loc	1 760 17                        @ ../../../../Source/timers.c:760:17
	bl	vListInsert
	b	.LBB29_4
.Ltmp280:
.LBB29_4:
	.loc	1 762 9 is_stmt 1               @ ../../../../Source/timers.c:762:9
	b	.LBB29_10
.Ltmp281:
.LBB29_5:
	.loc	1 765 19                        @ ../../../../Source/timers.c:765:19
	ldr	r0, [sp, #12]
	.loc	1 765 30 is_stmt 0              @ ../../../../Source/timers.c:765:30
	ldr	r1, [sp, #8]
	.loc	1 765 45                        @ ../../../../Source/timers.c:765:45
	cmp	r0, r1
	bhs	.LBB29_8
	b	.LBB29_6
.LBB29_6:
	.loc	1 765 50                        @ ../../../../Source/timers.c:765:50
	ldr	r0, [sp, #16]
	.loc	1 765 69                        @ ../../../../Source/timers.c:765:69
	ldr	r1, [sp, #8]
.Ltmp282:
	.loc	1 765 17                        @ ../../../../Source/timers.c:765:17
	cmp	r0, r1
	blo	.LBB29_8
	b	.LBB29_7
.LBB29_7:
	.loc	1 0 17                          @ ../../../../Source/timers.c:0:17
	movs	r0, #1
.Ltmp283:
	.loc	1 770 34 is_stmt 1              @ ../../../../Source/timers.c:770:34
	str	r0, [sp, #4]
	.loc	1 771 13                        @ ../../../../Source/timers.c:771:13
	b	.LBB29_9
.Ltmp284:
.LBB29_8:
	.loc	1 774 30                        @ ../../../../Source/timers.c:774:30
	movw	r0, :lower16:pxCurrentTimerList
	movt	r0, :upper16:pxCurrentTimerList
	ldr	r0, [r0]
	.loc	1 774 53 is_stmt 0              @ ../../../../Source/timers.c:774:53
	ldr	r1, [sp, #20]
	.loc	1 774 62                        @ ../../../../Source/timers.c:774:62
	adds	r1, r1, #4
	.loc	1 774 17                        @ ../../../../Source/timers.c:774:17
	bl	vListInsert
	b	.LBB29_9
.Ltmp285:
.LBB29_9:
	.loc	1 0 17                          @ ../../../../Source/timers.c:0:17
	b	.LBB29_10
.LBB29_10:
	.loc	1 778 16 is_stmt 1              @ ../../../../Source/timers.c:778:16
	ldr	r0, [sp, #4]
	.loc	1 778 9 is_stmt 0               @ ../../../../Source/timers.c:778:9
	add	sp, #24
	pop	{r7, pc}
.Ltmp286:
.Lfunc_end29:
	.size	prvInsertTimerInActiveList, .Lfunc_end29-prvInsertTimerInActiveList
	.cfi_endproc
	.cantunwind
	.fnend
                                        @ -- End function
	.type	xTimerQueue,%object             @ @xTimerQueue
	.section	privileged_data,"aw",%progbits
	.p2align	2, 0x0
xTimerQueue:
	.long	0
	.size	xTimerQueue, 4

	.type	.L.str,%object                  @ @.str
	.section	.rodata.str1.1,"aMS",%progbits,1
.L.str:
	.asciz	"Tmr Svc"
	.size	.L.str, 8

	.type	xTimerTaskHandle,%object        @ @xTimerTaskHandle
	.section	privileged_data,"aw",%progbits
	.p2align	2, 0x0
xTimerTaskHandle:
	.long	0
	.size	xTimerTaskHandle, 4

	.type	pxCurrentTimerList,%object      @ @pxCurrentTimerList
	.p2align	2, 0x0
pxCurrentTimerList:
	.long	0
	.size	pxCurrentTimerList, 4

	.type	pxOverflowTimerList,%object     @ @pxOverflowTimerList
	.p2align	2, 0x0
pxOverflowTimerList:
	.long	0
	.size	pxOverflowTimerList, 4

	.type	prvSampleTimeNow.xLastTime,%object @ @prvSampleTimeNow.xLastTime
	.p2align	2, 0x0
prvSampleTimeNow.xLastTime:
	.long	0                               @ 0x0
	.size	prvSampleTimeNow.xLastTime, 4

	.type	xActiveTimerList1,%object       @ @xActiveTimerList1
	.p2align	2, 0x0
xActiveTimerList1:
	.zero	20
	.size	xActiveTimerList1, 20

	.type	xActiveTimerList2,%object       @ @xActiveTimerList2
	.p2align	2, 0x0
xActiveTimerList2:
	.zero	20
	.size	xActiveTimerList2, 20

	.type	prvCheckForValidListAndQueue.xStaticTimerQueue,%object @ @prvCheckForValidListAndQueue.xStaticTimerQueue
	.p2align	2, 0x0
prvCheckForValidListAndQueue.xStaticTimerQueue:
	.zero	84
	.size	prvCheckForValidListAndQueue.xStaticTimerQueue, 84

	.type	prvCheckForValidListAndQueue.ucStaticTimerQueueStorage,%object @ @prvCheckForValidListAndQueue.ucStaticTimerQueueStorage
prvCheckForValidListAndQueue.ucStaticTimerQueueStorage:
	.zero	80
	.size	prvCheckForValidListAndQueue.ucStaticTimerQueueStorage, 80

	.file	10 "C:\\Keil_v5\\ARM\\ARMCLANG\\Bin\\..\\include" "stdlib.h"
	.section	".note.GNU-stack","",%progbits
	.eabi_attribute	30, 6	@ Tag_ABI_optimization_goals
	.ARM_attribute	16, 1	@ Tag_AV_eba