	.text
	.syntax unified
	.eabi_attribute	67, "2.09"	@ Tag_conformance
	.eabi_attribute	6, 16	@ Tag_CPU_arch
	.eabi_attribute	7, 77	@ Tag_CPU_arch_profile
	.eabi_attribute	8, 0	@ Tag_ARM_ISA_use
	.eabi_attribute	9, 3	@ Tag_THUMB_ISA_use
	.eabi_attribute	34, 0	@ Tag_CPU_unaligned_access
	.eabi_attribute	17, 1	@ Tag_ABI_PCS_GOT_use
	.eabi_attribute	20, 2	@ Tag_ABI_FP_denormal
	.eabi_attribute	21, 0	@ Tag_ABI_FP_exceptions
	.eabi_attribute	23, 1	@ Tag_ABI_FP_number_model
	.eabi_attribute	24, 1	@ Tag_ABI_align_needed
	.eabi_attribute	25, 1	@ Tag_ABI_align_preserved
	.eabi_attribute	38, 1	@ Tag_ABI_FP_16bit_format
	.eabi_attribute	18, 4	@ Tag_ABI_PCS_wchar_t
	.eabi_attribute	26, 2	@ Tag_ABI_enum_size
	.eabi_attribute	14, 0	@ Tag_ABI_PCS_R9_use
	.file	"TimerDemo.c"
	.file	1 "C:\\Keil_v5\\ARM\\ARMCLANG\\Bin\\..\\include" "stdint.h"
	.file	2 "C:\\Users\\karahulx\\Downloads\\Kernel\\FreeRTOS\\FreeRTOS\\Demo\\CORTEX_MPU_M23_Nuvoton_NuMaker_PFM_M2351_IAR_GCC\\Projects_NTZ\\Keil" "../../../../Source/portable/GCC/ARM_CM23_NTZ/non_secure/portmacrocommon.h"
	.file	3 "C:\\Users\\karahulx\\Downloads\\Kernel\\FreeRTOS\\FreeRTOS\\Demo\\CORTEX_MPU_M23_Nuvoton_NuMaker_PFM_M2351_IAR_GCC\\Projects_NTZ\\Keil" "../../../CORTEX_MPU_M3_NUCLEO_L152RE_GCC/Demo/TimerDemo.c"
	.file	4 "C:\\Users\\karahulx\\Downloads\\Kernel\\FreeRTOS\\FreeRTOS\\Demo\\CORTEX_MPU_M23_Nuvoton_NuMaker_PFM_M2351_IAR_GCC\\Projects_NTZ\\Keil" "../../../../Source/include\\timers.h"
	.file	5 "C:\\Keil_v5\\ARM\\ARMCLANG\\Bin\\..\\include" "string.h"
	.section	.text.vStartTimerDemoTask,"ax",%progbits
	.hidden	vStartTimerDemoTask             @ -- Begin function vStartTimerDemoTask
	.globl	vStartTimerDemoTask
	.p2align	1
	.type	vStartTimerDemoTask,%function
	.code	16                              @ @vStartTimerDemoTask
	.thumb_func
vStartTimerDemoTask:
.Lfunc_begin0:
	.loc	3 135 0                         @ ../../../CORTEX_MPU_M3_NUCLEO_L152RE_GCC/Demo/TimerDemo.c:135:0
	.fnstart
	.cfi_sections .debug_frame
	.cfi_startproc
@ %bb.0:
	.save	{r4, r5, r7, lr}
	push	{r4, r5, r7, lr}
	.cfi_def_cfa_offset 16
	.cfi_offset lr, -4
	.cfi_offset r7, -8
	.cfi_offset r5, -12
	.cfi_offset r4, -16
	.pad	#88
	sub	sp, #88
	.cfi_def_cfa_offset 104
	str	r0, [sp, #84]
.Ltmp0:
	.loc	3 137 22 prologue_end           @ ../../../CORTEX_MPU_M3_NUCLEO_L152RE_GCC/Demo/TimerDemo.c:137:22
	movw	r1, :lower16:.L__const.vStartTimerDemoTask.xTimerTestTaskParameters
	movt	r1, :upper16:.L__const.vStartTimerDemoTask.xTimerTestTaskParameters
	add	r0, sp, #20
	ldm	r1!, {r2, r3, r4, r5}
	stm	r0!, {r2, r3, r4, r5}
	ldm	r1!, {r2, r3, r4, r5}
	stm	r0!, {r2, r3, r4, r5}
	ldm	r1!, {r2, r3, r4, r5}
	stm	r0!, {r2, r3, r4, r5}
	ldm	r1!, {r2, r3, r4, r5}
	stm	r0!, {r2, r3, r4, r5}
	.loc	3 156 5                         @ ../../../CORTEX_MPU_M3_NUCLEO_L152RE_GCC/Demo/TimerDemo.c:156:5
	movw	r1, :lower16:ucAutoReloadTimerCounters
	movt	r1, :upper16:ucAutoReloadTimerCounters
	str	r1, [sp, #8]                    @ 4-byte Spill
	movs	r0, #0
	str	r0, [sp, #16]                   @ 4-byte Spill
	str	r0, [r1, #28]
	str	r0, [r1, #24]
	str	r0, [r1, #20]
	str	r0, [r1, #16]
	str	r0, [r1, #12]
	str	r0, [r1, #8]
	str	r0, [r1, #4]
	str	r0, [r1]
	.loc	3 157 5                         @ ../../../CORTEX_MPU_M3_NUCLEO_L152RE_GCC/Demo/TimerDemo.c:157:5
	movw	r0, :lower16:xAutoReloadTimers
	movt	r0, :upper16:xAutoReloadTimers
	movs	r1, #64
	bl	__aeabi_memclr8
	.loc	3 161 24                        @ ../../../CORTEX_MPU_M3_NUCLEO_L152RE_GCC/Demo/TimerDemo.c:161:24
	ldr	r0, [sp, #84]
	.loc	3 161 22 is_stmt 0              @ ../../../CORTEX_MPU_M3_NUCLEO_L152RE_GCC/Demo/TimerDemo.c:161:22
	movw	r1, :lower16:xBasePeriod
	movt	r1, :upper16:xBasePeriod
	str	r1, [sp, #12]                   @ 4-byte Spill
	str	r0, [r1]
	.loc	3 164 5 is_stmt 1               @ ../../../CORTEX_MPU_M3_NUCLEO_L152RE_GCC/Demo/TimerDemo.c:164:5
	bl	prvTest1_CreateTimersWithoutSchedulerRunning
	ldr	r0, [sp, #12]                   @ 4-byte Reload
	ldr	r3, [sp, #16]                   @ 4-byte Reload
	.loc	3 170 35                        @ ../../../CORTEX_MPU_M3_NUCLEO_L152RE_GCC/Demo/TimerDemo.c:170:35
	ldr	r0, [r0]
	movs	r1, #3
	muls	r1, r0, r1
	.loc	3 169 26                        @ ../../../CORTEX_MPU_M3_NUCLEO_L152RE_GCC/Demo/TimerDemo.c:169:26
	movw	r0, :lower16:prvOneShotTimerCallback
	movt	r0, :upper16:prvOneShotTimerCallback
	str	r0, [sp]
	movw	r0, :lower16:.L.str.1
	movt	r0, :upper16:.L.str.1
	mov	r2, r3
	bl	xTimerCreate
	mov	r1, r0
	.loc	3 169 24 is_stmt 0              @ ../../../CORTEX_MPU_M3_NUCLEO_L152RE_GCC/Demo/TimerDemo.c:169:24
	movw	r0, :lower16:xOneShotTimer
	movt	r0, :upper16:xOneShotTimer
	str	r1, [r0]
.Ltmp1:
	.loc	3 175 5 is_stmt 1               @ ../../../CORTEX_MPU_M3_NUCLEO_L152RE_GCC/Demo/TimerDemo.c:175:5
	ldr	r0, [r0]
.Ltmp2:
	.loc	3 175 5 is_stmt 0               @ ../../../CORTEX_MPU_M3_NUCLEO_L152RE_GCC/Demo/TimerDemo.c:175:5
	cbnz	r0, .LBB0_3
	b	.LBB0_1
.LBB0_1:
.Ltmp3:
	.loc	3 175 5                         @ ../../../CORTEX_MPU_M3_NUCLEO_L152RE_GCC/Demo/TimerDemo.c:175:5
	@APP
	cpsid i
	@NO_APP
	b	.LBB0_2
.LBB0_2:                                @ =>This Inner Loop Header: Depth=1
.Ltmp4:
	.loc	3 175 5                         @ ../../../CORTEX_MPU_M3_NUCLEO_L152RE_GCC/Demo/TimerDemo.c:175:5
	b	.LBB0_2
.Ltmp5:
.LBB0_3:
	.loc	3 0 5                           @ ../../../CORTEX_MPU_M3_NUCLEO_L152RE_GCC/Demo/TimerDemo.c:0:5
	add	r0, sp, #20
	movs	r1, #0
	.loc	3 183 5 is_stmt 1               @ ../../../CORTEX_MPU_M3_NUCLEO_L152RE_GCC/Demo/TimerDemo.c:183:5
	bl	xTaskCreateRestricted
	.loc	3 184 1                         @ ../../../CORTEX_MPU_M3_NUCLEO_L152RE_GCC/Demo/TimerDemo.c:184:1
	add	sp, #88
	pop	{r4, r5, r7, pc}
.Ltmp6:
.Lfunc_end0:
	.size	vStartTimerDemoTask, .Lfunc_end0-vStartTimerDemoTask
	.cfi_endproc
	.cantunwind
	.fnend
                                        @ -- End function
	.section	.text.prvTimerTestTask,"ax",%progbits
	.p2align	1                               @ -- Begin function prvTimerTestTask
	.type	prvTimerTestTask,%function
	.code	16                              @ @prvTimerTestTask
	.thumb_func
prvTimerTestTask:
.Lfunc_begin1:
	.loc	3 194 0                         @ ../../../CORTEX_MPU_M3_NUCLEO_L152RE_GCC/Demo/TimerDemo.c:194:0
	.fnstart
	.cfi_startproc
@ %bb.0:
	.save	{r7, lr}
	push	{r7, lr}
	.cfi_def_cfa_offset 8
	.cfi_offset lr, -4
	.cfi_offset r7, -8
	.pad	#16
	sub	sp, #16
	.cfi_def_cfa_offset 24
	str	r0, [sp, #12]
.Ltmp7:
	.loc	3 201 26 prologue_end           @ ../../../CORTEX_MPU_M3_NUCLEO_L152RE_GCC/Demo/TimerDemo.c:201:26
	movw	r0, :lower16:xOneShotTimer
	movt	r0, :upper16:xOneShotTimer
	str	r0, [sp, #8]                    @ 4-byte Spill
	ldr	r0, [r0]
	movs	r1, #1
	.loc	3 201 5 is_stmt 0               @ ../../../CORTEX_MPU_M3_NUCLEO_L152RE_GCC/Demo/TimerDemo.c:201:5
	bl	MPU_vTimerSetReloadMode
	ldr	r0, [sp, #8]                    @ 4-byte Reload
.Ltmp8:
	.loc	3 204 5 is_stmt 1               @ ../../../CORTEX_MPU_M3_NUCLEO_L152RE_GCC/Demo/TimerDemo.c:204:5
	ldr	r0, [r0]
	bl	MPU_uxTimerGetReloadMode
.Ltmp9:
	.loc	3 204 5 is_stmt 0               @ ../../../CORTEX_MPU_M3_NUCLEO_L152RE_GCC/Demo/TimerDemo.c:204:5
	cmp	r0, #1
	beq	.LBB1_3
	b	.LBB1_1
.LBB1_1:
.Ltmp10:
	.loc	3 204 5                         @ ../../../CORTEX_MPU_M3_NUCLEO_L152RE_GCC/Demo/TimerDemo.c:204:5
	@APP
	cpsid i
	@NO_APP
	b	.LBB1_2
.LBB1_2:                                @ =>This Inner Loop Header: Depth=1
.Ltmp11:
	.loc	3 204 5                         @ ../../../CORTEX_MPU_M3_NUCLEO_L152RE_GCC/Demo/TimerDemo.c:204:5
	b	.LBB1_2
.Ltmp12:
.LBB1_3:
	.loc	3 207 26 is_stmt 1              @ ../../../CORTEX_MPU_M3_NUCLEO_L152RE_GCC/Demo/TimerDemo.c:207:26
	movw	r0, :lower16:xOneShotTimer
	movt	r0, :upper16:xOneShotTimer
	str	r0, [sp, #4]                    @ 4-byte Spill
	ldr	r0, [r0]
	movs	r1, #0
	.loc	3 207 5 is_stmt 0               @ ../../../CORTEX_MPU_M3_NUCLEO_L152RE_GCC/Demo/TimerDemo.c:207:5
	bl	MPU_vTimerSetReloadMode
	ldr	r0, [sp, #4]                    @ 4-byte Reload
.Ltmp13:
	.loc	3 210 5 is_stmt 1               @ ../../../CORTEX_MPU_M3_NUCLEO_L152RE_GCC/Demo/TimerDemo.c:210:5
	ldr	r0, [r0]
	bl	MPU_uxTimerGetReloadMode
.Ltmp14:
	.loc	3 210 5 is_stmt 0               @ ../../../CORTEX_MPU_M3_NUCLEO_L152RE_GCC/Demo/TimerDemo.c:210:5
	cbz	r0, .LBB1_6
	b	.LBB1_4
.LBB1_4:
.Ltmp15:
	.loc	3 210 5                         @ ../../../CORTEX_MPU_M3_NUCLEO_L152RE_GCC/Demo/TimerDemo.c:210:5
	@APP
	cpsid i
	@NO_APP
	b	.LBB1_5
.LBB1_5:                                @ =>This Inner Loop Header: Depth=1
.Ltmp16:
	.loc	3 210 5                         @ ../../../CORTEX_MPU_M3_NUCLEO_L152RE_GCC/Demo/TimerDemo.c:210:5
	b	.LBB1_5
.Ltmp17:
.LBB1_6:
	.loc	3 214 5 is_stmt 1               @ ../../../CORTEX_MPU_M3_NUCLEO_L152RE_GCC/Demo/TimerDemo.c:214:5
	bl	prvTest2_CheckTaskAndTimersInitialState
	.loc	3 216 5                         @ ../../../CORTEX_MPU_M3_NUCLEO_L152RE_GCC/Demo/TimerDemo.c:216:5
	b	.LBB1_7
.LBB1_7:                                @ =>This Inner Loop Header: Depth=1
.Ltmp18:
	.loc	3 219 9                         @ ../../../CORTEX_MPU_M3_NUCLEO_L152RE_GCC/Demo/TimerDemo.c:219:9
	bl	prvTest3_CheckAutoReloadExpireRates
	.loc	3 223 9                         @ ../../../CORTEX_MPU_M3_NUCLEO_L152RE_GCC/Demo/TimerDemo.c:223:9
	bl	prvTest4_CheckAutoReloadTimersCanBeStopped
	.loc	3 227 9                         @ ../../../CORTEX_MPU_M3_NUCLEO_L152RE_GCC/Demo/TimerDemo.c:227:9
	bl	prvTest5_CheckBasicOneShotTimerBehaviour
	.loc	3 230 9                         @ ../../../CORTEX_MPU_M3_NUCLEO_L152RE_GCC/Demo/TimerDemo.c:230:9
	bl	prvTest6_CheckAutoReloadResetBehaviour
.Ltmp19:
	.loc	3 233 13                        @ ../../../CORTEX_MPU_M3_NUCLEO_L152RE_GCC/Demo/TimerDemo.c:233:13
	movw	r0, :lower16:ucIsBacklogDemoEnabled
	movt	r0, :upper16:ucIsBacklogDemoEnabled
	ldrb	r0, [r0]
.Ltmp20:
	.loc	3 233 13 is_stmt 0              @ ../../../CORTEX_MPU_M3_NUCLEO_L152RE_GCC/Demo/TimerDemo.c:233:13
	cmp	r0, #1
	bne	.LBB1_9
	b	.LBB1_8
.LBB1_8:                                @   in Loop: Header=BB1_7 Depth=1
.Ltmp21:
	.loc	3 235 13 is_stmt 1              @ ../../../CORTEX_MPU_M3_NUCLEO_L152RE_GCC/Demo/TimerDemo.c:235:13
	bl	prvTest7_CheckBacklogBehaviour
	.loc	3 236 9                         @ ../../../CORTEX_MPU_M3_NUCLEO_L152RE_GCC/Demo/TimerDemo.c:236:9
	b	.LBB1_9
.Ltmp22:
.LBB1_9:                                @   in Loop: Header=BB1_7 Depth=1
	.loc	3 239 9                         @ ../../../CORTEX_MPU_M3_NUCLEO_L152RE_GCC/Demo/TimerDemo.c:239:9
	bl	prvResetStartConditionsForNextIteration
.Ltmp23:
	.loc	3 216 5                         @ ../../../CORTEX_MPU_M3_NUCLEO_L152RE_GCC/Demo/TimerDemo.c:216:5
	b	.LBB1_7
.Ltmp24:
.Lfunc_end1:
	.size	prvTimerTestTask, .Lfunc_end1-prvTimerTestTask
	.cfi_endproc
	.cantunwind
	.fnend
                                        @ -- End function
	.section	.text.prvTest1_CreateTimersWithoutSchedulerRunning,"ax",%progbits
	.p2align	1                               @ -- Begin function prvTest1_CreateTimersWithoutSchedulerRunning
	.type	prvTest1_CreateTimersWithoutSchedulerRunning,%function
	.code	16                              @ @prvTest1_CreateTimersWithoutSchedulerRunning
	.thumb_func
prvTest1_CreateTimersWithoutSchedulerRunning:
.Lfunc_begin2:
	.loc	3 296 0                         @ ../../../CORTEX_MPU_M3_NUCLEO_L152RE_GCC/Demo/TimerDemo.c:296:0
	.fnstart
	.cfi_startproc
@ %bb.0:
	.save	{r7, lr}
	push	{r7, lr}
	.cfi_def_cfa_offset 8
	.cfi_offset lr, -4
	.cfi_offset r7, -8
	.pad	#32
	sub	sp, #32
	.cfi_def_cfa_offset 40
	movs	r0, #0
.Ltmp25:
	.loc	3 299 17 prologue_end           @ ../../../CORTEX_MPU_M3_NUCLEO_L152RE_GCC/Demo/TimerDemo.c:299:17
	str	r0, [sp, #28]
	.loc	3 299 10 is_stmt 0              @ ../../../CORTEX_MPU_M3_NUCLEO_L152RE_GCC/Demo/TimerDemo.c:299:10
	b	.LBB2_1
.LBB2_1:                                @ =>This Inner Loop Header: Depth=1
.Ltmp26:
	.loc	3 299 22                        @ ../../../CORTEX_MPU_M3_NUCLEO_L152RE_GCC/Demo/TimerDemo.c:299:22
	ldr	r0, [sp, #28]
.Ltmp27:
	.loc	3 299 5                         @ ../../../CORTEX_MPU_M3_NUCLEO_L152RE_GCC/Demo/TimerDemo.c:299:5
	cmp	r0, #4
	bhi	.LBB2_18
	b	.LBB2_2
.LBB2_2:                                @   in Loop: Header=BB2_1 Depth=1
.Ltmp28:
	.loc	3 306 57 is_stmt 1              @ ../../../CORTEX_MPU_M3_NUCLEO_L152RE_GCC/Demo/TimerDemo.c:306:57
	ldr	r3, [sp, #28]
	.loc	3 306 64 is_stmt 0              @ ../../../CORTEX_MPU_M3_NUCLEO_L152RE_GCC/Demo/TimerDemo.c:306:64
	adds	r0, r3, #1
	.loc	3 306 87                        @ ../../../CORTEX_MPU_M3_NUCLEO_L152RE_GCC/Demo/TimerDemo.c:306:87
	movw	r1, :lower16:xBasePeriod
	movt	r1, :upper16:xBasePeriod
	ldr	r1, [r1]
	.loc	3 306 85                        @ ../../../CORTEX_MPU_M3_NUCLEO_L152RE_GCC/Demo/TimerDemo.c:306:85
	muls	r1, r0, r1
	.loc	3 305 39 is_stmt 1              @ ../../../CORTEX_MPU_M3_NUCLEO_L152RE_GCC/Demo/TimerDemo.c:305:39
	movw	r0, :lower16:prvAutoReloadTimerCallback
	movt	r0, :upper16:prvAutoReloadTimerCallback
	str	r0, [sp]
	movw	r0, :lower16:.L.str.2
	movt	r0, :upper16:.L.str.2
	movs	r2, #1
	bl	xTimerCreate
	mov	r1, r0
	.loc	3 305 28 is_stmt 0              @ ../../../CORTEX_MPU_M3_NUCLEO_L152RE_GCC/Demo/TimerDemo.c:305:28
	ldr	r0, [sp, #28]
	.loc	3 305 9                         @ ../../../CORTEX_MPU_M3_NUCLEO_L152RE_GCC/Demo/TimerDemo.c:305:9
	lsls	r2, r0, #2
	movw	r0, :lower16:xAutoReloadTimers
	movt	r0, :upper16:xAutoReloadTimers
	.loc	3 305 37                        @ ../../../CORTEX_MPU_M3_NUCLEO_L152RE_GCC/Demo/TimerDemo.c:305:37
	str	r1, [r0, r2]
.Ltmp29:
	.loc	3 311 32 is_stmt 1              @ ../../../CORTEX_MPU_M3_NUCLEO_L152RE_GCC/Demo/TimerDemo.c:311:32
	ldr	r1, [sp, #28]
	.loc	3 311 13 is_stmt 0              @ ../../../CORTEX_MPU_M3_NUCLEO_L152RE_GCC/Demo/TimerDemo.c:311:13
	lsls	r1, r1, #2
	ldr	r0, [r0, r1]
.Ltmp30:
	.loc	3 311 13                        @ ../../../CORTEX_MPU_M3_NUCLEO_L152RE_GCC/Demo/TimerDemo.c:311:13
	cbnz	r0, .LBB2_7
	b	.LBB2_3
.LBB2_3:                                @   in Loop: Header=BB2_1 Depth=1
.Ltmp31:
	.loc	3 313 30 is_stmt 1              @ ../../../CORTEX_MPU_M3_NUCLEO_L152RE_GCC/Demo/TimerDemo.c:313:30
	movw	r0, :lower16:xTestStatus
	movt	r0, :upper16:xTestStatus
	movs	r1, #0
	str	r1, [r0]
.Ltmp32:
	.loc	3 314 13                        @ ../../../CORTEX_MPU_M3_NUCLEO_L152RE_GCC/Demo/TimerDemo.c:314:13
	ldr	r0, [r0]
.Ltmp33:
	.loc	3 314 13 is_stmt 0              @ ../../../CORTEX_MPU_M3_NUCLEO_L152RE_GCC/Demo/TimerDemo.c:314:13
	cbnz	r0, .LBB2_6
	b	.LBB2_4
.LBB2_4:
.Ltmp34:
	.loc	3 314 13                        @ ../../../CORTEX_MPU_M3_NUCLEO_L152RE_GCC/Demo/TimerDemo.c:314:13
	@APP
	cpsid i
	@NO_APP
	b	.LBB2_5
.LBB2_5:                                @ =>This Inner Loop Header: Depth=1
.Ltmp35:
	.loc	3 314 13                        @ ../../../CORTEX_MPU_M3_NUCLEO_L152RE_GCC/Demo/TimerDemo.c:314:13
	b	.LBB2_5
.Ltmp36:
.LBB2_6:                                @   in Loop: Header=BB2_1 Depth=1
	.loc	3 315 9 is_stmt 1               @ ../../../CORTEX_MPU_M3_NUCLEO_L152RE_GCC/Demo/TimerDemo.c:315:9
	b	.LBB2_16
.Ltmp37:
.LBB2_7:                                @   in Loop: Header=BB2_1 Depth=1
	.loc	3 318 13                        @ ../../../CORTEX_MPU_M3_NUCLEO_L152RE_GCC/Demo/TimerDemo.c:318:13
	ldr	r0, [sp, #28]
	lsls	r1, r0, #2
	movw	r0, :lower16:xAutoReloadTimers
	movt	r0, :upper16:xAutoReloadTimers
	ldr	r0, [r0, r1]
	bl	MPU_pcTimerGetName
	movw	r1, :lower16:.L.str.2
	movt	r1, :upper16:.L.str.2
	bl	strcmp
.Ltmp38:
	.loc	3 318 13 is_stmt 0              @ ../../../CORTEX_MPU_M3_NUCLEO_L152RE_GCC/Demo/TimerDemo.c:318:13
	cbz	r0, .LBB2_10
	b	.LBB2_8
.LBB2_8:
.Ltmp39:
	.loc	3 318 13                        @ ../../../CORTEX_MPU_M3_NUCLEO_L152RE_GCC/Demo/TimerDemo.c:318:13
	@APP
	cpsid i
	@NO_APP
	b	.LBB2_9
.LBB2_9:                                @ =>This Inner Loop Header: Depth=1
.Ltmp40:
	.loc	3 318 13                        @ ../../../CORTEX_MPU_M3_NUCLEO_L152RE_GCC/Demo/TimerDemo.c:318:13
	b	.LBB2_9
.Ltmp41:
.LBB2_10:                               @   in Loop: Header=BB2_1 Depth=1
	.loc	3 324 17 is_stmt 1              @ ../../../CORTEX_MPU_M3_NUCLEO_L152RE_GCC/Demo/TimerDemo.c:324:17
	ldr	r0, [sp, #28]
	lsls	r1, r0, #2
	movw	r0, :lower16:xAutoReloadTimers
	movt	r0, :upper16:xAutoReloadTimers
	ldr	r0, [r0, r1]
	str	r0, [sp, #24]                   @ 4-byte Spill
	bl	MPU_xTaskGetTickCount
	mov	r2, r0
	ldr	r0, [sp, #24]                   @ 4-byte Reload
	movs	r3, #0
	mvns	r1, r3
	str	r1, [sp]
	movs	r1, #1
	bl	MPU_xTimerGenericCommand
.Ltmp42:
	.loc	3 324 17 is_stmt 0              @ ../../../CORTEX_MPU_M3_NUCLEO_L152RE_GCC/Demo/TimerDemo.c:324:17
	cmp	r0, #1
	beq	.LBB2_15
	b	.LBB2_11
.LBB2_11:                               @   in Loop: Header=BB2_1 Depth=1
.Ltmp43:
	.loc	3 326 34 is_stmt 1              @ ../../../CORTEX_MPU_M3_NUCLEO_L152RE_GCC/Demo/TimerDemo.c:326:34
	movw	r0, :lower16:xTestStatus
	movt	r0, :upper16:xTestStatus
	movs	r1, #0
	str	r1, [r0]
.Ltmp44:
	.loc	3 327 17                        @ ../../../CORTEX_MPU_M3_NUCLEO_L152RE_GCC/Demo/TimerDemo.c:327:17
	ldr	r0, [r0]
.Ltmp45:
	.loc	3 327 17 is_stmt 0              @ ../../../CORTEX_MPU_M3_NUCLEO_L152RE_GCC/Demo/TimerDemo.c:327:17
	cbnz	r0, .LBB2_14
	b	.LBB2_12
.LBB2_12:
.Ltmp46:
	.loc	3 327 17                        @ ../../../CORTEX_MPU_M3_NUCLEO_L152RE_GCC/Demo/TimerDemo.c:327:17
	@APP
	cpsid i
	@NO_APP
	b	.LBB2_13
.LBB2_13:                               @ =>This Inner Loop Header: Depth=1
.Ltmp47:
	.loc	3 327 17                        @ ../../../CORTEX_MPU_M3_NUCLEO_L152RE_GCC/Demo/TimerDemo.c:327:17
	b	.LBB2_13
.Ltmp48:
.LBB2_14:                               @   in Loop: Header=BB2_1 Depth=1
	.loc	3 328 13 is_stmt 1              @ ../../../CORTEX_MPU_M3_NUCLEO_L152RE_GCC/Demo/TimerDemo.c:328:13
	b	.LBB2_15
.Ltmp49:
.LBB2_15:                               @   in Loop: Header=BB2_1 Depth=1
	.loc	3 0 13 is_stmt 0                @ ../../../CORTEX_MPU_M3_NUCLEO_L152RE_GCC/Demo/TimerDemo.c:0:13
	b	.LBB2_16
.LBB2_16:                               @   in Loop: Header=BB2_1 Depth=1
	.loc	3 330 5 is_stmt 1               @ ../../../CORTEX_MPU_M3_NUCLEO_L152RE_GCC/Demo/TimerDemo.c:330:5
	b	.LBB2_17
.Ltmp50:
.LBB2_17:                               @   in Loop: Header=BB2_1 Depth=1
	.loc	3 299 63                        @ ../../../CORTEX_MPU_M3_NUCLEO_L152RE_GCC/Demo/TimerDemo.c:299:63
	ldr	r0, [sp, #28]
	adds	r0, r0, #1
	str	r0, [sp, #28]
	.loc	3 299 5 is_stmt 0               @ ../../../CORTEX_MPU_M3_NUCLEO_L152RE_GCC/Demo/TimerDemo.c:299:5
	b	.LBB2_1
.Ltmp51:
.LBB2_18:
	.loc	3 336 96 is_stmt 1              @ ../../../CORTEX_MPU_M3_NUCLEO_L152RE_GCC/Demo/TimerDemo.c:336:96
	movw	r0, :lower16:xBasePeriod
	movt	r0, :upper16:xBasePeriod
	ldr	r0, [r0]
	movs	r1, #5
	.loc	3 336 94 is_stmt 0              @ ../../../CORTEX_MPU_M3_NUCLEO_L152RE_GCC/Demo/TimerDemo.c:336:94
	muls	r1, r0, r1
	.loc	3 338 78 is_stmt 1              @ ../../../CORTEX_MPU_M3_NUCLEO_L152RE_GCC/Demo/TimerDemo.c:338:78
	ldr	r3, [sp, #28]
	.loc	3 335 53                        @ ../../../CORTEX_MPU_M3_NUCLEO_L152RE_GCC/Demo/TimerDemo.c:335:53
	movw	r0, :lower16:prvAutoReloadTimerCallback
	movt	r0, :upper16:prvAutoReloadTimerCallback
	str	r0, [sp]
	movw	r0, :lower16:.L.str.2
	movt	r0, :upper16:.L.str.2
	movs	r2, #1
	bl	xTimerCreate
	mov	r1, r0
	.loc	3 335 51 is_stmt 0              @ ../../../CORTEX_MPU_M3_NUCLEO_L152RE_GCC/Demo/TimerDemo.c:335:51
	movw	r0, :lower16:xAutoReloadTimers
	movt	r0, :upper16:xAutoReloadTimers
	str	r1, [r0, #20]
.Ltmp52:
	.loc	3 341 9 is_stmt 1               @ ../../../CORTEX_MPU_M3_NUCLEO_L152RE_GCC/Demo/TimerDemo.c:341:9
	ldr	r0, [r0, #20]
.Ltmp53:
	.loc	3 341 9 is_stmt 0               @ ../../../CORTEX_MPU_M3_NUCLEO_L152RE_GCC/Demo/TimerDemo.c:341:9
	cbnz	r0, .LBB2_23
	b	.LBB2_19
.LBB2_19:
.Ltmp54:
	.loc	3 343 26 is_stmt 1              @ ../../../CORTEX_MPU_M3_NUCLEO_L152RE_GCC/Demo/TimerDemo.c:343:26
	movw	r0, :lower16:xTestStatus
	movt	r0, :upper16:xTestStatus
	movs	r1, #0
	str	r1, [r0]
.Ltmp55:
	.loc	3 344 9                         @ ../../../CORTEX_MPU_M3_NUCLEO_L152RE_GCC/Demo/TimerDemo.c:344:9
	ldr	r0, [r0]
.Ltmp56:
	.loc	3 344 9 is_stmt 0               @ ../../../CORTEX_MPU_M3_NUCLEO_L152RE_GCC/Demo/TimerDemo.c:344:9
	cbnz	r0, .LBB2_22
	b	.LBB2_20
.LBB2_20:
.Ltmp57:
	.loc	3 344 9                         @ ../../../CORTEX_MPU_M3_NUCLEO_L152RE_GCC/Demo/TimerDemo.c:344:9
	@APP
	cpsid i
	@NO_APP
	b	.LBB2_21
.LBB2_21:                               @ =>This Inner Loop Header: Depth=1
.Ltmp58:
	.loc	3 344 9                         @ ../../../CORTEX_MPU_M3_NUCLEO_L152RE_GCC/Demo/TimerDemo.c:344:9
	b	.LBB2_21
.Ltmp59:
.LBB2_22:
	.loc	3 345 5 is_stmt 1               @ ../../../CORTEX_MPU_M3_NUCLEO_L152RE_GCC/Demo/TimerDemo.c:345:5
	b	.LBB2_29
.Ltmp60:
.LBB2_23:
	.loc	3 348 13                        @ ../../../CORTEX_MPU_M3_NUCLEO_L152RE_GCC/Demo/TimerDemo.c:348:13
	ldr	r0, [sp, #28]
	lsls	r1, r0, #2
	movw	r0, :lower16:xAutoReloadTimers
	movt	r0, :upper16:xAutoReloadTimers
	ldr	r0, [r0, r1]
	str	r0, [sp, #20]                   @ 4-byte Spill
	bl	MPU_xTaskGetTickCount
	mov	r2, r0
	ldr	r0, [sp, #20]                   @ 4-byte Reload
	movs	r3, #0
	mvns	r1, r3
	str	r1, [sp]
	movs	r1, #1
	bl	MPU_xTimerGenericCommand
.Ltmp61:
	.loc	3 348 13 is_stmt 0              @ ../../../CORTEX_MPU_M3_NUCLEO_L152RE_GCC/Demo/TimerDemo.c:348:13
	cmp	r0, #1
	bne	.LBB2_28
	b	.LBB2_24
.LBB2_24:
.Ltmp62:
	.loc	3 352 30 is_stmt 1              @ ../../../CORTEX_MPU_M3_NUCLEO_L152RE_GCC/Demo/TimerDemo.c:352:30
	movw	r0, :lower16:xTestStatus
	movt	r0, :upper16:xTestStatus
	movs	r1, #0
	str	r1, [r0]
.Ltmp63:
	.loc	3 353 13                        @ ../../../CORTEX_MPU_M3_NUCLEO_L152RE_GCC/Demo/TimerDemo.c:353:13
	ldr	r0, [r0]
.Ltmp64:
	.loc	3 353 13 is_stmt 0              @ ../../../CORTEX_MPU_M3_NUCLEO_L152RE_GCC/Demo/TimerDemo.c:353:13
	cbnz	r0, .LBB2_27
	b	.LBB2_25
.LBB2_25:
.Ltmp65:
	.loc	3 353 13                        @ ../../../CORTEX_MPU_M3_NUCLEO_L152RE_GCC/Demo/TimerDemo.c:353:13
	@APP
	cpsid i
	@NO_APP
	b	.LBB2_26
.LBB2_26:                               @ =>This Inner Loop Header: Depth=1
.Ltmp66:
	.loc	3 353 13                        @ ../../../CORTEX_MPU_M3_NUCLEO_L152RE_GCC/Demo/TimerDemo.c:353:13
	b	.LBB2_26
.Ltmp67:
.LBB2_27:
	.loc	3 354 9 is_stmt 1               @ ../../../CORTEX_MPU_M3_NUCLEO_L152RE_GCC/Demo/TimerDemo.c:354:9
	b	.LBB2_28
.Ltmp68:
.LBB2_28:
	.loc	3 0 9 is_stmt 0                 @ ../../../CORTEX_MPU_M3_NUCLEO_L152RE_GCC/Demo/TimerDemo.c:0:9
	b	.LBB2_29
.LBB2_29:
	.loc	3 359 27 is_stmt 1              @ ../../../CORTEX_MPU_M3_NUCLEO_L152RE_GCC/Demo/TimerDemo.c:359:27
	movw	r0, :lower16:prvISRAutoReloadTimerCallback
	movt	r0, :upper16:prvISRAutoReloadTimerCallback
	str	r0, [sp]
	movw	r0, :lower16:.L.str.3
	movt	r0, :upper16:.L.str.3
	movw	r1, #65535
	str	r1, [sp, #8]                    @ 4-byte Spill
	movs	r2, #1
	movs	r3, #0
	str	r3, [sp, #12]                   @ 4-byte Spill
	bl	xTimerCreate
	ldr	r1, [sp, #8]                    @ 4-byte Reload
	ldr	r3, [sp, #12]                   @ 4-byte Reload
	.loc	3 359 25 is_stmt 0              @ ../../../CORTEX_MPU_M3_NUCLEO_L152RE_GCC/Demo/TimerDemo.c:359:25
	movw	r2, :lower16:xISRAutoReloadTimer
	movt	r2, :upper16:xISRAutoReloadTimer
	str	r2, [sp, #16]                   @ 4-byte Spill
	str	r0, [r2]
	.loc	3 365 24 is_stmt 1              @ ../../../CORTEX_MPU_M3_NUCLEO_L152RE_GCC/Demo/TimerDemo.c:365:24
	movw	r0, :lower16:prvISROneShotTimerCallback
	movt	r0, :upper16:prvISROneShotTimerCallback
	str	r0, [sp]
	movw	r0, :lower16:.L.str.4
	movt	r0, :upper16:.L.str.4
	mov	r2, r3
	bl	xTimerCreate
	mov	r1, r0
	.loc	3 365 22 is_stmt 0              @ ../../../CORTEX_MPU_M3_NUCLEO_L152RE_GCC/Demo/TimerDemo.c:365:22
	ldr	r0, [sp, #16]                   @ 4-byte Reload
	movw	r2, :lower16:xISROneShotTimer
	movt	r2, :upper16:xISROneShotTimer
	str	r1, [r2]
.Ltmp69:
	.loc	3 371 11 is_stmt 1              @ ../../../CORTEX_MPU_M3_NUCLEO_L152RE_GCC/Demo/TimerDemo.c:371:11
	ldr	r0, [r0]
	.loc	3 371 41 is_stmt 0              @ ../../../CORTEX_MPU_M3_NUCLEO_L152RE_GCC/Demo/TimerDemo.c:371:41
	cbz	r0, .LBB2_31
	b	.LBB2_30
.LBB2_30:
	.loc	3 371 46                        @ ../../../CORTEX_MPU_M3_NUCLEO_L152RE_GCC/Demo/TimerDemo.c:371:46
	movw	r0, :lower16:xISROneShotTimer
	movt	r0, :upper16:xISROneShotTimer
	ldr	r0, [r0]
.Ltmp70:
	.loc	3 371 9                         @ ../../../CORTEX_MPU_M3_NUCLEO_L152RE_GCC/Demo/TimerDemo.c:371:9
	cbnz	r0, .LBB2_35
	b	.LBB2_31
.LBB2_31:
.Ltmp71:
	.loc	3 373 26 is_stmt 1              @ ../../../CORTEX_MPU_M3_NUCLEO_L152RE_GCC/Demo/TimerDemo.c:373:26
	movw	r0, :lower16:xTestStatus
	movt	r0, :upper16:xTestStatus
	movs	r1, #0
	str	r1, [r0]
.Ltmp72:
	.loc	3 374 9                         @ ../../../CORTEX_MPU_M3_NUCLEO_L152RE_GCC/Demo/TimerDemo.c:374:9
	ldr	r0, [r0]
.Ltmp73:
	.loc	3 374 9 is_stmt 0               @ ../../../CORTEX_MPU_M3_NUCLEO_L152RE_GCC/Demo/TimerDemo.c:374:9
	cbnz	r0, .LBB2_34
	b	.LBB2_32
.LBB2_32:
.Ltmp74:
	.loc	3 374 9                         @ ../../../CORTEX_MPU_M3_NUCLEO_L152RE_GCC/Demo/TimerDemo.c:374:9
	@APP
	cpsid i
	@NO_APP
	b	.LBB2_33
.LBB2_33:                               @ =>This Inner Loop Header: Depth=1
.Ltmp75:
	.loc	3 374 9                         @ ../../../CORTEX_MPU_M3_NUCLEO_L152RE_GCC/Demo/TimerDemo.c:374:9
	b	.LBB2_33
.Ltmp76:
.LBB2_34:
	.loc	3 375 5 is_stmt 1               @ ../../../CORTEX_MPU_M3_NUCLEO_L152RE_GCC/Demo/TimerDemo.c:375:5
	b	.LBB2_35
.Ltmp77:
.LBB2_35:
	.loc	3 376 1                         @ ../../../CORTEX_MPU_M3_NUCLEO_L152RE_GCC/Demo/TimerDemo.c:376:1
	add	sp, #32
	pop	{r7, pc}
.Ltmp78:
.Lfunc_end2:
	.size	prvTest1_CreateTimersWithoutSchedulerRunning, .Lfunc_end2-prvTest1_CreateTimersWithoutSchedulerRunning
	.cfi_endproc
	.cantunwind
	.fnend
                                        @ -- End function
	.section	.text.prvOneShotTimerCallback,"ax",%progbits
	.p2align	1                               @ -- Begin function prvOneShotTimerCallback
	.type	prvOneShotTimerCallback,%function
	.code	16                              @ @prvOneShotTimerCallback
	.thumb_func
prvOneShotTimerCallback:
.Lfunc_begin3:
	.loc	3 1200 0                        @ ../../../CORTEX_MPU_M3_NUCLEO_L152RE_GCC/Demo/TimerDemo.c:1200:0
	.fnstart
	.cfi_startproc
@ %bb.0:
	.save	{r7, lr}
	push	{r7, lr}
	.cfi_def_cfa_offset 8
	.cfi_offset lr, -4
	.cfi_offset r7, -8
	.pad	#8
	sub	sp, #8
	.cfi_def_cfa_offset 16
	str	r0, [sp, #4]
.Ltmp79:
	.loc	3 1209 53 prologue_end          @ ../../../CORTEX_MPU_M3_NUCLEO_L152RE_GCC/Demo/TimerDemo.c:1209:53
	ldr	r0, [sp, #4]
	.loc	3 1209 34 is_stmt 0             @ ../../../CORTEX_MPU_M3_NUCLEO_L152RE_GCC/Demo/TimerDemo.c:1209:34
	bl	MPU_pvTimerGetTimerID
	.loc	3 1209 21                       @ ../../../CORTEX_MPU_M3_NUCLEO_L152RE_GCC/Demo/TimerDemo.c:1209:21
	str	r0, [sp]
.Ltmp80:
	.loc	3 1210 5 is_stmt 1              @ ../../../CORTEX_MPU_M3_NUCLEO_L152RE_GCC/Demo/TimerDemo.c:1210:5
	ldr	r0, [sp]
	movw	r1, :lower16:prvOneShotTimerCallback.uxCallCount
	movt	r1, :upper16:prvOneShotTimerCallback.uxCallCount
	ldr	r1, [r1]
.Ltmp81:
	.loc	3 1210 5 is_stmt 0              @ ../../../CORTEX_MPU_M3_NUCLEO_L152RE_GCC/Demo/TimerDemo.c:1210:5
	cmp	r0, r1
	beq	.LBB3_3
	b	.LBB3_1
.LBB3_1:
.Ltmp82:
	.loc	3 1210 5                        @ ../../../CORTEX_MPU_M3_NUCLEO_L152RE_GCC/Demo/TimerDemo.c:1210:5
	@APP
	cpsid i
	@NO_APP
	b	.LBB3_2
.LBB3_2:                                @ =>This Inner Loop Header: Depth=1
.Ltmp83:
	.loc	3 1210 5                        @ ../../../CORTEX_MPU_M3_NUCLEO_L152RE_GCC/Demo/TimerDemo.c:1210:5
	b	.LBB3_2
.Ltmp84:
.LBB3_3:
	.loc	3 1214 20 is_stmt 1             @ ../../../CORTEX_MPU_M3_NUCLEO_L152RE_GCC/Demo/TimerDemo.c:1214:20
	ldr	r0, [sp]
	adds	r0, r0, #1
	str	r0, [sp]
	.loc	3 1215 23                       @ ../../../CORTEX_MPU_M3_NUCLEO_L152RE_GCC/Demo/TimerDemo.c:1215:23
	ldr	r0, [sp, #4]
	.loc	3 1215 50 is_stmt 0             @ ../../../CORTEX_MPU_M3_NUCLEO_L152RE_GCC/Demo/TimerDemo.c:1215:50
	ldr	r1, [sp]
	.loc	3 1215 5                        @ ../../../CORTEX_MPU_M3_NUCLEO_L152RE_GCC/Demo/TimerDemo.c:1215:5
	bl	MPU_vTimerSetTimerID
	.loc	3 1216 16 is_stmt 1             @ ../../../CORTEX_MPU_M3_NUCLEO_L152RE_GCC/Demo/TimerDemo.c:1216:16
	movw	r1, :lower16:prvOneShotTimerCallback.uxCallCount
	movt	r1, :upper16:prvOneShotTimerCallback.uxCallCount
	ldr	r0, [r1]
	adds	r0, r0, #1
	str	r0, [r1]
	.loc	3 1218 31                       @ ../../../CORTEX_MPU_M3_NUCLEO_L152RE_GCC/Demo/TimerDemo.c:1218:31
	movw	r1, :lower16:ucOneShotTimerCounter
	movt	r1, :upper16:ucOneShotTimerCounter
	ldrb	r0, [r1]
	adds	r0, r0, #1
	strb	r0, [r1]
	.loc	3 1219 1                        @ ../../../CORTEX_MPU_M3_NUCLEO_L152RE_GCC/Demo/TimerDemo.c:1219:1
	add	sp, #8
	pop	{r7, pc}
.Ltmp85:
.Lfunc_end3:
	.size	prvOneShotTimerCallback, .Lfunc_end3-prvOneShotTimerCallback
	.cfi_endproc
	.cantunwind
	.fnend
                                        @ -- End function
	.section	.text.vTimerDemoIncludeBacklogTests,"ax",%progbits
	.hidden	vTimerDemoIncludeBacklogTests   @ -- Begin function vTimerDemoIncludeBacklogTests
	.globl	vTimerDemoIncludeBacklogTests
	.p2align	1
	.type	vTimerDemoIncludeBacklogTests,%function
	.code	16                              @ @vTimerDemoIncludeBacklogTests
	.thumb_func
vTimerDemoIncludeBacklogTests:
.Lfunc_begin4:
	.loc	3 188 0                         @ ../../../CORTEX_MPU_M3_NUCLEO_L152RE_GCC/Demo/TimerDemo.c:188:0
	.fnstart
	.cfi_startproc
@ %bb.0:
	.pad	#4
	sub	sp, #4
	.cfi_def_cfa_offset 4
	str	r0, [sp]
.Ltmp86:
	.loc	3 189 47 prologue_end           @ ../../../CORTEX_MPU_M3_NUCLEO_L152RE_GCC/Demo/TimerDemo.c:189:47
	ldr	r0, [sp]
	.loc	3 189 33 is_stmt 0              @ ../../../CORTEX_MPU_M3_NUCLEO_L152RE_GCC/Demo/TimerDemo.c:189:33
	movw	r1, :lower16:ucIsBacklogDemoEnabled
	movt	r1, :upper16:ucIsBacklogDemoEnabled
	strb	r0, [r1]
	.loc	3 190 1 is_stmt 1               @ ../../../CORTEX_MPU_M3_NUCLEO_L152RE_GCC/Demo/TimerDemo.c:190:1
	add	sp, #4
	bx	lr
.Ltmp87:
.Lfunc_end4:
	.size	vTimerDemoIncludeBacklogTests, .Lfunc_end4-vTimerDemoIncludeBacklogTests
	.cfi_endproc
	.cantunwind
	.fnend
                                        @ -- End function
	.section	.text.xAreTimerDemoTasksStillRunning,"ax",%progbits
	.hidden	xAreTimerDemoTasksStillRunning  @ -- Begin function xAreTimerDemoTasksStillRunning
	.globl	xAreTimerDemoTasksStillRunning
	.p2align	1
	.type	xAreTimerDemoTasksStillRunning,%function
	.code	16                              @ @xAreTimerDemoTasksStillRunning
	.thumb_func
xAreTimerDemoTasksStillRunning:
.Lfunc_begin5:
	.loc	3 247 0                         @ ../../../CORTEX_MPU_M3_NUCLEO_L152RE_GCC/Demo/TimerDemo.c:247:0
	.fnstart
	.cfi_startproc
@ %bb.0:
	.pad	#12
	sub	sp, #12
	.cfi_def_cfa_offset 12
	str	r0, [sp, #8]
.Ltmp88:
	.loc	3 252 9 prologue_end            @ ../../../CORTEX_MPU_M3_NUCLEO_L152RE_GCC/Demo/TimerDemo.c:252:9
	movw	r0, :lower16:xAreTimerDemoTasksStillRunning.xLastCycleFrequency
	movt	r0, :upper16:xAreTimerDemoTasksStillRunning.xLastCycleFrequency
	ldr	r0, [r0]
	.loc	3 252 32 is_stmt 0              @ ../../../CORTEX_MPU_M3_NUCLEO_L152RE_GCC/Demo/TimerDemo.c:252:32
	ldr	r1, [sp, #8]
.Ltmp89:
	.loc	3 252 9                         @ ../../../CORTEX_MPU_M3_NUCLEO_L152RE_GCC/Demo/TimerDemo.c:252:9
	cmp	r0, r1
	beq	.LBB5_2
	b	.LBB5_1
.LBB5_1:
.Ltmp90:
	.loc	3 256 44 is_stmt 1              @ ../../../CORTEX_MPU_M3_NUCLEO_L152RE_GCC/Demo/TimerDemo.c:256:44
	movw	r1, :lower16:xAreTimerDemoTasksStillRunning.xIterationsWithoutCounterIncrement
	movt	r1, :upper16:xAreTimerDemoTasksStillRunning.xIterationsWithoutCounterIncrement
	movs	r0, #0
	str	r0, [r1]
	.loc	3 257 31                        @ ../../../CORTEX_MPU_M3_NUCLEO_L152RE_GCC/Demo/TimerDemo.c:257:31
	ldr	r0, [sp, #8]
	.loc	3 257 29 is_stmt 0              @ ../../../CORTEX_MPU_M3_NUCLEO_L152RE_GCC/Demo/TimerDemo.c:257:29
	movw	r1, :lower16:xAreTimerDemoTasksStillRunning.xLastCycleFrequency
	movt	r1, :upper16:xAreTimerDemoTasksStillRunning.xLastCycleFrequency
	str	r0, [r1]
	.loc	3 258 5 is_stmt 1               @ ../../../CORTEX_MPU_M3_NUCLEO_L152RE_GCC/Demo/TimerDemo.c:258:5
	b	.LBB5_2
.Ltmp91:
.LBB5_2:
	.loc	3 264 83                        @ ../../../CORTEX_MPU_M3_NUCLEO_L152RE_GCC/Demo/TimerDemo.c:264:83
	movw	r0, :lower16:xBasePeriod
	movt	r0, :upper16:xBasePeriod
	ldr	r1, [r0]
	movs	r0, #5
	.loc	3 264 81 is_stmt 0              @ ../../../CORTEX_MPU_M3_NUCLEO_L152RE_GCC/Demo/TimerDemo.c:264:81
	muls	r0, r1, r0
	.loc	3 264 35                        @ ../../../CORTEX_MPU_M3_NUCLEO_L152RE_GCC/Demo/TimerDemo.c:264:35
	str	r0, [sp, #4]
	.loc	3 265 38 is_stmt 1              @ ../../../CORTEX_MPU_M3_NUCLEO_L152RE_GCC/Demo/TimerDemo.c:265:38
	ldr	r0, [sp, #4]
	.loc	3 265 70 is_stmt 0              @ ../../../CORTEX_MPU_M3_NUCLEO_L152RE_GCC/Demo/TimerDemo.c:265:70
	ldr	r1, [sp, #8]
	.loc	3 265 68                        @ ../../../CORTEX_MPU_M3_NUCLEO_L152RE_GCC/Demo/TimerDemo.c:265:68
	udiv	r0, r0, r1
	.loc	3 265 88                        @ ../../../CORTEX_MPU_M3_NUCLEO_L152RE_GCC/Demo/TimerDemo.c:265:88
	adds	r0, r0, #1
	.loc	3 265 34                        @ ../../../CORTEX_MPU_M3_NUCLEO_L152RE_GCC/Demo/TimerDemo.c:265:34
	str	r0, [sp]
.Ltmp92:
	.loc	3 269 9 is_stmt 1               @ ../../../CORTEX_MPU_M3_NUCLEO_L152RE_GCC/Demo/TimerDemo.c:269:9
	movw	r0, :lower16:xAreTimerDemoTasksStillRunning.ulLastLoopCounter
	movt	r0, :upper16:xAreTimerDemoTasksStillRunning.ulLastLoopCounter
	ldr	r0, [r0]
	.loc	3 269 30 is_stmt 0              @ ../../../CORTEX_MPU_M3_NUCLEO_L152RE_GCC/Demo/TimerDemo.c:269:30
	movw	r1, :lower16:ulLoopCounter
	movt	r1, :upper16:ulLoopCounter
	ldr	r1, [r1]
.Ltmp93:
	.loc	3 269 9                         @ ../../../CORTEX_MPU_M3_NUCLEO_L152RE_GCC/Demo/TimerDemo.c:269:9
	cmp	r0, r1
	bne	.LBB5_6
	b	.LBB5_3
.LBB5_3:
.Ltmp94:
	.loc	3 271 43 is_stmt 1              @ ../../../CORTEX_MPU_M3_NUCLEO_L152RE_GCC/Demo/TimerDemo.c:271:43
	movw	r0, :lower16:xAreTimerDemoTasksStillRunning.xIterationsWithoutCounterIncrement
	movt	r0, :upper16:xAreTimerDemoTasksStillRunning.xIterationsWithoutCounterIncrement
	ldr	r1, [r0]
	adds	r1, r1, #1
	str	r1, [r0]
.Ltmp95:
	.loc	3 273 13                        @ ../../../CORTEX_MPU_M3_NUCLEO_L152RE_GCC/Demo/TimerDemo.c:273:13
	ldr	r0, [r0]
	.loc	3 273 50 is_stmt 0              @ ../../../CORTEX_MPU_M3_NUCLEO_L152RE_GCC/Demo/TimerDemo.c:273:50
	ldr	r1, [sp]
.Ltmp96:
	.loc	3 273 13                        @ ../../../CORTEX_MPU_M3_NUCLEO_L152RE_GCC/Demo/TimerDemo.c:273:13
	cmp	r0, r1
	bls	.LBB5_5
	b	.LBB5_4
.LBB5_4:
.Ltmp97:
	.loc	3 276 30 is_stmt 1              @ ../../../CORTEX_MPU_M3_NUCLEO_L152RE_GCC/Demo/TimerDemo.c:276:30
	movw	r1, :lower16:xTestStatus
	movt	r1, :upper16:xTestStatus
	movs	r0, #0
	str	r0, [r1]
	.loc	3 277 9                         @ ../../../CORTEX_MPU_M3_NUCLEO_L152RE_GCC/Demo/TimerDemo.c:277:9
	b	.LBB5_5
.Ltmp98:
.LBB5_5:
	.loc	3 278 5                         @ ../../../CORTEX_MPU_M3_NUCLEO_L152RE_GCC/Demo/TimerDemo.c:278:5
	b	.LBB5_7
.Ltmp99:
.LBB5_6:
	.loc	3 283 44                        @ ../../../CORTEX_MPU_M3_NUCLEO_L152RE_GCC/Demo/TimerDemo.c:283:44
	movw	r1, :lower16:xAreTimerDemoTasksStillRunning.xIterationsWithoutCounterIncrement
	movt	r1, :upper16:xAreTimerDemoTasksStillRunning.xIterationsWithoutCounterIncrement
	movs	r0, #0
	str	r0, [r1]
	b	.LBB5_7
.Ltmp100:
.LBB5_7:
	.loc	3 286 25                        @ ../../../CORTEX_MPU_M3_NUCLEO_L152RE_GCC/Demo/TimerDemo.c:286:25
	movw	r0, :lower16:ulLoopCounter
	movt	r0, :upper16:ulLoopCounter
	ldr	r0, [r0]
	.loc	3 286 23 is_stmt 0              @ ../../../CORTEX_MPU_M3_NUCLEO_L152RE_GCC/Demo/TimerDemo.c:286:23
	movw	r1, :lower16:xAreTimerDemoTasksStillRunning.ulLastLoopCounter
	movt	r1, :upper16:xAreTimerDemoTasksStillRunning.ulLastLoopCounter
	str	r0, [r1]
	.loc	3 291 12 is_stmt 1              @ ../../../CORTEX_MPU_M3_NUCLEO_L152RE_GCC/Demo/TimerDemo.c:291:12
	movw	r0, :lower16:xTestStatus
	movt	r0, :upper16:xTestStatus
	ldr	r0, [r0]
	.loc	3 291 5 is_stmt 0               @ ../../../CORTEX_MPU_M3_NUCLEO_L152RE_GCC/Demo/TimerDemo.c:291:5
	add	sp, #12
	bx	lr
.Ltmp101:
.Lfunc_end5:
	.size	xAreTimerDemoTasksStillRunning, .Lfunc_end5-xAreTimerDemoTasksStillRunning
	.cfi_endproc
	.cantunwind
	.fnend
                                        @ -- End function
	.section	.text.vTimerPeriodicISRTests,"ax",%progbits
	.hidden	vTimerPeriodicISRTests          @ -- Begin function vTimerPeriodicISRTests
	.globl	vTimerPeriodicISRTests
	.p2align	1
	.type	vTimerPeriodicISRTests,%function
	.code	16                              @ @vTimerPeriodicISRTests
	.thumb_func
vTimerPeriodicISRTests:
.Lfunc_begin6:
	.loc	3 857 0 is_stmt 1               @ ../../../CORTEX_MPU_M3_NUCLEO_L152RE_GCC/Demo/TimerDemo.c:857:0
	.fnstart
	.cfi_startproc
@ %bb.0:
	.save	{r7, lr}
	push	{r7, lr}
	.cfi_def_cfa_offset 8
	.cfi_offset lr, -4
	.cfi_offset r7, -8
	.pad	#32
	sub	sp, #32
	.cfi_def_cfa_offset 40
	movs	r0, #6
.Ltmp102:
	.loc	3 885 30 prologue_end           @ ../../../CORTEX_MPU_M3_NUCLEO_L152RE_GCC/Demo/TimerDemo.c:885:30
	str	r0, [sp, #28]
	.loc	3 897 11                        @ ../../../CORTEX_MPU_M3_NUCLEO_L152RE_GCC/Demo/TimerDemo.c:897:11
	movw	r0, :lower16:vTimerPeriodicISRTests.uxTick
	movt	r0, :upper16:vTimerPeriodicISRTests.uxTick
	ldr	r1, [r0]
	adds	r1, r1, #1
	str	r1, [r0]
.Ltmp103:
	.loc	3 899 9                         @ ../../../CORTEX_MPU_M3_NUCLEO_L152RE_GCC/Demo/TimerDemo.c:899:9
	ldr	r0, [r0]
.Ltmp104:
	.loc	3 899 9 is_stmt 0               @ ../../../CORTEX_MPU_M3_NUCLEO_L152RE_GCC/Demo/TimerDemo.c:899:9
	cmp	r0, #0
	bne	.LBB6_7
	b	.LBB6_1
.LBB6_1:
.Ltmp105:
	.loc	3 903 37 is_stmt 1              @ ../../../CORTEX_MPU_M3_NUCLEO_L152RE_GCC/Demo/TimerDemo.c:903:37
	movw	r0, :lower16:ucISRAutoReloadTimerCounter
	movt	r0, :upper16:ucISRAutoReloadTimerCounter
	movs	r3, #0
	strb	r3, [r0]
	.loc	3 904 34                        @ ../../../CORTEX_MPU_M3_NUCLEO_L152RE_GCC/Demo/TimerDemo.c:904:34
	movw	r0, :lower16:ucISROneShotTimerCounter
	movt	r0, :upper16:ucISROneShotTimerCounter
	strb	r3, [r0]
	.loc	3 909 16                        @ ../../../CORTEX_MPU_M3_NUCLEO_L152RE_GCC/Demo/TimerDemo.c:909:16
	movw	r1, :lower16:vTimerPeriodicISRTests.uxTick
	movt	r1, :upper16:vTimerPeriodicISRTests.uxTick
	mvns	r0, r3
	str	r0, [r1]
.Ltmp106:
	.loc	3 912 13                        @ ../../../CORTEX_MPU_M3_NUCLEO_L152RE_GCC/Demo/TimerDemo.c:912:13
	movw	r0, :lower16:xISRAutoReloadTimer
	movt	r0, :upper16:xISRAutoReloadTimer
	ldr	r0, [r0]
	movw	r1, :lower16:xBasePeriod
	movt	r1, :upper16:xBasePeriod
	ldr	r2, [r1]
	str	r3, [sp]
	movs	r1, #9
	bl	MPU_xTimerGenericCommand
.Ltmp107:
	.loc	3 912 13 is_stmt 0              @ ../../../CORTEX_MPU_M3_NUCLEO_L152RE_GCC/Demo/TimerDemo.c:912:13
	cmp	r0, #1
	bne	.LBB6_6
	b	.LBB6_2
.LBB6_2:
.Ltmp108:
	.loc	3 915 17 is_stmt 1              @ ../../../CORTEX_MPU_M3_NUCLEO_L152RE_GCC/Demo/TimerDemo.c:915:17
	movw	r0, :lower16:xISROneShotTimer
	movt	r0, :upper16:xISROneShotTimer
	ldr	r0, [r0]
	movw	r1, :lower16:xBasePeriod
	movt	r1, :upper16:xBasePeriod
	ldr	r2, [r1]
	movs	r3, #0
	str	r3, [sp]
	movs	r1, #9
	bl	MPU_xTimerGenericCommand
.Ltmp109:
	.loc	3 915 17 is_stmt 0              @ ../../../CORTEX_MPU_M3_NUCLEO_L152RE_GCC/Demo/TimerDemo.c:915:17
	cmp	r0, #1
	bne	.LBB6_4
	b	.LBB6_3
.LBB6_3:
.Ltmp110:
	.loc	3 919 24 is_stmt 1              @ ../../../CORTEX_MPU_M3_NUCLEO_L152RE_GCC/Demo/TimerDemo.c:919:24
	movw	r1, :lower16:vTimerPeriodicISRTests.uxTick
	movt	r1, :upper16:vTimerPeriodicISRTests.uxTick
	movs	r0, #0
	str	r0, [r1]
	.loc	3 920 13                        @ ../../../CORTEX_MPU_M3_NUCLEO_L152RE_GCC/Demo/TimerDemo.c:920:13
	b	.LBB6_5
.Ltmp111:
.LBB6_4:
	.loc	3 925 17                        @ ../../../CORTEX_MPU_M3_NUCLEO_L152RE_GCC/Demo/TimerDemo.c:925:17
	movw	r0, :lower16:xISRAutoReloadTimer
	movt	r0, :upper16:xISRAutoReloadTimer
	ldr	r0, [r0]
	movs	r3, #0
	str	r3, [sp]
	movs	r1, #8
	mov	r2, r3
	bl	MPU_xTimerGenericCommand
	b	.LBB6_5
.Ltmp112:
.LBB6_5:
	.loc	3 927 9                         @ ../../../CORTEX_MPU_M3_NUCLEO_L152RE_GCC/Demo/TimerDemo.c:927:9
	b	.LBB6_6
.Ltmp113:
.LBB6_6:
	.loc	3 928 5                         @ ../../../CORTEX_MPU_M3_NUCLEO_L152RE_GCC/Demo/TimerDemo.c:928:5
	b	.LBB6_180
.Ltmp114:
.LBB6_7:
	.loc	3 929 14                        @ ../../../CORTEX_MPU_M3_NUCLEO_L152RE_GCC/Demo/TimerDemo.c:929:14
	movw	r0, :lower16:vTimerPeriodicISRTests.uxTick
	movt	r0, :upper16:vTimerPeriodicISRTests.uxTick
	ldr	r0, [r0]
	.loc	3 929 26 is_stmt 0              @ ../../../CORTEX_MPU_M3_NUCLEO_L152RE_GCC/Demo/TimerDemo.c:929:26
	movw	r1, :lower16:xBasePeriod
	movt	r1, :upper16:xBasePeriod
	ldr	r1, [r1]
	.loc	3 929 43                        @ ../../../CORTEX_MPU_M3_NUCLEO_L152RE_GCC/Demo/TimerDemo.c:929:43
	subs	r1, r1, #6
.Ltmp115:
	.loc	3 929 14                        @ ../../../CORTEX_MPU_M3_NUCLEO_L152RE_GCC/Demo/TimerDemo.c:929:14
	cmp	r0, r1
	bne	.LBB6_15
	b	.LBB6_8
.LBB6_8:
.Ltmp116:
	.loc	3 932 15 is_stmt 1              @ ../../../CORTEX_MPU_M3_NUCLEO_L152RE_GCC/Demo/TimerDemo.c:932:15
	movw	r0, :lower16:ucISRAutoReloadTimerCounter
	movt	r0, :upper16:ucISRAutoReloadTimerCounter
	ldrb	r0, [r0]
	.loc	3 932 50 is_stmt 0              @ ../../../CORTEX_MPU_M3_NUCLEO_L152RE_GCC/Demo/TimerDemo.c:932:50
	cbnz	r0, .LBB6_10
	b	.LBB6_9
.LBB6_9:
	.loc	3 932 55                        @ ../../../CORTEX_MPU_M3_NUCLEO_L152RE_GCC/Demo/TimerDemo.c:932:55
	movw	r0, :lower16:ucISROneShotTimerCounter
	movt	r0, :upper16:ucISROneShotTimerCounter
	ldrb	r0, [r0]
.Ltmp117:
	.loc	3 932 13                        @ ../../../CORTEX_MPU_M3_NUCLEO_L152RE_GCC/Demo/TimerDemo.c:932:13
	cbz	r0, .LBB6_14
	b	.LBB6_10
.LBB6_10:
.Ltmp118:
	.loc	3 934 30 is_stmt 1              @ ../../../CORTEX_MPU_M3_NUCLEO_L152RE_GCC/Demo/TimerDemo.c:934:30
	movw	r0, :lower16:xTestStatus
	movt	r0, :upper16:xTestStatus
	movs	r1, #0
	str	r1, [r0]
.Ltmp119:
	.loc	3 935 13                        @ ../../../CORTEX_MPU_M3_NUCLEO_L152RE_GCC/Demo/TimerDemo.c:935:13
	ldr	r0, [r0]
.Ltmp120:
	.loc	3 935 13 is_stmt 0              @ ../../../CORTEX_MPU_M3_NUCLEO_L152RE_GCC/Demo/TimerDemo.c:935:13
	cbnz	r0, .LBB6_13
	b	.LBB6_11
.LBB6_11:
.Ltmp121:
	.loc	3 935 13                        @ ../../../CORTEX_MPU_M3_NUCLEO_L152RE_GCC/Demo/TimerDemo.c:935:13
	@APP
	cpsid i
	@NO_APP
	b	.LBB6_12
.LBB6_12:                               @ =>This Inner Loop Header: Depth=1
.Ltmp122:
	.loc	3 935 13                        @ ../../../CORTEX_MPU_M3_NUCLEO_L152RE_GCC/Demo/TimerDemo.c:935:13
	b	.LBB6_12
.Ltmp123:
.LBB6_13:
	.loc	3 936 9 is_stmt 1               @ ../../../CORTEX_MPU_M3_NUCLEO_L152RE_GCC/Demo/TimerDemo.c:936:9
	b	.LBB6_14
.Ltmp124:
.LBB6_14:
	.loc	3 937 5                         @ ../../../CORTEX_MPU_M3_NUCLEO_L152RE_GCC/Demo/TimerDemo.c:937:5
	b	.LBB6_179
.Ltmp125:
.LBB6_15:
	.loc	3 938 14                        @ ../../../CORTEX_MPU_M3_NUCLEO_L152RE_GCC/Demo/TimerDemo.c:938:14
	movw	r0, :lower16:vTimerPeriodicISRTests.uxTick
	movt	r0, :upper16:vTimerPeriodicISRTests.uxTick
	ldr	r0, [r0]
	.loc	3 938 26 is_stmt 0              @ ../../../CORTEX_MPU_M3_NUCLEO_L152RE_GCC/Demo/TimerDemo.c:938:26
	movw	r1, :lower16:xBasePeriod
	movt	r1, :upper16:xBasePeriod
	ldr	r1, [r1]
	.loc	3 938 43                        @ ../../../CORTEX_MPU_M3_NUCLEO_L152RE_GCC/Demo/TimerDemo.c:938:43
	adds	r1, r1, #6
.Ltmp126:
	.loc	3 938 14                        @ ../../../CORTEX_MPU_M3_NUCLEO_L152RE_GCC/Demo/TimerDemo.c:938:14
	cmp	r0, r1
	bne	.LBB6_23
	b	.LBB6_16
.LBB6_16:
.Ltmp127:
	.loc	3 942 15 is_stmt 1              @ ../../../CORTEX_MPU_M3_NUCLEO_L152RE_GCC/Demo/TimerDemo.c:942:15
	movw	r0, :lower16:ucISRAutoReloadTimerCounter
	movt	r0, :upper16:ucISRAutoReloadTimerCounter
	ldrb	r0, [r0]
	.loc	3 942 50 is_stmt 0              @ ../../../CORTEX_MPU_M3_NUCLEO_L152RE_GCC/Demo/TimerDemo.c:942:50
	cmp	r0, #1
	bne	.LBB6_18
	b	.LBB6_17
.LBB6_17:
	.loc	3 942 55                        @ ../../../CORTEX_MPU_M3_NUCLEO_L152RE_GCC/Demo/TimerDemo.c:942:55
	movw	r0, :lower16:ucISROneShotTimerCounter
	movt	r0, :upper16:ucISROneShotTimerCounter
	ldrb	r0, [r0]
.Ltmp128:
	.loc	3 942 13                        @ ../../../CORTEX_MPU_M3_NUCLEO_L152RE_GCC/Demo/TimerDemo.c:942:13
	cmp	r0, #1
	beq	.LBB6_22
	b	.LBB6_18
.LBB6_18:
.Ltmp129:
	.loc	3 944 30 is_stmt 1              @ ../../../CORTEX_MPU_M3_NUCLEO_L152RE_GCC/Demo/TimerDemo.c:944:30
	movw	r0, :lower16:xTestStatus
	movt	r0, :upper16:xTestStatus
	movs	r1, #0
	str	r1, [r0]
.Ltmp130:
	.loc	3 945 13                        @ ../../../CORTEX_MPU_M3_NUCLEO_L152RE_GCC/Demo/TimerDemo.c:945:13
	ldr	r0, [r0]
.Ltmp131:
	.loc	3 945 13 is_stmt 0              @ ../../../CORTEX_MPU_M3_NUCLEO_L152RE_GCC/Demo/TimerDemo.c:945:13
	cbnz	r0, .LBB6_21
	b	.LBB6_19
.LBB6_19:
.Ltmp132:
	.loc	3 945 13                        @ ../../../CORTEX_MPU_M3_NUCLEO_L152RE_GCC/Demo/TimerDemo.c:945:13
	@APP
	cpsid i
	@NO_APP
	b	.LBB6_20
.LBB6_20:                               @ =>This Inner Loop Header: Depth=1
.Ltmp133:
	.loc	3 945 13                        @ ../../../CORTEX_MPU_M3_NUCLEO_L152RE_GCC/Demo/TimerDemo.c:945:13
	b	.LBB6_20
.Ltmp134:
.LBB6_21:
	.loc	3 946 9 is_stmt 1               @ ../../../CORTEX_MPU_M3_NUCLEO_L152RE_GCC/Demo/TimerDemo.c:946:9
	b	.LBB6_22
.Ltmp135:
.LBB6_22:
	.loc	3 947 5                         @ ../../../CORTEX_MPU_M3_NUCLEO_L152RE_GCC/Demo/TimerDemo.c:947:5
	b	.LBB6_178
.Ltmp136:
.LBB6_23:
	.loc	3 948 14                        @ ../../../CORTEX_MPU_M3_NUCLEO_L152RE_GCC/Demo/TimerDemo.c:948:14
	movw	r0, :lower16:vTimerPeriodicISRTests.uxTick
	movt	r0, :upper16:vTimerPeriodicISRTests.uxTick
	ldr	r0, [r0]
	.loc	3 948 32 is_stmt 0              @ ../../../CORTEX_MPU_M3_NUCLEO_L152RE_GCC/Demo/TimerDemo.c:948:32
	movw	r1, :lower16:xBasePeriod
	movt	r1, :upper16:xBasePeriod
	ldr	r1, [r1]
	.loc	3 948 30                        @ ../../../CORTEX_MPU_M3_NUCLEO_L152RE_GCC/Demo/TimerDemo.c:948:30
	lsls	r1, r1, #1
	.loc	3 948 51                        @ ../../../CORTEX_MPU_M3_NUCLEO_L152RE_GCC/Demo/TimerDemo.c:948:51
	subs	r1, r1, #6
.Ltmp137:
	.loc	3 948 14                        @ ../../../CORTEX_MPU_M3_NUCLEO_L152RE_GCC/Demo/TimerDemo.c:948:14
	cmp	r0, r1
	bne	.LBB6_31
	b	.LBB6_24
.LBB6_24:
.Ltmp138:
	.loc	3 953 15 is_stmt 1              @ ../../../CORTEX_MPU_M3_NUCLEO_L152RE_GCC/Demo/TimerDemo.c:953:15
	movw	r0, :lower16:ucISRAutoReloadTimerCounter
	movt	r0, :upper16:ucISRAutoReloadTimerCounter
	ldrb	r0, [r0]
	.loc	3 953 50 is_stmt 0              @ ../../../CORTEX_MPU_M3_NUCLEO_L152RE_GCC/Demo/TimerDemo.c:953:50
	cmp	r0, #1
	bne	.LBB6_26
	b	.LBB6_25
.LBB6_25:
	.loc	3 953 55                        @ ../../../CORTEX_MPU_M3_NUCLEO_L152RE_GCC/Demo/TimerDemo.c:953:55
	movw	r0, :lower16:ucISROneShotTimerCounter
	movt	r0, :upper16:ucISROneShotTimerCounter
	ldrb	r0, [r0]
.Ltmp139:
	.loc	3 953 13                        @ ../../../CORTEX_MPU_M3_NUCLEO_L152RE_GCC/Demo/TimerDemo.c:953:13
	cmp	r0, #1
	beq	.LBB6_30
	b	.LBB6_26
.LBB6_26:
.Ltmp140:
	.loc	3 955 30 is_stmt 1              @ ../../../CORTEX_MPU_M3_NUCLEO_L152RE_GCC/Demo/TimerDemo.c:955:30
	movw	r0, :lower16:xTestStatus
	movt	r0, :upper16:xTestStatus
	movs	r1, #0
	str	r1, [r0]
.Ltmp141:
	.loc	3 956 13                        @ ../../../CORTEX_MPU_M3_NUCLEO_L152RE_GCC/Demo/TimerDemo.c:956:13
	ldr	r0, [r0]
.Ltmp142:
	.loc	3 956 13 is_stmt 0              @ ../../../CORTEX_MPU_M3_NUCLEO_L152RE_GCC/Demo/TimerDemo.c:956:13
	cbnz	r0, .LBB6_29
	b	.LBB6_27
.LBB6_27:
.Ltmp143:
	.loc	3 956 13                        @ ../../../CORTEX_MPU_M3_NUCLEO_L152RE_GCC/Demo/TimerDemo.c:956:13
	@APP
	cpsid i
	@NO_APP
	b	.LBB6_28
.LBB6_28:                               @ =>This Inner Loop Header: Depth=1
.Ltmp144:
	.loc	3 956 13                        @ ../../../CORTEX_MPU_M3_NUCLEO_L152RE_GCC/Demo/TimerDemo.c:956:13
	b	.LBB6_28
.Ltmp145:
.LBB6_29:
	.loc	3 957 9 is_stmt 1               @ ../../../CORTEX_MPU_M3_NUCLEO_L152RE_GCC/Demo/TimerDemo.c:957:9
	b	.LBB6_30
.Ltmp146:
.LBB6_30:
	.loc	3 958 5                         @ ../../../CORTEX_MPU_M3_NUCLEO_L152RE_GCC/Demo/TimerDemo.c:958:5
	b	.LBB6_177
.Ltmp147:
.LBB6_31:
	.loc	3 959 14                        @ ../../../CORTEX_MPU_M3_NUCLEO_L152RE_GCC/Demo/TimerDemo.c:959:14
	movw	r0, :lower16:vTimerPeriodicISRTests.uxTick
	movt	r0, :upper16:vTimerPeriodicISRTests.uxTick
	ldr	r0, [r0]
	.loc	3 959 32 is_stmt 0              @ ../../../CORTEX_MPU_M3_NUCLEO_L152RE_GCC/Demo/TimerDemo.c:959:32
	movw	r1, :lower16:xBasePeriod
	movt	r1, :upper16:xBasePeriod
	ldr	r1, [r1]
	.loc	3 959 30                        @ ../../../CORTEX_MPU_M3_NUCLEO_L152RE_GCC/Demo/TimerDemo.c:959:30
	lsls	r1, r1, #1
	.loc	3 959 51                        @ ../../../CORTEX_MPU_M3_NUCLEO_L152RE_GCC/Demo/TimerDemo.c:959:51
	adds	r1, r1, #6
.Ltmp148:
	.loc	3 959 14                        @ ../../../CORTEX_MPU_M3_NUCLEO_L152RE_GCC/Demo/TimerDemo.c:959:14
	cmp	r0, r1
	bne	.LBB6_43
	b	.LBB6_32
.LBB6_32:
.Ltmp149:
	.loc	3 964 13 is_stmt 1              @ ../../../CORTEX_MPU_M3_NUCLEO_L152RE_GCC/Demo/TimerDemo.c:964:13
	movw	r0, :lower16:ucISRAutoReloadTimerCounter
	movt	r0, :upper16:ucISRAutoReloadTimerCounter
	ldrb	r0, [r0]
.Ltmp150:
	.loc	3 964 13 is_stmt 0              @ ../../../CORTEX_MPU_M3_NUCLEO_L152RE_GCC/Demo/TimerDemo.c:964:13
	cmp	r0, #2
	beq	.LBB6_37
	b	.LBB6_33
.LBB6_33:
.Ltmp151:
	.loc	3 966 30 is_stmt 1              @ ../../../CORTEX_MPU_M3_NUCLEO_L152RE_GCC/Demo/TimerDemo.c:966:30
	movw	r0, :lower16:xTestStatus
	movt	r0, :upper16:xTestStatus
	movs	r1, #0
	str	r1, [r0]
.Ltmp152:
	.loc	3 967 13                        @ ../../../CORTEX_MPU_M3_NUCLEO_L152RE_GCC/Demo/TimerDemo.c:967:13
	ldr	r0, [r0]
.Ltmp153:
	.loc	3 967 13 is_stmt 0              @ ../../../CORTEX_MPU_M3_NUCLEO_L152RE_GCC/Demo/TimerDemo.c:967:13
	cbnz	r0, .LBB6_36
	b	.LBB6_34
.LBB6_34:
.Ltmp154:
	.loc	3 967 13                        @ ../../../CORTEX_MPU_M3_NUCLEO_L152RE_GCC/Demo/TimerDemo.c:967:13
	@APP
	cpsid i
	@NO_APP
	b	.LBB6_35
.LBB6_35:                               @ =>This Inner Loop Header: Depth=1
.Ltmp155:
	.loc	3 967 13                        @ ../../../CORTEX_MPU_M3_NUCLEO_L152RE_GCC/Demo/TimerDemo.c:967:13
	b	.LBB6_35
.Ltmp156:
.LBB6_36:
	.loc	3 968 9 is_stmt 1               @ ../../../CORTEX_MPU_M3_NUCLEO_L152RE_GCC/Demo/TimerDemo.c:968:9
	b	.LBB6_37
.Ltmp157:
.LBB6_37:
	.loc	3 970 13                        @ ../../../CORTEX_MPU_M3_NUCLEO_L152RE_GCC/Demo/TimerDemo.c:970:13
	movw	r0, :lower16:ucISROneShotTimerCounter
	movt	r0, :upper16:ucISROneShotTimerCounter
	ldrb	r0, [r0]
.Ltmp158:
	.loc	3 970 13 is_stmt 0              @ ../../../CORTEX_MPU_M3_NUCLEO_L152RE_GCC/Demo/TimerDemo.c:970:13
	cmp	r0, #1
	beq	.LBB6_42
	b	.LBB6_38
.LBB6_38:
.Ltmp159:
	.loc	3 972 30 is_stmt 1              @ ../../../CORTEX_MPU_M3_NUCLEO_L152RE_GCC/Demo/TimerDemo.c:972:30
	movw	r0, :lower16:xTestStatus
	movt	r0, :upper16:xTestStatus
	movs	r1, #0
	str	r1, [r0]
.Ltmp160:
	.loc	3 973 13                        @ ../../../CORTEX_MPU_M3_NUCLEO_L152RE_GCC/Demo/TimerDemo.c:973:13
	ldr	r0, [r0]
.Ltmp161:
	.loc	3 973 13 is_stmt 0              @ ../../../CORTEX_MPU_M3_NUCLEO_L152RE_GCC/Demo/TimerDemo.c:973:13
	cbnz	r0, .LBB6_41
	b	.LBB6_39
.LBB6_39:
.Ltmp162:
	.loc	3 973 13                        @ ../../../CORTEX_MPU_M3_NUCLEO_L152RE_GCC/Demo/TimerDemo.c:973:13
	@APP
	cpsid i
	@NO_APP
	b	.LBB6_40
.LBB6_40:                               @ =>This Inner Loop Header: Depth=1
.Ltmp163:
	.loc	3 973 13                        @ ../../../CORTEX_MPU_M3_NUCLEO_L152RE_GCC/Demo/TimerDemo.c:973:13
	b	.LBB6_40
.Ltmp164:
.LBB6_41:
	.loc	3 974 9 is_stmt 1               @ ../../../CORTEX_MPU_M3_NUCLEO_L152RE_GCC/Demo/TimerDemo.c:974:9
	b	.LBB6_42
.Ltmp165:
.LBB6_42:
	.loc	3 975 5                         @ ../../../CORTEX_MPU_M3_NUCLEO_L152RE_GCC/Demo/TimerDemo.c:975:5
	b	.LBB6_176
.Ltmp166:
.LBB6_43:
	.loc	3 976 14                        @ ../../../CORTEX_MPU_M3_NUCLEO_L152RE_GCC/Demo/TimerDemo.c:976:14
	movw	r0, :lower16:vTimerPeriodicISRTests.uxTick
	movt	r0, :upper16:vTimerPeriodicISRTests.uxTick
	ldr	r0, [r0]
	.loc	3 976 32 is_stmt 0              @ ../../../CORTEX_MPU_M3_NUCLEO_L152RE_GCC/Demo/TimerDemo.c:976:32
	movw	r1, :lower16:xBasePeriod
	movt	r1, :upper16:xBasePeriod
	ldr	r2, [r1]
	.loc	3 976 30                        @ ../../../CORTEX_MPU_M3_NUCLEO_L152RE_GCC/Demo/TimerDemo.c:976:30
	lsls	r1, r2, #1
	.loc	3 976 72                        @ ../../../CORTEX_MPU_M3_NUCLEO_L152RE_GCC/Demo/TimerDemo.c:976:72
	lsrs	r2, r2, #2
	.loc	3 976 51                        @ ../../../CORTEX_MPU_M3_NUCLEO_L152RE_GCC/Demo/TimerDemo.c:976:51
	adds	r1, r1, r2
.Ltmp167:
	.loc	3 976 14                        @ ../../../CORTEX_MPU_M3_NUCLEO_L152RE_GCC/Demo/TimerDemo.c:976:14
	cmp	r0, r1
	bne	.LBB6_55
	b	.LBB6_44
.LBB6_44:
.Ltmp168:
	.loc	3 981 13 is_stmt 1              @ ../../../CORTEX_MPU_M3_NUCLEO_L152RE_GCC/Demo/TimerDemo.c:981:13
	movw	r0, :lower16:ucISRAutoReloadTimerCounter
	movt	r0, :upper16:ucISRAutoReloadTimerCounter
	ldrb	r0, [r0]
.Ltmp169:
	.loc	3 981 13 is_stmt 0              @ ../../../CORTEX_MPU_M3_NUCLEO_L152RE_GCC/Demo/TimerDemo.c:981:13
	cmp	r0, #2
	beq	.LBB6_49
	b	.LBB6_45
.LBB6_45:
.Ltmp170:
	.loc	3 983 30 is_stmt 1              @ ../../../CORTEX_MPU_M3_NUCLEO_L152RE_GCC/Demo/TimerDemo.c:983:30
	movw	r0, :lower16:xTestStatus
	movt	r0, :upper16:xTestStatus
	movs	r1, #0
	str	r1, [r0]
.Ltmp171:
	.loc	3 984 13                        @ ../../../CORTEX_MPU_M3_NUCLEO_L152RE_GCC/Demo/TimerDemo.c:984:13
	ldr	r0, [r0]
.Ltmp172:
	.loc	3 984 13 is_stmt 0              @ ../../../CORTEX_MPU_M3_NUCLEO_L152RE_GCC/Demo/TimerDemo.c:984:13
	cbnz	r0, .LBB6_48
	b	.LBB6_46
.LBB6_46:
.Ltmp173:
	.loc	3 984 13                        @ ../../../CORTEX_MPU_M3_NUCLEO_L152RE_GCC/Demo/TimerDemo.c:984:13
	@APP
	cpsid i
	@NO_APP
	b	.LBB6_47
.LBB6_47:                               @ =>This Inner Loop Header: Depth=1
.Ltmp174:
	.loc	3 984 13                        @ ../../../CORTEX_MPU_M3_NUCLEO_L152RE_GCC/Demo/TimerDemo.c:984:13
	b	.LBB6_47
.Ltmp175:
.LBB6_48:
	.loc	3 985 9 is_stmt 1               @ ../../../CORTEX_MPU_M3_NUCLEO_L152RE_GCC/Demo/TimerDemo.c:985:9
	b	.LBB6_49
.Ltmp176:
.LBB6_49:
	.loc	3 987 13                        @ ../../../CORTEX_MPU_M3_NUCLEO_L152RE_GCC/Demo/TimerDemo.c:987:13
	movw	r0, :lower16:ucISROneShotTimerCounter
	movt	r0, :upper16:ucISROneShotTimerCounter
	ldrb	r0, [r0]
.Ltmp177:
	.loc	3 987 13 is_stmt 0              @ ../../../CORTEX_MPU_M3_NUCLEO_L152RE_GCC/Demo/TimerDemo.c:987:13
	cmp	r0, #1
	beq	.LBB6_54
	b	.LBB6_50
.LBB6_50:
.Ltmp178:
	.loc	3 989 30 is_stmt 1              @ ../../../CORTEX_MPU_M3_NUCLEO_L152RE_GCC/Demo/TimerDemo.c:989:30
	movw	r0, :lower16:xTestStatus
	movt	r0, :upper16:xTestStatus
	movs	r1, #0
	str	r1, [r0]
.Ltmp179:
	.loc	3 990 13                        @ ../../../CORTEX_MPU_M3_NUCLEO_L152RE_GCC/Demo/TimerDemo.c:990:13
	ldr	r0, [r0]
.Ltmp180:
	.loc	3 990 13 is_stmt 0              @ ../../../CORTEX_MPU_M3_NUCLEO_L152RE_GCC/Demo/TimerDemo.c:990:13
	cbnz	r0, .LBB6_53
	b	.LBB6_51
.LBB6_51:
.Ltmp181:
	.loc	3 990 13                        @ ../../../CORTEX_MPU_M3_NUCLEO_L152RE_GCC/Demo/TimerDemo.c:990:13
	@APP
	cpsid i
	@NO_APP
	b	.LBB6_52
.LBB6_52:                               @ =>This Inner Loop Header: Depth=1
.Ltmp182:
	.loc	3 990 13                        @ ../../../CORTEX_MPU_M3_NUCLEO_L152RE_GCC/Demo/TimerDemo.c:990:13
	b	.LBB6_52
.Ltmp183:
.LBB6_53:
	.loc	3 991 9 is_stmt 1               @ ../../../CORTEX_MPU_M3_NUCLEO_L152RE_GCC/Demo/TimerDemo.c:991:9
	b	.LBB6_54
.Ltmp184:
.LBB6_54:
	.loc	3 992 5                         @ ../../../CORTEX_MPU_M3_NUCLEO_L152RE_GCC/Demo/TimerDemo.c:992:5
	b	.LBB6_175
.Ltmp185:
.LBB6_55:
	.loc	3 993 14                        @ ../../../CORTEX_MPU_M3_NUCLEO_L152RE_GCC/Demo/TimerDemo.c:993:14
	movw	r0, :lower16:vTimerPeriodicISRTests.uxTick
	movt	r0, :upper16:vTimerPeriodicISRTests.uxTick
	ldr	r0, [r0]
	.loc	3 993 30 is_stmt 0              @ ../../../CORTEX_MPU_M3_NUCLEO_L152RE_GCC/Demo/TimerDemo.c:993:30
	movw	r1, :lower16:xBasePeriod
	movt	r1, :upper16:xBasePeriod
	ldr	r2, [r1]
	movs	r1, #3
	.loc	3 993 28                        @ ../../../CORTEX_MPU_M3_NUCLEO_L152RE_GCC/Demo/TimerDemo.c:993:28
	muls	r1, r2, r1
.Ltmp186:
	.loc	3 993 14                        @ ../../../CORTEX_MPU_M3_NUCLEO_L152RE_GCC/Demo/TimerDemo.c:993:14
	cmp	r0, r1
	bne	.LBB6_57
	b	.LBB6_56
.LBB6_56:
.Ltmp187:
	.loc	3 996 9 is_stmt 1               @ ../../../CORTEX_MPU_M3_NUCLEO_L152RE_GCC/Demo/TimerDemo.c:996:9
	movw	r0, :lower16:xISROneShotTimer
	movt	r0, :upper16:xISROneShotTimer
	ldr	r0, [r0]
	str	r0, [sp, #24]                   @ 4-byte Spill
	bl	xTaskGetTickCountFromISR
	mov	r2, r0
	ldr	r0, [sp, #24]                   @ 4-byte Reload
	movs	r3, #0
	str	r3, [sp]
	movs	r1, #6
	bl	MPU_xTimerGenericCommand
	.loc	3 997 5                         @ ../../../CORTEX_MPU_M3_NUCLEO_L152RE_GCC/Demo/TimerDemo.c:997:5
	b	.LBB6_174
.Ltmp188:
.LBB6_57:
	.loc	3 998 14                        @ ../../../CORTEX_MPU_M3_NUCLEO_L152RE_GCC/Demo/TimerDemo.c:998:14
	movw	r0, :lower16:vTimerPeriodicISRTests.uxTick
	movt	r0, :upper16:vTimerPeriodicISRTests.uxTick
	ldr	r0, [r0]
	.loc	3 998 32 is_stmt 0              @ ../../../CORTEX_MPU_M3_NUCLEO_L152RE_GCC/Demo/TimerDemo.c:998:32
	movw	r1, :lower16:xBasePeriod
	movt	r1, :upper16:xBasePeriod
	ldr	r2, [r1]
	movs	r1, #3
	.loc	3 998 30                        @ ../../../CORTEX_MPU_M3_NUCLEO_L152RE_GCC/Demo/TimerDemo.c:998:30
	muls	r1, r2, r1
	.loc	3 998 51                        @ ../../../CORTEX_MPU_M3_NUCLEO_L152RE_GCC/Demo/TimerDemo.c:998:51
	adds	r1, r1, #6
.Ltmp189:
	.loc	3 998 14                        @ ../../../CORTEX_MPU_M3_NUCLEO_L152RE_GCC/Demo/TimerDemo.c:998:14
	cmp	r0, r1
	bne	.LBB6_69
	b	.LBB6_58
.LBB6_58:
.Ltmp190:
	.loc	3 1003 13 is_stmt 1             @ ../../../CORTEX_MPU_M3_NUCLEO_L152RE_GCC/Demo/TimerDemo.c:1003:13
	movw	r0, :lower16:ucISRAutoReloadTimerCounter
	movt	r0, :upper16:ucISRAutoReloadTimerCounter
	ldrb	r0, [r0]
.Ltmp191:
	.loc	3 1003 13 is_stmt 0             @ ../../../CORTEX_MPU_M3_NUCLEO_L152RE_GCC/Demo/TimerDemo.c:1003:13
	cmp	r0, #3
	beq	.LBB6_63
	b	.LBB6_59
.LBB6_59:
.Ltmp192:
	.loc	3 1005 30 is_stmt 1             @ ../../../CORTEX_MPU_M3_NUCLEO_L152RE_GCC/Demo/TimerDemo.c:1005:30
	movw	r0, :lower16:xTestStatus
	movt	r0, :upper16:xTestStatus
	movs	r1, #0
	str	r1, [r0]
.Ltmp193:
	.loc	3 1006 13                       @ ../../../CORTEX_MPU_M3_NUCLEO_L152RE_GCC/Demo/TimerDemo.c:1006:13
	ldr	r0, [r0]
.Ltmp194:
	.loc	3 1006 13 is_stmt 0             @ ../../../CORTEX_MPU_M3_NUCLEO_L152RE_GCC/Demo/TimerDemo.c:1006:13
	cbnz	r0, .LBB6_62
	b	.LBB6_60
.LBB6_60:
.Ltmp195:
	.loc	3 1006 13                       @ ../../../CORTEX_MPU_M3_NUCLEO_L152RE_GCC/Demo/TimerDemo.c:1006:13
	@APP
	cpsid i
	@NO_APP
	b	.LBB6_61
.LBB6_61:                               @ =>This Inner Loop Header: Depth=1
.Ltmp196:
	.loc	3 1006 13                       @ ../../../CORTEX_MPU_M3_NUCLEO_L152RE_GCC/Demo/TimerDemo.c:1006:13
	b	.LBB6_61
.Ltmp197:
.LBB6_62:
	.loc	3 1007 9 is_stmt 1              @ ../../../CORTEX_MPU_M3_NUCLEO_L152RE_GCC/Demo/TimerDemo.c:1007:9
	b	.LBB6_63
.Ltmp198:
.LBB6_63:
	.loc	3 1009 13                       @ ../../../CORTEX_MPU_M3_NUCLEO_L152RE_GCC/Demo/TimerDemo.c:1009:13
	movw	r0, :lower16:ucISROneShotTimerCounter
	movt	r0, :upper16:ucISROneShotTimerCounter
	ldrb	r0, [r0]
.Ltmp199:
	.loc	3 1009 13 is_stmt 0             @ ../../../CORTEX_MPU_M3_NUCLEO_L152RE_GCC/Demo/TimerDemo.c:1009:13
	cmp	r0, #1
	beq	.LBB6_68
	b	.LBB6_64
.LBB6_64:
.Ltmp200:
	.loc	3 1011 30 is_stmt 1             @ ../../../CORTEX_MPU_M3_NUCLEO_L152RE_GCC/Demo/TimerDemo.c:1011:30
	movw	r0, :lower16:xTestStatus
	movt	r0, :upper16:xTestStatus
	movs	r1, #0
	str	r1, [r0]
.Ltmp201:
	.loc	3 1012 13                       @ ../../../CORTEX_MPU_M3_NUCLEO_L152RE_GCC/Demo/TimerDemo.c:1012:13
	ldr	r0, [r0]
.Ltmp202:
	.loc	3 1012 13 is_stmt 0             @ ../../../CORTEX_MPU_M3_NUCLEO_L152RE_GCC/Demo/TimerDemo.c:1012:13
	cbnz	r0, .LBB6_67
	b	.LBB6_65
.LBB6_65:
.Ltmp203:
	.loc	3 1012 13                       @ ../../../CORTEX_MPU_M3_NUCLEO_L152RE_GCC/Demo/TimerDemo.c:1012:13
	@APP
	cpsid i
	@NO_APP
	b	.LBB6_66
.LBB6_66:                               @ =>This Inner Loop Header: Depth=1
.Ltmp204:
	.loc	3 1012 13                       @ ../../../CORTEX_MPU_M3_NUCLEO_L152RE_GCC/Demo/TimerDemo.c:1012:13
	b	.LBB6_66
.Ltmp205:
.LBB6_67:
	.loc	3 1013 9 is_stmt 1              @ ../../../CORTEX_MPU_M3_NUCLEO_L152RE_GCC/Demo/TimerDemo.c:1013:9
	b	.LBB6_68
.Ltmp206:
.LBB6_68:
	.loc	3 1017 9                        @ ../../../CORTEX_MPU_M3_NUCLEO_L152RE_GCC/Demo/TimerDemo.c:1017:9
	movw	r0, :lower16:xISRAutoReloadTimer
	movt	r0, :upper16:xISRAutoReloadTimer
	ldr	r0, [r0]
	movs	r3, #0
	str	r3, [sp]
	movs	r1, #8
	mov	r2, r3
	bl	MPU_xTimerGenericCommand
	.loc	3 1018 5                        @ ../../../CORTEX_MPU_M3_NUCLEO_L152RE_GCC/Demo/TimerDemo.c:1018:5
	b	.LBB6_173
.Ltmp207:
.LBB6_69:
	.loc	3 1019 14                       @ ../../../CORTEX_MPU_M3_NUCLEO_L152RE_GCC/Demo/TimerDemo.c:1019:14
	movw	r0, :lower16:vTimerPeriodicISRTests.uxTick
	movt	r0, :upper16:vTimerPeriodicISRTests.uxTick
	ldr	r0, [r0]
	.loc	3 1019 32 is_stmt 0             @ ../../../CORTEX_MPU_M3_NUCLEO_L152RE_GCC/Demo/TimerDemo.c:1019:32
	movw	r1, :lower16:xBasePeriod
	movt	r1, :upper16:xBasePeriod
	ldr	r1, [r1]
	.loc	3 1019 49                       @ ../../../CORTEX_MPU_M3_NUCLEO_L152RE_GCC/Demo/TimerDemo.c:1019:49
	lsls	r1, r1, #2
	.loc	3 1019 28                       @ ../../../CORTEX_MPU_M3_NUCLEO_L152RE_GCC/Demo/TimerDemo.c:1019:28
	subs	r1, #24
.Ltmp208:
	.loc	3 1019 14                       @ ../../../CORTEX_MPU_M3_NUCLEO_L152RE_GCC/Demo/TimerDemo.c:1019:14
	cmp	r0, r1
	bne	.LBB6_81
	b	.LBB6_70
.LBB6_70:
.Ltmp209:
	.loc	3 1024 13 is_stmt 1             @ ../../../CORTEX_MPU_M3_NUCLEO_L152RE_GCC/Demo/TimerDemo.c:1024:13
	movw	r0, :lower16:ucISRAutoReloadTimerCounter
	movt	r0, :upper16:ucISRAutoReloadTimerCounter
	ldrb	r0, [r0]
.Ltmp210:
	.loc	3 1024 13 is_stmt 0             @ ../../../CORTEX_MPU_M3_NUCLEO_L152RE_GCC/Demo/TimerDemo.c:1024:13
	cmp	r0, #3
	beq	.LBB6_75
	b	.LBB6_71
.LBB6_71:
.Ltmp211:
	.loc	3 1026 30 is_stmt 1             @ ../../../CORTEX_MPU_M3_NUCLEO_L152RE_GCC/Demo/TimerDemo.c:1026:30
	movw	r0, :lower16:xTestStatus
	movt	r0, :upper16:xTestStatus
	movs	r1, #0
	str	r1, [r0]
.Ltmp212:
	.loc	3 1027 13                       @ ../../../CORTEX_MPU_M3_NUCLEO_L152RE_GCC/Demo/TimerDemo.c:1027:13
	ldr	r0, [r0]
.Ltmp213:
	.loc	3 1027 13 is_stmt 0             @ ../../../CORTEX_MPU_M3_NUCLEO_L152RE_GCC/Demo/TimerDemo.c:1027:13
	cbnz	r0, .LBB6_74
	b	.LBB6_72
.LBB6_72:
.Ltmp214:
	.loc	3 1027 13                       @ ../../../CORTEX_MPU_M3_NUCLEO_L152RE_GCC/Demo/TimerDemo.c:1027:13
	@APP
	cpsid i
	@NO_APP
	b	.LBB6_73
.LBB6_73:                               @ =>This Inner Loop Header: Depth=1
.Ltmp215:
	.loc	3 1027 13                       @ ../../../CORTEX_MPU_M3_NUCLEO_L152RE_GCC/Demo/TimerDemo.c:1027:13
	b	.LBB6_73
.Ltmp216:
.LBB6_74:
	.loc	3 1028 9 is_stmt 1              @ ../../../CORTEX_MPU_M3_NUCLEO_L152RE_GCC/Demo/TimerDemo.c:1028:9
	b	.LBB6_75
.Ltmp217:
.LBB6_75:
	.loc	3 1030 13                       @ ../../../CORTEX_MPU_M3_NUCLEO_L152RE_GCC/Demo/TimerDemo.c:1030:13
	movw	r0, :lower16:ucISROneShotTimerCounter
	movt	r0, :upper16:ucISROneShotTimerCounter
	ldrb	r0, [r0]
.Ltmp218:
	.loc	3 1030 13 is_stmt 0             @ ../../../CORTEX_MPU_M3_NUCLEO_L152RE_GCC/Demo/TimerDemo.c:1030:13
	cmp	r0, #1
	beq	.LBB6_80
	b	.LBB6_76
.LBB6_76:
.Ltmp219:
	.loc	3 1032 30 is_stmt 1             @ ../../../CORTEX_MPU_M3_NUCLEO_L152RE_GCC/Demo/TimerDemo.c:1032:30
	movw	r0, :lower16:xTestStatus
	movt	r0, :upper16:xTestStatus
	movs	r1, #0
	str	r1, [r0]
.Ltmp220:
	.loc	3 1033 13                       @ ../../../CORTEX_MPU_M3_NUCLEO_L152RE_GCC/Demo/TimerDemo.c:1033:13
	ldr	r0, [r0]
.Ltmp221:
	.loc	3 1033 13 is_stmt 0             @ ../../../CORTEX_MPU_M3_NUCLEO_L152RE_GCC/Demo/TimerDemo.c:1033:13
	cbnz	r0, .LBB6_79
	b	.LBB6_77
.LBB6_77:
.Ltmp222:
	.loc	3 1033 13                       @ ../../../CORTEX_MPU_M3_NUCLEO_L152RE_GCC/Demo/TimerDemo.c:1033:13
	@APP
	cpsid i
	@NO_APP
	b	.LBB6_78
.LBB6_78:                               @ =>This Inner Loop Header: Depth=1
.Ltmp223:
	.loc	3 1033 13                       @ ../../../CORTEX_MPU_M3_NUCLEO_L152RE_GCC/Demo/TimerDemo.c:1033:13
	b	.LBB6_78
.Ltmp224:
.LBB6_79:
	.loc	3 1034 9 is_stmt 1              @ ../../../CORTEX_MPU_M3_NUCLEO_L152RE_GCC/Demo/TimerDemo.c:1034:9
	b	.LBB6_80
.Ltmp225:
.LBB6_80:
	.loc	3 1035 5                        @ ../../../CORTEX_MPU_M3_NUCLEO_L152RE_GCC/Demo/TimerDemo.c:1035:5
	b	.LBB6_172
.Ltmp226:
.LBB6_81:
	.loc	3 1036 14                       @ ../../../CORTEX_MPU_M3_NUCLEO_L152RE_GCC/Demo/TimerDemo.c:1036:14
	movw	r0, :lower16:vTimerPeriodicISRTests.uxTick
	movt	r0, :upper16:vTimerPeriodicISRTests.uxTick
	ldr	r0, [r0]
	.loc	3 1036 32 is_stmt 0             @ ../../../CORTEX_MPU_M3_NUCLEO_L152RE_GCC/Demo/TimerDemo.c:1036:32
	movw	r1, :lower16:xBasePeriod
	movt	r1, :upper16:xBasePeriod
	ldr	r1, [r1]
	.loc	3 1036 30                       @ ../../../CORTEX_MPU_M3_NUCLEO_L152RE_GCC/Demo/TimerDemo.c:1036:30
	lsls	r1, r1, #2
	.loc	3 1036 51                       @ ../../../CORTEX_MPU_M3_NUCLEO_L152RE_GCC/Demo/TimerDemo.c:1036:51
	adds	r1, r1, #6
.Ltmp227:
	.loc	3 1036 14                       @ ../../../CORTEX_MPU_M3_NUCLEO_L152RE_GCC/Demo/TimerDemo.c:1036:14
	cmp	r0, r1
	bne	.LBB6_93
	b	.LBB6_82
.LBB6_82:
.Ltmp228:
	.loc	3 1041 13 is_stmt 1             @ ../../../CORTEX_MPU_M3_NUCLEO_L152RE_GCC/Demo/TimerDemo.c:1041:13
	movw	r0, :lower16:ucISRAutoReloadTimerCounter
	movt	r0, :upper16:ucISRAutoReloadTimerCounter
	ldrb	r0, [r0]
.Ltmp229:
	.loc	3 1041 13 is_stmt 0             @ ../../../CORTEX_MPU_M3_NUCLEO_L152RE_GCC/Demo/TimerDemo.c:1041:13
	cmp	r0, #3
	beq	.LBB6_87
	b	.LBB6_83
.LBB6_83:
.Ltmp230:
	.loc	3 1043 30 is_stmt 1             @ ../../../CORTEX_MPU_M3_NUCLEO_L152RE_GCC/Demo/TimerDemo.c:1043:30
	movw	r0, :lower16:xTestStatus
	movt	r0, :upper16:xTestStatus
	movs	r1, #0
	str	r1, [r0]
.Ltmp231:
	.loc	3 1044 13                       @ ../../../CORTEX_MPU_M3_NUCLEO_L152RE_GCC/Demo/TimerDemo.c:1044:13
	ldr	r0, [r0]
.Ltmp232:
	.loc	3 1044 13 is_stmt 0             @ ../../../CORTEX_MPU_M3_NUCLEO_L152RE_GCC/Demo/TimerDemo.c:1044:13
	cbnz	r0, .LBB6_86
	b	.LBB6_84
.LBB6_84:
.Ltmp233:
	.loc	3 1044 13                       @ ../../../CORTEX_MPU_M3_NUCLEO_L152RE_GCC/Demo/TimerDemo.c:1044:13
	@APP
	cpsid i
	@NO_APP
	b	.LBB6_85
.LBB6_85:                               @ =>This Inner Loop Header: Depth=1
.Ltmp234:
	.loc	3 1044 13                       @ ../../../CORTEX_MPU_M3_NUCLEO_L152RE_GCC/Demo/TimerDemo.c:1044:13
	b	.LBB6_85
.Ltmp235:
.LBB6_86:
	.loc	3 1045 9 is_stmt 1              @ ../../../CORTEX_MPU_M3_NUCLEO_L152RE_GCC/Demo/TimerDemo.c:1045:9
	b	.LBB6_87
.Ltmp236:
.LBB6_87:
	.loc	3 1047 13                       @ ../../../CORTEX_MPU_M3_NUCLEO_L152RE_GCC/Demo/TimerDemo.c:1047:13
	movw	r0, :lower16:ucISROneShotTimerCounter
	movt	r0, :upper16:ucISROneShotTimerCounter
	ldrb	r0, [r0]
.Ltmp237:
	.loc	3 1047 13 is_stmt 0             @ ../../../CORTEX_MPU_M3_NUCLEO_L152RE_GCC/Demo/TimerDemo.c:1047:13
	cmp	r0, #2
	beq	.LBB6_92
	b	.LBB6_88
.LBB6_88:
.Ltmp238:
	.loc	3 1049 30 is_stmt 1             @ ../../../CORTEX_MPU_M3_NUCLEO_L152RE_GCC/Demo/TimerDemo.c:1049:30
	movw	r0, :lower16:xTestStatus
	movt	r0, :upper16:xTestStatus
	movs	r1, #0
	str	r1, [r0]
.Ltmp239:
	.loc	3 1050 13                       @ ../../../CORTEX_MPU_M3_NUCLEO_L152RE_GCC/Demo/TimerDemo.c:1050:13
	ldr	r0, [r0]
.Ltmp240:
	.loc	3 1050 13 is_stmt 0             @ ../../../CORTEX_MPU_M3_NUCLEO_L152RE_GCC/Demo/TimerDemo.c:1050:13
	cbnz	r0, .LBB6_91
	b	.LBB6_89
.LBB6_89:
.Ltmp241:
	.loc	3 1050 13                       @ ../../../CORTEX_MPU_M3_NUCLEO_L152RE_GCC/Demo/TimerDemo.c:1050:13
	@APP
	cpsid i
	@NO_APP
	b	.LBB6_90
.LBB6_90:                               @ =>This Inner Loop Header: Depth=1
.Ltmp242:
	.loc	3 1050 13                       @ ../../../CORTEX_MPU_M3_NUCLEO_L152RE_GCC/Demo/TimerDemo.c:1050:13
	b	.LBB6_90
.Ltmp243:
.LBB6_91:
	.loc	3 1051 9 is_stmt 1              @ ../../../CORTEX_MPU_M3_NUCLEO_L152RE_GCC/Demo/TimerDemo.c:1051:9
	b	.LBB6_92
.Ltmp244:
.LBB6_92:
	.loc	3 1052 5                        @ ../../../CORTEX_MPU_M3_NUCLEO_L152RE_GCC/Demo/TimerDemo.c:1052:5
	b	.LBB6_171
.Ltmp245:
.LBB6_93:
	.loc	3 1053 14                       @ ../../../CORTEX_MPU_M3_NUCLEO_L152RE_GCC/Demo/TimerDemo.c:1053:14
	movw	r0, :lower16:vTimerPeriodicISRTests.uxTick
	movt	r0, :upper16:vTimerPeriodicISRTests.uxTick
	ldr	r0, [r0]
	.loc	3 1053 30 is_stmt 0             @ ../../../CORTEX_MPU_M3_NUCLEO_L152RE_GCC/Demo/TimerDemo.c:1053:30
	movw	r1, :lower16:xBasePeriod
	movt	r1, :upper16:xBasePeriod
	ldr	r1, [r1]
	.loc	3 1053 28                       @ ../../../CORTEX_MPU_M3_NUCLEO_L152RE_GCC/Demo/TimerDemo.c:1053:28
	lsls	r1, r1, #3
.Ltmp246:
	.loc	3 1053 14                       @ ../../../CORTEX_MPU_M3_NUCLEO_L152RE_GCC/Demo/TimerDemo.c:1053:14
	cmp	r0, r1
	bne	.LBB6_105
	b	.LBB6_94
.LBB6_94:
.Ltmp247:
	.loc	3 1058 13 is_stmt 1             @ ../../../CORTEX_MPU_M3_NUCLEO_L152RE_GCC/Demo/TimerDemo.c:1058:13
	movw	r0, :lower16:ucISRAutoReloadTimerCounter
	movt	r0, :upper16:ucISRAutoReloadTimerCounter
	ldrb	r0, [r0]
.Ltmp248:
	.loc	3 1058 13 is_stmt 0             @ ../../../CORTEX_MPU_M3_NUCLEO_L152RE_GCC/Demo/TimerDemo.c:1058:13
	cmp	r0, #3
	beq	.LBB6_99
	b	.LBB6_95
.LBB6_95:
.Ltmp249:
	.loc	3 1060 30 is_stmt 1             @ ../../../CORTEX_MPU_M3_NUCLEO_L152RE_GCC/Demo/TimerDemo.c:1060:30
	movw	r0, :lower16:xTestStatus
	movt	r0, :upper16:xTestStatus
	movs	r1, #0
	str	r1, [r0]
.Ltmp250:
	.loc	3 1061 13                       @ ../../../CORTEX_MPU_M3_NUCLEO_L152RE_GCC/Demo/TimerDemo.c:1061:13
	ldr	r0, [r0]
.Ltmp251:
	.loc	3 1061 13 is_stmt 0             @ ../../../CORTEX_MPU_M3_NUCLEO_L152RE_GCC/Demo/TimerDemo.c:1061:13
	cbnz	r0, .LBB6_98
	b	.LBB6_96
.LBB6_96:
.Ltmp252:
	.loc	3 1061 13                       @ ../../../CORTEX_MPU_M3_NUCLEO_L152RE_GCC/Demo/TimerDemo.c:1061:13
	@APP
	cpsid i
	@NO_APP
	b	.LBB6_97
.LBB6_97:                               @ =>This Inner Loop Header: Depth=1
.Ltmp253:
	.loc	3 1061 13                       @ ../../../CORTEX_MPU_M3_NUCLEO_L152RE_GCC/Demo/TimerDemo.c:1061:13
	b	.LBB6_97
.Ltmp254:
.LBB6_98:
	.loc	3 1062 9 is_stmt 1              @ ../../../CORTEX_MPU_M3_NUCLEO_L152RE_GCC/Demo/TimerDemo.c:1062:9
	b	.LBB6_99
.Ltmp255:
.LBB6_99:
	.loc	3 1064 13                       @ ../../../CORTEX_MPU_M3_NUCLEO_L152RE_GCC/Demo/TimerDemo.c:1064:13
	movw	r0, :lower16:ucISROneShotTimerCounter
	movt	r0, :upper16:ucISROneShotTimerCounter
	ldrb	r0, [r0]
.Ltmp256:
	.loc	3 1064 13 is_stmt 0             @ ../../../CORTEX_MPU_M3_NUCLEO_L152RE_GCC/Demo/TimerDemo.c:1064:13
	cmp	r0, #2
	beq	.LBB6_104
	b	.LBB6_100
.LBB6_100:
.Ltmp257:
	.loc	3 1066 30 is_stmt 1             @ ../../../CORTEX_MPU_M3_NUCLEO_L152RE_GCC/Demo/TimerDemo.c:1066:30
	movw	r0, :lower16:xTestStatus
	movt	r0, :upper16:xTestStatus
	movs	r1, #0
	str	r1, [r0]
.Ltmp258:
	.loc	3 1067 13                       @ ../../../CORTEX_MPU_M3_NUCLEO_L152RE_GCC/Demo/TimerDemo.c:1067:13
	ldr	r0, [r0]
.Ltmp259:
	.loc	3 1067 13 is_stmt 0             @ ../../../CORTEX_MPU_M3_NUCLEO_L152RE_GCC/Demo/TimerDemo.c:1067:13
	cbnz	r0, .LBB6_103
	b	.LBB6_101
.LBB6_101:
.Ltmp260:
	.loc	3 1067 13                       @ ../../../CORTEX_MPU_M3_NUCLEO_L152RE_GCC/Demo/TimerDemo.c:1067:13
	@APP
	cpsid i
	@NO_APP
	b	.LBB6_102
.LBB6_102:                              @ =>This Inner Loop Header: Depth=1
.Ltmp261:
	.loc	3 1067 13                       @ ../../../CORTEX_MPU_M3_NUCLEO_L152RE_GCC/Demo/TimerDemo.c:1067:13
	b	.LBB6_102
.Ltmp262:
.LBB6_103:
	.loc	3 1068 9 is_stmt 1              @ ../../../CORTEX_MPU_M3_NUCLEO_L152RE_GCC/Demo/TimerDemo.c:1068:9
	b	.LBB6_104
.Ltmp263:
.LBB6_104:
	.loc	3 1071 9                        @ ../../../CORTEX_MPU_M3_NUCLEO_L152RE_GCC/Demo/TimerDemo.c:1071:9
	movw	r0, :lower16:xISROneShotTimer
	movt	r0, :upper16:xISROneShotTimer
	ldr	r0, [r0]
	str	r0, [sp, #20]                   @ 4-byte Spill
	bl	xTaskGetTickCountFromISR
	mov	r2, r0
	ldr	r0, [sp, #20]                   @ 4-byte Reload
	movs	r3, #0
	str	r3, [sp]
	movs	r1, #7
	bl	MPU_xTimerGenericCommand
	.loc	3 1072 5                        @ ../../../CORTEX_MPU_M3_NUCLEO_L152RE_GCC/Demo/TimerDemo.c:1072:5
	b	.LBB6_170
.Ltmp264:
.LBB6_105:
	.loc	3 1073 14                       @ ../../../CORTEX_MPU_M3_NUCLEO_L152RE_GCC/Demo/TimerDemo.c:1073:14
	movw	r0, :lower16:vTimerPeriodicISRTests.uxTick
	movt	r0, :upper16:vTimerPeriodicISRTests.uxTick
	ldr	r0, [r0]
	.loc	3 1073 32 is_stmt 0             @ ../../../CORTEX_MPU_M3_NUCLEO_L152RE_GCC/Demo/TimerDemo.c:1073:32
	movw	r1, :lower16:xBasePeriod
	movt	r1, :upper16:xBasePeriod
	ldr	r2, [r1]
	movs	r1, #9
	.loc	3 1073 30                       @ ../../../CORTEX_MPU_M3_NUCLEO_L152RE_GCC/Demo/TimerDemo.c:1073:30
	muls	r1, r2, r1
	.loc	3 1073 51                       @ ../../../CORTEX_MPU_M3_NUCLEO_L152RE_GCC/Demo/TimerDemo.c:1073:51
	subs	r1, r1, #6
.Ltmp265:
	.loc	3 1073 14                       @ ../../../CORTEX_MPU_M3_NUCLEO_L152RE_GCC/Demo/TimerDemo.c:1073:14
	cmp	r0, r1
	bne	.LBB6_117
	b	.LBB6_106
.LBB6_106:
.Ltmp266:
	.loc	3 1078 13 is_stmt 1             @ ../../../CORTEX_MPU_M3_NUCLEO_L152RE_GCC/Demo/TimerDemo.c:1078:13
	movw	r0, :lower16:ucISRAutoReloadTimerCounter
	movt	r0, :upper16:ucISRAutoReloadTimerCounter
	ldrb	r0, [r0]
.Ltmp267:
	.loc	3 1078 13 is_stmt 0             @ ../../../CORTEX_MPU_M3_NUCLEO_L152RE_GCC/Demo/TimerDemo.c:1078:13
	cmp	r0, #3
	beq	.LBB6_111
	b	.LBB6_107
.LBB6_107:
.Ltmp268:
	.loc	3 1080 30 is_stmt 1             @ ../../../CORTEX_MPU_M3_NUCLEO_L152RE_GCC/Demo/TimerDemo.c:1080:30
	movw	r0, :lower16:xTestStatus
	movt	r0, :upper16:xTestStatus
	movs	r1, #0
	str	r1, [r0]
.Ltmp269:
	.loc	3 1081 13                       @ ../../../CORTEX_MPU_M3_NUCLEO_L152RE_GCC/Demo/TimerDemo.c:1081:13
	ldr	r0, [r0]
.Ltmp270:
	.loc	3 1081 13 is_stmt 0             @ ../../../CORTEX_MPU_M3_NUCLEO_L152RE_GCC/Demo/TimerDemo.c:1081:13
	cbnz	r0, .LBB6_110
	b	.LBB6_108
.LBB6_108:
.Ltmp271:
	.loc	3 1081 13                       @ ../../../CORTEX_MPU_M3_NUCLEO_L152RE_GCC/Demo/TimerDemo.c:1081:13
	@APP
	cpsid i
	@NO_APP
	b	.LBB6_109
.LBB6_109:                              @ =>This Inner Loop Header: Depth=1
.Ltmp272:
	.loc	3 1081 13                       @ ../../../CORTEX_MPU_M3_NUCLEO_L152RE_GCC/Demo/TimerDemo.c:1081:13
	b	.LBB6_109
.Ltmp273:
.LBB6_110:
	.loc	3 1082 9 is_stmt 1              @ ../../../CORTEX_MPU_M3_NUCLEO_L152RE_GCC/Demo/TimerDemo.c:1082:9
	b	.LBB6_111
.Ltmp274:
.LBB6_111:
	.loc	3 1084 13                       @ ../../../CORTEX_MPU_M3_NUCLEO_L152RE_GCC/Demo/TimerDemo.c:1084:13
	movw	r0, :lower16:ucISROneShotTimerCounter
	movt	r0, :upper16:ucISROneShotTimerCounter
	ldrb	r0, [r0]
.Ltmp275:
	.loc	3 1084 13 is_stmt 0             @ ../../../CORTEX_MPU_M3_NUCLEO_L152RE_GCC/Demo/TimerDemo.c:1084:13
	cmp	r0, #2
	beq	.LBB6_116
	b	.LBB6_112
.LBB6_112:
.Ltmp276:
	.loc	3 1086 30 is_stmt 1             @ ../../../CORTEX_MPU_M3_NUCLEO_L152RE_GCC/Demo/TimerDemo.c:1086:30
	movw	r0, :lower16:xTestStatus
	movt	r0, :upper16:xTestStatus
	movs	r1, #0
	str	r1, [r0]
.Ltmp277:
	.loc	3 1087 13                       @ ../../../CORTEX_MPU_M3_NUCLEO_L152RE_GCC/Demo/TimerDemo.c:1087:13
	ldr	r0, [r0]
.Ltmp278:
	.loc	3 1087 13 is_stmt 0             @ ../../../CORTEX_MPU_M3_NUCLEO_L152RE_GCC/Demo/TimerDemo.c:1087:13
	cbnz	r0, .LBB6_115
	b	.LBB6_113
.LBB6_113:
.Ltmp279:
	.loc	3 1087 13                       @ ../../../CORTEX_MPU_M3_NUCLEO_L152RE_GCC/Demo/TimerDemo.c:1087:13
	@APP
	cpsid i
	@NO_APP
	b	.LBB6_114
.LBB6_114:                              @ =>This Inner Loop Header: Depth=1
.Ltmp280:
	.loc	3 1087 13                       @ ../../../CORTEX_MPU_M3_NUCLEO_L152RE_GCC/Demo/TimerDemo.c:1087:13
	b	.LBB6_114
.Ltmp281:
.LBB6_115:
	.loc	3 1088 9 is_stmt 1              @ ../../../CORTEX_MPU_M3_NUCLEO_L152RE_GCC/Demo/TimerDemo.c:1088:9
	b	.LBB6_116
.Ltmp282:
.LBB6_116:
	.loc	3 1090 9                        @ ../../../CORTEX_MPU_M3_NUCLEO_L152RE_GCC/Demo/TimerDemo.c:1090:9
	movw	r0, :lower16:xISROneShotTimer
	movt	r0, :upper16:xISROneShotTimer
	ldr	r0, [r0]
	str	r0, [sp, #16]                   @ 4-byte Spill
	bl	xTaskGetTickCountFromISR
	mov	r2, r0
	ldr	r0, [sp, #16]                   @ 4-byte Reload
	movs	r3, #0
	str	r3, [sp]
	movs	r1, #7
	bl	MPU_xTimerGenericCommand
	.loc	3 1091 5                        @ ../../../CORTEX_MPU_M3_NUCLEO_L152RE_GCC/Demo/TimerDemo.c:1091:5
	b	.LBB6_169
.Ltmp283:
.LBB6_117:
	.loc	3 1092 14                       @ ../../../CORTEX_MPU_M3_NUCLEO_L152RE_GCC/Demo/TimerDemo.c:1092:14
	movw	r0, :lower16:vTimerPeriodicISRTests.uxTick
	movt	r0, :upper16:vTimerPeriodicISRTests.uxTick
	ldr	r0, [r0]
	.loc	3 1092 33 is_stmt 0             @ ../../../CORTEX_MPU_M3_NUCLEO_L152RE_GCC/Demo/TimerDemo.c:1092:33
	movw	r1, :lower16:xBasePeriod
	movt	r1, :upper16:xBasePeriod
	ldr	r2, [r1]
	movs	r1, #10
	.loc	3 1092 31                       @ ../../../CORTEX_MPU_M3_NUCLEO_L152RE_GCC/Demo/TimerDemo.c:1092:31
	muls	r1, r2, r1
	.loc	3 1092 52                       @ ../../../CORTEX_MPU_M3_NUCLEO_L152RE_GCC/Demo/TimerDemo.c:1092:52
	subs	r1, #12
.Ltmp284:
	.loc	3 1092 14                       @ ../../../CORTEX_MPU_M3_NUCLEO_L152RE_GCC/Demo/TimerDemo.c:1092:14
	cmp	r0, r1
	bne	.LBB6_129
	b	.LBB6_118
.LBB6_118:
.Ltmp285:
	.loc	3 1097 13 is_stmt 1             @ ../../../CORTEX_MPU_M3_NUCLEO_L152RE_GCC/Demo/TimerDemo.c:1097:13
	movw	r0, :lower16:ucISRAutoReloadTimerCounter
	movt	r0, :upper16:ucISRAutoReloadTimerCounter
	ldrb	r0, [r0]
.Ltmp286:
	.loc	3 1097 13 is_stmt 0             @ ../../../CORTEX_MPU_M3_NUCLEO_L152RE_GCC/Demo/TimerDemo.c:1097:13
	cmp	r0, #3
	beq	.LBB6_123
	b	.LBB6_119
.LBB6_119:
.Ltmp287:
	.loc	3 1099 30 is_stmt 1             @ ../../../CORTEX_MPU_M3_NUCLEO_L152RE_GCC/Demo/TimerDemo.c:1099:30
	movw	r0, :lower16:xTestStatus
	movt	r0, :upper16:xTestStatus
	movs	r1, #0
	str	r1, [r0]
.Ltmp288:
	.loc	3 1100 13                       @ ../../../CORTEX_MPU_M3_NUCLEO_L152RE_GCC/Demo/TimerDemo.c:1100:13
	ldr	r0, [r0]
.Ltmp289:
	.loc	3 1100 13 is_stmt 0             @ ../../../CORTEX_MPU_M3_NUCLEO_L152RE_GCC/Demo/TimerDemo.c:1100:13
	cbnz	r0, .LBB6_122
	b	.LBB6_120
.LBB6_120:
.Ltmp290:
	.loc	3 1100 13                       @ ../../../CORTEX_MPU_M3_NUCLEO_L152RE_GCC/Demo/TimerDemo.c:1100:13
	@APP
	cpsid i
	@NO_APP
	b	.LBB6_121
.LBB6_121:                              @ =>This Inner Loop Header: Depth=1
.Ltmp291:
	.loc	3 1100 13                       @ ../../../CORTEX_MPU_M3_NUCLEO_L152RE_GCC/Demo/TimerDemo.c:1100:13
	b	.LBB6_121
.Ltmp292:
.LBB6_122:
	.loc	3 1101 9 is_stmt 1              @ ../../../CORTEX_MPU_M3_NUCLEO_L152RE_GCC/Demo/TimerDemo.c:1101:9
	b	.LBB6_123
.Ltmp293:
.LBB6_123:
	.loc	3 1103 13                       @ ../../../CORTEX_MPU_M3_NUCLEO_L152RE_GCC/Demo/TimerDemo.c:1103:13
	movw	r0, :lower16:ucISROneShotTimerCounter
	movt	r0, :upper16:ucISROneShotTimerCounter
	ldrb	r0, [r0]
.Ltmp294:
	.loc	3 1103 13 is_stmt 0             @ ../../../CORTEX_MPU_M3_NUCLEO_L152RE_GCC/Demo/TimerDemo.c:1103:13
	cmp	r0, #2
	beq	.LBB6_128
	b	.LBB6_124
.LBB6_124:
.Ltmp295:
	.loc	3 1105 30 is_stmt 1             @ ../../../CORTEX_MPU_M3_NUCLEO_L152RE_GCC/Demo/TimerDemo.c:1105:30
	movw	r0, :lower16:xTestStatus
	movt	r0, :upper16:xTestStatus
	movs	r1, #0
	str	r1, [r0]
.Ltmp296:
	.loc	3 1106 13                       @ ../../../CORTEX_MPU_M3_NUCLEO_L152RE_GCC/Demo/TimerDemo.c:1106:13
	ldr	r0, [r0]
.Ltmp297:
	.loc	3 1106 13 is_stmt 0             @ ../../../CORTEX_MPU_M3_NUCLEO_L152RE_GCC/Demo/TimerDemo.c:1106:13
	cbnz	r0, .LBB6_127
	b	.LBB6_125
.LBB6_125:
.Ltmp298:
	.loc	3 1106 13                       @ ../../../CORTEX_MPU_M3_NUCLEO_L152RE_GCC/Demo/TimerDemo.c:1106:13
	@APP
	cpsid i
	@NO_APP
	b	.LBB6_126
.LBB6_126:                              @ =>This Inner Loop Header: Depth=1
.Ltmp299:
	.loc	3 1106 13                       @ ../../../CORTEX_MPU_M3_NUCLEO_L152RE_GCC/Demo/TimerDemo.c:1106:13
	b	.LBB6_126
.Ltmp300:
.LBB6_127:
	.loc	3 1107 9 is_stmt 1              @ ../../../CORTEX_MPU_M3_NUCLEO_L152RE_GCC/Demo/TimerDemo.c:1107:9
	b	.LBB6_128
.Ltmp301:
.LBB6_128:
	.loc	3 1109 9                        @ ../../../CORTEX_MPU_M3_NUCLEO_L152RE_GCC/Demo/TimerDemo.c:1109:9
	movw	r0, :lower16:xISROneShotTimer
	movt	r0, :upper16:xISROneShotTimer
	ldr	r0, [r0]
	str	r0, [sp, #12]                   @ 4-byte Spill
	bl	xTaskGetTickCountFromISR
	mov	r2, r0
	ldr	r0, [sp, #12]                   @ 4-byte Reload
	movs	r3, #0
	str	r3, [sp]
	movs	r1, #7
	bl	MPU_xTimerGenericCommand
	.loc	3 1110 5                        @ ../../../CORTEX_MPU_M3_NUCLEO_L152RE_GCC/Demo/TimerDemo.c:1110:5
	b	.LBB6_168
.Ltmp302:
.LBB6_129:
	.loc	3 1111 14                       @ ../../../CORTEX_MPU_M3_NUCLEO_L152RE_GCC/Demo/TimerDemo.c:1111:14
	movw	r0, :lower16:vTimerPeriodicISRTests.uxTick
	movt	r0, :upper16:vTimerPeriodicISRTests.uxTick
	ldr	r0, [r0]
	.loc	3 1111 33 is_stmt 0             @ ../../../CORTEX_MPU_M3_NUCLEO_L152RE_GCC/Demo/TimerDemo.c:1111:33
	movw	r1, :lower16:xBasePeriod
	movt	r1, :upper16:xBasePeriod
	ldr	r2, [r1]
	movs	r1, #11
	.loc	3 1111 31                       @ ../../../CORTEX_MPU_M3_NUCLEO_L152RE_GCC/Demo/TimerDemo.c:1111:31
	muls	r1, r2, r1
	.loc	3 1111 52                       @ ../../../CORTEX_MPU_M3_NUCLEO_L152RE_GCC/Demo/TimerDemo.c:1111:52
	subs	r1, #18
.Ltmp303:
	.loc	3 1111 14                       @ ../../../CORTEX_MPU_M3_NUCLEO_L152RE_GCC/Demo/TimerDemo.c:1111:14
	cmp	r0, r1
	bne	.LBB6_141
	b	.LBB6_130
.LBB6_130:
.Ltmp304:
	.loc	3 1116 13 is_stmt 1             @ ../../../CORTEX_MPU_M3_NUCLEO_L152RE_GCC/Demo/TimerDemo.c:1116:13
	movw	r0, :lower16:ucISRAutoReloadTimerCounter
	movt	r0, :upper16:ucISRAutoReloadTimerCounter
	ldrb	r0, [r0]
.Ltmp305:
	.loc	3 1116 13 is_stmt 0             @ ../../../CORTEX_MPU_M3_NUCLEO_L152RE_GCC/Demo/TimerDemo.c:1116:13
	cmp	r0, #3
	beq	.LBB6_135
	b	.LBB6_131
.LBB6_131:
.Ltmp306:
	.loc	3 1118 30 is_stmt 1             @ ../../../CORTEX_MPU_M3_NUCLEO_L152RE_GCC/Demo/TimerDemo.c:1118:30
	movw	r0, :lower16:xTestStatus
	movt	r0, :upper16:xTestStatus
	movs	r1, #0
	str	r1, [r0]
.Ltmp307:
	.loc	3 1119 13                       @ ../../../CORTEX_MPU_M3_NUCLEO_L152RE_GCC/Demo/TimerDemo.c:1119:13
	ldr	r0, [r0]
.Ltmp308:
	.loc	3 1119 13 is_stmt 0             @ ../../../CORTEX_MPU_M3_NUCLEO_L152RE_GCC/Demo/TimerDemo.c:1119:13
	cbnz	r0, .LBB6_134
	b	.LBB6_132
.LBB6_132:
.Ltmp309:
	.loc	3 1119 13                       @ ../../../CORTEX_MPU_M3_NUCLEO_L152RE_GCC/Demo/TimerDemo.c:1119:13
	@APP
	cpsid i
	@NO_APP
	b	.LBB6_133
.LBB6_133:                              @ =>This Inner Loop Header: Depth=1
.Ltmp310:
	.loc	3 1119 13                       @ ../../../CORTEX_MPU_M3_NUCLEO_L152RE_GCC/Demo/TimerDemo.c:1119:13
	b	.LBB6_133
.Ltmp311:
.LBB6_134:
	.loc	3 1120 9 is_stmt 1              @ ../../../CORTEX_MPU_M3_NUCLEO_L152RE_GCC/Demo/TimerDemo.c:1120:9
	b	.LBB6_135
.Ltmp312:
.LBB6_135:
	.loc	3 1122 13                       @ ../../../CORTEX_MPU_M3_NUCLEO_L152RE_GCC/Demo/TimerDemo.c:1122:13
	movw	r0, :lower16:ucISROneShotTimerCounter
	movt	r0, :upper16:ucISROneShotTimerCounter
	ldrb	r0, [r0]
.Ltmp313:
	.loc	3 1122 13 is_stmt 0             @ ../../../CORTEX_MPU_M3_NUCLEO_L152RE_GCC/Demo/TimerDemo.c:1122:13
	cmp	r0, #2
	beq	.LBB6_140
	b	.LBB6_136
.LBB6_136:
.Ltmp314:
	.loc	3 1124 30 is_stmt 1             @ ../../../CORTEX_MPU_M3_NUCLEO_L152RE_GCC/Demo/TimerDemo.c:1124:30
	movw	r0, :lower16:xTestStatus
	movt	r0, :upper16:xTestStatus
	movs	r1, #0
	str	r1, [r0]
.Ltmp315:
	.loc	3 1125 13                       @ ../../../CORTEX_MPU_M3_NUCLEO_L152RE_GCC/Demo/TimerDemo.c:1125:13
	ldr	r0, [r0]
.Ltmp316:
	.loc	3 1125 13 is_stmt 0             @ ../../../CORTEX_MPU_M3_NUCLEO_L152RE_GCC/Demo/TimerDemo.c:1125:13
	cbnz	r0, .LBB6_139
	b	.LBB6_137
.LBB6_137:
.Ltmp317:
	.loc	3 1125 13                       @ ../../../CORTEX_MPU_M3_NUCLEO_L152RE_GCC/Demo/TimerDemo.c:1125:13
	@APP
	cpsid i
	@NO_APP
	b	.LBB6_138
.LBB6_138:                              @ =>This Inner Loop Header: Depth=1
.Ltmp318:
	.loc	3 1125 13                       @ ../../../CORTEX_MPU_M3_NUCLEO_L152RE_GCC/Demo/TimerDemo.c:1125:13
	b	.LBB6_138
.Ltmp319:
.LBB6_139:
	.loc	3 1126 9 is_stmt 1              @ ../../../CORTEX_MPU_M3_NUCLEO_L152RE_GCC/Demo/TimerDemo.c:1126:9
	b	.LBB6_140
.Ltmp320:
.LBB6_140:
	.loc	3 1128 9                        @ ../../../CORTEX_MPU_M3_NUCLEO_L152RE_GCC/Demo/TimerDemo.c:1128:9
	movw	r0, :lower16:xISROneShotTimer
	movt	r0, :upper16:xISROneShotTimer
	ldr	r0, [r0]
	str	r0, [sp, #8]                    @ 4-byte Spill
	bl	xTaskGetTickCountFromISR
	mov	r2, r0
	ldr	r0, [sp, #8]                    @ 4-byte Reload
	movs	r3, #0
	str	r3, [sp]
	movs	r1, #7
	bl	MPU_xTimerGenericCommand
	.loc	3 1129 5                        @ ../../../CORTEX_MPU_M3_NUCLEO_L152RE_GCC/Demo/TimerDemo.c:1129:5
	b	.LBB6_167
.Ltmp321:
.LBB6_141:
	.loc	3 1130 14                       @ ../../../CORTEX_MPU_M3_NUCLEO_L152RE_GCC/Demo/TimerDemo.c:1130:14
	movw	r0, :lower16:vTimerPeriodicISRTests.uxTick
	movt	r0, :upper16:vTimerPeriodicISRTests.uxTick
	ldr	r0, [r0]
	.loc	3 1130 33 is_stmt 0             @ ../../../CORTEX_MPU_M3_NUCLEO_L152RE_GCC/Demo/TimerDemo.c:1130:33
	movw	r1, :lower16:xBasePeriod
	movt	r1, :upper16:xBasePeriod
	ldr	r2, [r1]
	movs	r1, #12
	.loc	3 1130 31                       @ ../../../CORTEX_MPU_M3_NUCLEO_L152RE_GCC/Demo/TimerDemo.c:1130:31
	muls	r1, r2, r1
	.loc	3 1130 52                       @ ../../../CORTEX_MPU_M3_NUCLEO_L152RE_GCC/Demo/TimerDemo.c:1130:52
	subs	r1, #12
.Ltmp322:
	.loc	3 1130 14                       @ ../../../CORTEX_MPU_M3_NUCLEO_L152RE_GCC/Demo/TimerDemo.c:1130:14
	cmp	r0, r1
	bne	.LBB6_153
	b	.LBB6_142
.LBB6_142:
.Ltmp323:
	.loc	3 1137 13 is_stmt 1             @ ../../../CORTEX_MPU_M3_NUCLEO_L152RE_GCC/Demo/TimerDemo.c:1137:13
	movw	r0, :lower16:ucISRAutoReloadTimerCounter
	movt	r0, :upper16:ucISRAutoReloadTimerCounter
	ldrb	r0, [r0]
.Ltmp324:
	.loc	3 1137 13 is_stmt 0             @ ../../../CORTEX_MPU_M3_NUCLEO_L152RE_GCC/Demo/TimerDemo.c:1137:13
	cmp	r0, #3
	beq	.LBB6_147
	b	.LBB6_143
.LBB6_143:
.Ltmp325:
	.loc	3 1139 30 is_stmt 1             @ ../../../CORTEX_MPU_M3_NUCLEO_L152RE_GCC/Demo/TimerDemo.c:1139:30
	movw	r0, :lower16:xTestStatus
	movt	r0, :upper16:xTestStatus
	movs	r1, #0
	str	r1, [r0]
.Ltmp326:
	.loc	3 1140 13                       @ ../../../CORTEX_MPU_M3_NUCLEO_L152RE_GCC/Demo/TimerDemo.c:1140:13
	ldr	r0, [r0]
.Ltmp327:
	.loc	3 1140 13 is_stmt 0             @ ../../../CORTEX_MPU_M3_NUCLEO_L152RE_GCC/Demo/TimerDemo.c:1140:13
	cbnz	r0, .LBB6_146
	b	.LBB6_144
.LBB6_144:
.Ltmp328:
	.loc	3 1140 13                       @ ../../../CORTEX_MPU_M3_NUCLEO_L152RE_GCC/Demo/TimerDemo.c:1140:13
	@APP
	cpsid i
	@NO_APP
	b	.LBB6_145
.LBB6_145:                              @ =>This Inner Loop Header: Depth=1
.Ltmp329:
	.loc	3 1140 13                       @ ../../../CORTEX_MPU_M3_NUCLEO_L152RE_GCC/Demo/TimerDemo.c:1140:13
	b	.LBB6_145
.Ltmp330:
.LBB6_146:
	.loc	3 1141 9 is_stmt 1              @ ../../../CORTEX_MPU_M3_NUCLEO_L152RE_GCC/Demo/TimerDemo.c:1141:9
	b	.LBB6_147
.Ltmp331:
.LBB6_147:
	.loc	3 1143 13                       @ ../../../CORTEX_MPU_M3_NUCLEO_L152RE_GCC/Demo/TimerDemo.c:1143:13
	movw	r0, :lower16:ucISROneShotTimerCounter
	movt	r0, :upper16:ucISROneShotTimerCounter
	ldrb	r0, [r0]
.Ltmp332:
	.loc	3 1143 13 is_stmt 0             @ ../../../CORTEX_MPU_M3_NUCLEO_L152RE_GCC/Demo/TimerDemo.c:1143:13
	cmp	r0, #3
	beq	.LBB6_152
	b	.LBB6_148
.LBB6_148:
.Ltmp333:
	.loc	3 1145 30 is_stmt 1             @ ../../../CORTEX_MPU_M3_NUCLEO_L152RE_GCC/Demo/TimerDemo.c:1145:30
	movw	r0, :lower16:xTestStatus
	movt	r0, :upper16:xTestStatus
	movs	r1, #0
	str	r1, [r0]
.Ltmp334:
	.loc	3 1146 13                       @ ../../../CORTEX_MPU_M3_NUCLEO_L152RE_GCC/Demo/TimerDemo.c:1146:13
	ldr	r0, [r0]
.Ltmp335:
	.loc	3 1146 13 is_stmt 0             @ ../../../CORTEX_MPU_M3_NUCLEO_L152RE_GCC/Demo/TimerDemo.c:1146:13
	cbnz	r0, .LBB6_151
	b	.LBB6_149
.LBB6_149:
.Ltmp336:
	.loc	3 1146 13                       @ ../../../CORTEX_MPU_M3_NUCLEO_L152RE_GCC/Demo/TimerDemo.c:1146:13
	@APP
	cpsid i
	@NO_APP
	b	.LBB6_150
.LBB6_150:                              @ =>This Inner Loop Header: Depth=1
.Ltmp337:
	.loc	3 1146 13                       @ ../../../CORTEX_MPU_M3_NUCLEO_L152RE_GCC/Demo/TimerDemo.c:1146:13
	b	.LBB6_150
.Ltmp338:
.LBB6_151:
	.loc	3 1147 9 is_stmt 1              @ ../../../CORTEX_MPU_M3_NUCLEO_L152RE_GCC/Demo/TimerDemo.c:1147:9
	b	.LBB6_152
.Ltmp339:
.LBB6_152:
	.loc	3 1148 5                        @ ../../../CORTEX_MPU_M3_NUCLEO_L152RE_GCC/Demo/TimerDemo.c:1148:5
	b	.LBB6_166
.Ltmp340:
.LBB6_153:
	.loc	3 1149 14                       @ ../../../CORTEX_MPU_M3_NUCLEO_L152RE_GCC/Demo/TimerDemo.c:1149:14
	movw	r0, :lower16:vTimerPeriodicISRTests.uxTick
	movt	r0, :upper16:vTimerPeriodicISRTests.uxTick
	ldr	r0, [r0]
	.loc	3 1149 31 is_stmt 0             @ ../../../CORTEX_MPU_M3_NUCLEO_L152RE_GCC/Demo/TimerDemo.c:1149:31
	movw	r1, :lower16:xBasePeriod
	movt	r1, :upper16:xBasePeriod
	ldr	r2, [r1]
	movs	r1, #15
	.loc	3 1149 29                       @ ../../../CORTEX_MPU_M3_NUCLEO_L152RE_GCC/Demo/TimerDemo.c:1149:29
	muls	r1, r2, r1
.Ltmp341:
	.loc	3 1149 14                       @ ../../../CORTEX_MPU_M3_NUCLEO_L152RE_GCC/Demo/TimerDemo.c:1149:14
	cmp	r0, r1
	bne	.LBB6_165
	b	.LBB6_154
.LBB6_154:
.Ltmp342:
	.loc	3 1154 13 is_stmt 1             @ ../../../CORTEX_MPU_M3_NUCLEO_L152RE_GCC/Demo/TimerDemo.c:1154:13
	movw	r0, :lower16:ucISRAutoReloadTimerCounter
	movt	r0, :upper16:ucISRAutoReloadTimerCounter
	ldrb	r0, [r0]
.Ltmp343:
	.loc	3 1154 13 is_stmt 0             @ ../../../CORTEX_MPU_M3_NUCLEO_L152RE_GCC/Demo/TimerDemo.c:1154:13
	cmp	r0, #3
	beq	.LBB6_159
	b	.LBB6_155
.LBB6_155:
.Ltmp344:
	.loc	3 1156 30 is_stmt 1             @ ../../../CORTEX_MPU_M3_NUCLEO_L152RE_GCC/Demo/TimerDemo.c:1156:30
	movw	r0, :lower16:xTestStatus
	movt	r0, :upper16:xTestStatus
	movs	r1, #0
	str	r1, [r0]
.Ltmp345:
	.loc	3 1157 13                       @ ../../../CORTEX_MPU_M3_NUCLEO_L152RE_GCC/Demo/TimerDemo.c:1157:13
	ldr	r0, [r0]
.Ltmp346:
	.loc	3 1157 13 is_stmt 0             @ ../../../CORTEX_MPU_M3_NUCLEO_L152RE_GCC/Demo/TimerDemo.c:1157:13
	cbnz	r0, .LBB6_158
	b	.LBB6_156
.LBB6_156:
.Ltmp347:
	.loc	3 1157 13                       @ ../../../CORTEX_MPU_M3_NUCLEO_L152RE_GCC/Demo/TimerDemo.c:1157:13
	@APP
	cpsid i
	@NO_APP
	b	.LBB6_157
.LBB6_157:                              @ =>This Inner Loop Header: Depth=1
.Ltmp348:
	.loc	3 1157 13                       @ ../../../CORTEX_MPU_M3_NUCLEO_L152RE_GCC/Demo/TimerDemo.c:1157:13
	b	.LBB6_157
.Ltmp349:
.LBB6_158:
	.loc	3 1158 9 is_stmt 1              @ ../../../CORTEX_MPU_M3_NUCLEO_L152RE_GCC/Demo/TimerDemo.c:1158:9
	b	.LBB6_159
.Ltmp350:
.LBB6_159:
	.loc	3 1160 13                       @ ../../../CORTEX_MPU_M3_NUCLEO_L152RE_GCC/Demo/TimerDemo.c:1160:13
	movw	r0, :lower16:ucISROneShotTimerCounter
	movt	r0, :upper16:ucISROneShotTimerCounter
	ldrb	r0, [r0]
.Ltmp351:
	.loc	3 1160 13 is_stmt 0             @ ../../../CORTEX_MPU_M3_NUCLEO_L152RE_GCC/Demo/TimerDemo.c:1160:13
	cmp	r0, #3
	beq	.LBB6_164
	b	.LBB6_160
.LBB6_160:
.Ltmp352:
	.loc	3 1162 30 is_stmt 1             @ ../../../CORTEX_MPU_M3_NUCLEO_L152RE_GCC/Demo/TimerDemo.c:1162:30
	movw	r0, :lower16:xTestStatus
	movt	r0, :upper16:xTestStatus
	movs	r1, #0
	str	r1, [r0]
.Ltmp353:
	.loc	3 1163 13                       @ ../../../CORTEX_MPU_M3_NUCLEO_L152RE_GCC/Demo/TimerDemo.c:1163:13
	ldr	r0, [r0]
.Ltmp354:
	.loc	3 1163 13 is_stmt 0             @ ../../../CORTEX_MPU_M3_NUCLEO_L152RE_GCC/Demo/TimerDemo.c:1163:13
	cbnz	r0, .LBB6_163
	b	.LBB6_161
.LBB6_161:
.Ltmp355:
	.loc	3 1163 13                       @ ../../../CORTEX_MPU_M3_NUCLEO_L152RE_GCC/Demo/TimerDemo.c:1163:13
	@APP
	cpsid i
	@NO_APP
	b	.LBB6_162
.LBB6_162:                              @ =>This Inner Loop Header: Depth=1
.Ltmp356:
	.loc	3 1163 13                       @ ../../../CORTEX_MPU_M3_NUCLEO_L152RE_GCC/Demo/TimerDemo.c:1163:13
	b	.LBB6_162
.Ltmp357:
.LBB6_163:
	.loc	3 1164 9 is_stmt 1              @ ../../../CORTEX_MPU_M3_NUCLEO_L152RE_GCC/Demo/TimerDemo.c:1164:9
	b	.LBB6_164
.Ltmp358:
.LBB6_164:
	.loc	3 1166 16                       @ ../../../CORTEX_MPU_M3_NUCLEO_L152RE_GCC/Demo/TimerDemo.c:1166:16
	movw	r1, :lower16:vTimerPeriodicISRTests.uxTick
	movt	r1, :upper16:vTimerPeriodicISRTests.uxTick
	movs	r0, #0
	mvns	r0, r0
	str	r0, [r1]
	.loc	3 1167 5                        @ ../../../CORTEX_MPU_M3_NUCLEO_L152RE_GCC/Demo/TimerDemo.c:1167:5
	b	.LBB6_165
.Ltmp359:
.LBB6_165:
	.loc	3 0 5 is_stmt 0                 @ ../../../CORTEX_MPU_M3_NUCLEO_L152RE_GCC/Demo/TimerDemo.c:0:5
	b	.LBB6_166
.LBB6_166:
	b	.LBB6_167
.LBB6_167:
	b	.LBB6_168
.LBB6_168:
	b	.LBB6_169
.LBB6_169:
	b	.LBB6_170
.LBB6_170:
	b	.LBB6_171
.LBB6_171:
	b	.LBB6_172
.LBB6_172:
	b	.LBB6_173
.LBB6_173:
	b	.LBB6_174
.LBB6_174:
	b	.LBB6_175
.LBB6_175:
	b	.LBB6_176
.LBB6_176:
	b	.LBB6_177
.LBB6_177:
	b	.LBB6_178
.LBB6_178:
	b	.LBB6_179
.LBB6_179:
	b	.LBB6_180
.LBB6_180:
	.loc	3 1168 1 is_stmt 1              @ ../../../CORTEX_MPU_M3_NUCLEO_L152RE_GCC/Demo/TimerDemo.c:1168:1
	add	sp, #32
	pop	{r7, pc}
.Ltmp360:
.Lfunc_end6:
	.size	vTimerPeriodicISRTests, .Lfunc_end6-vTimerPeriodicISRTests
	.cfi_endproc
	.cantunwind
	.fnend
                                        @ -- End function
	.section	.text.prvTest2_CheckTaskAndTimersInitialState,"ax",%progbits
	.p2align	1                               @ -- Begin function prvTest2_CheckTaskAndTimersInitialState
	.type	prvTest2_CheckTaskAndTimersInitialState,%function
	.code	16                              @ @prvTest2_CheckTaskAndTimersInitialState
	.thumb_func
prvTest2_CheckTaskAndTimersInitialState:
.Lfunc_begin7:
	.loc	3 380 0                         @ ../../../CORTEX_MPU_M3_NUCLEO_L152RE_GCC/Demo/TimerDemo.c:380:0
	.fnstart
	.cfi_startproc
@ %bb.0:
	.save	{r7, lr}
	push	{r7, lr}
	.cfi_def_cfa_offset 8
	.cfi_offset lr, -4
	.cfi_offset r7, -8
	.pad	#8
	sub	sp, #8
	.cfi_def_cfa_offset 16
	add	r1, sp, #4
	movs	r0, #0
.Ltmp361:
	.loc	3 390 18 prologue_end           @ ../../../CORTEX_MPU_M3_NUCLEO_L152RE_GCC/Demo/TimerDemo.c:390:18
	strb	r0, [r1]
	.loc	3 390 10 is_stmt 0              @ ../../../CORTEX_MPU_M3_NUCLEO_L152RE_GCC/Demo/TimerDemo.c:390:10
	b	.LBB7_1
.LBB7_1:                                @ =>This Inner Loop Header: Depth=1
	.loc	3 0 10                          @ ../../../CORTEX_MPU_M3_NUCLEO_L152RE_GCC/Demo/TimerDemo.c:0:10
	add	r0, sp, #4
.Ltmp362:
	.loc	3 390 23                        @ ../../../CORTEX_MPU_M3_NUCLEO_L152RE_GCC/Demo/TimerDemo.c:390:23
	ldrb	r0, [r0]
.Ltmp363:
	.loc	3 390 5                         @ ../../../CORTEX_MPU_M3_NUCLEO_L152RE_GCC/Demo/TimerDemo.c:390:5
	cmp	r0, #4
	bgt	.LBB7_9
	b	.LBB7_2
.LBB7_2:                                @   in Loop: Header=BB7_1 Depth=1
	.loc	3 0 5                           @ ../../../CORTEX_MPU_M3_NUCLEO_L152RE_GCC/Demo/TimerDemo.c:0:5
	add	r0, sp, #4
.Ltmp364:
	.loc	3 392 53 is_stmt 1              @ ../../../CORTEX_MPU_M3_NUCLEO_L152RE_GCC/Demo/TimerDemo.c:392:53
	ldrb	r0, [r0]
	.loc	3 392 34 is_stmt 0              @ ../../../CORTEX_MPU_M3_NUCLEO_L152RE_GCC/Demo/TimerDemo.c:392:34
	lsls	r1, r0, #2
	movw	r0, :lower16:xAutoReloadTimers
	movt	r0, :upper16:xAutoReloadTimers
	ldr	r0, [r0, r1]
	.loc	3 392 13                        @ ../../../CORTEX_MPU_M3_NUCLEO_L152RE_GCC/Demo/TimerDemo.c:392:13
	bl	MPU_xTimerIsTimerActive
.Ltmp365:
	.loc	3 392 13                        @ ../../../CORTEX_MPU_M3_NUCLEO_L152RE_GCC/Demo/TimerDemo.c:392:13
	cbnz	r0, .LBB7_7
	b	.LBB7_3
.LBB7_3:                                @   in Loop: Header=BB7_1 Depth=1
.Ltmp366:
	.loc	3 394 30 is_stmt 1              @ ../../../CORTEX_MPU_M3_NUCLEO_L152RE_GCC/Demo/TimerDemo.c:394:30
	movw	r0, :lower16:xTestStatus
	movt	r0, :upper16:xTestStatus
	movs	r1, #0
	str	r1, [r0]
.Ltmp367:
	.loc	3 395 13                        @ ../../../CORTEX_MPU_M3_NUCLEO_L152RE_GCC/Demo/TimerDemo.c:395:13
	ldr	r0, [r0]
.Ltmp368:
	.loc	3 395 13 is_stmt 0              @ ../../../CORTEX_MPU_M3_NUCLEO_L152RE_GCC/Demo/TimerDemo.c:395:13
	cbnz	r0, .LBB7_6
	b	.LBB7_4
.LBB7_4:
.Ltmp369:
	.loc	3 395 13                        @ ../../../CORTEX_MPU_M3_NUCLEO_L152RE_GCC/Demo/TimerDemo.c:395:13
	@APP
	cpsid i
	@NO_APP
	b	.LBB7_5
.LBB7_5:                                @ =>This Inner Loop Header: Depth=1
.Ltmp370:
	.loc	3 395 13                        @ ../../../CORTEX_MPU_M3_NUCLEO_L152RE_GCC/Demo/TimerDemo.c:395:13
	b	.LBB7_5
.Ltmp371:
.LBB7_6:                                @   in Loop: Header=BB7_1 Depth=1
	.loc	3 396 9 is_stmt 1               @ ../../../CORTEX_MPU_M3_NUCLEO_L152RE_GCC/Demo/TimerDemo.c:396:9
	b	.LBB7_7
.Ltmp372:
.LBB7_7:                                @   in Loop: Header=BB7_1 Depth=1
	.loc	3 397 5                         @ ../../../CORTEX_MPU_M3_NUCLEO_L152RE_GCC/Demo/TimerDemo.c:397:5
	b	.LBB7_8
.Ltmp373:
.LBB7_8:                                @   in Loop: Header=BB7_1 Depth=1
	.loc	3 390 78                        @ ../../../CORTEX_MPU_M3_NUCLEO_L152RE_GCC/Demo/TimerDemo.c:390:78
	ldr	r0, [sp, #4]
	adds	r0, r0, #1
	add	r1, sp, #4
	strb	r0, [r1]
	.loc	3 390 5 is_stmt 0               @ ../../../CORTEX_MPU_M3_NUCLEO_L152RE_GCC/Demo/TimerDemo.c:390:5
	b	.LBB7_1
.Ltmp374:
.LBB7_9:
	.loc	3 399 30 is_stmt 1              @ ../../../CORTEX_MPU_M3_NUCLEO_L152RE_GCC/Demo/TimerDemo.c:399:30
	movw	r0, :lower16:xAutoReloadTimers
	movt	r0, :upper16:xAutoReloadTimers
	ldr	r0, [r0, #20]
	.loc	3 399 9 is_stmt 0               @ ../../../CORTEX_MPU_M3_NUCLEO_L152RE_GCC/Demo/TimerDemo.c:399:9
	bl	MPU_xTimerIsTimerActive
.Ltmp375:
	.loc	3 399 9                         @ ../../../CORTEX_MPU_M3_NUCLEO_L152RE_GCC/Demo/TimerDemo.c:399:9
	cbz	r0, .LBB7_14
	b	.LBB7_10
.LBB7_10:
.Ltmp376:
	.loc	3 401 26 is_stmt 1              @ ../../../CORTEX_MPU_M3_NUCLEO_L152RE_GCC/Demo/TimerDemo.c:401:26
	movw	r0, :lower16:xTestStatus
	movt	r0, :upper16:xTestStatus
	movs	r1, #0
	str	r1, [r0]
.Ltmp377:
	.loc	3 402 9                         @ ../../../CORTEX_MPU_M3_NUCLEO_L152RE_GCC/Demo/TimerDemo.c:402:9
	ldr	r0, [r0]
.Ltmp378:
	.loc	3 402 9 is_stmt 0               @ ../../../CORTEX_MPU_M3_NUCLEO_L152RE_GCC/Demo/TimerDemo.c:402:9
	cbnz	r0, .LBB7_13
	b	.LBB7_11
.LBB7_11:
.Ltmp379:
	.loc	3 402 9                         @ ../../../CORTEX_MPU_M3_NUCLEO_L152RE_GCC/Demo/TimerDemo.c:402:9
	@APP
	cpsid i
	@NO_APP
	b	.LBB7_12
.LBB7_12:                               @ =>This Inner Loop Header: Depth=1
.Ltmp380:
	.loc	3 402 9                         @ ../../../CORTEX_MPU_M3_NUCLEO_L152RE_GCC/Demo/TimerDemo.c:402:9
	b	.LBB7_12
.Ltmp381:
.LBB7_13:
	.loc	3 403 5 is_stmt 1               @ ../../../CORTEX_MPU_M3_NUCLEO_L152RE_GCC/Demo/TimerDemo.c:403:5
	b	.LBB7_14
.Ltmp382:
.LBB7_14:
	.loc	3 404 1                         @ ../../../CORTEX_MPU_M3_NUCLEO_L152RE_GCC/Demo/TimerDemo.c:404:1
	add	sp, #8
	pop	{r7, pc}
.Ltmp383:
.Lfunc_end7:
	.size	prvTest2_CheckTaskAndTimersInitialState, .Lfunc_end7-prvTest2_CheckTaskAndTimersInitialState
	.cfi_endproc
	.cantunwind
	.fnend
                                        @ -- End function
	.section	.text.prvTest3_CheckAutoReloadExpireRates,"ax",%progbits
	.p2align	1                               @ -- Begin function prvTest3_CheckAutoReloadExpireRates
	.type	prvTest3_CheckAutoReloadExpireRates,%function
	.code	16                              @ @prvTest3_CheckAutoReloadExpireRates
	.thumb_func
prvTest3_CheckAutoReloadExpireRates:
.Lfunc_begin8:
	.loc	3 408 0                         @ ../../../CORTEX_MPU_M3_NUCLEO_L152RE_GCC/Demo/TimerDemo.c:408:0
	.fnstart
	.cfi_startproc
@ %bb.0:
	.save	{r7, lr}
	push	{r7, lr}
	.cfi_def_cfa_offset 8
	.cfi_offset lr, -4
	.cfi_offset r7, -8
	.pad	#32
	sub	sp, #32
	.cfi_def_cfa_offset 40
	movs	r0, #0
.Ltmp384:
	.loc	3 416 26 prologue_end           @ ../../../CORTEX_MPU_M3_NUCLEO_L152RE_GCC/Demo/TimerDemo.c:416:26
	str	r0, [sp]                        @ 4-byte Spill
	bl	MPU_uxTaskPriorityGet
	mov	r1, r0
	.loc	3 416 24 is_stmt 0              @ ../../../CORTEX_MPU_M3_NUCLEO_L152RE_GCC/Demo/TimerDemo.c:416:24
	ldr	r0, [sp]                        @ 4-byte Reload
	str	r1, [sp, #4]
	movs	r1, #4
	.loc	3 417 5 is_stmt 1               @ ../../../CORTEX_MPU_M3_NUCLEO_L152RE_GCC/Demo/TimerDemo.c:417:5
	bl	MPU_vTaskPrioritySet
	.loc	3 421 66                        @ ../../../CORTEX_MPU_M3_NUCLEO_L152RE_GCC/Demo/TimerDemo.c:421:66
	movw	r0, :lower16:xBasePeriod
	movt	r0, :upper16:xBasePeriod
	ldr	r1, [r0]
	movs	r0, #5
	.loc	3 421 64 is_stmt 0              @ ../../../CORTEX_MPU_M3_NUCLEO_L152RE_GCC/Demo/TimerDemo.c:421:64
	muls	r0, r1, r0
	.loc	3 421 18                        @ ../../../CORTEX_MPU_M3_NUCLEO_L152RE_GCC/Demo/TimerDemo.c:421:18
	str	r0, [sp, #16]
	.loc	3 422 17 is_stmt 1              @ ../../../CORTEX_MPU_M3_NUCLEO_L152RE_GCC/Demo/TimerDemo.c:422:17
	ldr	r0, [sp, #16]
	.loc	3 422 5 is_stmt 0               @ ../../../CORTEX_MPU_M3_NUCLEO_L152RE_GCC/Demo/TimerDemo.c:422:5
	bl	MPU_vTaskDelay
	ldr	r0, [sp]                        @ 4-byte Reload
	add	r1, sp, #20
.Ltmp385:
	.loc	3 426 18 is_stmt 1              @ ../../../CORTEX_MPU_M3_NUCLEO_L152RE_GCC/Demo/TimerDemo.c:426:18
	strb	r0, [r1]
	.loc	3 426 10 is_stmt 0              @ ../../../CORTEX_MPU_M3_NUCLEO_L152RE_GCC/Demo/TimerDemo.c:426:10
	b	.LBB8_1
.LBB8_1:                                @ =>This Inner Loop Header: Depth=1
	.loc	3 0 10                          @ ../../../CORTEX_MPU_M3_NUCLEO_L152RE_GCC/Demo/TimerDemo.c:0:10
	add	r0, sp, #20
.Ltmp386:
	.loc	3 426 23                        @ ../../../CORTEX_MPU_M3_NUCLEO_L152RE_GCC/Demo/TimerDemo.c:426:23
	ldrb	r0, [r0]
.Ltmp387:
	.loc	3 426 5                         @ ../../../CORTEX_MPU_M3_NUCLEO_L152RE_GCC/Demo/TimerDemo.c:426:5
	cmp	r0, #4
	bgt	.LBB8_10
	b	.LBB8_2
.LBB8_2:                                @   in Loop: Header=BB8_1 Depth=1
	.loc	3 0 5                           @ ../../../CORTEX_MPU_M3_NUCLEO_L152RE_GCC/Demo/TimerDemo.c:0:5
	add	r0, sp, #20
.Ltmp388:
	.loc	3 430 43 is_stmt 1              @ ../../../CORTEX_MPU_M3_NUCLEO_L152RE_GCC/Demo/TimerDemo.c:430:43
	ldrb	r1, [r0]
	.loc	3 430 51 is_stmt 0              @ ../../../CORTEX_MPU_M3_NUCLEO_L152RE_GCC/Demo/TimerDemo.c:430:51
	adds	r2, r1, #1
	.loc	3 430 74                        @ ../../../CORTEX_MPU_M3_NUCLEO_L152RE_GCC/Demo/TimerDemo.c:430:74
	movw	r1, :lower16:xBasePeriod
	movt	r1, :upper16:xBasePeriod
	ldr	r1, [r1]
	.loc	3 430 72                        @ ../../../CORTEX_MPU_M3_NUCLEO_L152RE_GCC/Demo/TimerDemo.c:430:72
	muls	r1, r2, r1
	.loc	3 430 22                        @ ../../../CORTEX_MPU_M3_NUCLEO_L152RE_GCC/Demo/TimerDemo.c:430:22
	str	r1, [sp, #12]
	.loc	3 431 27 is_stmt 1              @ ../../../CORTEX_MPU_M3_NUCLEO_L152RE_GCC/Demo/TimerDemo.c:431:27
	ldr	r1, [sp, #16]
	.loc	3 431 42 is_stmt 0              @ ../../../CORTEX_MPU_M3_NUCLEO_L152RE_GCC/Demo/TimerDemo.c:431:42
	ldr	r2, [sp, #12]
	.loc	3 431 40                        @ ../../../CORTEX_MPU_M3_NUCLEO_L152RE_GCC/Demo/TimerDemo.c:431:40
	udiv	r1, r1, r2
	.loc	3 431 25                        @ ../../../CORTEX_MPU_M3_NUCLEO_L152RE_GCC/Demo/TimerDemo.c:431:25
	str	r1, [sp, #8]
	.loc	3 433 45 is_stmt 1              @ ../../../CORTEX_MPU_M3_NUCLEO_L152RE_GCC/Demo/TimerDemo.c:433:45
	ldr	r1, [sp, #8]
	add	r2, sp, #28
	.loc	3 433 29 is_stmt 0              @ ../../../CORTEX_MPU_M3_NUCLEO_L152RE_GCC/Demo/TimerDemo.c:433:29
	strb	r1, [r2]
	.loc	3 434 57 is_stmt 1              @ ../../../CORTEX_MPU_M3_NUCLEO_L152RE_GCC/Demo/TimerDemo.c:434:57
	ldr	r1, [sp, #8]
	.loc	3 434 73 is_stmt 0              @ ../../../CORTEX_MPU_M3_NUCLEO_L152RE_GCC/Demo/TimerDemo.c:434:73
	subs	r2, r1, #1
	add	r1, sp, #24
	.loc	3 434 29                        @ ../../../CORTEX_MPU_M3_NUCLEO_L152RE_GCC/Demo/TimerDemo.c:434:29
	strb	r2, [r1]
.Ltmp389:
	.loc	3 436 42 is_stmt 1              @ ../../../CORTEX_MPU_M3_NUCLEO_L152RE_GCC/Demo/TimerDemo.c:436:42
	ldrb	r2, [r0]
	.loc	3 436 15 is_stmt 0              @ ../../../CORTEX_MPU_M3_NUCLEO_L152RE_GCC/Demo/TimerDemo.c:436:15
	movw	r0, :lower16:ucAutoReloadTimerCounters
	movt	r0, :upper16:ucAutoReloadTimerCounters
	ldrb	r0, [r0, r2]
	.loc	3 436 54                        @ ../../../CORTEX_MPU_M3_NUCLEO_L152RE_GCC/Demo/TimerDemo.c:436:54
	ldrb	r1, [r1]
	.loc	3 436 76                        @ ../../../CORTEX_MPU_M3_NUCLEO_L152RE_GCC/Demo/TimerDemo.c:436:76
	cmp	r0, r1
	blt	.LBB8_4
	b	.LBB8_3
.LBB8_3:                                @   in Loop: Header=BB8_1 Depth=1
	.loc	3 0 76                          @ ../../../CORTEX_MPU_M3_NUCLEO_L152RE_GCC/Demo/TimerDemo.c:0:76
	add	r0, sp, #20
	.loc	3 437 42 is_stmt 1              @ ../../../CORTEX_MPU_M3_NUCLEO_L152RE_GCC/Demo/TimerDemo.c:437:42
	ldrb	r1, [r0]
	.loc	3 437 15 is_stmt 0              @ ../../../CORTEX_MPU_M3_NUCLEO_L152RE_GCC/Demo/TimerDemo.c:437:15
	movw	r0, :lower16:ucAutoReloadTimerCounters
	movt	r0, :upper16:ucAutoReloadTimerCounters
	ldrb	r0, [r0, r1]
	add	r1, sp, #28
	.loc	3 437 54                        @ ../../../CORTEX_MPU_M3_NUCLEO_L152RE_GCC/Demo/TimerDemo.c:437:54
	ldrb	r1, [r1]
.Ltmp390:
	.loc	3 436 13 is_stmt 1              @ ../../../CORTEX_MPU_M3_NUCLEO_L152RE_GCC/Demo/TimerDemo.c:436:13
	cmp	r0, r1
	ble	.LBB8_8
	b	.LBB8_4
.LBB8_4:                                @   in Loop: Header=BB8_1 Depth=1
.Ltmp391:
	.loc	3 440 30                        @ ../../../CORTEX_MPU_M3_NUCLEO_L152RE_GCC/Demo/TimerDemo.c:440:30
	movw	r0, :lower16:xTestStatus
	movt	r0, :upper16:xTestStatus
	movs	r1, #0
	str	r1, [r0]
.Ltmp392:
	.loc	3 441 13                        @ ../../../CORTEX_MPU_M3_NUCLEO_L152RE_GCC/Demo/TimerDemo.c:441:13
	ldr	r0, [r0]
.Ltmp393:
	.loc	3 441 13 is_stmt 0              @ ../../../CORTEX_MPU_M3_NUCLEO_L152RE_GCC/Demo/TimerDemo.c:441:13
	cbnz	r0, .LBB8_7
	b	.LBB8_5
.LBB8_5:
.Ltmp394:
	.loc	3 441 13                        @ ../../../CORTEX_MPU_M3_NUCLEO_L152RE_GCC/Demo/TimerDemo.c:441:13
	@APP
	cpsid i
	@NO_APP
	b	.LBB8_6
.LBB8_6:                                @ =>This Inner Loop Header: Depth=1
.Ltmp395:
	.loc	3 441 13                        @ ../../../CORTEX_MPU_M3_NUCLEO_L152RE_GCC/Demo/TimerDemo.c:441:13
	b	.LBB8_6
.Ltmp396:
.LBB8_7:                                @   in Loop: Header=BB8_1 Depth=1
	.loc	3 442 9 is_stmt 1               @ ../../../CORTEX_MPU_M3_NUCLEO_L152RE_GCC/Demo/TimerDemo.c:442:9
	b	.LBB8_8
.Ltmp397:
.LBB8_8:                                @   in Loop: Header=BB8_1 Depth=1
	.loc	3 443 5                         @ ../../../CORTEX_MPU_M3_NUCLEO_L152RE_GCC/Demo/TimerDemo.c:443:5
	b	.LBB8_9
.Ltmp398:
.LBB8_9:                                @   in Loop: Header=BB8_1 Depth=1
	.loc	3 426 78                        @ ../../../CORTEX_MPU_M3_NUCLEO_L152RE_GCC/Demo/TimerDemo.c:426:78
	ldr	r0, [sp, #20]
	adds	r0, r0, #1
	add	r1, sp, #20
	strb	r0, [r1]
	.loc	3 426 5 is_stmt 0               @ ../../../CORTEX_MPU_M3_NUCLEO_L152RE_GCC/Demo/TimerDemo.c:426:5
	b	.LBB8_1
.Ltmp399:
.LBB8_10:
	.loc	3 446 29 is_stmt 1              @ ../../../CORTEX_MPU_M3_NUCLEO_L152RE_GCC/Demo/TimerDemo.c:446:29
	ldr	r1, [sp, #4]
	movs	r0, #0
	.loc	3 446 5 is_stmt 0               @ ../../../CORTEX_MPU_M3_NUCLEO_L152RE_GCC/Demo/TimerDemo.c:446:5
	bl	MPU_vTaskPrioritySet
.Ltmp400:
	.loc	3 448 9 is_stmt 1               @ ../../../CORTEX_MPU_M3_NUCLEO_L152RE_GCC/Demo/TimerDemo.c:448:9
	movw	r0, :lower16:xTestStatus
	movt	r0, :upper16:xTestStatus
	ldr	r0, [r0]
.Ltmp401:
	.loc	3 448 9 is_stmt 0               @ ../../../CORTEX_MPU_M3_NUCLEO_L152RE_GCC/Demo/TimerDemo.c:448:9
	cmp	r0, #1
	bne	.LBB8_12
	b	.LBB8_11
.LBB8_11:
.Ltmp402:
	.loc	3 452 27 is_stmt 1              @ ../../../CORTEX_MPU_M3_NUCLEO_L152RE_GCC/Demo/TimerDemo.c:452:27
	movw	r1, :lower16:ulLoopCounter
	movt	r1, :upper16:ulLoopCounter
	ldr	r0, [r1]
	adds	r0, r0, #1
	str	r0, [r1]
	.loc	3 453 5                         @ ../../../CORTEX_MPU_M3_NUCLEO_L152RE_GCC/Demo/TimerDemo.c:453:5
	b	.LBB8_12
.Ltmp403:
.LBB8_12:
	.loc	3 454 1                         @ ../../../CORTEX_MPU_M3_NUCLEO_L152RE_GCC/Demo/TimerDemo.c:454:1
	add	sp, #32
	pop	{r7, pc}
.Ltmp404:
.Lfunc_end8:
	.size	prvTest3_CheckAutoReloadExpireRates, .Lfunc_end8-prvTest3_CheckAutoReloadExpireRates
	.cfi_endproc
	.cantunwind
	.fnend
                                        @ -- End function
	.section	.text.prvTest4_CheckAutoReloadTimersCanBeStopped,"ax",%progbits
	.p2align	1                               @ -- Begin function prvTest4_CheckAutoReloadTimersCanBeStopped
	.type	prvTest4_CheckAutoReloadTimersCanBeStopped,%function
	.code	16                              @ @prvTest4_CheckAutoReloadTimersCanBeStopped
	.thumb_func
prvTest4_CheckAutoReloadTimersCanBeStopped:
.Lfunc_begin9:
	.loc	3 458 0                         @ ../../../CORTEX_MPU_M3_NUCLEO_L152RE_GCC/Demo/TimerDemo.c:458:0
	.fnstart
	.cfi_startproc
@ %bb.0:
	.save	{r7, lr}
	push	{r7, lr}
	.cfi_def_cfa_offset 8
	.cfi_offset lr, -4
	.cfi_offset r7, -8
	.pad	#24
	sub	sp, #24
	.cfi_def_cfa_offset 32
	add	r1, sp, #20
	movs	r0, #0
.Ltmp405:
	.loc	3 465 18 prologue_end           @ ../../../CORTEX_MPU_M3_NUCLEO_L152RE_GCC/Demo/TimerDemo.c:465:18
	strb	r0, [r1]
	.loc	3 465 10 is_stmt 0              @ ../../../CORTEX_MPU_M3_NUCLEO_L152RE_GCC/Demo/TimerDemo.c:465:10
	b	.LBB9_1
.LBB9_1:                                @ =>This Inner Loop Header: Depth=1
	.loc	3 0 10                          @ ../../../CORTEX_MPU_M3_NUCLEO_L152RE_GCC/Demo/TimerDemo.c:0:10
	add	r0, sp, #20
.Ltmp406:
	.loc	3 465 23                        @ ../../../CORTEX_MPU_M3_NUCLEO_L152RE_GCC/Demo/TimerDemo.c:465:23
	ldrb	r0, [r0]
.Ltmp407:
	.loc	3 465 5                         @ ../../../CORTEX_MPU_M3_NUCLEO_L152RE_GCC/Demo/TimerDemo.c:465:5
	cmp	r0, #4
	bgt	.LBB9_14
	b	.LBB9_2
.LBB9_2:                                @   in Loop: Header=BB9_1 Depth=1
	.loc	3 0 5                           @ ../../../CORTEX_MPU_M3_NUCLEO_L152RE_GCC/Demo/TimerDemo.c:0:5
	add	r0, sp, #20
.Ltmp408:
	.loc	3 468 53 is_stmt 1              @ ../../../CORTEX_MPU_M3_NUCLEO_L152RE_GCC/Demo/TimerDemo.c:468:53
	ldrb	r0, [r0]
	.loc	3 468 34 is_stmt 0              @ ../../../CORTEX_MPU_M3_NUCLEO_L152RE_GCC/Demo/TimerDemo.c:468:34
	lsls	r1, r0, #2
	movw	r0, :lower16:xAutoReloadTimers
	movt	r0, :upper16:xAutoReloadTimers
	ldr	r0, [r0, r1]
	.loc	3 468 13                        @ ../../../CORTEX_MPU_M3_NUCLEO_L152RE_GCC/Demo/TimerDemo.c:468:13
	bl	MPU_xTimerIsTimerActive
.Ltmp409:
	.loc	3 468 13                        @ ../../../CORTEX_MPU_M3_NUCLEO_L152RE_GCC/Demo/TimerDemo.c:468:13
	cbnz	r0, .LBB9_7
	b	.LBB9_3
.LBB9_3:                                @   in Loop: Header=BB9_1 Depth=1
.Ltmp410:
	.loc	3 470 30 is_stmt 1              @ ../../../CORTEX_MPU_M3_NUCLEO_L152RE_GCC/Demo/TimerDemo.c:470:30
	movw	r0, :lower16:xTestStatus
	movt	r0, :upper16:xTestStatus
	movs	r1, #0
	str	r1, [r0]
.Ltmp411:
	.loc	3 471 13                        @ ../../../CORTEX_MPU_M3_NUCLEO_L152RE_GCC/Demo/TimerDemo.c:471:13
	ldr	r0, [r0]
.Ltmp412:
	.loc	3 471 13 is_stmt 0              @ ../../../CORTEX_MPU_M3_NUCLEO_L152RE_GCC/Demo/TimerDemo.c:471:13
	cbnz	r0, .LBB9_6
	b	.LBB9_4
.LBB9_4:
.Ltmp413:
	.loc	3 471 13                        @ ../../../CORTEX_MPU_M3_NUCLEO_L152RE_GCC/Demo/TimerDemo.c:471:13
	@APP
	cpsid i
	@NO_APP
	b	.LBB9_5
.LBB9_5:                                @ =>This Inner Loop Header: Depth=1
.Ltmp414:
	.loc	3 471 13                        @ ../../../CORTEX_MPU_M3_NUCLEO_L152RE_GCC/Demo/TimerDemo.c:471:13
	b	.LBB9_5
.Ltmp415:
.LBB9_6:                                @   in Loop: Header=BB9_1 Depth=1
	.loc	3 472 9 is_stmt 1               @ ../../../CORTEX_MPU_M3_NUCLEO_L152RE_GCC/Demo/TimerDemo.c:472:9
	b	.LBB9_7
.Ltmp416:
.LBB9_7:                                @   in Loop: Header=BB9_1 Depth=1
	.loc	3 0 9 is_stmt 0                 @ ../../../CORTEX_MPU_M3_NUCLEO_L152RE_GCC/Demo/TimerDemo.c:0:9
	add	r0, sp, #20
	.loc	3 477 9 is_stmt 1               @ ../../../CORTEX_MPU_M3_NUCLEO_L152RE_GCC/Demo/TimerDemo.c:477:9
	str	r0, [sp, #12]                   @ 4-byte Spill
	ldrb	r0, [r0]
	lsls	r1, r0, #2
	movw	r0, :lower16:xAutoReloadTimers
	movt	r0, :upper16:xAutoReloadTimers
	str	r0, [sp, #16]                   @ 4-byte Spill
	ldr	r0, [r0, r1]
	movs	r3, #0
	str	r3, [sp]
	movs	r1, #3
	mov	r2, r3
	bl	MPU_xTimerGenericCommand
	ldr	r1, [sp, #12]                   @ 4-byte Reload
                                        @ kill: def $r2 killed $r0
.Ltmp417:
	.loc	3 480 53                        @ ../../../CORTEX_MPU_M3_NUCLEO_L152RE_GCC/Demo/TimerDemo.c:480:53
	ldr	r0, [sp, #16]                   @ 4-byte Reload
	ldrb	r1, [r1]
	.loc	3 480 34 is_stmt 0              @ ../../../CORTEX_MPU_M3_NUCLEO_L152RE_GCC/Demo/TimerDemo.c:480:34
	lsls	r1, r1, #2
	ldr	r0, [r0, r1]
	.loc	3 480 13                        @ ../../../CORTEX_MPU_M3_NUCLEO_L152RE_GCC/Demo/TimerDemo.c:480:13
	bl	MPU_xTimerIsTimerActive
.Ltmp418:
	.loc	3 480 13                        @ ../../../CORTEX_MPU_M3_NUCLEO_L152RE_GCC/Demo/TimerDemo.c:480:13
	cbz	r0, .LBB9_12
	b	.LBB9_8
.LBB9_8:                                @   in Loop: Header=BB9_1 Depth=1
.Ltmp419:
	.loc	3 482 30 is_stmt 1              @ ../../../CORTEX_MPU_M3_NUCLEO_L152RE_GCC/Demo/TimerDemo.c:482:30
	movw	r0, :lower16:xTestStatus
	movt	r0, :upper16:xTestStatus
	movs	r1, #0
	str	r1, [r0]
.Ltmp420:
	.loc	3 483 13                        @ ../../../CORTEX_MPU_M3_NUCLEO_L152RE_GCC/Demo/TimerDemo.c:483:13
	ldr	r0, [r0]
.Ltmp421:
	.loc	3 483 13 is_stmt 0              @ ../../../CORTEX_MPU_M3_NUCLEO_L152RE_GCC/Demo/TimerDemo.c:483:13
	cbnz	r0, .LBB9_11
	b	.LBB9_9
.LBB9_9:
.Ltmp422:
	.loc	3 483 13                        @ ../../../CORTEX_MPU_M3_NUCLEO_L152RE_GCC/Demo/TimerDemo.c:483:13
	@APP
	cpsid i
	@NO_APP
	b	.LBB9_10
.LBB9_10:                               @ =>This Inner Loop Header: Depth=1
.Ltmp423:
	.loc	3 483 13                        @ ../../../CORTEX_MPU_M3_NUCLEO_L152RE_GCC/Demo/TimerDemo.c:483:13
	b	.LBB9_10
.Ltmp424:
.LBB9_11:                               @   in Loop: Header=BB9_1 Depth=1
	.loc	3 484 9 is_stmt 1               @ ../../../CORTEX_MPU_M3_NUCLEO_L152RE_GCC/Demo/TimerDemo.c:484:9
	b	.LBB9_12
.Ltmp425:
.LBB9_12:                               @   in Loop: Header=BB9_1 Depth=1
	.loc	3 485 5                         @ ../../../CORTEX_MPU_M3_NUCLEO_L152RE_GCC/Demo/TimerDemo.c:485:5
	b	.LBB9_13
.Ltmp426:
.LBB9_13:                               @   in Loop: Header=BB9_1 Depth=1
	.loc	3 465 78                        @ ../../../CORTEX_MPU_M3_NUCLEO_L152RE_GCC/Demo/TimerDemo.c:465:78
	ldr	r0, [sp, #20]
	adds	r0, r0, #1
	add	r1, sp, #20
	strb	r0, [r1]
	.loc	3 465 5 is_stmt 0               @ ../../../CORTEX_MPU_M3_NUCLEO_L152RE_GCC/Demo/TimerDemo.c:465:5
	b	.LBB9_1
.Ltmp427:
.LBB9_14:
	.loc	3 487 5 is_stmt 1               @ ../../../CORTEX_MPU_M3_NUCLEO_L152RE_GCC/Demo/TimerDemo.c:487:5
	bl	vPortEnterCritical
.Ltmp428:
	.loc	3 493 13                        @ ../../../CORTEX_MPU_M3_NUCLEO_L152RE_GCC/Demo/TimerDemo.c:493:13
	movw	r0, :lower16:ucAutoReloadTimerCounters
	movt	r0, :upper16:ucAutoReloadTimerCounters
	ldrb	r0, [r0, #5]
.Ltmp429:
	.loc	3 493 13 is_stmt 0              @ ../../../CORTEX_MPU_M3_NUCLEO_L152RE_GCC/Demo/TimerDemo.c:493:13
	cbz	r0, .LBB9_19
	b	.LBB9_15
.LBB9_15:
.Ltmp430:
	.loc	3 495 30 is_stmt 1              @ ../../../CORTEX_MPU_M3_NUCLEO_L152RE_GCC/Demo/TimerDemo.c:495:30
	movw	r0, :lower16:xTestStatus
	movt	r0, :upper16:xTestStatus
	movs	r1, #0
	str	r1, [r0]
.Ltmp431:
	.loc	3 496 13                        @ ../../../CORTEX_MPU_M3_NUCLEO_L152RE_GCC/Demo/TimerDemo.c:496:13
	ldr	r0, [r0]
.Ltmp432:
	.loc	3 496 13 is_stmt 0              @ ../../../CORTEX_MPU_M3_NUCLEO_L152RE_GCC/Demo/TimerDemo.c:496:13
	cbnz	r0, .LBB9_18
	b	.LBB9_16
.LBB9_16:
.Ltmp433:
	.loc	3 496 13                        @ ../../../CORTEX_MPU_M3_NUCLEO_L152RE_GCC/Demo/TimerDemo.c:496:13
	@APP
	cpsid i
	@NO_APP
	b	.LBB9_17
.LBB9_17:                               @ =>This Inner Loop Header: Depth=1
.Ltmp434:
	.loc	3 496 13                        @ ../../../CORTEX_MPU_M3_NUCLEO_L152RE_GCC/Demo/TimerDemo.c:496:13
	b	.LBB9_17
.Ltmp435:
.LBB9_18:
	.loc	3 497 9 is_stmt 1               @ ../../../CORTEX_MPU_M3_NUCLEO_L152RE_GCC/Demo/TimerDemo.c:497:9
	b	.LBB9_19
.Ltmp436:
.LBB9_19:
	.loc	3 500 9                         @ ../../../CORTEX_MPU_M3_NUCLEO_L152RE_GCC/Demo/TimerDemo.c:500:9
	movw	r1, :lower16:ucAutoReloadTimerCounters
	movt	r1, :upper16:ucAutoReloadTimerCounters
	str	r1, [sp, #4]                    @ 4-byte Spill
	movs	r0, #0
	str	r0, [sp, #8]                    @ 4-byte Spill
	str	r0, [r1, #28]
	str	r0, [r1, #24]
	str	r0, [r1, #20]
	str	r0, [r1, #16]
	str	r0, [r1, #12]
	str	r0, [r1, #8]
	str	r0, [r1, #4]
	str	r0, [r1]
.Ltmp437:
	.loc	3 502 5                         @ ../../../CORTEX_MPU_M3_NUCLEO_L152RE_GCC/Demo/TimerDemo.c:502:5
	bl	vPortExitCritical
	.loc	3 506 63                        @ ../../../CORTEX_MPU_M3_NUCLEO_L152RE_GCC/Demo/TimerDemo.c:506:63
	movw	r0, :lower16:xBasePeriod
	movt	r0, :upper16:xBasePeriod
	ldr	r1, [r0]
	movs	r0, #5
	.loc	3 506 61 is_stmt 0              @ ../../../CORTEX_MPU_M3_NUCLEO_L152RE_GCC/Demo/TimerDemo.c:506:61
	muls	r0, r1, r0
	.loc	3 506 5                         @ ../../../CORTEX_MPU_M3_NUCLEO_L152RE_GCC/Demo/TimerDemo.c:506:5
	bl	MPU_vTaskDelay
	ldr	r0, [sp, #8]                    @ 4-byte Reload
	add	r1, sp, #20
.Ltmp438:
	.loc	3 508 18 is_stmt 1              @ ../../../CORTEX_MPU_M3_NUCLEO_L152RE_GCC/Demo/TimerDemo.c:508:18
	strb	r0, [r1]
	.loc	3 508 10 is_stmt 0              @ ../../../CORTEX_MPU_M3_NUCLEO_L152RE_GCC/Demo/TimerDemo.c:508:10
	b	.LBB9_20
.LBB9_20:                               @ =>This Inner Loop Header: Depth=1
	.loc	3 0 10                          @ ../../../CORTEX_MPU_M3_NUCLEO_L152RE_GCC/Demo/TimerDemo.c:0:10
	add	r0, sp, #20
.Ltmp439:
	.loc	3 508 23                        @ ../../../CORTEX_MPU_M3_NUCLEO_L152RE_GCC/Demo/TimerDemo.c:508:23
	ldrb	r0, [r0]
.Ltmp440:
	.loc	3 508 5                         @ ../../../CORTEX_MPU_M3_NUCLEO_L152RE_GCC/Demo/TimerDemo.c:508:5
	cmp	r0, #4
	bgt	.LBB9_28
	b	.LBB9_21
.LBB9_21:                               @   in Loop: Header=BB9_20 Depth=1
	.loc	3 0 5                           @ ../../../CORTEX_MPU_M3_NUCLEO_L152RE_GCC/Demo/TimerDemo.c:0:5
	add	r0, sp, #20
.Ltmp441:
	.loc	3 510 40 is_stmt 1              @ ../../../CORTEX_MPU_M3_NUCLEO_L152RE_GCC/Demo/TimerDemo.c:510:40
	ldrb	r1, [r0]
	.loc	3 510 13 is_stmt 0              @ ../../../CORTEX_MPU_M3_NUCLEO_L152RE_GCC/Demo/TimerDemo.c:510:13
	movw	r0, :lower16:ucAutoReloadTimerCounters
	movt	r0, :upper16:ucAutoReloadTimerCounters
	ldrb	r0, [r0, r1]
.Ltmp442:
	.loc	3 510 13                        @ ../../../CORTEX_MPU_M3_NUCLEO_L152RE_GCC/Demo/TimerDemo.c:510:13
	cbz	r0, .LBB9_26
	b	.LBB9_22
.LBB9_22:                               @   in Loop: Header=BB9_20 Depth=1
.Ltmp443:
	.loc	3 512 30 is_stmt 1              @ ../../../CORTEX_MPU_M3_NUCLEO_L152RE_GCC/Demo/TimerDemo.c:512:30
	movw	r0, :lower16:xTestStatus
	movt	r0, :upper16:xTestStatus
	movs	r1, #0
	str	r1, [r0]
.Ltmp444:
	.loc	3 513 13                        @ ../../../CORTEX_MPU_M3_NUCLEO_L152RE_GCC/Demo/TimerDemo.c:513:13
	ldr	r0, [r0]
.Ltmp445:
	.loc	3 513 13 is_stmt 0              @ ../../../CORTEX_MPU_M3_NUCLEO_L152RE_GCC/Demo/TimerDemo.c:513:13
	cbnz	r0, .LBB9_25
	b	.LBB9_23
.LBB9_23:
.Ltmp446:
	.loc	3 513 13                        @ ../../../CORTEX_MPU_M3_NUCLEO_L152RE_GCC/Demo/TimerDemo.c:513:13
	@APP
	cpsid i
	@NO_APP
	b	.LBB9_24
.LBB9_24:                               @ =>This Inner Loop Header: Depth=1
.Ltmp447:
	.loc	3 513 13                        @ ../../../CORTEX_MPU_M3_NUCLEO_L152RE_GCC/Demo/TimerDemo.c:513:13
	b	.LBB9_24
.Ltmp448:
.LBB9_25:                               @   in Loop: Header=BB9_20 Depth=1
	.loc	3 514 9 is_stmt 1               @ ../../../CORTEX_MPU_M3_NUCLEO_L152RE_GCC/Demo/TimerDemo.c:514:9
	b	.LBB9_26
.Ltmp449:
.LBB9_26:                               @   in Loop: Header=BB9_20 Depth=1
	.loc	3 515 5                         @ ../../../CORTEX_MPU_M3_NUCLEO_L152RE_GCC/Demo/TimerDemo.c:515:5
	b	.LBB9_27
.Ltmp450:
.LBB9_27:                               @   in Loop: Header=BB9_20 Depth=1
	.loc	3 508 78                        @ ../../../CORTEX_MPU_M3_NUCLEO_L152RE_GCC/Demo/TimerDemo.c:508:78
	ldr	r0, [sp, #20]
	adds	r0, r0, #1
	add	r1, sp, #20
	strb	r0, [r1]
	.loc	3 508 5 is_stmt 0               @ ../../../CORTEX_MPU_M3_NUCLEO_L152RE_GCC/Demo/TimerDemo.c:508:5
	b	.LBB9_20
.Ltmp451:
.LBB9_28:
	.loc	3 517 9 is_stmt 1               @ ../../../CORTEX_MPU_M3_NUCLEO_L152RE_GCC/Demo/TimerDemo.c:517:9
	movw	r0, :lower16:xTestStatus
	movt	r0, :upper16:xTestStatus
	ldr	r0, [r0]
.Ltmp452:
	.loc	3 517 9 is_stmt 0               @ ../../../CORTEX_MPU_M3_NUCLEO_L152RE_GCC/Demo/TimerDemo.c:517:9
	cmp	r0, #1
	bne	.LBB9_30
	b	.LBB9_29
.LBB9_29:
.Ltmp453:
	.loc	3 521 27 is_stmt 1              @ ../../../CORTEX_MPU_M3_NUCLEO_L152RE_GCC/Demo/TimerDemo.c:521:27
	movw	r1, :lower16:ulLoopCounter
	movt	r1, :upper16:ulLoopCounter
	ldr	r0, [r1]
	adds	r0, r0, #1
	str	r0, [r1]
	.loc	3 522 5                         @ ../../../CORTEX_MPU_M3_NUCLEO_L152RE_GCC/Demo/TimerDemo.c:522:5
	b	.LBB9_30
.Ltmp454:
.LBB9_30:
	.loc	3 523 1                         @ ../../../CORTEX_MPU_M3_NUCLEO_L152RE_GCC/Demo/TimerDemo.c:523:1
	add	sp, #24
	pop	{r7, pc}
.Ltmp455:
.Lfunc_end9:
	.size	prvTest4_CheckAutoReloadTimersCanBeStopped, .Lfunc_end9-prvTest4_CheckAutoReloadTimersCanBeStopped
	.cfi_endproc
	.cantunwind
	.fnend
                                        @ -- End function
	.section	.text.prvTest5_CheckBasicOneShotTimerBehaviour,"ax",%progbits
	.p2align	1                               @ -- Begin function prvTest5_CheckBasicOneShotTimerBehaviour
	.type	prvTest5_CheckBasicOneShotTimerBehaviour,%function
	.code	16                              @ @prvTest5_CheckBasicOneShotTimerBehaviour
	.thumb_func
prvTest5_CheckBasicOneShotTimerBehaviour:
.Lfunc_begin10:
	.loc	3 527 0                         @ ../../../CORTEX_MPU_M3_NUCLEO_L152RE_GCC/Demo/TimerDemo.c:527:0
	.fnstart
	.cfi_startproc
@ %bb.0:
	.save	{r7, lr}
	push	{r7, lr}
	.cfi_def_cfa_offset 8
	.cfi_offset lr, -4
	.cfi_offset r7, -8
	.pad	#16
	sub	sp, #16
	.cfi_def_cfa_offset 24
.Ltmp456:
	.loc	3 532 30 prologue_end           @ ../../../CORTEX_MPU_M3_NUCLEO_L152RE_GCC/Demo/TimerDemo.c:532:30
	movw	r0, :lower16:xOneShotTimer
	movt	r0, :upper16:xOneShotTimer
	ldr	r0, [r0]
	.loc	3 532 9 is_stmt 0               @ ../../../CORTEX_MPU_M3_NUCLEO_L152RE_GCC/Demo/TimerDemo.c:532:9
	bl	MPU_xTimerIsTimerActive
.Ltmp457:
	.loc	3 532 9                         @ ../../../CORTEX_MPU_M3_NUCLEO_L152RE_GCC/Demo/TimerDemo.c:532:9
	cbz	r0, .LBB10_5
	b	.LBB10_1
.LBB10_1:
.Ltmp458:
	.loc	3 534 26 is_stmt 1              @ ../../../CORTEX_MPU_M3_NUCLEO_L152RE_GCC/Demo/TimerDemo.c:534:26
	movw	r0, :lower16:xTestStatus
	movt	r0, :upper16:xTestStatus
	movs	r1, #0
	str	r1, [r0]
.Ltmp459:
	.loc	3 535 9                         @ ../../../CORTEX_MPU_M3_NUCLEO_L152RE_GCC/Demo/TimerDemo.c:535:9
	ldr	r0, [r0]
.Ltmp460:
	.loc	3 535 9 is_stmt 0               @ ../../../CORTEX_MPU_M3_NUCLEO_L152RE_GCC/Demo/TimerDemo.c:535:9
	cbnz	r0, .LBB10_4
	b	.LBB10_2
.LBB10_2:
.Ltmp461:
	.loc	3 535 9                         @ ../../../CORTEX_MPU_M3_NUCLEO_L152RE_GCC/Demo/TimerDemo.c:535:9
	@APP
	cpsid i
	@NO_APP
	b	.LBB10_3
.LBB10_3:                               @ =>This Inner Loop Header: Depth=1
.Ltmp462:
	.loc	3 535 9                         @ ../../../CORTEX_MPU_M3_NUCLEO_L152RE_GCC/Demo/TimerDemo.c:535:9
	b	.LBB10_3
.Ltmp463:
.LBB10_4:
	.loc	3 536 5 is_stmt 1               @ ../../../CORTEX_MPU_M3_NUCLEO_L152RE_GCC/Demo/TimerDemo.c:536:5
	b	.LBB10_5
.Ltmp464:
.LBB10_5:
	.loc	3 538 9                         @ ../../../CORTEX_MPU_M3_NUCLEO_L152RE_GCC/Demo/TimerDemo.c:538:9
	movw	r0, :lower16:ucOneShotTimerCounter
	movt	r0, :upper16:ucOneShotTimerCounter
	ldrb	r0, [r0]
.Ltmp465:
	.loc	3 538 9 is_stmt 0               @ ../../../CORTEX_MPU_M3_NUCLEO_L152RE_GCC/Demo/TimerDemo.c:538:9
	cbz	r0, .LBB10_10
	b	.LBB10_6
.LBB10_6:
.Ltmp466:
	.loc	3 540 26 is_stmt 1              @ ../../../CORTEX_MPU_M3_NUCLEO_L152RE_GCC/Demo/TimerDemo.c:540:26
	movw	r0, :lower16:xTestStatus
	movt	r0, :upper16:xTestStatus
	movs	r1, #0
	str	r1, [r0]
.Ltmp467:
	.loc	3 541 9                         @ ../../../CORTEX_MPU_M3_NUCLEO_L152RE_GCC/Demo/TimerDemo.c:541:9
	ldr	r0, [r0]
.Ltmp468:
	.loc	3 541 9 is_stmt 0               @ ../../../CORTEX_MPU_M3_NUCLEO_L152RE_GCC/Demo/TimerDemo.c:541:9
	cbnz	r0, .LBB10_9
	b	.LBB10_7
.LBB10_7:
.Ltmp469:
	.loc	3 541 9                         @ ../../../CORTEX_MPU_M3_NUCLEO_L152RE_GCC/Demo/TimerDemo.c:541:9
	@APP
	cpsid i
	@NO_APP
	b	.LBB10_8
.LBB10_8:                               @ =>This Inner Loop Header: Depth=1
.Ltmp470:
	.loc	3 541 9                         @ ../../../CORTEX_MPU_M3_NUCLEO_L152RE_GCC/Demo/TimerDemo.c:541:9
	b	.LBB10_8
.Ltmp471:
.LBB10_9:
	.loc	3 542 5 is_stmt 1               @ ../../../CORTEX_MPU_M3_NUCLEO_L152RE_GCC/Demo/TimerDemo.c:542:5
	b	.LBB10_10
.Ltmp472:
.LBB10_10:
	.loc	3 545 5                         @ ../../../CORTEX_MPU_M3_NUCLEO_L152RE_GCC/Demo/TimerDemo.c:545:5
	movw	r0, :lower16:xOneShotTimer
	movt	r0, :upper16:xOneShotTimer
	str	r0, [sp, #12]                   @ 4-byte Spill
	ldr	r0, [r0]
	str	r0, [sp, #8]                    @ 4-byte Spill
	bl	MPU_xTaskGetTickCount
	mov	r2, r0
	ldr	r0, [sp, #8]                    @ 4-byte Reload
	movs	r3, #0
	str	r3, [sp]
	movs	r1, #1
	bl	MPU_xTimerGenericCommand
                                        @ kill: def $r1 killed $r0
.Ltmp473:
	.loc	3 547 30                        @ ../../../CORTEX_MPU_M3_NUCLEO_L152RE_GCC/Demo/TimerDemo.c:547:30
	ldr	r0, [sp, #12]                   @ 4-byte Reload
	ldr	r0, [r0]
	.loc	3 547 9 is_stmt 0               @ ../../../CORTEX_MPU_M3_NUCLEO_L152RE_GCC/Demo/TimerDemo.c:547:9
	bl	MPU_xTimerIsTimerActive
.Ltmp474:
	.loc	3 547 9                         @ ../../../CORTEX_MPU_M3_NUCLEO_L152RE_GCC/Demo/TimerDemo.c:547:9
	cbnz	r0, .LBB10_15
	b	.LBB10_11
.LBB10_11:
.Ltmp475:
	.loc	3 549 26 is_stmt 1              @ ../../../CORTEX_MPU_M3_NUCLEO_L152RE_GCC/Demo/TimerDemo.c:549:26
	movw	r0, :lower16:xTestStatus
	movt	r0, :upper16:xTestStatus
	movs	r1, #0
	str	r1, [r0]
.Ltmp476:
	.loc	3 550 9                         @ ../../../CORTEX_MPU_M3_NUCLEO_L152RE_GCC/Demo/TimerDemo.c:550:9
	ldr	r0, [r0]
.Ltmp477:
	.loc	3 550 9 is_stmt 0               @ ../../../CORTEX_MPU_M3_NUCLEO_L152RE_GCC/Demo/TimerDemo.c:550:9
	cbnz	r0, .LBB10_14
	b	.LBB10_12
.LBB10_12:
.Ltmp478:
	.loc	3 550 9                         @ ../../../CORTEX_MPU_M3_NUCLEO_L152RE_GCC/Demo/TimerDemo.c:550:9
	@APP
	cpsid i
	@NO_APP
	b	.LBB10_13
.LBB10_13:                              @ =>This Inner Loop Header: Depth=1
.Ltmp479:
	.loc	3 550 9                         @ ../../../CORTEX_MPU_M3_NUCLEO_L152RE_GCC/Demo/TimerDemo.c:550:9
	b	.LBB10_13
.Ltmp480:
.LBB10_14:
	.loc	3 551 5 is_stmt 1               @ ../../../CORTEX_MPU_M3_NUCLEO_L152RE_GCC/Demo/TimerDemo.c:551:5
	b	.LBB10_15
.Ltmp481:
.LBB10_15:
	.loc	3 556 17                        @ ../../../CORTEX_MPU_M3_NUCLEO_L152RE_GCC/Demo/TimerDemo.c:556:17
	movw	r0, :lower16:xBasePeriod
	movt	r0, :upper16:xBasePeriod
	ldr	r1, [r0]
	movs	r0, #9
	.loc	3 556 46 is_stmt 0              @ ../../../CORTEX_MPU_M3_NUCLEO_L152RE_GCC/Demo/TimerDemo.c:556:46
	muls	r0, r1, r0
	.loc	3 556 5                         @ ../../../CORTEX_MPU_M3_NUCLEO_L152RE_GCC/Demo/TimerDemo.c:556:5
	bl	MPU_vTaskDelay
.Ltmp482:
	.loc	3 558 30 is_stmt 1              @ ../../../CORTEX_MPU_M3_NUCLEO_L152RE_GCC/Demo/TimerDemo.c:558:30
	movw	r0, :lower16:xOneShotTimer
	movt	r0, :upper16:xOneShotTimer
	ldr	r0, [r0]
	.loc	3 558 9 is_stmt 0               @ ../../../CORTEX_MPU_M3_NUCLEO_L152RE_GCC/Demo/TimerDemo.c:558:9
	bl	MPU_xTimerIsTimerActive
.Ltmp483:
	.loc	3 558 9                         @ ../../../CORTEX_MPU_M3_NUCLEO_L152RE_GCC/Demo/TimerDemo.c:558:9
	cbz	r0, .LBB10_20
	b	.LBB10_16
.LBB10_16:
.Ltmp484:
	.loc	3 560 26 is_stmt 1              @ ../../../CORTEX_MPU_M3_NUCLEO_L152RE_GCC/Demo/TimerDemo.c:560:26
	movw	r0, :lower16:xTestStatus
	movt	r0, :upper16:xTestStatus
	movs	r1, #0
	str	r1, [r0]
.Ltmp485:
	.loc	3 561 9                         @ ../../../CORTEX_MPU_M3_NUCLEO_L152RE_GCC/Demo/TimerDemo.c:561:9
	ldr	r0, [r0]
.Ltmp486:
	.loc	3 561 9 is_stmt 0               @ ../../../CORTEX_MPU_M3_NUCLEO_L152RE_GCC/Demo/TimerDemo.c:561:9
	cbnz	r0, .LBB10_19
	b	.LBB10_17
.LBB10_17:
.Ltmp487:
	.loc	3 561 9                         @ ../../../CORTEX_MPU_M3_NUCLEO_L152RE_GCC/Demo/TimerDemo.c:561:9
	@APP
	cpsid i
	@NO_APP
	b	.LBB10_18
.LBB10_18:                              @ =>This Inner Loop Header: Depth=1
.Ltmp488:
	.loc	3 561 9                         @ ../../../CORTEX_MPU_M3_NUCLEO_L152RE_GCC/Demo/TimerDemo.c:561:9
	b	.LBB10_18
.Ltmp489:
.LBB10_19:
	.loc	3 562 5 is_stmt 1               @ ../../../CORTEX_MPU_M3_NUCLEO_L152RE_GCC/Demo/TimerDemo.c:562:5
	b	.LBB10_20
.Ltmp490:
.LBB10_20:
	.loc	3 564 9                         @ ../../../CORTEX_MPU_M3_NUCLEO_L152RE_GCC/Demo/TimerDemo.c:564:9
	movw	r0, :lower16:ucOneShotTimerCounter
	movt	r0, :upper16:ucOneShotTimerCounter
	ldrb	r0, [r0]
.Ltmp491:
	.loc	3 564 9 is_stmt 0               @ ../../../CORTEX_MPU_M3_NUCLEO_L152RE_GCC/Demo/TimerDemo.c:564:9
	cmp	r0, #1
	beq	.LBB10_25
	b	.LBB10_21
.LBB10_21:
.Ltmp492:
	.loc	3 566 26 is_stmt 1              @ ../../../CORTEX_MPU_M3_NUCLEO_L152RE_GCC/Demo/TimerDemo.c:566:26
	movw	r0, :lower16:xTestStatus
	movt	r0, :upper16:xTestStatus
	movs	r1, #0
	str	r1, [r0]
.Ltmp493:
	.loc	3 567 9                         @ ../../../CORTEX_MPU_M3_NUCLEO_L152RE_GCC/Demo/TimerDemo.c:567:9
	ldr	r0, [r0]
.Ltmp494:
	.loc	3 567 9 is_stmt 0               @ ../../../CORTEX_MPU_M3_NUCLEO_L152RE_GCC/Demo/TimerDemo.c:567:9
	cbnz	r0, .LBB10_24
	b	.LBB10_22
.LBB10_22:
.Ltmp495:
	.loc	3 567 9                         @ ../../../CORTEX_MPU_M3_NUCLEO_L152RE_GCC/Demo/TimerDemo.c:567:9
	@APP
	cpsid i
	@NO_APP
	b	.LBB10_23
.LBB10_23:                              @ =>This Inner Loop Header: Depth=1
.Ltmp496:
	.loc	3 567 9                         @ ../../../CORTEX_MPU_M3_NUCLEO_L152RE_GCC/Demo/TimerDemo.c:567:9
	b	.LBB10_23
.Ltmp497:
.LBB10_24:
	.loc	3 568 5 is_stmt 1               @ ../../../CORTEX_MPU_M3_NUCLEO_L152RE_GCC/Demo/TimerDemo.c:568:5
	b	.LBB10_26
.Ltmp498:
.LBB10_25:
	.loc	3 572 36                        @ ../../../CORTEX_MPU_M3_NUCLEO_L152RE_GCC/Demo/TimerDemo.c:572:36
	movw	r1, :lower16:ucOneShotTimerCounter
	movt	r1, :upper16:ucOneShotTimerCounter
	movs	r0, #0
	strb	r0, [r1]
	b	.LBB10_26
.Ltmp499:
.LBB10_26:
	.loc	3 575 9                         @ ../../../CORTEX_MPU_M3_NUCLEO_L152RE_GCC/Demo/TimerDemo.c:575:9
	movw	r0, :lower16:xTestStatus
	movt	r0, :upper16:xTestStatus
	ldr	r0, [r0]
.Ltmp500:
	.loc	3 575 9 is_stmt 0               @ ../../../CORTEX_MPU_M3_NUCLEO_L152RE_GCC/Demo/TimerDemo.c:575:9
	cmp	r0, #1
	bne	.LBB10_28
	b	.LBB10_27
.LBB10_27:
.Ltmp501:
	.loc	3 579 27 is_stmt 1              @ ../../../CORTEX_MPU_M3_NUCLEO_L152RE_GCC/Demo/TimerDemo.c:579:27
	movw	r1, :lower16:ulLoopCounter
	movt	r1, :upper16:ulLoopCounter
	ldr	r0, [r1]
	adds	r0, r0, #1
	str	r0, [r1]
	.loc	3 580 5                         @ ../../../CORTEX_MPU_M3_NUCLEO_L152RE_GCC/Demo/TimerDemo.c:580:5
	b	.LBB10_28
.Ltmp502:
.LBB10_28:
	.loc	3 581 1                         @ ../../../CORTEX_MPU_M3_NUCLEO_L152RE_GCC/Demo/TimerDemo.c:581:1
	add	sp, #16
	pop	{r7, pc}
.Ltmp503:
.Lfunc_end10:
	.size	prvTest5_CheckBasicOneShotTimerBehaviour, .Lfunc_end10-prvTest5_CheckBasicOneShotTimerBehaviour
	.cfi_endproc
	.cantunwind
	.fnend
                                        @ -- End function
	.section	.text.prvTest6_CheckAutoReloadResetBehaviour,"ax",%progbits
	.p2align	1                               @ -- Begin function prvTest6_CheckAutoReloadResetBehaviour
	.type	prvTest6_CheckAutoReloadResetBehaviour,%function
	.code	16                              @ @prvTest6_CheckAutoReloadResetBehaviour
	.thumb_func
prvTest6_CheckAutoReloadResetBehaviour:
.Lfunc_begin11:
	.loc	3 585 0                         @ ../../../CORTEX_MPU_M3_NUCLEO_L152RE_GCC/Demo/TimerDemo.c:585:0
	.fnstart
	.cfi_startproc
@ %bb.0:
	.save	{r7, lr}
	push	{r7, lr}
	.cfi_def_cfa_offset 8
	.cfi_offset lr, -4
	.cfi_offset r7, -8
	.pad	#48
	sub	sp, #48
	.cfi_def_cfa_offset 56
.Ltmp504:
	.loc	3 591 5 prologue_end            @ ../../../CORTEX_MPU_M3_NUCLEO_L152RE_GCC/Demo/TimerDemo.c:591:5
	movw	r0, :lower16:xOneShotTimer
	movt	r0, :upper16:xOneShotTimer
	str	r0, [sp, #40]                   @ 4-byte Spill
	ldr	r0, [r0]
	str	r0, [sp, #36]                   @ 4-byte Spill
	bl	MPU_xTaskGetTickCount
	mov	r2, r0
	ldr	r0, [sp, #36]                   @ 4-byte Reload
	movs	r3, #0
	str	r3, [sp]
	movs	r1, #1
	bl	MPU_xTimerGenericCommand
                                        @ kill: def $r1 killed $r0
.Ltmp505:
	.loc	3 593 30                        @ ../../../CORTEX_MPU_M3_NUCLEO_L152RE_GCC/Demo/TimerDemo.c:593:30
	ldr	r0, [sp, #40]                   @ 4-byte Reload
	ldr	r0, [r0]
	.loc	3 593 9 is_stmt 0               @ ../../../CORTEX_MPU_M3_NUCLEO_L152RE_GCC/Demo/TimerDemo.c:593:9
	bl	MPU_xTimerIsTimerActive
.Ltmp506:
	.loc	3 593 9                         @ ../../../CORTEX_MPU_M3_NUCLEO_L152RE_GCC/Demo/TimerDemo.c:593:9
	cbnz	r0, .LBB11_5
	b	.LBB11_1
.LBB11_1:
.Ltmp507:
	.loc	3 595 26 is_stmt 1              @ ../../../CORTEX_MPU_M3_NUCLEO_L152RE_GCC/Demo/TimerDemo.c:595:26
	movw	r0, :lower16:xTestStatus
	movt	r0, :upper16:xTestStatus
	movs	r1, #0
	str	r1, [r0]
.Ltmp508:
	.loc	3 596 9                         @ ../../../CORTEX_MPU_M3_NUCLEO_L152RE_GCC/Demo/TimerDemo.c:596:9
	ldr	r0, [r0]
.Ltmp509:
	.loc	3 596 9 is_stmt 0               @ ../../../CORTEX_MPU_M3_NUCLEO_L152RE_GCC/Demo/TimerDemo.c:596:9
	cbnz	r0, .LBB11_4
	b	.LBB11_2
.LBB11_2:
.Ltmp510:
	.loc	3 596 9                         @ ../../../CORTEX_MPU_M3_NUCLEO_L152RE_GCC/Demo/TimerDemo.c:596:9
	@APP
	cpsid i
	@NO_APP
	b	.LBB11_3
.LBB11_3:                               @ =>This Inner Loop Header: Depth=1
.Ltmp511:
	.loc	3 596 9                         @ ../../../CORTEX_MPU_M3_NUCLEO_L152RE_GCC/Demo/TimerDemo.c:596:9
	b	.LBB11_3
.Ltmp512:
.LBB11_4:
	.loc	3 597 5 is_stmt 1               @ ../../../CORTEX_MPU_M3_NUCLEO_L152RE_GCC/Demo/TimerDemo.c:597:5
	b	.LBB11_5
.Ltmp513:
.LBB11_5:
	.loc	3 601 5                         @ ../../../CORTEX_MPU_M3_NUCLEO_L152RE_GCC/Demo/TimerDemo.c:601:5
	movw	r0, :lower16:xAutoReloadTimers
	movt	r0, :upper16:xAutoReloadTimers
	str	r0, [sp, #32]                   @ 4-byte Spill
	ldr	r0, [r0, #16]
	str	r0, [sp, #28]                   @ 4-byte Spill
	bl	MPU_xTaskGetTickCount
	mov	r2, r0
	ldr	r0, [sp, #28]                   @ 4-byte Reload
	movs	r3, #0
	str	r3, [sp]
	movs	r1, #1
	bl	MPU_xTimerGenericCommand
                                        @ kill: def $r1 killed $r0
.Ltmp514:
	.loc	3 603 30                        @ ../../../CORTEX_MPU_M3_NUCLEO_L152RE_GCC/Demo/TimerDemo.c:603:30
	ldr	r0, [sp, #32]                   @ 4-byte Reload
	ldr	r0, [r0, #16]
	.loc	3 603 9 is_stmt 0               @ ../../../CORTEX_MPU_M3_NUCLEO_L152RE_GCC/Demo/TimerDemo.c:603:9
	bl	MPU_xTimerIsTimerActive
.Ltmp515:
	.loc	3 603 9                         @ ../../../CORTEX_MPU_M3_NUCLEO_L152RE_GCC/Demo/TimerDemo.c:603:9
	cbnz	r0, .LBB11_10
	b	.LBB11_6
.LBB11_6:
.Ltmp516:
	.loc	3 605 26 is_stmt 1              @ ../../../CORTEX_MPU_M3_NUCLEO_L152RE_GCC/Demo/TimerDemo.c:605:26
	movw	r0, :lower16:xTestStatus
	movt	r0, :upper16:xTestStatus
	movs	r1, #0
	str	r1, [r0]
.Ltmp517:
	.loc	3 606 9                         @ ../../../CORTEX_MPU_M3_NUCLEO_L152RE_GCC/Demo/TimerDemo.c:606:9
	ldr	r0, [r0]
.Ltmp518:
	.loc	3 606 9 is_stmt 0               @ ../../../CORTEX_MPU_M3_NUCLEO_L152RE_GCC/Demo/TimerDemo.c:606:9
	cbnz	r0, .LBB11_9
	b	.LBB11_7
.LBB11_7:
.Ltmp519:
	.loc	3 606 9                         @ ../../../CORTEX_MPU_M3_NUCLEO_L152RE_GCC/Demo/TimerDemo.c:606:9
	@APP
	cpsid i
	@NO_APP
	b	.LBB11_8
.LBB11_8:                               @ =>This Inner Loop Header: Depth=1
.Ltmp520:
	.loc	3 606 9                         @ ../../../CORTEX_MPU_M3_NUCLEO_L152RE_GCC/Demo/TimerDemo.c:606:9
	b	.LBB11_8
.Ltmp521:
.LBB11_9:
	.loc	3 607 5 is_stmt 1               @ ../../../CORTEX_MPU_M3_NUCLEO_L152RE_GCC/Demo/TimerDemo.c:607:5
	b	.LBB11_10
.Ltmp522:
.LBB11_10:
	.loc	3 0 5 is_stmt 0                 @ ../../../CORTEX_MPU_M3_NUCLEO_L152RE_GCC/Demo/TimerDemo.c:0:5
	add	r1, sp, #44
	movs	r0, #0
.Ltmp523:
	.loc	3 609 18 is_stmt 1              @ ../../../CORTEX_MPU_M3_NUCLEO_L152RE_GCC/Demo/TimerDemo.c:609:18
	strb	r0, [r1]
	.loc	3 609 10 is_stmt 0              @ ../../../CORTEX_MPU_M3_NUCLEO_L152RE_GCC/Demo/TimerDemo.c:609:10
	b	.LBB11_11
.LBB11_11:                              @ =>This Inner Loop Header: Depth=1
	.loc	3 0 10                          @ ../../../CORTEX_MPU_M3_NUCLEO_L152RE_GCC/Demo/TimerDemo.c:0:10
	add	r0, sp, #44
.Ltmp524:
	.loc	3 609 23                        @ ../../../CORTEX_MPU_M3_NUCLEO_L152RE_GCC/Demo/TimerDemo.c:609:23
	ldrb	r0, [r0]
.Ltmp525:
	.loc	3 609 5                         @ ../../../CORTEX_MPU_M3_NUCLEO_L152RE_GCC/Demo/TimerDemo.c:609:5
	cmp	r0, #9
	ble	.LBB11_12
	b	.LBB11_36
.LBB11_12:                              @   in Loop: Header=BB11_11 Depth=1
.Ltmp526:
	.loc	3 614 21 is_stmt 1              @ ../../../CORTEX_MPU_M3_NUCLEO_L152RE_GCC/Demo/TimerDemo.c:614:21
	movw	r0, :lower16:xBasePeriod
	movt	r0, :upper16:xBasePeriod
	ldr	r1, [r0]
	movs	r0, #3
	muls	r0, r1, r0
	.loc	3 614 50 is_stmt 0              @ ../../../CORTEX_MPU_M3_NUCLEO_L152RE_GCC/Demo/TimerDemo.c:614:50
	lsrs	r0, r0, #1
	.loc	3 614 9                         @ ../../../CORTEX_MPU_M3_NUCLEO_L152RE_GCC/Demo/TimerDemo.c:614:9
	bl	MPU_vTaskDelay
.Ltmp527:
	.loc	3 618 34 is_stmt 1              @ ../../../CORTEX_MPU_M3_NUCLEO_L152RE_GCC/Demo/TimerDemo.c:618:34
	movw	r0, :lower16:xOneShotTimer
	movt	r0, :upper16:xOneShotTimer
	ldr	r0, [r0]
	.loc	3 618 13 is_stmt 0              @ ../../../CORTEX_MPU_M3_NUCLEO_L152RE_GCC/Demo/TimerDemo.c:618:13
	bl	MPU_xTimerIsTimerActive
.Ltmp528:
	.loc	3 618 13                        @ ../../../CORTEX_MPU_M3_NUCLEO_L152RE_GCC/Demo/TimerDemo.c:618:13
	cbnz	r0, .LBB11_17
	b	.LBB11_13
.LBB11_13:                              @   in Loop: Header=BB11_11 Depth=1
.Ltmp529:
	.loc	3 620 30 is_stmt 1              @ ../../../CORTEX_MPU_M3_NUCLEO_L152RE_GCC/Demo/TimerDemo.c:620:30
	movw	r0, :lower16:xTestStatus
	movt	r0, :upper16:xTestStatus
	movs	r1, #0
	str	r1, [r0]
.Ltmp530:
	.loc	3 621 13                        @ ../../../CORTEX_MPU_M3_NUCLEO_L152RE_GCC/Demo/TimerDemo.c:621:13
	ldr	r0, [r0]
.Ltmp531:
	.loc	3 621 13 is_stmt 0              @ ../../../CORTEX_MPU_M3_NUCLEO_L152RE_GCC/Demo/TimerDemo.c:621:13
	cbnz	r0, .LBB11_16
	b	.LBB11_14
.LBB11_14:
.Ltmp532:
	.loc	3 621 13                        @ ../../../CORTEX_MPU_M3_NUCLEO_L152RE_GCC/Demo/TimerDemo.c:621:13
	@APP
	cpsid i
	@NO_APP
	b	.LBB11_15
.LBB11_15:                              @ =>This Inner Loop Header: Depth=1
.Ltmp533:
	.loc	3 621 13                        @ ../../../CORTEX_MPU_M3_NUCLEO_L152RE_GCC/Demo/TimerDemo.c:621:13
	b	.LBB11_15
.Ltmp534:
.LBB11_16:                              @   in Loop: Header=BB11_11 Depth=1
	.loc	3 622 9 is_stmt 1               @ ../../../CORTEX_MPU_M3_NUCLEO_L152RE_GCC/Demo/TimerDemo.c:622:9
	b	.LBB11_17
.Ltmp535:
.LBB11_17:                              @   in Loop: Header=BB11_11 Depth=1
	.loc	3 624 13                        @ ../../../CORTEX_MPU_M3_NUCLEO_L152RE_GCC/Demo/TimerDemo.c:624:13
	movw	r0, :lower16:ucOneShotTimerCounter
	movt	r0, :upper16:ucOneShotTimerCounter
	ldrb	r0, [r0]
.Ltmp536:
	.loc	3 624 13 is_stmt 0              @ ../../../CORTEX_MPU_M3_NUCLEO_L152RE_GCC/Demo/TimerDemo.c:624:13
	cbz	r0, .LBB11_22
	b	.LBB11_18
.LBB11_18:                              @   in Loop: Header=BB11_11 Depth=1
.Ltmp537:
	.loc	3 626 30 is_stmt 1              @ ../../../CORTEX_MPU_M3_NUCLEO_L152RE_GCC/Demo/TimerDemo.c:626:30
	movw	r0, :lower16:xTestStatus
	movt	r0, :upper16:xTestStatus
	movs	r1, #0
	str	r1, [r0]
.Ltmp538:
	.loc	3 627 13                        @ ../../../CORTEX_MPU_M3_NUCLEO_L152RE_GCC/Demo/TimerDemo.c:627:13
	ldr	r0, [r0]
.Ltmp539:
	.loc	3 627 13 is_stmt 0              @ ../../../CORTEX_MPU_M3_NUCLEO_L152RE_GCC/Demo/TimerDemo.c:627:13
	cbnz	r0, .LBB11_21
	b	.LBB11_19
.LBB11_19:
.Ltmp540:
	.loc	3 627 13                        @ ../../../CORTEX_MPU_M3_NUCLEO_L152RE_GCC/Demo/TimerDemo.c:627:13
	@APP
	cpsid i
	@NO_APP
	b	.LBB11_20
.LBB11_20:                              @ =>This Inner Loop Header: Depth=1
.Ltmp541:
	.loc	3 627 13                        @ ../../../CORTEX_MPU_M3_NUCLEO_L152RE_GCC/Demo/TimerDemo.c:627:13
	b	.LBB11_20
.Ltmp542:
.LBB11_21:                              @   in Loop: Header=BB11_11 Depth=1
	.loc	3 628 9 is_stmt 1               @ ../../../CORTEX_MPU_M3_NUCLEO_L152RE_GCC/Demo/TimerDemo.c:628:9
	b	.LBB11_22
.Ltmp543:
.LBB11_22:                              @   in Loop: Header=BB11_11 Depth=1
	.loc	3 630 34                        @ ../../../CORTEX_MPU_M3_NUCLEO_L152RE_GCC/Demo/TimerDemo.c:630:34
	movw	r0, :lower16:xAutoReloadTimers
	movt	r0, :upper16:xAutoReloadTimers
	ldr	r0, [r0, #16]
	.loc	3 630 13 is_stmt 0              @ ../../../CORTEX_MPU_M3_NUCLEO_L152RE_GCC/Demo/TimerDemo.c:630:13
	bl	MPU_xTimerIsTimerActive
.Ltmp544:
	.loc	3 630 13                        @ ../../../CORTEX_MPU_M3_NUCLEO_L152RE_GCC/Demo/TimerDemo.c:630:13
	cbnz	r0, .LBB11_27
	b	.LBB11_23
.LBB11_23:                              @   in Loop: Header=BB11_11 Depth=1
.Ltmp545:
	.loc	3 632 30 is_stmt 1              @ ../../../CORTEX_MPU_M3_NUCLEO_L152RE_GCC/Demo/TimerDemo.c:632:30
	movw	r0, :lower16:xTestStatus
	movt	r0, :upper16:xTestStatus
	movs	r1, #0
	str	r1, [r0]
.Ltmp546:
	.loc	3 633 13                        @ ../../../CORTEX_MPU_M3_NUCLEO_L152RE_GCC/Demo/TimerDemo.c:633:13
	ldr	r0, [r0]
.Ltmp547:
	.loc	3 633 13 is_stmt 0              @ ../../../CORTEX_MPU_M3_NUCLEO_L152RE_GCC/Demo/TimerDemo.c:633:13
	cbnz	r0, .LBB11_26
	b	.LBB11_24
.LBB11_24:
.Ltmp548:
	.loc	3 633 13                        @ ../../../CORTEX_MPU_M3_NUCLEO_L152RE_GCC/Demo/TimerDemo.c:633:13
	@APP
	cpsid i
	@NO_APP
	b	.LBB11_25
.LBB11_25:                              @ =>This Inner Loop Header: Depth=1
.Ltmp549:
	.loc	3 633 13                        @ ../../../CORTEX_MPU_M3_NUCLEO_L152RE_GCC/Demo/TimerDemo.c:633:13
	b	.LBB11_25
.Ltmp550:
.LBB11_26:                              @   in Loop: Header=BB11_11 Depth=1
	.loc	3 634 9 is_stmt 1               @ ../../../CORTEX_MPU_M3_NUCLEO_L152RE_GCC/Demo/TimerDemo.c:634:9
	b	.LBB11_27
.Ltmp551:
.LBB11_27:                              @   in Loop: Header=BB11_11 Depth=1
	.loc	3 636 13                        @ ../../../CORTEX_MPU_M3_NUCLEO_L152RE_GCC/Demo/TimerDemo.c:636:13
	movw	r0, :lower16:ucAutoReloadTimerCounters
	movt	r0, :upper16:ucAutoReloadTimerCounters
	ldrb	r0, [r0, #4]
.Ltmp552:
	.loc	3 636 13 is_stmt 0              @ ../../../CORTEX_MPU_M3_NUCLEO_L152RE_GCC/Demo/TimerDemo.c:636:13
	cbz	r0, .LBB11_32
	b	.LBB11_28
.LBB11_28:                              @   in Loop: Header=BB11_11 Depth=1
.Ltmp553:
	.loc	3 638 30 is_stmt 1              @ ../../../CORTEX_MPU_M3_NUCLEO_L152RE_GCC/Demo/TimerDemo.c:638:30
	movw	r0, :lower16:xTestStatus
	movt	r0, :upper16:xTestStatus
	movs	r1, #0
	str	r1, [r0]
.Ltmp554:
	.loc	3 639 13                        @ ../../../CORTEX_MPU_M3_NUCLEO_L152RE_GCC/Demo/TimerDemo.c:639:13
	ldr	r0, [r0]
.Ltmp555:
	.loc	3 639 13 is_stmt 0              @ ../../../CORTEX_MPU_M3_NUCLEO_L152RE_GCC/Demo/TimerDemo.c:639:13
	cbnz	r0, .LBB11_31
	b	.LBB11_29
.LBB11_29:
.Ltmp556:
	.loc	3 639 13                        @ ../../../CORTEX_MPU_M3_NUCLEO_L152RE_GCC/Demo/TimerDemo.c:639:13
	@APP
	cpsid i
	@NO_APP
	b	.LBB11_30
.LBB11_30:                              @ =>This Inner Loop Header: Depth=1
.Ltmp557:
	.loc	3 639 13                        @ ../../../CORTEX_MPU_M3_NUCLEO_L152RE_GCC/Demo/TimerDemo.c:639:13
	b	.LBB11_30
.Ltmp558:
.LBB11_31:                              @   in Loop: Header=BB11_11 Depth=1
	.loc	3 640 9 is_stmt 1               @ ../../../CORTEX_MPU_M3_NUCLEO_L152RE_GCC/Demo/TimerDemo.c:640:9
	b	.LBB11_32
.Ltmp559:
.LBB11_32:                              @   in Loop: Header=BB11_11 Depth=1
	.loc	3 643 9                         @ ../../../CORTEX_MPU_M3_NUCLEO_L152RE_GCC/Demo/TimerDemo.c:643:9
	movw	r0, :lower16:xOneShotTimer
	movt	r0, :upper16:xOneShotTimer
	ldr	r0, [r0]
	str	r0, [sp, #12]                   @ 4-byte Spill
	bl	MPU_xTaskGetTickCount
	mov	r2, r0
	ldr	r0, [sp, #12]                   @ 4-byte Reload
	movs	r3, #0
	str	r3, [sp, #20]                   @ 4-byte Spill
	str	r3, [sp]
	movs	r1, #2
	str	r1, [sp, #16]                   @ 4-byte Spill
	bl	MPU_xTimerGenericCommand
	.loc	3 644 9                         @ ../../../CORTEX_MPU_M3_NUCLEO_L152RE_GCC/Demo/TimerDemo.c:644:9
	movw	r0, :lower16:xAutoReloadTimers
	movt	r0, :upper16:xAutoReloadTimers
	ldr	r0, [r0, #16]
	str	r0, [sp, #24]                   @ 4-byte Spill
	bl	MPU_xTaskGetTickCount
	ldr	r1, [sp, #16]                   @ 4-byte Reload
	ldr	r3, [sp, #20]                   @ 4-byte Reload
	mov	r2, r0
	ldr	r0, [sp, #24]                   @ 4-byte Reload
	str	r3, [sp]
	bl	MPU_xTimerGenericCommand
.Ltmp560:
	.loc	3 646 13                        @ ../../../CORTEX_MPU_M3_NUCLEO_L152RE_GCC/Demo/TimerDemo.c:646:13
	movw	r0, :lower16:xTestStatus
	movt	r0, :upper16:xTestStatus
	ldr	r0, [r0]
.Ltmp561:
	.loc	3 646 13 is_stmt 0              @ ../../../CORTEX_MPU_M3_NUCLEO_L152RE_GCC/Demo/TimerDemo.c:646:13
	cmp	r0, #1
	bne	.LBB11_34
	b	.LBB11_33
.LBB11_33:                              @   in Loop: Header=BB11_11 Depth=1
.Ltmp562:
	.loc	3 650 31 is_stmt 1              @ ../../../CORTEX_MPU_M3_NUCLEO_L152RE_GCC/Demo/TimerDemo.c:650:31
	movw	r1, :lower16:ulLoopCounter
	movt	r1, :upper16:ulLoopCounter
	ldr	r0, [r1]
	adds	r0, r0, #1
	str	r0, [r1]
	.loc	3 651 9                         @ ../../../CORTEX_MPU_M3_NUCLEO_L152RE_GCC/Demo/TimerDemo.c:651:9
	b	.LBB11_34
.Ltmp563:
.LBB11_34:                              @   in Loop: Header=BB11_11 Depth=1
	.loc	3 652 5                         @ ../../../CORTEX_MPU_M3_NUCLEO_L152RE_GCC/Demo/TimerDemo.c:652:5
	b	.LBB11_35
.Ltmp564:
.LBB11_35:                              @   in Loop: Header=BB11_11 Depth=1
	.loc	3 609 65                        @ ../../../CORTEX_MPU_M3_NUCLEO_L152RE_GCC/Demo/TimerDemo.c:609:65
	ldr	r0, [sp, #44]
	adds	r0, r0, #1
	add	r1, sp, #44
	strb	r0, [r1]
	.loc	3 609 5 is_stmt 0               @ ../../../CORTEX_MPU_M3_NUCLEO_L152RE_GCC/Demo/TimerDemo.c:609:5
	b	.LBB11_11
.Ltmp565:
.LBB11_36:
	.loc	3 655 63 is_stmt 1              @ ../../../CORTEX_MPU_M3_NUCLEO_L152RE_GCC/Demo/TimerDemo.c:655:63
	movw	r0, :lower16:xBasePeriod
	movt	r0, :upper16:xBasePeriod
	ldr	r1, [r0]
	movs	r0, #5
	.loc	3 655 61 is_stmt 0              @ ../../../CORTEX_MPU_M3_NUCLEO_L152RE_GCC/Demo/TimerDemo.c:655:61
	muls	r0, r1, r0
	.loc	3 655 5                         @ ../../../CORTEX_MPU_M3_NUCLEO_L152RE_GCC/Demo/TimerDemo.c:655:5
	bl	MPU_vTaskDelay
.Ltmp566:
	.loc	3 659 9 is_stmt 1               @ ../../../CORTEX_MPU_M3_NUCLEO_L152RE_GCC/Demo/TimerDemo.c:659:9
	movw	r0, :lower16:ucOneShotTimerCounter
	movt	r0, :upper16:ucOneShotTimerCounter
	ldrb	r0, [r0]
.Ltmp567:
	.loc	3 659 9 is_stmt 0               @ ../../../CORTEX_MPU_M3_NUCLEO_L152RE_GCC/Demo/TimerDemo.c:659:9
	cmp	r0, #1
	beq	.LBB11_41
	b	.LBB11_37
.LBB11_37:
.Ltmp568:
	.loc	3 661 26 is_stmt 1              @ ../../../CORTEX_MPU_M3_NUCLEO_L152RE_GCC/Demo/TimerDemo.c:661:26
	movw	r0, :lower16:xTestStatus
	movt	r0, :upper16:xTestStatus
	movs	r1, #0
	str	r1, [r0]
.Ltmp569:
	.loc	3 662 9                         @ ../../../CORTEX_MPU_M3_NUCLEO_L152RE_GCC/Demo/TimerDemo.c:662:9
	ldr	r0, [r0]
.Ltmp570:
	.loc	3 662 9 is_stmt 0               @ ../../../CORTEX_MPU_M3_NUCLEO_L152RE_GCC/Demo/TimerDemo.c:662:9
	cbnz	r0, .LBB11_40
	b	.LBB11_38
.LBB11_38:
.Ltmp571:
	.loc	3 662 9                         @ ../../../CORTEX_MPU_M3_NUCLEO_L152RE_GCC/Demo/TimerDemo.c:662:9
	@APP
	cpsid i
	@NO_APP
	b	.LBB11_39
.LBB11_39:                              @ =>This Inner Loop Header: Depth=1
.Ltmp572:
	.loc	3 662 9                         @ ../../../CORTEX_MPU_M3_NUCLEO_L152RE_GCC/Demo/TimerDemo.c:662:9
	b	.LBB11_39
.Ltmp573:
.LBB11_40:
	.loc	3 663 5 is_stmt 1               @ ../../../CORTEX_MPU_M3_NUCLEO_L152RE_GCC/Demo/TimerDemo.c:663:5
	b	.LBB11_41
.Ltmp574:
.LBB11_41:
	.loc	3 665 9                         @ ../../../CORTEX_MPU_M3_NUCLEO_L152RE_GCC/Demo/TimerDemo.c:665:9
	movw	r0, :lower16:ucAutoReloadTimerCounters
	movt	r0, :upper16:ucAutoReloadTimerCounters
	ldrb	r0, [r0, #4]
.Ltmp575:
	.loc	3 665 9 is_stmt 0               @ ../../../CORTEX_MPU_M3_NUCLEO_L152RE_GCC/Demo/TimerDemo.c:665:9
	cbnz	r0, .LBB11_46
	b	.LBB11_42
.LBB11_42:
.Ltmp576:
	.loc	3 667 26 is_stmt 1              @ ../../../CORTEX_MPU_M3_NUCLEO_L152RE_GCC/Demo/TimerDemo.c:667:26
	movw	r0, :lower16:xTestStatus
	movt	r0, :upper16:xTestStatus
	movs	r1, #0
	str	r1, [r0]
.Ltmp577:
	.loc	3 668 9                         @ ../../../CORTEX_MPU_M3_NUCLEO_L152RE_GCC/Demo/TimerDemo.c:668:9
	ldr	r0, [r0]
.Ltmp578:
	.loc	3 668 9 is_stmt 0               @ ../../../CORTEX_MPU_M3_NUCLEO_L152RE_GCC/Demo/TimerDemo.c:668:9
	cbnz	r0, .LBB11_45
	b	.LBB11_43
.LBB11_43:
.Ltmp579:
	.loc	3 668 9                         @ ../../../CORTEX_MPU_M3_NUCLEO_L152RE_GCC/Demo/TimerDemo.c:668:9
	@APP
	cpsid i
	@NO_APP
	b	.LBB11_44
.LBB11_44:                              @ =>This Inner Loop Header: Depth=1
.Ltmp580:
	.loc	3 668 9                         @ ../../../CORTEX_MPU_M3_NUCLEO_L152RE_GCC/Demo/TimerDemo.c:668:9
	b	.LBB11_44
.Ltmp581:
.LBB11_45:
	.loc	3 669 5 is_stmt 1               @ ../../../CORTEX_MPU_M3_NUCLEO_L152RE_GCC/Demo/TimerDemo.c:669:5
	b	.LBB11_46
.Ltmp582:
.LBB11_46:
	.loc	3 673 30                        @ ../../../CORTEX_MPU_M3_NUCLEO_L152RE_GCC/Demo/TimerDemo.c:673:30
	movw	r0, :lower16:xAutoReloadTimers
	movt	r0, :upper16:xAutoReloadTimers
	ldr	r0, [r0, #16]
	.loc	3 673 9 is_stmt 0               @ ../../../CORTEX_MPU_M3_NUCLEO_L152RE_GCC/Demo/TimerDemo.c:673:9
	bl	MPU_xTimerIsTimerActive
.Ltmp583:
	.loc	3 673 9                         @ ../../../CORTEX_MPU_M3_NUCLEO_L152RE_GCC/Demo/TimerDemo.c:673:9
	cbnz	r0, .LBB11_51
	b	.LBB11_47
.LBB11_47:
.Ltmp584:
	.loc	3 675 26 is_stmt 1              @ ../../../CORTEX_MPU_M3_NUCLEO_L152RE_GCC/Demo/TimerDemo.c:675:26
	movw	r0, :lower16:xTestStatus
	movt	r0, :upper16:xTestStatus
	movs	r1, #0
	str	r1, [r0]
.Ltmp585:
	.loc	3 676 9                         @ ../../../CORTEX_MPU_M3_NUCLEO_L152RE_GCC/Demo/TimerDemo.c:676:9
	ldr	r0, [r0]
.Ltmp586:
	.loc	3 676 9 is_stmt 0               @ ../../../CORTEX_MPU_M3_NUCLEO_L152RE_GCC/Demo/TimerDemo.c:676:9
	cbnz	r0, .LBB11_50
	b	.LBB11_48
.LBB11_48:
.Ltmp587:
	.loc	3 676 9                         @ ../../../CORTEX_MPU_M3_NUCLEO_L152RE_GCC/Demo/TimerDemo.c:676:9
	@APP
	cpsid i
	@NO_APP
	b	.LBB11_49
.LBB11_49:                              @ =>This Inner Loop Header: Depth=1
.Ltmp588:
	.loc	3 676 9                         @ ../../../CORTEX_MPU_M3_NUCLEO_L152RE_GCC/Demo/TimerDemo.c:676:9
	b	.LBB11_49
.Ltmp589:
.LBB11_50:
	.loc	3 677 5 is_stmt 1               @ ../../../CORTEX_MPU_M3_NUCLEO_L152RE_GCC/Demo/TimerDemo.c:677:5
	b	.LBB11_51
.Ltmp590:
.LBB11_51:
	.loc	3 679 30                        @ ../../../CORTEX_MPU_M3_NUCLEO_L152RE_GCC/Demo/TimerDemo.c:679:30
	movw	r0, :lower16:xOneShotTimer
	movt	r0, :upper16:xOneShotTimer
	ldr	r0, [r0]
	.loc	3 679 9 is_stmt 0               @ ../../../CORTEX_MPU_M3_NUCLEO_L152RE_GCC/Demo/TimerDemo.c:679:9
	bl	MPU_xTimerIsTimerActive
.Ltmp591:
	.loc	3 679 9                         @ ../../../CORTEX_MPU_M3_NUCLEO_L152RE_GCC/Demo/TimerDemo.c:679:9
	cmp	r0, #1
	bne	.LBB11_56
	b	.LBB11_52
.LBB11_52:
.Ltmp592:
	.loc	3 681 26 is_stmt 1              @ ../../../CORTEX_MPU_M3_NUCLEO_L152RE_GCC/Demo/TimerDemo.c:681:26
	movw	r0, :lower16:xTestStatus
	movt	r0, :upper16:xTestStatus
	movs	r1, #0
	str	r1, [r0]
.Ltmp593:
	.loc	3 682 9                         @ ../../../CORTEX_MPU_M3_NUCLEO_L152RE_GCC/Demo/TimerDemo.c:682:9
	ldr	r0, [r0]
.Ltmp594:
	.loc	3 682 9 is_stmt 0               @ ../../../CORTEX_MPU_M3_NUCLEO_L152RE_GCC/Demo/TimerDemo.c:682:9
	cbnz	r0, .LBB11_55
	b	.LBB11_53
.LBB11_53:
.Ltmp595:
	.loc	3 682 9                         @ ../../../CORTEX_MPU_M3_NUCLEO_L152RE_GCC/Demo/TimerDemo.c:682:9
	@APP
	cpsid i
	@NO_APP
	b	.LBB11_54
.LBB11_54:                              @ =>This Inner Loop Header: Depth=1
.Ltmp596:
	.loc	3 682 9                         @ ../../../CORTEX_MPU_M3_NUCLEO_L152RE_GCC/Demo/TimerDemo.c:682:9
	b	.LBB11_54
.Ltmp597:
.LBB11_55:
	.loc	3 683 5 is_stmt 1               @ ../../../CORTEX_MPU_M3_NUCLEO_L152RE_GCC/Demo/TimerDemo.c:683:5
	b	.LBB11_56
.Ltmp598:
.LBB11_56:
	.loc	3 686 5                         @ ../../../CORTEX_MPU_M3_NUCLEO_L152RE_GCC/Demo/TimerDemo.c:686:5
	movw	r0, :lower16:xAutoReloadTimers
	movt	r0, :upper16:xAutoReloadTimers
	str	r0, [sp, #8]                    @ 4-byte Spill
	ldr	r0, [r0, #16]
	movs	r3, #0
	str	r3, [sp]
	movs	r1, #3
	mov	r2, r3
	bl	MPU_xTimerGenericCommand
                                        @ kill: def $r1 killed $r0
.Ltmp599:
	.loc	3 688 30                        @ ../../../CORTEX_MPU_M3_NUCLEO_L152RE_GCC/Demo/TimerDemo.c:688:30
	ldr	r0, [sp, #8]                    @ 4-byte Reload
	ldr	r0, [r0, #16]
	.loc	3 688 9 is_stmt 0               @ ../../../CORTEX_MPU_M3_NUCLEO_L152RE_GCC/Demo/TimerDemo.c:688:9
	bl	MPU_xTimerIsTimerActive
.Ltmp600:
	.loc	3 688 9                         @ ../../../CORTEX_MPU_M3_NUCLEO_L152RE_GCC/Demo/TimerDemo.c:688:9
	cbz	r0, .LBB11_61
	b	.LBB11_57
.LBB11_57:
.Ltmp601:
	.loc	3 690 26 is_stmt 1              @ ../../../CORTEX_MPU_M3_NUCLEO_L152RE_GCC/Demo/TimerDemo.c:690:26
	movw	r0, :lower16:xTestStatus
	movt	r0, :upper16:xTestStatus
	movs	r1, #0
	str	r1, [r0]
.Ltmp602:
	.loc	3 691 9                         @ ../../../CORTEX_MPU_M3_NUCLEO_L152RE_GCC/Demo/TimerDemo.c:691:9
	ldr	r0, [r0]
.Ltmp603:
	.loc	3 691 9 is_stmt 0               @ ../../../CORTEX_MPU_M3_NUCLEO_L152RE_GCC/Demo/TimerDemo.c:691:9
	cbnz	r0, .LBB11_60
	b	.LBB11_58
.LBB11_58:
.Ltmp604:
	.loc	3 691 9                         @ ../../../CORTEX_MPU_M3_NUCLEO_L152RE_GCC/Demo/TimerDemo.c:691:9
	@APP
	cpsid i
	@NO_APP
	b	.LBB11_59
.LBB11_59:                              @ =>This Inner Loop Header: Depth=1
.Ltmp605:
	.loc	3 691 9                         @ ../../../CORTEX_MPU_M3_NUCLEO_L152RE_GCC/Demo/TimerDemo.c:691:9
	b	.LBB11_59
.Ltmp606:
.LBB11_60:
	.loc	3 692 5 is_stmt 1               @ ../../../CORTEX_MPU_M3_NUCLEO_L152RE_GCC/Demo/TimerDemo.c:692:5
	b	.LBB11_61
.Ltmp607:
.LBB11_61:
	.loc	3 696 63                        @ ../../../CORTEX_MPU_M3_NUCLEO_L152RE_GCC/Demo/TimerDemo.c:696:63
	movw	r1, :lower16:ucAutoReloadTimerCounters
	movt	r1, :upper16:ucAutoReloadTimerCounters
	movs	r0, #0
	strb	r0, [r1, #4]
	.loc	3 697 32                        @ ../../../CORTEX_MPU_M3_NUCLEO_L152RE_GCC/Demo/TimerDemo.c:697:32
	movw	r1, :lower16:ucOneShotTimerCounter
	movt	r1, :upper16:ucOneShotTimerCounter
	strb	r0, [r1]
.Ltmp608:
	.loc	3 699 9                         @ ../../../CORTEX_MPU_M3_NUCLEO_L152RE_GCC/Demo/TimerDemo.c:699:9
	movw	r0, :lower16:xTestStatus
	movt	r0, :upper16:xTestStatus
	ldr	r0, [r0]
.Ltmp609:
	.loc	3 699 9 is_stmt 0               @ ../../../CORTEX_MPU_M3_NUCLEO_L152RE_GCC/Demo/TimerDemo.c:699:9
	cmp	r0, #1
	bne	.LBB11_63
	b	.LBB11_62
.LBB11_62:
.Ltmp610:
	.loc	3 703 27 is_stmt 1              @ ../../../CORTEX_MPU_M3_NUCLEO_L152RE_GCC/Demo/TimerDemo.c:703:27
	movw	r1, :lower16:ulLoopCounter
	movt	r1, :upper16:ulLoopCounter
	ldr	r0, [r1]
	adds	r0, r0, #1
	str	r0, [r1]
	.loc	3 704 5                         @ ../../../CORTEX_MPU_M3_NUCLEO_L152RE_GCC/Demo/TimerDemo.c:704:5
	b	.LBB11_63
.Ltmp611:
.LBB11_63:
	.loc	3 705 1                         @ ../../../CORTEX_MPU_M3_NUCLEO_L152RE_GCC/Demo/TimerDemo.c:705:1
	add	sp, #48
	pop	{r7, pc}
.Ltmp612:
.Lfunc_end11:
	.size	prvTest6_CheckAutoReloadResetBehaviour, .Lfunc_end11-prvTest6_CheckAutoReloadResetBehaviour
	.cfi_endproc
	.cantunwind
	.fnend
                                        @ -- End function
	.section	.text.prvTest7_CheckBacklogBehaviour,"ax",%progbits
	.p2align	1                               @ -- Begin function prvTest7_CheckBacklogBehaviour
	.type	prvTest7_CheckBacklogBehaviour,%function
	.code	16                              @ @prvTest7_CheckBacklogBehaviour
	.thumb_func
prvTest7_CheckBacklogBehaviour:
.Lfunc_begin12:
	.loc	3 709 0                         @ ../../../CORTEX_MPU_M3_NUCLEO_L152RE_GCC/Demo/TimerDemo.c:709:0
	.fnstart
	.cfi_startproc
@ %bb.0:
	.save	{r7, lr}
	push	{r7, lr}
	.cfi_def_cfa_offset 8
	.cfi_offset lr, -4
	.cfi_offset r7, -8
	.pad	#56
	sub	sp, #56
	.cfi_def_cfa_offset 64
.Ltmp613:
	.loc	3 716 30 prologue_end           @ ../../../CORTEX_MPU_M3_NUCLEO_L152RE_GCC/Demo/TimerDemo.c:716:30
	movw	r0, :lower16:xAutoReloadTimers
	movt	r0, :upper16:xAutoReloadTimers
	ldr	r0, [r0]
	.loc	3 716 9 is_stmt 0               @ ../../../CORTEX_MPU_M3_NUCLEO_L152RE_GCC/Demo/TimerDemo.c:716:9
	bl	MPU_xTimerIsTimerActive
.Ltmp614:
	.loc	3 716 9                         @ ../../../CORTEX_MPU_M3_NUCLEO_L152RE_GCC/Demo/TimerDemo.c:716:9
	cbz	r0, .LBB12_5
	b	.LBB12_1
.LBB12_1:
.Ltmp615:
	.loc	3 718 26 is_stmt 1              @ ../../../CORTEX_MPU_M3_NUCLEO_L152RE_GCC/Demo/TimerDemo.c:718:26
	movw	r0, :lower16:xTestStatus
	movt	r0, :upper16:xTestStatus
	movs	r1, #0
	str	r1, [r0]
.Ltmp616:
	.loc	3 719 9                         @ ../../../CORTEX_MPU_M3_NUCLEO_L152RE_GCC/Demo/TimerDemo.c:719:9
	ldr	r0, [r0]
.Ltmp617:
	.loc	3 719 9 is_stmt 0               @ ../../../CORTEX_MPU_M3_NUCLEO_L152RE_GCC/Demo/TimerDemo.c:719:9
	cbnz	r0, .LBB12_4
	b	.LBB12_2
.LBB12_2:
.Ltmp618:
	.loc	3 719 9                         @ ../../../CORTEX_MPU_M3_NUCLEO_L152RE_GCC/Demo/TimerDemo.c:719:9
	@APP
	cpsid i
	@NO_APP
	b	.LBB12_3
.LBB12_3:                               @ =>This Inner Loop Header: Depth=1
.Ltmp619:
	.loc	3 719 9                         @ ../../../CORTEX_MPU_M3_NUCLEO_L152RE_GCC/Demo/TimerDemo.c:719:9
	b	.LBB12_3
.Ltmp620:
.LBB12_4:
	.loc	3 720 5 is_stmt 1               @ ../../../CORTEX_MPU_M3_NUCLEO_L152RE_GCC/Demo/TimerDemo.c:720:5
	b	.LBB12_5
.Ltmp621:
.LBB12_5:
	.loc	3 723 39                        @ ../../../CORTEX_MPU_M3_NUCLEO_L152RE_GCC/Demo/TimerDemo.c:723:39
	movw	r0, :lower16:ucIsStopNeededInTimerZeroCallback
	movt	r0, :upper16:ucIsStopNeededInTimerZeroCallback
	movs	r2, #1
	strb	r2, [r0]
	.loc	3 731 5                         @ ../../../CORTEX_MPU_M3_NUCLEO_L152RE_GCC/Demo/TimerDemo.c:731:5
	movw	r0, :lower16:xAutoReloadTimers
	movt	r0, :upper16:xAutoReloadTimers
	str	r0, [sp, #48]                   @ 4-byte Spill
	ldr	r0, [r0]
	movs	r3, #0
	str	r3, [sp]
	movs	r1, #4
	bl	MPU_xTimerGenericCommand
                                        @ kill: def $r1 killed $r0
.Ltmp622:
	.loc	3 734 30                        @ ../../../CORTEX_MPU_M3_NUCLEO_L152RE_GCC/Demo/TimerDemo.c:734:30
	ldr	r0, [sp, #48]                   @ 4-byte Reload
	ldr	r0, [r0]
	.loc	3 734 9 is_stmt 0               @ ../../../CORTEX_MPU_M3_NUCLEO_L152RE_GCC/Demo/TimerDemo.c:734:9
	bl	MPU_xTimerIsTimerActive
.Ltmp623:
	.loc	3 734 9                         @ ../../../CORTEX_MPU_M3_NUCLEO_L152RE_GCC/Demo/TimerDemo.c:734:9
	cbnz	r0, .LBB12_10
	b	.LBB12_6
.LBB12_6:
.Ltmp624:
	.loc	3 736 26 is_stmt 1              @ ../../../CORTEX_MPU_M3_NUCLEO_L152RE_GCC/Demo/TimerDemo.c:736:26
	movw	r0, :lower16:xTestStatus
	movt	r0, :upper16:xTestStatus
	movs	r1, #0
	str	r1, [r0]
.Ltmp625:
	.loc	3 737 9                         @ ../../../CORTEX_MPU_M3_NUCLEO_L152RE_GCC/Demo/TimerDemo.c:737:9
	ldr	r0, [r0]
.Ltmp626:
	.loc	3 737 9 is_stmt 0               @ ../../../CORTEX_MPU_M3_NUCLEO_L152RE_GCC/Demo/TimerDemo.c:737:9
	cbnz	r0, .LBB12_9
	b	.LBB12_7
.LBB12_7:
.Ltmp627:
	.loc	3 737 9                         @ ../../../CORTEX_MPU_M3_NUCLEO_L152RE_GCC/Demo/TimerDemo.c:737:9
	@APP
	cpsid i
	@NO_APP
	b	.LBB12_8
.LBB12_8:                               @ =>This Inner Loop Header: Depth=1
.Ltmp628:
	.loc	3 737 9                         @ ../../../CORTEX_MPU_M3_NUCLEO_L152RE_GCC/Demo/TimerDemo.c:737:9
	b	.LBB12_8
.Ltmp629:
.LBB12_9:
	.loc	3 738 5 is_stmt 1               @ ../../../CORTEX_MPU_M3_NUCLEO_L152RE_GCC/Demo/TimerDemo.c:738:5
	b	.LBB12_10
.Ltmp630:
.LBB12_10:
	.loc	3 0 5 is_stmt 0                 @ ../../../CORTEX_MPU_M3_NUCLEO_L152RE_GCC/Demo/TimerDemo.c:0:5
	movs	r0, #2
	.loc	3 744 5 is_stmt 1               @ ../../../CORTEX_MPU_M3_NUCLEO_L152RE_GCC/Demo/TimerDemo.c:744:5
	bl	xTaskCatchUpTicks
.Ltmp631:
	.loc	3 747 30                        @ ../../../CORTEX_MPU_M3_NUCLEO_L152RE_GCC/Demo/TimerDemo.c:747:30
	movw	r0, :lower16:xAutoReloadTimers
	movt	r0, :upper16:xAutoReloadTimers
	ldr	r0, [r0]
	.loc	3 747 9 is_stmt 0               @ ../../../CORTEX_MPU_M3_NUCLEO_L152RE_GCC/Demo/TimerDemo.c:747:9
	bl	MPU_xTimerIsTimerActive
.Ltmp632:
	.loc	3 747 9                         @ ../../../CORTEX_MPU_M3_NUCLEO_L152RE_GCC/Demo/TimerDemo.c:747:9
	cbz	r0, .LBB12_15
	b	.LBB12_11
.LBB12_11:
.Ltmp633:
	.loc	3 749 26 is_stmt 1              @ ../../../CORTEX_MPU_M3_NUCLEO_L152RE_GCC/Demo/TimerDemo.c:749:26
	movw	r0, :lower16:xTestStatus
	movt	r0, :upper16:xTestStatus
	movs	r1, #0
	str	r1, [r0]
.Ltmp634:
	.loc	3 750 9                         @ ../../../CORTEX_MPU_M3_NUCLEO_L152RE_GCC/Demo/TimerDemo.c:750:9
	ldr	r0, [r0]
.Ltmp635:
	.loc	3 750 9 is_stmt 0               @ ../../../CORTEX_MPU_M3_NUCLEO_L152RE_GCC/Demo/TimerDemo.c:750:9
	cbnz	r0, .LBB12_14
	b	.LBB12_12
.LBB12_12:
.Ltmp636:
	.loc	3 750 9                         @ ../../../CORTEX_MPU_M3_NUCLEO_L152RE_GCC/Demo/TimerDemo.c:750:9
	@APP
	cpsid i
	@NO_APP
	b	.LBB12_13
.LBB12_13:                              @ =>This Inner Loop Header: Depth=1
.Ltmp637:
	.loc	3 750 9                         @ ../../../CORTEX_MPU_M3_NUCLEO_L152RE_GCC/Demo/TimerDemo.c:750:9
	b	.LBB12_13
.Ltmp638:
.LBB12_14:
	.loc	3 751 5 is_stmt 1               @ ../../../CORTEX_MPU_M3_NUCLEO_L152RE_GCC/Demo/TimerDemo.c:751:5
	b	.LBB12_15
.Ltmp639:
.LBB12_15:
	.loc	3 754 5                         @ ../../../CORTEX_MPU_M3_NUCLEO_L152RE_GCC/Demo/TimerDemo.c:754:5
	movw	r0, :lower16:xAutoReloadTimers
	movt	r0, :upper16:xAutoReloadTimers
	str	r0, [sp, #40]                   @ 4-byte Spill
	ldr	r0, [r0]
	movw	r1, :lower16:xBasePeriod
	movt	r1, :upper16:xBasePeriod
	ldr	r2, [r1]
	movs	r3, #0
	str	r3, [sp, #44]                   @ 4-byte Spill
	str	r3, [sp]
	movs	r1, #4
	bl	MPU_xTimerGenericCommand
	ldr	r3, [sp, #44]                   @ 4-byte Reload
                                        @ kill: def $r1 killed $r0
	.loc	3 755 5                         @ ../../../CORTEX_MPU_M3_NUCLEO_L152RE_GCC/Demo/TimerDemo.c:755:5
	ldr	r0, [sp, #40]                   @ 4-byte Reload
	ldr	r0, [r0]
	str	r3, [sp]
	movs	r1, #3
	mov	r2, r3
	bl	MPU_xTimerGenericCommand
                                        @ kill: def $r1 killed $r0
	.loc	3 758 36                        @ ../../../CORTEX_MPU_M3_NUCLEO_L152RE_GCC/Demo/TimerDemo.c:758:36
	ldr	r0, [sp, #44]                   @ 4-byte Reload
	movw	r1, :lower16:ucAutoReloadTimerCounters
	movt	r1, :upper16:ucAutoReloadTimerCounters
	strb	r0, [r1]
.Ltmp640:
	.loc	3 765 30                        @ ../../../CORTEX_MPU_M3_NUCLEO_L152RE_GCC/Demo/TimerDemo.c:765:30
	movw	r0, :lower16:xOneShotTimer
	movt	r0, :upper16:xOneShotTimer
	ldr	r0, [r0]
	.loc	3 765 9 is_stmt 0               @ ../../../CORTEX_MPU_M3_NUCLEO_L152RE_GCC/Demo/TimerDemo.c:765:9
	bl	MPU_xTimerIsTimerActive
.Ltmp641:
	.loc	3 765 9                         @ ../../../CORTEX_MPU_M3_NUCLEO_L152RE_GCC/Demo/TimerDemo.c:765:9
	cbz	r0, .LBB12_20
	b	.LBB12_16
.LBB12_16:
.Ltmp642:
	.loc	3 767 26 is_stmt 1              @ ../../../CORTEX_MPU_M3_NUCLEO_L152RE_GCC/Demo/TimerDemo.c:767:26
	movw	r0, :lower16:xTestStatus
	movt	r0, :upper16:xTestStatus
	movs	r1, #0
	str	r1, [r0]
.Ltmp643:
	.loc	3 768 9                         @ ../../../CORTEX_MPU_M3_NUCLEO_L152RE_GCC/Demo/TimerDemo.c:768:9
	ldr	r0, [r0]
.Ltmp644:
	.loc	3 768 9 is_stmt 0               @ ../../../CORTEX_MPU_M3_NUCLEO_L152RE_GCC/Demo/TimerDemo.c:768:9
	cbnz	r0, .LBB12_19
	b	.LBB12_17
.LBB12_17:
.Ltmp645:
	.loc	3 768 9                         @ ../../../CORTEX_MPU_M3_NUCLEO_L152RE_GCC/Demo/TimerDemo.c:768:9
	@APP
	cpsid i
	@NO_APP
	b	.LBB12_18
.LBB12_18:                              @ =>This Inner Loop Header: Depth=1
.Ltmp646:
	.loc	3 768 9                         @ ../../../CORTEX_MPU_M3_NUCLEO_L152RE_GCC/Demo/TimerDemo.c:768:9
	b	.LBB12_18
.Ltmp647:
.LBB12_19:
	.loc	3 769 5 is_stmt 1               @ ../../../CORTEX_MPU_M3_NUCLEO_L152RE_GCC/Demo/TimerDemo.c:769:5
	b	.LBB12_20
.Ltmp648:
.LBB12_20:
	.loc	3 774 5                         @ ../../../CORTEX_MPU_M3_NUCLEO_L152RE_GCC/Demo/TimerDemo.c:774:5
	movw	r0, :lower16:xOneShotTimer
	movt	r0, :upper16:xOneShotTimer
	str	r0, [sp, #36]                   @ 4-byte Spill
	ldr	r0, [r0]
	movs	r3, #0
	str	r3, [sp, #32]                   @ 4-byte Spill
	str	r3, [sp]
	movs	r1, #4
	str	r1, [sp, #20]                   @ 4-byte Spill
	movs	r2, #1
	str	r2, [sp, #28]                   @ 4-byte Spill
	bl	MPU_xTimerGenericCommand
                                        @ kill: def $r1 killed $r0
	.loc	3 778 26                        @ ../../../CORTEX_MPU_M3_NUCLEO_L152RE_GCC/Demo/TimerDemo.c:778:26
	ldr	r0, [sp, #32]                   @ 4-byte Reload
	bl	MPU_uxTaskPriorityGet
	ldr	r1, [sp, #20]                   @ 4-byte Reload
	mov	r2, r0
	.loc	3 778 24 is_stmt 0              @ ../../../CORTEX_MPU_M3_NUCLEO_L152RE_GCC/Demo/TimerDemo.c:778:24
	ldr	r0, [sp, #32]                   @ 4-byte Reload
	str	r2, [sp, #52]
	.loc	3 779 5 is_stmt 1               @ ../../../CORTEX_MPU_M3_NUCLEO_L152RE_GCC/Demo/TimerDemo.c:779:5
	bl	MPU_vTaskPrioritySet
	ldr	r0, [sp, #36]                   @ 4-byte Reload
	.loc	3 783 5                         @ ../../../CORTEX_MPU_M3_NUCLEO_L152RE_GCC/Demo/TimerDemo.c:783:5
	ldr	r0, [r0]
	str	r0, [sp, #24]                   @ 4-byte Spill
	bl	MPU_xTaskGetTickCount
	ldr	r3, [sp, #32]                   @ 4-byte Reload
	mov	r2, r0
	ldr	r0, [sp, #24]                   @ 4-byte Reload
	str	r3, [sp]
	movs	r1, #2
	bl	MPU_xTimerGenericCommand
                                        @ kill: def $r1 killed $r0
	.loc	3 787 5                         @ ../../../CORTEX_MPU_M3_NUCLEO_L152RE_GCC/Demo/TimerDemo.c:787:5
	ldr	r0, [sp, #28]                   @ 4-byte Reload
	bl	xTaskCatchUpTicks
                                        @ kill: def $r1 killed $r0
	.loc	3 793 29                        @ ../../../CORTEX_MPU_M3_NUCLEO_L152RE_GCC/Demo/TimerDemo.c:793:29
	ldr	r0, [sp, #32]                   @ 4-byte Reload
	ldr	r1, [sp, #52]
	.loc	3 793 5 is_stmt 0               @ ../../../CORTEX_MPU_M3_NUCLEO_L152RE_GCC/Demo/TimerDemo.c:793:5
	bl	MPU_vTaskPrioritySet
	ldr	r0, [sp, #36]                   @ 4-byte Reload
.Ltmp649:
	.loc	3 796 30 is_stmt 1              @ ../../../CORTEX_MPU_M3_NUCLEO_L152RE_GCC/Demo/TimerDemo.c:796:30
	ldr	r0, [r0]
	.loc	3 796 9 is_stmt 0               @ ../../../CORTEX_MPU_M3_NUCLEO_L152RE_GCC/Demo/TimerDemo.c:796:9
	bl	MPU_xTimerIsTimerActive
.Ltmp650:
	.loc	3 796 9                         @ ../../../CORTEX_MPU_M3_NUCLEO_L152RE_GCC/Demo/TimerDemo.c:796:9
	cbz	r0, .LBB12_25
	b	.LBB12_21
.LBB12_21:
.Ltmp651:
	.loc	3 798 26 is_stmt 1              @ ../../../CORTEX_MPU_M3_NUCLEO_L152RE_GCC/Demo/TimerDemo.c:798:26
	movw	r0, :lower16:xTestStatus
	movt	r0, :upper16:xTestStatus
	movs	r1, #0
	str	r1, [r0]
.Ltmp652:
	.loc	3 799 9                         @ ../../../CORTEX_MPU_M3_NUCLEO_L152RE_GCC/Demo/TimerDemo.c:799:9
	ldr	r0, [r0]
.Ltmp653:
	.loc	3 799 9 is_stmt 0               @ ../../../CORTEX_MPU_M3_NUCLEO_L152RE_GCC/Demo/TimerDemo.c:799:9
	cbnz	r0, .LBB12_24
	b	.LBB12_22
.LBB12_22:
.Ltmp654:
	.loc	3 799 9                         @ ../../../CORTEX_MPU_M3_NUCLEO_L152RE_GCC/Demo/TimerDemo.c:799:9
	@APP
	cpsid i
	@NO_APP
	b	.LBB12_23
.LBB12_23:                              @ =>This Inner Loop Header: Depth=1
.Ltmp655:
	.loc	3 799 9                         @ ../../../CORTEX_MPU_M3_NUCLEO_L152RE_GCC/Demo/TimerDemo.c:799:9
	b	.LBB12_23
.Ltmp656:
.LBB12_24:
	.loc	3 800 5 is_stmt 1               @ ../../../CORTEX_MPU_M3_NUCLEO_L152RE_GCC/Demo/TimerDemo.c:800:5
	b	.LBB12_25
.Ltmp657:
.LBB12_25:
	.loc	3 803 5                         @ ../../../CORTEX_MPU_M3_NUCLEO_L152RE_GCC/Demo/TimerDemo.c:803:5
	movw	r0, :lower16:xOneShotTimer
	movt	r0, :upper16:xOneShotTimer
	str	r0, [sp, #12]                   @ 4-byte Spill
	ldr	r0, [r0]
	movw	r1, :lower16:xBasePeriod
	movt	r1, :upper16:xBasePeriod
	ldr	r1, [r1]
	movs	r2, #3
	str	r2, [sp, #8]                    @ 4-byte Spill
	muls	r2, r1, r2
	movs	r3, #0
	str	r3, [sp, #16]                   @ 4-byte Spill
	str	r3, [sp]
	movs	r1, #4
	bl	MPU_xTimerGenericCommand
	ldr	r1, [sp, #8]                    @ 4-byte Reload
	ldr	r3, [sp, #16]                   @ 4-byte Reload
                                        @ kill: def $r2 killed $r0
	.loc	3 804 5                         @ ../../../CORTEX_MPU_M3_NUCLEO_L152RE_GCC/Demo/TimerDemo.c:804:5
	ldr	r0, [sp, #12]                   @ 4-byte Reload
	ldr	r0, [r0]
	str	r3, [sp]
	mov	r2, r3
	bl	MPU_xTimerGenericCommand
                                        @ kill: def $r1 killed $r0
	.loc	3 807 32                        @ ../../../CORTEX_MPU_M3_NUCLEO_L152RE_GCC/Demo/TimerDemo.c:807:32
	ldr	r0, [sp, #16]                   @ 4-byte Reload
	movw	r1, :lower16:ucOneShotTimerCounter
	movt	r1, :upper16:ucOneShotTimerCounter
	strb	r0, [r1]
.Ltmp658:
	.loc	3 809 9                         @ ../../../CORTEX_MPU_M3_NUCLEO_L152RE_GCC/Demo/TimerDemo.c:809:9
	movw	r0, :lower16:xTestStatus
	movt	r0, :upper16:xTestStatus
	ldr	r0, [r0]
.Ltmp659:
	.loc	3 809 9 is_stmt 0               @ ../../../CORTEX_MPU_M3_NUCLEO_L152RE_GCC/Demo/TimerDemo.c:809:9
	cmp	r0, #1
	bne	.LBB12_27
	b	.LBB12_26
.LBB12_26:
.Ltmp660:
	.loc	3 813 27 is_stmt 1              @ ../../../CORTEX_MPU_M3_NUCLEO_L152RE_GCC/Demo/TimerDemo.c:813:27
	movw	r1, :lower16:ulLoopCounter
	movt	r1, :upper16:ulLoopCounter
	ldr	r0, [r1]
	adds	r0, r0, #1
	str	r0, [r1]
	.loc	3 814 5                         @ ../../../CORTEX_MPU_M3_NUCLEO_L152RE_GCC/Demo/TimerDemo.c:814:5
	b	.LBB12_27
.Ltmp661:
.LBB12_27:
	.loc	3 815 1                         @ ../../../CORTEX_MPU_M3_NUCLEO_L152RE_GCC/Demo/TimerDemo.c:815:1
	add	sp, #56
	pop	{r7, pc}
.Ltmp662:
.Lfunc_end12:
	.size	prvTest7_CheckBacklogBehaviour, .Lfunc_end12-prvTest7_CheckBacklogBehaviour
	.cfi_endproc
	.cantunwind
	.fnend
                                        @ -- End function
	.section	.text.prvResetStartConditionsForNextIteration,"ax",%progbits
	.p2align	1                               @ -- Begin function prvResetStartConditionsForNextIteration
	.type	prvResetStartConditionsForNextIteration,%function
	.code	16                              @ @prvResetStartConditionsForNextIteration
	.thumb_func
prvResetStartConditionsForNextIteration:
.Lfunc_begin13:
	.loc	3 819 0                         @ ../../../CORTEX_MPU_M3_NUCLEO_L152RE_GCC/Demo/TimerDemo.c:819:0
	.fnstart
	.cfi_startproc
@ %bb.0:
	.save	{r7, lr}
	push	{r7, lr}
	.cfi_def_cfa_offset 8
	.cfi_offset lr, -4
	.cfi_offset r7, -8
	.pad	#24
	sub	sp, #24
	.cfi_def_cfa_offset 32
	add	r1, sp, #20
	movs	r0, #0
.Ltmp663:
	.loc	3 825 18 prologue_end           @ ../../../CORTEX_MPU_M3_NUCLEO_L152RE_GCC/Demo/TimerDemo.c:825:18
	strb	r0, [r1]
	.loc	3 825 10 is_stmt 0              @ ../../../CORTEX_MPU_M3_NUCLEO_L152RE_GCC/Demo/TimerDemo.c:825:10
	b	.LBB13_1
.LBB13_1:                               @ =>This Inner Loop Header: Depth=1
	.loc	3 0 10                          @ ../../../CORTEX_MPU_M3_NUCLEO_L152RE_GCC/Demo/TimerDemo.c:0:10
	add	r0, sp, #20
.Ltmp664:
	.loc	3 825 23                        @ ../../../CORTEX_MPU_M3_NUCLEO_L152RE_GCC/Demo/TimerDemo.c:825:23
	ldrb	r0, [r0]
.Ltmp665:
	.loc	3 825 5                         @ ../../../CORTEX_MPU_M3_NUCLEO_L152RE_GCC/Demo/TimerDemo.c:825:5
	cmp	r0, #4
	bgt	.LBB13_14
	b	.LBB13_2
.LBB13_2:                               @   in Loop: Header=BB13_1 Depth=1
	.loc	3 0 5                           @ ../../../CORTEX_MPU_M3_NUCLEO_L152RE_GCC/Demo/TimerDemo.c:0:5
	add	r0, sp, #20
.Ltmp666:
	.loc	3 828 53 is_stmt 1              @ ../../../CORTEX_MPU_M3_NUCLEO_L152RE_GCC/Demo/TimerDemo.c:828:53
	ldrb	r0, [r0]
	.loc	3 828 34 is_stmt 0              @ ../../../CORTEX_MPU_M3_NUCLEO_L152RE_GCC/Demo/TimerDemo.c:828:34
	lsls	r1, r0, #2
	movw	r0, :lower16:xAutoReloadTimers
	movt	r0, :upper16:xAutoReloadTimers
	ldr	r0, [r0, r1]
	.loc	3 828 13                        @ ../../../CORTEX_MPU_M3_NUCLEO_L152RE_GCC/Demo/TimerDemo.c:828:13
	bl	MPU_xTimerIsTimerActive
.Ltmp667:
	.loc	3 828 13                        @ ../../../CORTEX_MPU_M3_NUCLEO_L152RE_GCC/Demo/TimerDemo.c:828:13
	cbz	r0, .LBB13_7
	b	.LBB13_3
.LBB13_3:                               @   in Loop: Header=BB13_1 Depth=1
.Ltmp668:
	.loc	3 830 30 is_stmt 1              @ ../../../CORTEX_MPU_M3_NUCLEO_L152RE_GCC/Demo/TimerDemo.c:830:30
	movw	r0, :lower16:xTestStatus
	movt	r0, :upper16:xTestStatus
	movs	r1, #0
	str	r1, [r0]
.Ltmp669:
	.loc	3 831 13                        @ ../../../CORTEX_MPU_M3_NUCLEO_L152RE_GCC/Demo/TimerDemo.c:831:13
	ldr	r0, [r0]
.Ltmp670:
	.loc	3 831 13 is_stmt 0              @ ../../../CORTEX_MPU_M3_NUCLEO_L152RE_GCC/Demo/TimerDemo.c:831:13
	cbnz	r0, .LBB13_6
	b	.LBB13_4
.LBB13_4:
.Ltmp671:
	.loc	3 831 13                        @ ../../../CORTEX_MPU_M3_NUCLEO_L152RE_GCC/Demo/TimerDemo.c:831:13
	@APP
	cpsid i
	@NO_APP
	b	.LBB13_5
.LBB13_5:                               @ =>This Inner Loop Header: Depth=1
.Ltmp672:
	.loc	3 831 13                        @ ../../../CORTEX_MPU_M3_NUCLEO_L152RE_GCC/Demo/TimerDemo.c:831:13
	b	.LBB13_5
.Ltmp673:
.LBB13_6:                               @   in Loop: Header=BB13_1 Depth=1
	.loc	3 832 9 is_stmt 1               @ ../../../CORTEX_MPU_M3_NUCLEO_L152RE_GCC/Demo/TimerDemo.c:832:9
	b	.LBB13_7
.Ltmp674:
.LBB13_7:                               @   in Loop: Header=BB13_1 Depth=1
	.loc	3 0 9 is_stmt 0                 @ ../../../CORTEX_MPU_M3_NUCLEO_L152RE_GCC/Demo/TimerDemo.c:0:9
	add	r0, sp, #20
	.loc	3 837 9 is_stmt 1               @ ../../../CORTEX_MPU_M3_NUCLEO_L152RE_GCC/Demo/TimerDemo.c:837:9
	str	r0, [sp, #12]                   @ 4-byte Spill
	ldrb	r0, [r0]
	lsls	r1, r0, #2
	movw	r0, :lower16:xAutoReloadTimers
	movt	r0, :upper16:xAutoReloadTimers
	str	r0, [sp, #16]                   @ 4-byte Spill
	ldr	r0, [r0, r1]
	str	r0, [sp, #8]                    @ 4-byte Spill
	bl	MPU_xTaskGetTickCount
	mov	r2, r0
	ldr	r0, [sp, #8]                    @ 4-byte Reload
	movs	r3, #0
	str	r3, [sp]
	movs	r1, #1
	bl	MPU_xTimerGenericCommand
	ldr	r1, [sp, #12]                   @ 4-byte Reload
                                        @ kill: def $r2 killed $r0
.Ltmp675:
	.loc	3 840 53                        @ ../../../CORTEX_MPU_M3_NUCLEO_L152RE_GCC/Demo/TimerDemo.c:840:53
	ldr	r0, [sp, #16]                   @ 4-byte Reload
	ldrb	r1, [r1]
	.loc	3 840 34 is_stmt 0              @ ../../../CORTEX_MPU_M3_NUCLEO_L152RE_GCC/Demo/TimerDemo.c:840:34
	lsls	r1, r1, #2
	ldr	r0, [r0, r1]
	.loc	3 840 13                        @ ../../../CORTEX_MPU_M3_NUCLEO_L152RE_GCC/Demo/TimerDemo.c:840:13
	bl	MPU_xTimerIsTimerActive
.Ltmp676:
	.loc	3 840 13                        @ ../../../CORTEX_MPU_M3_NUCLEO_L152RE_GCC/Demo/TimerDemo.c:840:13
	cbnz	r0, .LBB13_12
	b	.LBB13_8
.LBB13_8:                               @   in Loop: Header=BB13_1 Depth=1
.Ltmp677:
	.loc	3 842 30 is_stmt 1              @ ../../../CORTEX_MPU_M3_NUCLEO_L152RE_GCC/Demo/TimerDemo.c:842:30
	movw	r0, :lower16:xTestStatus
	movt	r0, :upper16:xTestStatus
	movs	r1, #0
	str	r1, [r0]
.Ltmp678:
	.loc	3 843 13                        @ ../../../CORTEX_MPU_M3_NUCLEO_L152RE_GCC/Demo/TimerDemo.c:843:13
	ldr	r0, [r0]
.Ltmp679:
	.loc	3 843 13 is_stmt 0              @ ../../../CORTEX_MPU_M3_NUCLEO_L152RE_GCC/Demo/TimerDemo.c:843:13
	cbnz	r0, .LBB13_11
	b	.LBB13_9
.LBB13_9:
.Ltmp680:
	.loc	3 843 13                        @ ../../../CORTEX_MPU_M3_NUCLEO_L152RE_GCC/Demo/TimerDemo.c:843:13
	@APP
	cpsid i
	@NO_APP
	b	.LBB13_10
.LBB13_10:                              @ =>This Inner Loop Header: Depth=1
.Ltmp681:
	.loc	3 843 13                        @ ../../../CORTEX_MPU_M3_NUCLEO_L152RE_GCC/Demo/TimerDemo.c:843:13
	b	.LBB13_10
.Ltmp682:
.LBB13_11:                              @   in Loop: Header=BB13_1 Depth=1
	.loc	3 844 9 is_stmt 1               @ ../../../CORTEX_MPU_M3_NUCLEO_L152RE_GCC/Demo/TimerDemo.c:844:9
	b	.LBB13_12
.Ltmp683:
.LBB13_12:                              @   in Loop: Header=BB13_1 Depth=1
	.loc	3 845 5                         @ ../../../CORTEX_MPU_M3_NUCLEO_L152RE_GCC/Demo/TimerDemo.c:845:5
	b	.LBB13_13
.Ltmp684:
.LBB13_13:                              @   in Loop: Header=BB13_1 Depth=1
	.loc	3 825 78                        @ ../../../CORTEX_MPU_M3_NUCLEO_L152RE_GCC/Demo/TimerDemo.c:825:78
	ldr	r0, [sp, #20]
	adds	r0, r0, #1
	add	r1, sp, #20
	strb	r0, [r1]
	.loc	3 825 5 is_stmt 0               @ ../../../CORTEX_MPU_M3_NUCLEO_L152RE_GCC/Demo/TimerDemo.c:825:5
	b	.LBB13_1
.Ltmp685:
.LBB13_14:
	.loc	3 847 9 is_stmt 1               @ ../../../CORTEX_MPU_M3_NUCLEO_L152RE_GCC/Demo/TimerDemo.c:847:9
	movw	r0, :lower16:xTestStatus
	movt	r0, :upper16:xTestStatus
	ldr	r0, [r0]
.Ltmp686:
	.loc	3 847 9 is_stmt 0               @ ../../../CORTEX_MPU_M3_NUCLEO_L152RE_GCC/Demo/TimerDemo.c:847:9
	cmp	r0, #1
	bne	.LBB13_16
	b	.LBB13_15
.LBB13_15:
.Ltmp687:
	.loc	3 851 27 is_stmt 1              @ ../../../CORTEX_MPU_M3_NUCLEO_L152RE_GCC/Demo/TimerDemo.c:851:27
	movw	r1, :lower16:ulLoopCounter
	movt	r1, :upper16:ulLoopCounter
	ldr	r0, [r1]
	adds	r0, r0, #1
	str	r0, [r1]
	.loc	3 852 5                         @ ../../../CORTEX_MPU_M3_NUCLEO_L152RE_GCC/Demo/TimerDemo.c:852:5
	b	.LBB13_16
.Ltmp688:
.LBB13_16:
	.loc	3 853 1                         @ ../../../CORTEX_MPU_M3_NUCLEO_L152RE_GCC/Demo/TimerDemo.c:853:1
	add	sp, #24
	pop	{r7, pc}
.Ltmp689:
.Lfunc_end13:
	.size	prvResetStartConditionsForNextIteration, .Lfunc_end13-prvResetStartConditionsForNextIteration
	.cfi_endproc
	.cantunwind
	.fnend
                                        @ -- End function
	.section	.text.prvAutoReloadTimerCallback,"ax",%progbits
	.p2align	1                               @ -- Begin function prvAutoReloadTimerCallback
	.type	prvAutoReloadTimerCallback,%function
	.code	16                              @ @prvAutoReloadTimerCallback
	.thumb_func
prvAutoReloadTimerCallback:
.Lfunc_begin14:
	.loc	3 1174 0                        @ ../../../CORTEX_MPU_M3_NUCLEO_L152RE_GCC/Demo/TimerDemo.c:1174:0
	.fnstart
	.cfi_startproc
@ %bb.0:
	.save	{r7, lr}
	push	{r7, lr}
	.cfi_def_cfa_offset 8
	.cfi_offset lr, -4
	.cfi_offset r7, -8
	.pad	#16
	sub	sp, #16
	.cfi_def_cfa_offset 24
	str	r0, [sp, #12]
.Ltmp690:
	.loc	3 1177 47 prologue_end          @ ../../../CORTEX_MPU_M3_NUCLEO_L152RE_GCC/Demo/TimerDemo.c:1177:47
	ldr	r0, [sp, #12]
	.loc	3 1177 28 is_stmt 0             @ ../../../CORTEX_MPU_M3_NUCLEO_L152RE_GCC/Demo/TimerDemo.c:1177:28
	bl	MPU_pvTimerGetTimerID
	.loc	3 1177 15                       @ ../../../CORTEX_MPU_M3_NUCLEO_L152RE_GCC/Demo/TimerDemo.c:1177:15
	str	r0, [sp, #8]
.Ltmp691:
	.loc	3 1179 9 is_stmt 1              @ ../../../CORTEX_MPU_M3_NUCLEO_L152RE_GCC/Demo/TimerDemo.c:1179:9
	ldr	r0, [sp, #8]
.Ltmp692:
	.loc	3 1179 9 is_stmt 0              @ ../../../CORTEX_MPU_M3_NUCLEO_L152RE_GCC/Demo/TimerDemo.c:1179:9
	cmp	r0, #6
	bhi	.LBB14_5
	b	.LBB14_1
.LBB14_1:
.Ltmp693:
	.loc	3 1181 38 is_stmt 1             @ ../../../CORTEX_MPU_M3_NUCLEO_L152RE_GCC/Demo/TimerDemo.c:1181:38
	ldr	r2, [sp, #8]
	.loc	3 1181 11 is_stmt 0             @ ../../../CORTEX_MPU_M3_NUCLEO_L152RE_GCC/Demo/TimerDemo.c:1181:11
	movw	r1, :lower16:ucAutoReloadTimerCounters
	movt	r1, :upper16:ucAutoReloadTimerCounters
	.loc	3 1181 51                       @ ../../../CORTEX_MPU_M3_NUCLEO_L152RE_GCC/Demo/TimerDemo.c:1181:51
	ldrb	r0, [r1, r2]
	adds	r0, r0, #1
	strb	r0, [r1, r2]
.Ltmp694:
	.loc	3 1184 15 is_stmt 1             @ ../../../CORTEX_MPU_M3_NUCLEO_L152RE_GCC/Demo/TimerDemo.c:1184:15
	ldr	r0, [sp, #8]
	.loc	3 1184 43 is_stmt 0             @ ../../../CORTEX_MPU_M3_NUCLEO_L152RE_GCC/Demo/TimerDemo.c:1184:43
	cbnz	r0, .LBB14_4
	b	.LBB14_2
.LBB14_2:
	.loc	3 1184 48                       @ ../../../CORTEX_MPU_M3_NUCLEO_L152RE_GCC/Demo/TimerDemo.c:1184:48
	movw	r0, :lower16:ucIsStopNeededInTimerZeroCallback
	movt	r0, :upper16:ucIsStopNeededInTimerZeroCallback
	ldrb	r0, [r0]
.Ltmp695:
	.loc	3 1184 13                       @ ../../../CORTEX_MPU_M3_NUCLEO_L152RE_GCC/Demo/TimerDemo.c:1184:13
	cmp	r0, #1
	bne	.LBB14_4
	b	.LBB14_3
.LBB14_3:
.Ltmp696:
	.loc	3 1186 13 is_stmt 1             @ ../../../CORTEX_MPU_M3_NUCLEO_L152RE_GCC/Demo/TimerDemo.c:1186:13
	ldr	r0, [sp, #12]
	movs	r3, #0
	str	r3, [sp, #4]                    @ 4-byte Spill
	str	r3, [sp]
	movs	r1, #3
	mov	r2, r3
	bl	MPU_xTimerGenericCommand
                                        @ kill: def $r1 killed $r0
	.loc	3 1187 47                       @ ../../../CORTEX_MPU_M3_NUCLEO_L152RE_GCC/Demo/TimerDemo.c:1187:47
	ldr	r0, [sp, #4]                    @ 4-byte Reload
	movw	r1, :lower16:ucIsStopNeededInTimerZeroCallback
	movt	r1, :upper16:ucIsStopNeededInTimerZeroCallback
	strb	r0, [r1]
	.loc	3 1188 9                        @ ../../../CORTEX_MPU_M3_NUCLEO_L152RE_GCC/Demo/TimerDemo.c:1188:9
	b	.LBB14_4
.Ltmp697:
.LBB14_4:
	.loc	3 1189 5                        @ ../../../CORTEX_MPU_M3_NUCLEO_L152RE_GCC/Demo/TimerDemo.c:1189:5
	b	.LBB14_9
.Ltmp698:
.LBB14_5:
	.loc	3 1193 26                       @ ../../../CORTEX_MPU_M3_NUCLEO_L152RE_GCC/Demo/TimerDemo.c:1193:26
	movw	r0, :lower16:xTestStatus
	movt	r0, :upper16:xTestStatus
	movs	r1, #0
	str	r1, [r0]
.Ltmp699:
	.loc	3 1194 9                        @ ../../../CORTEX_MPU_M3_NUCLEO_L152RE_GCC/Demo/TimerDemo.c:1194:9
	ldr	r0, [r0]
.Ltmp700:
	.loc	3 1194 9 is_stmt 0              @ ../../../CORTEX_MPU_M3_NUCLEO_L152RE_GCC/Demo/TimerDemo.c:1194:9
	cbnz	r0, .LBB14_8
	b	.LBB14_6
.LBB14_6:
.Ltmp701:
	.loc	3 1194 9                        @ ../../../CORTEX_MPU_M3_NUCLEO_L152RE_GCC/Demo/TimerDemo.c:1194:9
	@APP
	cpsid i
	@NO_APP
	b	.LBB14_7
.LBB14_7:                               @ =>This Inner Loop Header: Depth=1
.Ltmp702:
	.loc	3 1194 9                        @ ../../../CORTEX_MPU_M3_NUCLEO_L152RE_GCC/Demo/TimerDemo.c:1194:9
	b	.LBB14_7
.Ltmp703:
.LBB14_8:
	.loc	3 0 9                           @ ../../../CORTEX_MPU_M3_NUCLEO_L152RE_GCC/Demo/TimerDemo.c:0:9
	b	.LBB14_9
.LBB14_9:
	.loc	3 1196 1 is_stmt 1              @ ../../../CORTEX_MPU_M3_NUCLEO_L152RE_GCC/Demo/TimerDemo.c:1196:1
	add	sp, #16
	pop	{r7, pc}
.Ltmp704:
.Lfunc_end14:
	.size	prvAutoReloadTimerCallback, .Lfunc_end14-prvAutoReloadTimerCallback
	.cfi_endproc
	.cantunwind
	.fnend
                                        @ -- End function
	.section	.text.prvISRAutoReloadTimerCallback,"ax",%progbits
	.p2align	1                               @ -- Begin function prvISRAutoReloadTimerCallback
	.type	prvISRAutoReloadTimerCallback,%function
	.code	16                              @ @prvISRAutoReloadTimerCallback
	.thumb_func
prvISRAutoReloadTimerCallback:
.Lfunc_begin15:
	.loc	3 1223 0                        @ ../../../CORTEX_MPU_M3_NUCLEO_L152RE_GCC/Demo/TimerDemo.c:1223:0
	.fnstart
	.cfi_startproc
@ %bb.0:
	.pad	#4
	sub	sp, #4
	.cfi_def_cfa_offset 4
	str	r0, [sp]
.Ltmp705:
	.loc	3 1228 32 prologue_end          @ ../../../CORTEX_MPU_M3_NUCLEO_L152RE_GCC/Demo/TimerDemo.c:1228:32
	movw	r1, :lower16:ucISRAutoReloadTimerCounter
	movt	r1, :upper16:ucISRAutoReloadTimerCounter
	ldrb	r0, [r1]
	adds	r0, r0, #1
	strb	r0, [r1]
	.loc	3 1229 1                        @ ../../../CORTEX_MPU_M3_NUCLEO_L152RE_GCC/Demo/TimerDemo.c:1229:1
	add	sp, #4
	bx	lr
.Ltmp706:
.Lfunc_end15:
	.size	prvISRAutoReloadTimerCallback, .Lfunc_end15-prvISRAutoReloadTimerCallback
	.cfi_endproc
	.cantunwind
	.fnend
                                        @ -- End function
	.section	.text.prvISROneShotTimerCallback,"ax",%progbits
	.p2align	1                               @ -- Begin function prvISROneShotTimerCallback
	.type	prvISROneShotTimerCallback,%function
	.code	16                              @ @prvISROneShotTimerCallback
	.thumb_func
prvISROneShotTimerCallback:
.Lfunc_begin16:
	.loc	3 1233 0                        @ ../../../CORTEX_MPU_M3_NUCLEO_L152RE_GCC/Demo/TimerDemo.c:1233:0
	.fnstart
	.cfi_startproc
@ %bb.0:
	.pad	#4
	sub	sp, #4
	.cfi_def_cfa_offset 4
	str	r0, [sp]
.Ltmp707:
	.loc	3 1238 29 prologue_end          @ ../../../CORTEX_MPU_M3_NUCLEO_L152RE_GCC/Demo/TimerDemo.c:1238:29
	movw	r1, :lower16:ucISROneShotTimerCounter
	movt	r1, :upper16:ucISROneShotTimerCounter
	ldrb	r0, [r1]
	adds	r0, r0, #1
	strb	r0, [r1]
	.loc	3 1239 1                        @ ../../../CORTEX_MPU_M3_NUCLEO_L152RE_GCC/Demo/TimerDemo.c:1239:1
	add	sp, #4
	bx	lr
.Ltmp708:
.Lfunc_end16:
	.size	prvISROneShotTimerCallback, .Lfunc_end16-prvISROneShotTimerCallback
	.cfi_endproc
	.cantunwind
	.fnend
                                        @ -- End function
	.type	vStartTimerDemoTask.xTimerTestTaskStack,%object @ @vStartTimerDemoTask.xTimerTestTaskStack
	.section	.bss.vStartTimerDemoTask.xTimerTestTaskStack,"aw",%nobits
	.p2align	9, 0x0
vStartTimerDemoTask.xTimerTestTaskStack:
	.zero	512
	.size	vStartTimerDemoTask.xTimerTestTaskStack, 512

	.type	.L.str,%object                  @ @.str
	.section	.rodata.str1.1,"aMS",%progbits,1
.L.str:
	.asciz	"Tmr Tst"
	.size	.L.str, 8

	.type	.L__const.vStartTimerDemoTask.xTimerTestTaskParameters,%object @ @__const.vStartTimerDemoTask.xTimerTestTaskParameters
	.section	.rodata..L__const.vStartTimerDemoTask.xTimerTestTaskParameters,"a",%progbits
	.p2align	2, 0x0
.L__const.vStartTimerDemoTask.xTimerTestTaskParameters:
	.long	prvTimerTestTask
	.long	.L.str
	.short	128                             @ 0x80
	.zero	2
	.long	0
	.long	2147483650                      @ 0x80000002
	.long	vStartTimerDemoTask.xTimerTestTaskStack
	.zero	36
	.long	0
	.size	.L__const.vStartTimerDemoTask.xTimerTestTaskParameters, 64

	.type	ucAutoReloadTimerCounters,%object @ @ucAutoReloadTimerCounters
	.section	.bss.ucAutoReloadTimerCounters,"aw",%nobits
	.p2align	5, 0x0
ucAutoReloadTimerCounters:
	.zero	32
	.size	ucAutoReloadTimerCounters, 32

	.type	xAutoReloadTimers,%object       @ @xAutoReloadTimers
	.section	.bss.xAutoReloadTimers,"aw",%nobits
	.p2align	6, 0x0
xAutoReloadTimers:
	.zero	64
	.size	xAutoReloadTimers, 64

	.type	xBasePeriod,%object             @ @xBasePeriod
	.section	.bss.xBasePeriod,"aw",%nobits
	.p2align	5, 0x0
xBasePeriod:
	.zero	32
	.size	xBasePeriod, 32

	.type	.L.str.1,%object                @ @.str.1
	.section	.rodata.str1.1,"aMS",%progbits,1
.L.str.1:
	.asciz	"Oneshot Timer"
	.size	.L.str.1, 14

	.type	xOneShotTimer,%object           @ @xOneShotTimer
	.section	.bss.xOneShotTimer,"aw",%nobits
	.p2align	5, 0x0
xOneShotTimer:
	.zero	32
	.size	xOneShotTimer, 32

	.type	ucIsBacklogDemoEnabled,%object  @ @ucIsBacklogDemoEnabled
	.section	.bss.ucIsBacklogDemoEnabled,"aw",%nobits
	.p2align	5, 0x0
ucIsBacklogDemoEnabled:
	.zero	32
	.size	ucIsBacklogDemoEnabled, 32

	.type	xAreTimerDemoTasksStillRunning.ulLastLoopCounter,%object @ @xAreTimerDemoTasksStillRunning.ulLastLoopCounter
	.section	.bss.xAreTimerDemoTasksStillRunning.ulLastLoopCounter,"aw",%nobits
	.p2align	2, 0x0
xAreTimerDemoTasksStillRunning.ulLastLoopCounter:
	.long	0                               @ 0x0
	.size	xAreTimerDemoTasksStillRunning.ulLastLoopCounter, 4

	.type	xAreTimerDemoTasksStillRunning.xIterationsWithoutCounterIncrement,%object @ @xAreTimerDemoTasksStillRunning.xIterationsWithoutCounterIncrement
	.section	.bss.xAreTimerDemoTasksStillRunning.xIterationsWithoutCounterIncrement,"aw",%nobits
	.p2align	2, 0x0
xAreTimerDemoTasksStillRunning.xIterationsWithoutCounterIncrement:
	.long	0                               @ 0x0
	.size	xAreTimerDemoTasksStillRunning.xIterationsWithoutCounterIncrement, 4

	.type	xAreTimerDemoTasksStillRunning.xLastCycleFrequency,%object @ @xAreTimerDemoTasksStillRunning.xLastCycleFrequency
	.section	.bss.xAreTimerDemoTasksStillRunning.xLastCycleFrequency,"aw",%nobits
	.p2align	2, 0x0
xAreTimerDemoTasksStillRunning.xLastCycleFrequency:
	.long	0                               @ 0x0
	.size	xAreTimerDemoTasksStillRunning.xLastCycleFrequency, 4

	.type	ulLoopCounter,%object           @ @ulLoopCounter
	.section	.bss.ulLoopCounter,"aw",%nobits
	.p2align	5, 0x0
ulLoopCounter:
	.zero	32
	.size	ulLoopCounter, 32

	.type	xTestStatus,%object             @ @xTestStatus
	.section	.data.xTestStatus,"aw",%progbits
	.p2align	5, 0x0
xTestStatus:
	.long	1                               @ 0x1
	.long	0                               @ 0x0
	.long	0                               @ 0x0
	.long	0                               @ 0x0
	.long	0                               @ 0x0
	.long	0                               @ 0x0
	.long	0                               @ 0x0
	.long	0                               @ 0x0
	.size	xTestStatus, 32

	.type	vTimerPeriodicISRTests.uxTick,%object @ @vTimerPeriodicISRTests.uxTick
	.section	.data.vTimerPeriodicISRTests.uxTick,"aw",%progbits
	.p2align	2, 0x0
vTimerPeriodicISRTests.uxTick:
	.long	4294967295                      @ 0xffffffff
	.size	vTimerPeriodicISRTests.uxTick, 4

	.type	ucISRAutoReloadTimerCounter,%object @ @ucISRAutoReloadTimerCounter
	.section	.bss.ucISRAutoReloadTimerCounter,"aw",%nobits
ucISRAutoReloadTimerCounter:
	.byte	0                               @ 0x0
	.size	ucISRAutoReloadTimerCounter, 1

	.type	ucISROneShotTimerCounter,%object @ @ucISROneShotTimerCounter
	.section	.bss.ucISROneShotTimerCounter,"aw",%nobits
ucISROneShotTimerCounter:
	.byte	0                               @ 0x0
	.size	ucISROneShotTimerCounter, 1

	.type	xISRAutoReloadTimer,%object     @ @xISRAutoReloadTimer
	.section	.bss.xISRAutoReloadTimer,"aw",%nobits
	.p2align	2, 0x0
xISRAutoReloadTimer:
	.long	0
	.size	xISRAutoReloadTimer, 4

	.type	xISROneShotTimer,%object        @ @xISROneShotTimer
	.section	.bss.xISROneShotTimer,"aw",%nobits
	.p2align	2, 0x0
xISROneShotTimer:
	.long	0
	.size	xISROneShotTimer, 4

	.type	ucOneShotTimerCounter,%object   @ @ucOneShotTimerCounter
	.section	.bss.ucOneShotTimerCounter,"aw",%nobits
	.p2align	5, 0x0
ucOneShotTimerCounter:
	.zero	32
	.size	ucOneShotTimerCounter, 32

	.type	ucIsStopNeededInTimerZeroCallback,%object @ @ucIsStopNeededInTimerZeroCallback
	.section	.bss.ucIsStopNeededInTimerZeroCallback,"aw",%nobits
ucIsStopNeededInTimerZeroCallback:
	.byte	0                               @ 0x0
	.size	ucIsStopNeededInTimerZeroCallback, 1

	.type	.L.str.2,%object                @ @.str.2
	.section	.rodata.str1.1,"aMS",%progbits,1
.L.str.2:
	.asciz	"FR Timer"
	.size	.L.str.2, 9

	.type	.L.str.3,%object                @ @.str.3
.L.str.3:
	.asciz	"ISR AR"
	.size	.L.str.3, 7

	.type	.L.str.4,%object                @ @.str.4
.L.str.4:
	.asciz	"ISR OS"
	.size	.L.str.4, 7

	.type	prvOneShotTimerCallback.uxCallCount,%object @ @prvOneShotTimerCallback.uxCallCount
	.section	.bss.prvOneShotTimerCallback.uxCallCount,"aw",%nobits
	.p2align	2, 0x0
prvOneShotTimerCallback.uxCallCount:
	.long	0                               @ 0x0
	.size	prvOneShotTimerCallback.uxCallCount, 4

	.file	6 "C:\\Users\\karahulx\\Downloads\\Kernel\\FreeRTOS\\FreeRTOS\\Demo\\CORTEX_MPU_M23_Nuvoton_NuMaker_PFM_M2351_IAR_GCC\\Projects_NTZ\\Keil" "../../../../Source/include/projdefs.h"
	.file	7 "C:\\Users\\karahulx\\Downloads\\Kernel\\FreeRTOS\\FreeRTOS\\Demo\\CORTEX_MPU_M23_Nuvoton_NuMaker_PFM_M2351_IAR_GCC\\Projects_NTZ\\Keil" "../../../../Source/include/task.h"
	.file	8 "C:\\Users\\karahulx\\Downloads\\Kernel\\FreeRTOS\\FreeRTOS\\Demo\\CORTEX_MPU_M23_Nuvoton_NuMaker_PFM_M2351_IAR_GCC\\Projects_NTZ\\Keil" "../../../../Source/include\\FreeRTOS.h"
	.section	".note.GNU-stack","",%progbits
	.eabi_attribute	30, 6	@ Tag_ABI_optimization_goals
	.ARM_attribute	16, 1	@ Tag_AV_eba